
H7oscillo-v1.elf:     file format elf32-littlearm

Sections:
Idx Name          Size      VMA       LMA       File off  Algn
  0 .isr_vector   000001c8  08000000  08000000  00010000  2**0
                  CONTENTS, ALLOC, LOAD, READONLY, DATA
  1 .text         00003100  080001c8  080001c8  000101c8  2**2
                  CONTENTS, ALLOC, LOAD, READONLY, CODE
  2 .rodata       000008a0  080032c8  080032c8  000132c8  2**2
                  CONTENTS, ALLOC, LOAD, READONLY, DATA
  3 .init_array   00000004  08003b68  08003b68  00013b68  2**2
                  CONTENTS, ALLOC, LOAD, DATA
  4 .fini_array   00000004  08003b6c  08003b6c  00013b6c  2**2
                  CONTENTS, ALLOC, LOAD, DATA
  5 .data         00000008  20000000  08003b70  00020000  2**2
                  CONTENTS, ALLOC, LOAD, DATA
  6 .bss          00000658  20000008  08003b78  00020008  2**2
                  ALLOC
  7 ._user_heap_stack 00000600  20000660  08003b78  00020660  2**0
                  ALLOC
  8 .ARM.attributes 00000030  00000000  00000000  00020008  2**0
                  CONTENTS, READONLY
  9 .debug_info   000132c1  00000000  00000000  00020038  2**0
                  CONTENTS, READONLY, DEBUGGING
 10 .debug_abbrev 000018f2  00000000  00000000  000332f9  2**0
                  CONTENTS, READONLY, DEBUGGING
 11 .debug_loc    0000ed1e  00000000  00000000  00034beb  2**0
                  CONTENTS, READONLY, DEBUGGING
 12 .debug_aranges 00000818  00000000  00000000  00043910  2**3
                  CONTENTS, READONLY, DEBUGGING
 13 .debug_ranges 00001f98  00000000  00000000  00044128  2**3
                  CONTENTS, READONLY, DEBUGGING
 14 .debug_macro  0001ee15  00000000  00000000  000460c0  2**0
                  CONTENTS, READONLY, DEBUGGING
 15 .debug_line   00007137  00000000  00000000  00064ed5  2**0
                  CONTENTS, READONLY, DEBUGGING
 16 .debug_str    000b8592  00000000  00000000  0006c00c  2**0
                  CONTENTS, READONLY, DEBUGGING
 17 .comment      0000007c  00000000  00000000  0012459e  2**0
                  CONTENTS, READONLY
 18 .debug_frame  00001b20  00000000  00000000  0012461c  2**2
                  CONTENTS, READONLY, DEBUGGING

Disassembly of section .text:

080001c8 <__do_global_dtors_aux>:
 80001c8:	b510      	push	{r4, lr}
 80001ca:	4c05      	ldr	r4, [pc, #20]	; (80001e0 <__do_global_dtors_aux+0x18>)
 80001cc:	7823      	ldrb	r3, [r4, #0]
 80001ce:	b933      	cbnz	r3, 80001de <__do_global_dtors_aux+0x16>
 80001d0:	4b04      	ldr	r3, [pc, #16]	; (80001e4 <__do_global_dtors_aux+0x1c>)
 80001d2:	b113      	cbz	r3, 80001da <__do_global_dtors_aux+0x12>
 80001d4:	4804      	ldr	r0, [pc, #16]	; (80001e8 <__do_global_dtors_aux+0x20>)
 80001d6:	f3af 8000 	nop.w
 80001da:	2301      	movs	r3, #1
 80001dc:	7023      	strb	r3, [r4, #0]
 80001de:	bd10      	pop	{r4, pc}
 80001e0:	20000008 	.word	0x20000008
 80001e4:	00000000 	.word	0x00000000
 80001e8:	080032b0 	.word	0x080032b0

080001ec <frame_dummy>:
 80001ec:	b508      	push	{r3, lr}
 80001ee:	4b03      	ldr	r3, [pc, #12]	; (80001fc <frame_dummy+0x10>)
 80001f0:	b11b      	cbz	r3, 80001fa <frame_dummy+0xe>
 80001f2:	4903      	ldr	r1, [pc, #12]	; (8000200 <frame_dummy+0x14>)
 80001f4:	4803      	ldr	r0, [pc, #12]	; (8000204 <frame_dummy+0x18>)
 80001f6:	f3af 8000 	nop.w
 80001fa:	bd08      	pop	{r3, pc}
 80001fc:	00000000 	.word	0x00000000
 8000200:	2000000c 	.word	0x2000000c
 8000204:	080032b0 	.word	0x080032b0

08000208 <LL_mDelay>:
  * @param  Delay specifies the delay time length, in milliseconds.
  * @retval None
  */
void LL_mDelay(uint32_t Delay)
{
  __IO uint32_t  tmp = SysTick->CTRL;  /* Clear the COUNTFLAG first */
 8000208:	4b07      	ldr	r3, [pc, #28]	; (8000228 <LL_mDelay+0x20>)
{
 800020a:	b082      	sub	sp, #8
  /* Add this code to indicate that local variable is not used */
  ((void)tmp);

  /* Add a period to guaranty minimum wait */
  if(Delay < LL_MAX_DELAY)
 800020c:	1c42      	adds	r2, r0, #1
    Delay++;
  }

  while (Delay)
  {
    if((SysTick->CTRL & SysTick_CTRL_COUNTFLAG_Msk) != 0U)
 800020e:	4a06      	ldr	r2, [pc, #24]	; (8000228 <LL_mDelay+0x20>)
  __IO uint32_t  tmp = SysTick->CTRL;  /* Clear the COUNTFLAG first */
 8000210:	681b      	ldr	r3, [r3, #0]
    Delay++;
 8000212:	bf18      	it	ne
 8000214:	3001      	addne	r0, #1
  __IO uint32_t  tmp = SysTick->CTRL;  /* Clear the COUNTFLAG first */
 8000216:	9301      	str	r3, [sp, #4]
  ((void)tmp);
 8000218:	9b01      	ldr	r3, [sp, #4]
    if((SysTick->CTRL & SysTick_CTRL_COUNTFLAG_Msk) != 0U)
 800021a:	6813      	ldr	r3, [r2, #0]
 800021c:	03db      	lsls	r3, r3, #15
 800021e:	d5fc      	bpl.n	800021a <LL_mDelay+0x12>
  while (Delay)
 8000220:	3801      	subs	r0, #1
 8000222:	d1fa      	bne.n	800021a <LL_mDelay+0x12>
    {
      Delay--;
    }
  }
}
 8000224:	b002      	add	sp, #8
 8000226:	4770      	bx	lr
 8000228:	e000e010 	.word	0xe000e010

0800022c <pset>:
  */
void pset(UG_S16 x, UG_S16 y, UG_COLOR color)
{
	__IO uint16_t (*pFrame)[LCD_WIDTH] = (uint16_t (*)[LCD_WIDTH])LCD_DRAW_BUFFER_UGUI;

	pFrame[y][x] = color;
 800022c:	ebc1 1101 	rsb	r1, r1, r1, lsl #4
 8000230:	4b02      	ldr	r3, [pc, #8]	; (800023c <pset+0x10>)
 8000232:	eb03 1381 	add.w	r3, r3, r1, lsl #6
 8000236:	f823 2010 	strh.w	r2, [r3, r0, lsl #1]
 800023a:	4770      	bx	lr
 800023c:	c0200000 	.word	0xc0200000

08000240 <clearScreen>:
  * @retval None
  */
void clearScreen(void)
{
	/* wait for any ongoing transfers to complete */
	while(DMA2D->CR & 0x01);
 8000240:	4a0d      	ldr	r2, [pc, #52]	; (8000278 <clearScreen+0x38>)
{
 8000242:	b430      	push	{r4, r5}
	while(DMA2D->CR & 0x01);
 8000244:	6813      	ldr	r3, [r2, #0]
 8000246:	f013 0301 	ands.w	r3, r3, #1
 800024a:	d1fb      	bne.n	8000244 <clearScreen+0x4>

	DMA2D->CR = 0x00030100;					/* reg-memory, transfer error intr enable */
 800024c:	4d0b      	ldr	r5, [pc, #44]	; (800027c <clearScreen+0x3c>)
	DMA2D->OCOLR = C_BLACK;					/* color */

	DMA2D->OMAR	= LCD_FRAME_BUFFER;			/* output addr */
 800024e:	f04f 4440 	mov.w	r4, #3221225472	; 0xc0000000
	DMA2D->OOR = 0; 						/* output offset */
	DMA2D->OPFCCR = 0x02;					/* output format RGB565 */
 8000252:	2002      	movs	r0, #2
	DMA2D->NLR = (LCD_WIDTH)<<16 |			/* frame dimensions */
 8000254:	490a      	ldr	r1, [pc, #40]	; (8000280 <clearScreen+0x40>)
	DMA2D->CR = 0x00030100;					/* reg-memory, transfer error intr enable */
 8000256:	6015      	str	r5, [r2, #0]
	DMA2D->OCOLR = C_BLACK;					/* color */
 8000258:	6393      	str	r3, [r2, #56]	; 0x38
	DMA2D->OMAR	= LCD_FRAME_BUFFER;			/* output addr */
 800025a:	63d4      	str	r4, [r2, #60]	; 0x3c
	DMA2D->OOR = 0; 						/* output offset */
 800025c:	6413      	str	r3, [r2, #64]	; 0x40
	DMA2D->OPFCCR = 0x02;					/* output format RGB565 */
 800025e:	6350      	str	r0, [r2, #52]	; 0x34
	DMA2D->NLR = (LCD_WIDTH)<<16 |			/* frame dimensions */
 8000260:	6451      	str	r1, [r2, #68]	; 0x44
					(LCD_HEIGHT)<<0;

	DMA2D->IFCR |= 0x3F;					/* clear all flags */
 8000262:	6893      	ldr	r3, [r2, #8]
 8000264:	f043 033f 	orr.w	r3, r3, #63	; 0x3f
 8000268:	6093      	str	r3, [r2, #8]
	DMA2D->CR |= 0x01;						/* start transfer */
 800026a:	6813      	ldr	r3, [r2, #0]
 800026c:	f043 0301 	orr.w	r3, r3, #1
}
 8000270:	bc30      	pop	{r4, r5}
	DMA2D->CR |= 0x01;						/* start transfer */
 8000272:	6013      	str	r3, [r2, #0]
}
 8000274:	4770      	bx	lr
 8000276:	bf00      	nop
 8000278:	4002b000 	.word	0x4002b000
 800027c:	00030100 	.word	0x00030100
 8000280:	01e00110 	.word	0x01e00110

08000284 <fillScreenWave>:
  * @retval None
  */
void fillScreenWave(UG_COLOR color)
{
	/* wait for any ongoing transfers to complete */
	while(DMA2D->CR & 0x01);
 8000284:	4a0c      	ldr	r2, [pc, #48]	; (80002b8 <fillScreenWave+0x34>)
{
 8000286:	b470      	push	{r4, r5, r6}
	while(DMA2D->CR & 0x01);
 8000288:	6813      	ldr	r3, [r2, #0]
 800028a:	f013 0301 	ands.w	r3, r3, #1
 800028e:	d1fb      	bne.n	8000288 <fillScreenWave+0x4>

	DMA2D->CR = 0x00030100;					/* reg-memory, transfer error intr enable */
 8000290:	4e0a      	ldr	r6, [pc, #40]	; (80002bc <fillScreenWave+0x38>)
	DMA2D->OCOLR = color;					/* color */

	DMA2D->OMAR	= LCD_DRAW_BUFFER_WAVE;		/* output addr */
	DMA2D->OOR = 0; 						/* output offset */
	DMA2D->OPFCCR = 0x02;					/* output format RGB565 */
 8000292:	2402      	movs	r4, #2
	DMA2D->OMAR	= LCD_DRAW_BUFFER_WAVE;		/* output addr */
 8000294:	4d0a      	ldr	r5, [pc, #40]	; (80002c0 <fillScreenWave+0x3c>)
	DMA2D->NLR = (LCD_WIDTH)<<16 |			/* frame dimensions */
 8000296:	490b      	ldr	r1, [pc, #44]	; (80002c4 <fillScreenWave+0x40>)
	DMA2D->CR = 0x00030100;					/* reg-memory, transfer error intr enable */
 8000298:	6016      	str	r6, [r2, #0]
	DMA2D->OCOLR = color;					/* color */
 800029a:	6390      	str	r0, [r2, #56]	; 0x38
	DMA2D->OMAR	= LCD_DRAW_BUFFER_WAVE;		/* output addr */
 800029c:	63d5      	str	r5, [r2, #60]	; 0x3c
	DMA2D->OOR = 0; 						/* output offset */
 800029e:	6413      	str	r3, [r2, #64]	; 0x40
	DMA2D->OPFCCR = 0x02;					/* output format RGB565 */
 80002a0:	6354      	str	r4, [r2, #52]	; 0x34
	DMA2D->NLR = (LCD_WIDTH)<<16 |			/* frame dimensions */
 80002a2:	6451      	str	r1, [r2, #68]	; 0x44
					(LCD_HEIGHT)<<0;

	DMA2D->IFCR |= 0x3F;					/* clear all flags */
 80002a4:	6893      	ldr	r3, [r2, #8]
 80002a6:	f043 033f 	orr.w	r3, r3, #63	; 0x3f
 80002aa:	6093      	str	r3, [r2, #8]
	DMA2D->CR |= 0x01;						/* start transfer */
 80002ac:	6813      	ldr	r3, [r2, #0]
 80002ae:	f043 0301 	orr.w	r3, r3, #1
}
 80002b2:	bc70      	pop	{r4, r5, r6}
	DMA2D->CR |= 0x01;						/* start transfer */
 80002b4:	6013      	str	r3, [r2, #0]
}
 80002b6:	4770      	bx	lr
 80002b8:	4002b000 	.word	0x4002b000
 80002bc:	00030100 	.word	0x00030100
 80002c0:	c0400000 	.word	0xc0400000
 80002c4:	01e00110 	.word	0x01e00110

080002c8 <fillFrameUGUI>:
  * @param  y2: y end
  * @param  color: color to fill the frame with
  * @retval None
  */
UG_RESULT fillFrameUGUI(UG_S16 x1, UG_S16 y1, UG_S16 x2, UG_S16 y2, UG_COLOR color)
{
 80002c8:	b5f0      	push	{r4, r5, r6, r7, lr}
	/* wait for any ongoing transfers to complete */
	while(DMA2D->CR & 0x01);
 80002ca:	4d18      	ldr	r5, [pc, #96]	; (800032c <fillFrameUGUI+0x64>)
{
 80002cc:	f8bd 6014 	ldrh.w	r6, [sp, #20]
	while(DMA2D->CR & 0x01);
 80002d0:	682c      	ldr	r4, [r5, #0]
 80002d2:	f014 0401 	ands.w	r4, r4, #1
 80002d6:	d1fb      	bne.n	80002d0 <fillFrameUGUI+0x8>

	DMA2D->OMAR	= LCD_DRAW_BUFFER_UGUI +
					2*(y1*LCD_WIDTH + x1);	/* output addr */
	DMA2D->OOR = LCD_WIDTH - (x2 - x1 + 1); /* output offset */
	DMA2D->OPFCCR = 0x02;					/* output format RGB565 */
	DMA2D->NLR = (x2 - x1 + 1)<<16 |		/* frame dimensions */
 80002d8:	1a17      	subs	r7, r2, r0
					(y2 - y1 + 1)<<0;
 80002da:	1a5b      	subs	r3, r3, r1
					2*(y1*LCD_WIDTH + x1);	/* output addr */
 80002dc:	f44f 7ef0 	mov.w	lr, #480	; 0x1e0
	DMA2D->OOR = LCD_WIDTH - (x2 - x1 + 1); /* output offset */
 80002e0:	1a82      	subs	r2, r0, r2
	DMA2D->NLR = (x2 - x1 + 1)<<16 |		/* frame dimensions */
 80002e2:	3701      	adds	r7, #1
					(y2 - y1 + 1)<<0;
 80002e4:	3301      	adds	r3, #1
					2*(y1*LCD_WIDTH + x1);	/* output addr */
 80002e6:	fb11 010e 	smlabb	r1, r1, lr, r0
	DMA2D->OMAR	= LCD_DRAW_BUFFER_UGUI +
 80002ea:	4811      	ldr	r0, [pc, #68]	; (8000330 <fillFrameUGUI+0x68>)
	DMA2D->NLR = (x2 - x1 + 1)<<16 |		/* frame dimensions */
 80002ec:	ea43 4307 	orr.w	r3, r3, r7, lsl #16
	DMA2D->OOR = LCD_WIDTH - (x2 - x1 + 1); /* output offset */
 80002f0:	f202 12df 	addw	r2, r2, #479	; 0x1df
	DMA2D->OMAR	= LCD_DRAW_BUFFER_UGUI +
 80002f4:	eb00 0141 	add.w	r1, r0, r1, lsl #1
	DMA2D_error_flag = 0;					/* clear any existing error */
 80002f8:	f8df e03c 	ldr.w	lr, [pc, #60]	; 8000338 <fillFrameUGUI+0x70>
	DMA2D->CR = 0x00030100;					/* reg-memory, transfer error intr enable */
 80002fc:	4f0d      	ldr	r7, [pc, #52]	; (8000334 <fillFrameUGUI+0x6c>)
	DMA2D->OPFCCR = 0x02;					/* output format RGB565 */
 80002fe:	2002      	movs	r0, #2
	DMA2D_error_flag = 0;					/* clear any existing error */
 8000300:	f88e 4000 	strb.w	r4, [lr]
	DMA2D->CR = 0x00030100;					/* reg-memory, transfer error intr enable */
 8000304:	602f      	str	r7, [r5, #0]
	DMA2D->OCOLR = color;					/* color */
 8000306:	63ae      	str	r6, [r5, #56]	; 0x38
	DMA2D->OMAR	= LCD_DRAW_BUFFER_UGUI +
 8000308:	63e9      	str	r1, [r5, #60]	; 0x3c
	DMA2D->OOR = LCD_WIDTH - (x2 - x1 + 1); /* output offset */
 800030a:	642a      	str	r2, [r5, #64]	; 0x40
	DMA2D->OPFCCR = 0x02;					/* output format RGB565 */
 800030c:	6368      	str	r0, [r5, #52]	; 0x34
	DMA2D->NLR = (x2 - x1 + 1)<<16 |		/* frame dimensions */
 800030e:	646b      	str	r3, [r5, #68]	; 0x44

	DMA2D->IFCR |= 0x3F;					/* clear all flags */
 8000310:	68aa      	ldr	r2, [r5, #8]
	DMA2D->CR |= 0x01;						/* start transfer */

	/* wait for the transfer to complete */
	while(DMA2D->CR & 0x01);
 8000312:	4b06      	ldr	r3, [pc, #24]	; (800032c <fillFrameUGUI+0x64>)
	DMA2D->IFCR |= 0x3F;					/* clear all flags */
 8000314:	f042 023f 	orr.w	r2, r2, #63	; 0x3f
 8000318:	60aa      	str	r2, [r5, #8]
	DMA2D->CR |= 0x01;						/* start transfer */
 800031a:	682a      	ldr	r2, [r5, #0]
 800031c:	f042 0201 	orr.w	r2, r2, #1
 8000320:	602a      	str	r2, [r5, #0]
	while(DMA2D->CR & 0x01);
 8000322:	6818      	ldr	r0, [r3, #0]
 8000324:	f010 0001 	ands.w	r0, r0, #1
 8000328:	d1fb      	bne.n	8000322 <fillFrameUGUI+0x5a>

	return (DMA2D_error_flag ? UG_RESULT_FAIL : UG_RESULT_OK);
}
 800032a:	bdf0      	pop	{r4, r5, r6, r7, pc}
 800032c:	4002b000 	.word	0x4002b000
 8000330:	c0200000 	.word	0xc0200000
 8000334:	00030100 	.word	0x00030100
 8000338:	20000026 	.word	0x20000026

0800033c <drawLineUGUI>:
  * @param  y2: y end
  * @param  color: color of the line
  * @retval None
  */
UG_RESULT drawLineUGUI(UG_S16 x1, UG_S16 y1, UG_S16 x2, UG_S16 y2, UG_COLOR color)
{
 800033c:	e92d 41f0 	stmdb	sp!, {r4, r5, r6, r7, r8, lr}
	/* wait for any ongoing transfers to complete */
	while(DMA2D->CR & 0x01);
 8000340:	4d21      	ldr	r5, [pc, #132]	; (80003c8 <drawLineUGUI+0x8c>)
{
 8000342:	f8bd e018 	ldrh.w	lr, [sp, #24]
	while(DMA2D->CR & 0x01);
 8000346:	682c      	ldr	r4, [r5, #0]
 8000348:	f014 0401 	ands.w	r4, r4, #1
 800034c:	d1fb      	bne.n	8000346 <drawLineUGUI+0xa>

	DMA2D->CR = 0x00030100;					/* reg-memory, transfer error intr enable */
	DMA2D->OPFCCR = 0x02;					/* output format RGB565 */
	DMA2D->OCOLR = color;					/* color */
	DMA2D->OMAR	= LCD_DRAW_BUFFER_UGUI +
					2*(y1*LCD_WIDTH + x1);	/* output addr */
 800034e:	f44f 77f0 	mov.w	r7, #480	; 0x1e0
	DMA2D->OMAR	= LCD_DRAW_BUFFER_UGUI +
 8000352:	4e1e      	ldr	r6, [pc, #120]	; (80003cc <drawLineUGUI+0x90>)
	DMA2D_error_flag = 0;					/* clear any existing error */
 8000354:	f8df 8078 	ldr.w	r8, [pc, #120]	; 80003d0 <drawLineUGUI+0x94>

	if(y1 == y2){
 8000358:	4299      	cmp	r1, r3
					2*(y1*LCD_WIDTH + x1);	/* output addr */
 800035a:	fb11 0707 	smlabb	r7, r1, r7, r0
	DMA2D->CR = 0x00030100;					/* reg-memory, transfer error intr enable */
 800035e:	f8df c074 	ldr.w	ip, [pc, #116]	; 80003d4 <drawLineUGUI+0x98>
	DMA2D_error_flag = 0;					/* clear any existing error */
 8000362:	f888 4000 	strb.w	r4, [r8]
	DMA2D->OMAR	= LCD_DRAW_BUFFER_UGUI +
 8000366:	eb06 0647 	add.w	r6, r6, r7, lsl #1
	DMA2D->OPFCCR = 0x02;					/* output format RGB565 */
 800036a:	f04f 0702 	mov.w	r7, #2
	DMA2D->CR = 0x00030100;					/* reg-memory, transfer error intr enable */
 800036e:	f8c5 c000 	str.w	ip, [r5]
	DMA2D->OPFCCR = 0x02;					/* output format RGB565 */
 8000372:	636f      	str	r7, [r5, #52]	; 0x34
	DMA2D->OCOLR = color;					/* color */
 8000374:	f8c5 e038 	str.w	lr, [r5, #56]	; 0x38
	DMA2D->OMAR	= LCD_DRAW_BUFFER_UGUI +
 8000378:	63ee      	str	r6, [r5, #60]	; 0x3c
	if(y1 == y2){
 800037a:	d019      	beq.n	80003b0 <drawLineUGUI+0x74>
		/* horizontal line */
		DMA2D->OOR = 0; 					/* output offset */
		DMA2D->NLR = (x2 - x1 + 1)<<16 |	/* frame dimensions */
						(1)<<0;
	}
	else if(x1 == x2){
 800037c:	4290      	cmp	r0, r2
 800037e:	d11f      	bne.n	80003c0 <drawLineUGUI+0x84>
		/* vertical line */
		DMA2D->OOR = LCD_WIDTH - 1; 		/* output offset */
		DMA2D->NLR = (1)<<16 |				/* frame dimensions */
						(y2 - y1 + 1)<<0;
 8000380:	1a5b      	subs	r3, r3, r1
		DMA2D->OOR = LCD_WIDTH - 1; 		/* output offset */
 8000382:	f240 12df 	movw	r2, #479	; 0x1df
						(y2 - y1 + 1)<<0;
 8000386:	3301      	adds	r3, #1
		DMA2D->OOR = LCD_WIDTH - 1; 		/* output offset */
 8000388:	642a      	str	r2, [r5, #64]	; 0x40
		DMA2D->NLR = (1)<<16 |				/* frame dimensions */
 800038a:	f443 3380 	orr.w	r3, r3, #65536	; 0x10000
 800038e:	646b      	str	r3, [r5, #68]	; 0x44
	}
	else{
		return UG_RESULT_FAIL;
	}

	DMA2D->IFCR |= 0x3F;					/* clear all flags */
 8000390:	4a0d      	ldr	r2, [pc, #52]	; (80003c8 <drawLineUGUI+0x8c>)
 8000392:	6891      	ldr	r1, [r2, #8]
	DMA2D->CR |= 0x01;						/* start transfer */

	/* wait for the transfer to complete */
	while(DMA2D->CR & 0x01);
 8000394:	4613      	mov	r3, r2
	DMA2D->IFCR |= 0x3F;					/* clear all flags */
 8000396:	f041 013f 	orr.w	r1, r1, #63	; 0x3f
 800039a:	6091      	str	r1, [r2, #8]
	DMA2D->CR |= 0x01;						/* start transfer */
 800039c:	6811      	ldr	r1, [r2, #0]
 800039e:	f041 0101 	orr.w	r1, r1, #1
 80003a2:	6011      	str	r1, [r2, #0]
	while(DMA2D->CR & 0x01);
 80003a4:	6818      	ldr	r0, [r3, #0]
 80003a6:	f010 0001 	ands.w	r0, r0, #1
 80003aa:	d1fb      	bne.n	80003a4 <drawLineUGUI+0x68>
 80003ac:	e8bd 81f0 	ldmia.w	sp!, {r4, r5, r6, r7, r8, pc}
		DMA2D->NLR = (x2 - x1 + 1)<<16 |	/* frame dimensions */
 80003b0:	1a13      	subs	r3, r2, r0
		DMA2D->OOR = 0; 					/* output offset */
 80003b2:	642c      	str	r4, [r5, #64]	; 0x40
		DMA2D->NLR = (x2 - x1 + 1)<<16 |	/* frame dimensions */
 80003b4:	3301      	adds	r3, #1
 80003b6:	041b      	lsls	r3, r3, #16
 80003b8:	f043 0301 	orr.w	r3, r3, #1
 80003bc:	646b      	str	r3, [r5, #68]	; 0x44
 80003be:	e7e7      	b.n	8000390 <drawLineUGUI+0x54>
		return UG_RESULT_FAIL;
 80003c0:	f04f 30ff 	mov.w	r0, #4294967295

	return (DMA2D_error_flag ? UG_RESULT_FAIL : UG_RESULT_OK);
}
 80003c4:	e8bd 81f0 	ldmia.w	sp!, {r4, r5, r6, r7, r8, pc}
 80003c8:	4002b000 	.word	0x4002b000
 80003cc:	c0200000 	.word	0xc0200000
 80003d0:	20000026 	.word	0x20000026
 80003d4:	00030100 	.word	0x00030100

080003d8 <updateToScreen>:
  * @retval None
  */
void updateToScreen(void)
{
	/* wait for any ongoing transfers to complete */
	while(DMA2D->CR & 0x01);
 80003d8:	4a10      	ldr	r2, [pc, #64]	; (800041c <updateToScreen+0x44>)
{
 80003da:	b4f0      	push	{r4, r5, r6, r7}
	while(DMA2D->CR & 0x01);
 80003dc:	6813      	ldr	r3, [r2, #0]
 80003de:	f013 0301 	ands.w	r3, r3, #1
 80003e2:	d1fb      	bne.n	80003dc <updateToScreen+0x4>

	DMA2D->CR = 0x00020100;						/* memory-memory with blending, transfer error intr enable */
 80003e4:	4d0e      	ldr	r5, [pc, #56]	; (8000420 <updateToScreen+0x48>)
	DMA2D->BGMAR = LCD_DRAW_BUFFER_WAVE;		/* background addr */
	DMA2D->BGPFCCR = (0x02<<0) | 				/* background format RGB565 */
					 (0x1<<16) |				/* replace original alpha */
					 (WAVE_FRAME_ALPHA<<24);	/* blending alpha */

	DMA2D->OMAR	= LCD_FRAME_BUFFER;				/* output addr */
 80003e6:	f04f 4440 	mov.w	r4, #3221225472	; 0xc0000000
	DMA2D->FGMAR = LCD_DRAW_BUFFER_UGUI;		/* foreground addr */
 80003ea:	490e      	ldr	r1, [pc, #56]	; (8000424 <updateToScreen+0x4c>)
	DMA2D->OOR = 0; 							/* output offset */
	DMA2D->OPFCCR = 0x02;						/* output format RGB565 */
 80003ec:	2002      	movs	r0, #2
	DMA2D->CR = 0x00020100;						/* memory-memory with blending, transfer error intr enable */
 80003ee:	6015      	str	r5, [r2, #0]
	DMA2D->FGPFCCR = (0x02<<0) | 				/* foreground format RGB565 */
 80003f0:	4f0d      	ldr	r7, [pc, #52]	; (8000428 <updateToScreen+0x50>)
	DMA2D->FGMAR = LCD_DRAW_BUFFER_UGUI;		/* foreground addr */
 80003f2:	60d1      	str	r1, [r2, #12]
	DMA2D->BGMAR = LCD_DRAW_BUFFER_WAVE;		/* background addr */
 80003f4:	4e0d      	ldr	r6, [pc, #52]	; (800042c <updateToScreen+0x54>)
	DMA2D->BGPFCCR = (0x02<<0) | 				/* background format RGB565 */
 80003f6:	4d0e      	ldr	r5, [pc, #56]	; (8000430 <updateToScreen+0x58>)
	DMA2D->NLR = (LCD_WIDTH)<<16 |				/* frame dimensions */
 80003f8:	490e      	ldr	r1, [pc, #56]	; (8000434 <updateToScreen+0x5c>)
	DMA2D->FGPFCCR = (0x02<<0) | 				/* foreground format RGB565 */
 80003fa:	61d7      	str	r7, [r2, #28]
	DMA2D->BGMAR = LCD_DRAW_BUFFER_WAVE;		/* background addr */
 80003fc:	6156      	str	r6, [r2, #20]
	DMA2D->BGPFCCR = (0x02<<0) | 				/* background format RGB565 */
 80003fe:	6255      	str	r5, [r2, #36]	; 0x24
	DMA2D->OMAR	= LCD_FRAME_BUFFER;				/* output addr */
 8000400:	63d4      	str	r4, [r2, #60]	; 0x3c
	DMA2D->OOR = 0; 							/* output offset */
 8000402:	6413      	str	r3, [r2, #64]	; 0x40
	DMA2D->OPFCCR = 0x02;						/* output format RGB565 */
 8000404:	6350      	str	r0, [r2, #52]	; 0x34
	DMA2D->NLR = (LCD_WIDTH)<<16 |				/* frame dimensions */
 8000406:	6451      	str	r1, [r2, #68]	; 0x44
					(LCD_HEIGHT)<<0;

	DMA2D->IFCR |= 0x3F;						/* clear all flags */
 8000408:	6893      	ldr	r3, [r2, #8]
 800040a:	f043 033f 	orr.w	r3, r3, #63	; 0x3f
 800040e:	6093      	str	r3, [r2, #8]
	DMA2D->CR |= 0x01;							/* start transfer */
 8000410:	6813      	ldr	r3, [r2, #0]
 8000412:	f043 0301 	orr.w	r3, r3, #1
}
 8000416:	bcf0      	pop	{r4, r5, r6, r7}
	DMA2D->CR |= 0x01;							/* start transfer */
 8000418:	6013      	str	r3, [r2, #0]
}
 800041a:	4770      	bx	lr
 800041c:	4002b000 	.word	0x4002b000
 8000420:	00020100 	.word	0x00020100
 8000424:	c0200000 	.word	0xc0200000
 8000428:	8f010002 	.word	0x8f010002
 800042c:	c0400000 	.word	0xc0400000
 8000430:	ff010002 	.word	0xff010002
 8000434:	01e00110 	.word	0x01e00110

08000438 <I2C_ReadSingle>:
  * @param  dev_addr: slave address
  * @param  reg: register to be read from
  * @retval Read data
  */
uint8_t I2C_ReadSingle(I2C_TypeDef* bus, uint8_t dev_addr, uint8_t reg)
{
 8000438:	b5f8      	push	{r3, r4, r5, r6, r7, lr}
 800043a:	4604      	mov	r4, r0
 800043c:	460e      	mov	r6, r1
  * @retval None
  */
__STATIC_INLINE void LL_I2C_HandleTransfer(I2C_TypeDef *I2Cx, uint32_t SlaveAddr, uint32_t SlaveAddrSize,
                                           uint32_t TransferSize, uint32_t EndMode, uint32_t Request)
{
  MODIFY_REG(I2Cx->CR2, I2C_CR2_SADD | I2C_CR2_ADD10 | (I2C_CR2_RD_WRN & (uint32_t)(Request >> (31U - I2C_CR2_RD_WRN_Pos))) | I2C_CR2_START | I2C_CR2_STOP | I2C_CR2_RELOAD |
 800043e:	4829      	ldr	r0, [pc, #164]	; (80004e4 <I2C_ReadSingle+0xac>)
 8000440:	4617      	mov	r7, r2
 8000442:	6861      	ldr	r1, [r4, #4]
 8000444:	4b28      	ldr	r3, [pc, #160]	; (80004e8 <I2C_ReadSingle+0xb0>)
 8000446:	4008      	ands	r0, r1
 8000448:	4303      	orrs	r3, r0
 800044a:	4333      	orrs	r3, r6
 800044c:	6063      	str	r3, [r4, #4]

	/* send slave address */
	LL_I2C_HandleTransfer(bus, dev_addr, LL_I2C_ADDRSLAVE_7BIT, 1, LL_I2C_MODE_SOFTEND, LL_I2C_GENERATE_START_WRITE);

	/* wait until TXIS flag is set */
	tickstart = Get_tick();
 800044e:	f001 fa41 	bl	80018d4 <Get_tick>
 8000452:	4605      	mov	r5, r0
	while(!LL_I2C_IsActiveFlag_TXIS(bus)){
 8000454:	e007      	b.n	8000466 <I2C_ReadSingle+0x2e>
  return ((READ_BIT(I2Cx->ISR, I2C_ISR_NACKF) == (I2C_ISR_NACKF)) ? 1UL : 0UL);
 8000456:	69a3      	ldr	r3, [r4, #24]
 8000458:	06db      	lsls	r3, r3, #27
 800045a:	d440      	bmi.n	80004de <I2C_ReadSingle+0xa6>
		/* check if slave acknowledged */
		if(LL_I2C_IsActiveFlag_NACK(bus)){
			return 0xFF;
		}
		if(Get_tick() - tickstart > I2C_TIMEOUT){
 800045c:	f001 fa3a 	bl	80018d4 <Get_tick>
 8000460:	1b40      	subs	r0, r0, r5
 8000462:	280a      	cmp	r0, #10
 8000464:	d83b      	bhi.n	80004de <I2C_ReadSingle+0xa6>
  return ((READ_BIT(I2Cx->ISR, I2C_ISR_TXIS) == (I2C_ISR_TXIS)) ? 1UL : 0UL);
 8000466:	69a3      	ldr	r3, [r4, #24]
 8000468:	079a      	lsls	r2, r3, #30
 800046a:	d5f4      	bpl.n	8000456 <I2C_ReadSingle+0x1e>
  * @param  Data Value between Min_Data=0x00 and Max_Data=0xFF
  * @retval None
  */
__STATIC_INLINE void LL_I2C_TransmitData8(I2C_TypeDef *I2Cx, uint8_t Data)
{
  WRITE_REG(I2Cx->TXDR, Data);
 800046c:	62a7      	str	r7, [r4, #40]	; 0x28

	/* send memory address */
	LL_I2C_TransmitData8(bus, reg);

	/* wait until TXIS flag is set */
	tickstart = Get_tick();
 800046e:	f001 fa31 	bl	80018d4 <Get_tick>
 8000472:	4605      	mov	r5, r0
	while(!LL_I2C_IsActiveFlag_TC(bus)){
 8000474:	e007      	b.n	8000486 <I2C_ReadSingle+0x4e>
  return ((READ_BIT(I2Cx->ISR, I2C_ISR_NACKF) == (I2C_ISR_NACKF)) ? 1UL : 0UL);
 8000476:	69a3      	ldr	r3, [r4, #24]
 8000478:	06d8      	lsls	r0, r3, #27
 800047a:	d430      	bmi.n	80004de <I2C_ReadSingle+0xa6>
		/* check if slave acknowledged */
		if(LL_I2C_IsActiveFlag_NACK(bus)){
			return 0xFF;
		}
		if(Get_tick() - tickstart > I2C_TIMEOUT){
 800047c:	f001 fa2a 	bl	80018d4 <Get_tick>
 8000480:	1b40      	subs	r0, r0, r5
 8000482:	280a      	cmp	r0, #10
 8000484:	d82b      	bhi.n	80004de <I2C_ReadSingle+0xa6>
  return ((READ_BIT(I2Cx->ISR, I2C_ISR_TC) == (I2C_ISR_TC)) ? 1UL : 0UL);
 8000486:	69a3      	ldr	r3, [r4, #24]
 8000488:	065f      	lsls	r7, r3, #25
 800048a:	d5f4      	bpl.n	8000476 <I2C_ReadSingle+0x3e>
  MODIFY_REG(I2Cx->CR2, I2C_CR2_SADD | I2C_CR2_ADD10 | (I2C_CR2_RD_WRN & (uint32_t)(Request >> (31U - I2C_CR2_RD_WRN_Pos))) | I2C_CR2_START | I2C_CR2_STOP | I2C_CR2_RELOAD |
 800048c:	6861      	ldr	r1, [r4, #4]
 800048e:	4a15      	ldr	r2, [pc, #84]	; (80004e4 <I2C_ReadSingle+0xac>)
 8000490:	4b16      	ldr	r3, [pc, #88]	; (80004ec <I2C_ReadSingle+0xb4>)
 8000492:	400a      	ands	r2, r1
 8000494:	4313      	orrs	r3, r2
 8000496:	431e      	orrs	r6, r3
 8000498:	6066      	str	r6, [r4, #4]

	/* send slave address */
	LL_I2C_HandleTransfer(bus, dev_addr, LL_I2C_ADDRSLAVE_7BIT, 1, LL_I2C_MODE_AUTOEND, LL_I2C_GENERATE_START_READ);

	/* wait until RXNE flag is set */
	tickstart = Get_tick();
 800049a:	f001 fa1b 	bl	80018d4 <Get_tick>
 800049e:	4605      	mov	r5, r0
	while(!LL_I2C_IsActiveFlag_RXNE(bus)){
 80004a0:	e007      	b.n	80004b2 <I2C_ReadSingle+0x7a>
  return ((READ_BIT(I2Cx->ISR, I2C_ISR_NACKF) == (I2C_ISR_NACKF)) ? 1UL : 0UL);
 80004a2:	69a3      	ldr	r3, [r4, #24]
 80004a4:	06da      	lsls	r2, r3, #27
 80004a6:	d41a      	bmi.n	80004de <I2C_ReadSingle+0xa6>
		/* check if slave acknowledged */
		if(LL_I2C_IsActiveFlag_NACK(bus)){
			return 0xFF;
		}
		if(Get_tick() - tickstart > I2C_TIMEOUT){
 80004a8:	f001 fa14 	bl	80018d4 <Get_tick>
 80004ac:	1b40      	subs	r0, r0, r5
 80004ae:	280a      	cmp	r0, #10
 80004b0:	d815      	bhi.n	80004de <I2C_ReadSingle+0xa6>
  return ((READ_BIT(I2Cx->ISR, I2C_ISR_RXNE) == (I2C_ISR_RXNE)) ? 1UL : 0UL);
 80004b2:	69a3      	ldr	r3, [r4, #24]
 80004b4:	0759      	lsls	r1, r3, #29
 80004b6:	d5f4      	bpl.n	80004a2 <I2C_ReadSingle+0x6a>
  return (uint8_t)(READ_BIT(I2Cx->RXDR, I2C_RXDR_RXDATA));
 80004b8:	6a65      	ldr	r5, [r4, #36]	; 0x24
	}

	val = LL_I2C_ReceiveData8(bus);

	/* wait for the STOPF flag to be set */
	tickstart = Get_tick();
 80004ba:	f001 fa0b 	bl	80018d4 <Get_tick>
 80004be:	4606      	mov	r6, r0
	while(!LL_I2C_IsActiveFlag_STOP(bus)){
 80004c0:	e004      	b.n	80004cc <I2C_ReadSingle+0x94>
		if(Get_tick() - tickstart > I2C_TIMEOUT){
 80004c2:	f001 fa07 	bl	80018d4 <Get_tick>
 80004c6:	1b80      	subs	r0, r0, r6
 80004c8:	280a      	cmp	r0, #10
 80004ca:	d808      	bhi.n	80004de <I2C_ReadSingle+0xa6>
  return ((READ_BIT(I2Cx->ISR, I2C_ISR_STOPF) == (I2C_ISR_STOPF)) ? 1UL : 0UL);
 80004cc:	69a3      	ldr	r3, [r4, #24]
 80004ce:	069b      	lsls	r3, r3, #26
 80004d0:	d5f7      	bpl.n	80004c2 <I2C_ReadSingle+0x8a>
  SET_BIT(I2Cx->ICR, I2C_ICR_STOPCF);
 80004d2:	69e3      	ldr	r3, [r4, #28]
  return (uint8_t)(READ_BIT(I2Cx->RXDR, I2C_RXDR_RXDATA));
 80004d4:	b2e8      	uxtb	r0, r5
  SET_BIT(I2Cx->ICR, I2C_ICR_STOPCF);
 80004d6:	f043 0320 	orr.w	r3, r3, #32
 80004da:	61e3      	str	r3, [r4, #28]
	}

	/* clear STOPF flag */
	LL_I2C_ClearFlag_STOP(bus);

	return val;
 80004dc:	bdf8      	pop	{r3, r4, r5, r6, r7, pc}
			return 0xFF;
 80004de:	20ff      	movs	r0, #255	; 0xff
 80004e0:	bdf8      	pop	{r3, r4, r5, r6, r7, pc}
 80004e2:	bf00      	nop
 80004e4:	7c008000 	.word	0x7c008000
 80004e8:	80012000 	.word	0x80012000
 80004ec:	82012400 	.word	0x82012400

080004f0 <TimQE_init>:
  * @brief  Configures timer for quadrature encoder operation.
  * @param  None
  * @retval None
  */
void TimQE_init(void)
{
 80004f0:	e92d 41f0 	stmdb	sp!, {r4, r5, r6, r7, r8, lr}
  * @retval None
*/
__STATIC_INLINE void LL_AHB1_GRP1_EnableClock(uint32_t Periphs)
{
  __IO uint32_t tmpreg;
  SET_BIT(RCC->AHB1ENR, Periphs);
 80004f4:	4c6c      	ldr	r4, [pc, #432]	; (80006a8 <TimQE_init+0x1b8>)
 80004f6:	b082      	sub	sp, #8
  *         @arg @ref LL_GPIO_MODE_ANALOG
  * @retval None
  */
__STATIC_INLINE void LL_GPIO_SetPinMode(GPIO_TypeDef *GPIOx, uint32_t Pin, uint32_t Mode)
{
  MODIFY_REG(GPIOx->MODER, (GPIO_MODER_MODER0 << (POSITION_VAL(Pin) * 2U)), (Mode << (POSITION_VAL(Pin) * 2U)));
 80004f8:	4b6c      	ldr	r3, [pc, #432]	; (80006ac <TimQE_init+0x1bc>)
  uint32_t result;

#if ((defined (__ARM_ARCH_7M__      ) && (__ARM_ARCH_7M__      == 1)) || \
     (defined (__ARM_ARCH_7EM__     ) && (__ARM_ARCH_7EM__     == 1)) || \
     (defined (__ARM_ARCH_8M_MAIN__ ) && (__ARM_ARCH_8M_MAIN__ == 1))    )
   __ASM volatile ("rbit %0, %1" : "=r" (result) : "r" (value) );
 80004fa:	2240      	movs	r2, #64	; 0x40
 80004fc:	6b21      	ldr	r1, [r4, #48]	; 0x30
 80004fe:	f041 0104 	orr.w	r1, r1, #4
 8000502:	6321      	str	r1, [r4, #48]	; 0x30
  /* Delay after an RCC peripheral clock enabling */
  tmpreg = READ_BIT(RCC->AHB1ENR, Periphs);
 8000504:	6b21      	ldr	r1, [r4, #48]	; 0x30
 8000506:	f001 0104 	and.w	r1, r1, #4
 800050a:	9101      	str	r1, [sp, #4]
  (void)tmpreg;
 800050c:	9901      	ldr	r1, [sp, #4]
 800050e:	f8d3 e000 	ldr.w	lr, [r3]
 8000512:	fa92 f7a2 	rbit	r7, r2
 8000516:	fab7 f787 	clz	r7, r7
 800051a:	fa92 f6a2 	rbit	r6, r2
 800051e:	2003      	movs	r0, #3
 8000520:	fab6 f686 	clz	r6, r6
 8000524:	007f      	lsls	r7, r7, #1
 8000526:	2502      	movs	r5, #2
 8000528:	0076      	lsls	r6, r6, #1
 800052a:	2180      	movs	r1, #128	; 0x80
 800052c:	fa00 f707 	lsl.w	r7, r0, r7
 8000530:	fa05 f606 	lsl.w	r6, r5, r6
 8000534:	ea2e 0707 	bic.w	r7, lr, r7
 8000538:	433e      	orrs	r6, r7
 800053a:	601e      	str	r6, [r3, #0]
 800053c:	f8d3 e000 	ldr.w	lr, [r3]
 8000540:	fa91 f7a1 	rbit	r7, r1
 8000544:	fab7 f787 	clz	r7, r7
 8000548:	fa91 f6a1 	rbit	r6, r1
 800054c:	fab6 f686 	clz	r6, r6
 8000550:	007f      	lsls	r7, r7, #1
 8000552:	0076      	lsls	r6, r6, #1
 8000554:	fa00 f707 	lsl.w	r7, r0, r7
 8000558:	fa05 f606 	lsl.w	r6, r5, r6
 800055c:	ea2e 0707 	bic.w	r7, lr, r7
 8000560:	433e      	orrs	r6, r7
 8000562:	601e      	str	r6, [r3, #0]
  *         @arg @ref LL_GPIO_SPEED_FREQ_VERY_HIGH
  * @retval None
  */
__STATIC_INLINE void LL_GPIO_SetPinSpeed(GPIO_TypeDef *GPIOx, uint32_t Pin, uint32_t  Speed)
{
  MODIFY_REG(GPIOx->OSPEEDR, (GPIO_OSPEEDER_OSPEEDR0 << (POSITION_VAL(Pin) * 2U)),
 8000564:	f8d3 e008 	ldr.w	lr, [r3, #8]
 8000568:	fa92 f7a2 	rbit	r7, r2
 800056c:	fab7 f787 	clz	r7, r7
 8000570:	fa92 f6a2 	rbit	r6, r2
 8000574:	fab6 f686 	clz	r6, r6
 8000578:	007f      	lsls	r7, r7, #1
 800057a:	0076      	lsls	r6, r6, #1
 800057c:	fa00 f707 	lsl.w	r7, r0, r7
 8000580:	fa05 f606 	lsl.w	r6, r5, r6
 8000584:	ea2e 0707 	bic.w	r7, lr, r7
 8000588:	433e      	orrs	r6, r7
 800058a:	609e      	str	r6, [r3, #8]
 800058c:	f8d3 e008 	ldr.w	lr, [r3, #8]
 8000590:	fa91 f7a1 	rbit	r7, r1
 8000594:	fab7 f787 	clz	r7, r7
 8000598:	fa91 f6a1 	rbit	r6, r1
 800059c:	fab6 f686 	clz	r6, r6
 80005a0:	007f      	lsls	r7, r7, #1
 80005a2:	0076      	lsls	r6, r6, #1
 80005a4:	fa00 f707 	lsl.w	r7, r0, r7
 80005a8:	fa05 f606 	lsl.w	r6, r5, r6
 80005ac:	ea2e 0707 	bic.w	r7, lr, r7
 80005b0:	433e      	orrs	r6, r7
 80005b2:	609e      	str	r6, [r3, #8]
  MODIFY_REG(GPIOx->OTYPER, PinMask, (PinMask * OutputType));
 80005b4:	685e      	ldr	r6, [r3, #4]
 80005b6:	f026 06c0 	bic.w	r6, r6, #192	; 0xc0
 80005ba:	605e      	str	r6, [r3, #4]
  *         @arg @ref LL_GPIO_PULL_DOWN
  * @retval None
  */
__STATIC_INLINE void LL_GPIO_SetPinPull(GPIO_TypeDef *GPIOx, uint32_t Pin, uint32_t Pull)
{
  MODIFY_REG(GPIOx->PUPDR, (GPIO_PUPDR_PUPDR0 << (POSITION_VAL(Pin) * 2U)), (Pull << (POSITION_VAL(Pin) * 2U)));
 80005bc:	f8d3 c00c 	ldr.w	ip, [r3, #12]
 80005c0:	fa92 fea2 	rbit	lr, r2
 80005c4:	fabe fe8e 	clz	lr, lr
 80005c8:	fa92 f7a2 	rbit	r7, r2
 80005cc:	2601      	movs	r6, #1
 80005ce:	fab7 f787 	clz	r7, r7
 80005d2:	ea4f 0e4e 	mov.w	lr, lr, lsl #1
 80005d6:	40b7      	lsls	r7, r6
 80005d8:	fa00 fe0e 	lsl.w	lr, r0, lr
 80005dc:	fa06 f707 	lsl.w	r7, r6, r7
 80005e0:	ea2c 0e0e 	bic.w	lr, ip, lr
 80005e4:	ea4e 0707 	orr.w	r7, lr, r7
 80005e8:	60df      	str	r7, [r3, #12]
 80005ea:	f8d3 c00c 	ldr.w	ip, [r3, #12]
 80005ee:	fa91 fea1 	rbit	lr, r1
 80005f2:	fabe fe8e 	clz	lr, lr
 80005f6:	fa91 f7a1 	rbit	r7, r1
 80005fa:	fa0e fe06 	lsl.w	lr, lr, r6
 80005fe:	fab7 f787 	clz	r7, r7
 8000602:	fa00 fe0e 	lsl.w	lr, r0, lr
 8000606:	40b7      	lsls	r7, r6
 8000608:	ea2c 0e0e 	bic.w	lr, ip, lr
 800060c:	fa06 f707 	lsl.w	r7, r6, r7
 8000610:	ea4e 0707 	orr.w	r7, lr, r7
 8000614:	60df      	str	r7, [r3, #12]
  *         @arg @ref LL_GPIO_AF_15
  * @retval None
  */
__STATIC_INLINE void LL_GPIO_SetAFPin_0_7(GPIO_TypeDef *GPIOx, uint32_t Pin, uint32_t Alternate)
{
  MODIFY_REG(GPIOx->AFR[0], (GPIO_AFRL_AFRL0 << (POSITION_VAL(Pin) * 4U)),
 8000616:	f8d3 c020 	ldr.w	ip, [r3, #32]
 800061a:	fa92 fea2 	rbit	lr, r2
 800061e:	fabe fe8e 	clz	lr, lr
 8000622:	fa92 f2a2 	rbit	r2, r2
 8000626:	270f      	movs	r7, #15
 8000628:	fa0e fe05 	lsl.w	lr, lr, r5
 800062c:	fab2 f282 	clz	r2, r2
 8000630:	fa07 fe0e 	lsl.w	lr, r7, lr
 8000634:	40aa      	lsls	r2, r5
 8000636:	ea2c 0e0e 	bic.w	lr, ip, lr
 800063a:	fa00 f202 	lsl.w	r2, r0, r2
 800063e:	ea4e 0202 	orr.w	r2, lr, r2
 8000642:	621a      	str	r2, [r3, #32]
 8000644:	f8d3 e020 	ldr.w	lr, [r3, #32]
 8000648:	fa91 f8a1 	rbit	r8, r1
 800064c:	fab8 f888 	clz	r8, r8
 8000650:	fa91 f1a1 	rbit	r1, r1
 8000654:	fa08 f805 	lsl.w	r8, r8, r5
 8000658:	fab1 f181 	clz	r1, r1
	LL_GPIO_SetAFPin_0_7(TIM_QE_INP_PORT, TIM_QE_INP1_PIN, LL_GPIO_AF_3);
	LL_GPIO_SetAFPin_0_7(TIM_QE_INP_PORT, TIM_QE_INP2_PIN, LL_GPIO_AF_3);

	/* Configure TIM_QE for encoder mode operation */
	TIM_QE_CLK_ENABLE();
	TIM_QE->CCER &= (uint32_t)~(TIM_CCER_CC1E | TIM_CCER_CC2E);		/* disable CC1 & CC2 */
 800065c:	4a14      	ldr	r2, [pc, #80]	; (80006b0 <TimQE_init+0x1c0>)
	TIM_QE->CCMR1 = 0x00000101;										/* no filter, no prescalar, direct mapping of inputs */
 800065e:	f240 1c01 	movw	ip, #257	; 0x101
 8000662:	40a9      	lsls	r1, r5
 8000664:	fa07 f708 	lsl.w	r7, r7, r8
 8000668:	fa00 f101 	lsl.w	r1, r0, r1
 800066c:	ea2e 0007 	bic.w	r0, lr, r7
 8000670:	4301      	orrs	r1, r0
 8000672:	6219      	str	r1, [r3, #32]
  * @retval None
*/
__STATIC_INLINE void LL_APB2_GRP1_EnableClock(uint32_t Periphs)
{
  __IO uint32_t tmpreg;
  SET_BIT(RCC->APB2ENR, Periphs);
 8000674:	6c63      	ldr	r3, [r4, #68]	; 0x44
 8000676:	432b      	orrs	r3, r5
 8000678:	6463      	str	r3, [r4, #68]	; 0x44
  /* Delay after an RCC peripheral clock enabling */
  tmpreg = READ_BIT(RCC->APB2ENR, Periphs);
 800067a:	6c63      	ldr	r3, [r4, #68]	; 0x44
 800067c:	402b      	ands	r3, r5
 800067e:	9300      	str	r3, [sp, #0]
  (void)tmpreg;
 8000680:	9b00      	ldr	r3, [sp, #0]
	TIM_QE->CCER &= (uint32_t)~(TIM_CCER_CC1E | TIM_CCER_CC2E);		/* disable CC1 & CC2 */
 8000682:	6a13      	ldr	r3, [r2, #32]
 8000684:	f023 0311 	bic.w	r3, r3, #17
 8000688:	6213      	str	r3, [r2, #32]
	TIM_QE->CCMR1 = 0x00000101;										/* no filter, no prescalar, direct mapping of inputs */
 800068a:	f8c2 c018 	str.w	ip, [r2, #24]
	TIM_QE->CCER  = 0x00000002;										/* timer triggered on CC1 falling edge */
 800068e:	6215      	str	r5, [r2, #32]
	TIM_QE->SMCR  = 0x00000001;										/* count up/down on CC1 edge depending on CC2 level */
 8000690:	6096      	str	r6, [r2, #8]
	TIM_QE->CCER |= (uint32_t)(TIM_CCER_CC1E | TIM_CCER_CC2E);		/* enable CC1 & CC2 */
 8000692:	6a13      	ldr	r3, [r2, #32]
 8000694:	f043 0311 	orr.w	r3, r3, #17
 8000698:	6213      	str	r3, [r2, #32]
	TIM_QE->CR1  |= 0x01;											/* start timer */
 800069a:	6813      	ldr	r3, [r2, #0]
 800069c:	4333      	orrs	r3, r6
 800069e:	6013      	str	r3, [r2, #0]
}
 80006a0:	b002      	add	sp, #8
 80006a2:	e8bd 81f0 	ldmia.w	sp!, {r4, r5, r6, r7, r8, pc}
 80006a6:	bf00      	nop
 80006a8:	40023800 	.word	0x40023800
 80006ac:	40020800 	.word	0x40020800
 80006b0:	40010400 	.word	0x40010400

080006b4 <Timers_init>:
{
 80006b4:	b5f0      	push	{r4, r5, r6, r7, lr}
 80006b6:	b083      	sub	sp, #12
		default: div = 0x2D; break;
	}

	TIM_ADC_CLK_ENABLE();
	TIM_ADC->CR1 &= ~(uint32_t)0x01;	/* disable timer */
	TIM_ADC->CR2  = 0x00200000;			/* TRGO2 generated on updates */
 80006b8:	f44f 1500 	mov.w	r5, #2097152	; 0x200000
	TimQE_init();
 80006bc:	f7ff ff18 	bl	80004f0 <TimQE_init>
  SET_BIT(RCC->APB2ENR, Periphs);
 80006c0:	491f      	ldr	r1, [pc, #124]	; (8000740 <Timers_init+0x8c>)
	TIM_ADC->CR1 &= ~(uint32_t)0x01;	/* disable timer */
 80006c2:	4a20      	ldr	r2, [pc, #128]	; (8000744 <Timers_init+0x90>)
	TIM_ADC->PSC  = 0x00;				/* counter_clk = timer_inp_clk/1 = 100MHz/1 = 100MHz */
 80006c4:	2400      	movs	r4, #0
 80006c6:	6c48      	ldr	r0, [r1, #68]	; 0x44
	TIM_ADC->ARR  = div - 1;		    /* default sampling freq = counter_clk/(0x2D) = 2.222MHz */
 80006c8:	f04f 0e2c 	mov.w	lr, #44	; 0x2c
  */
void TimTS_init(void)
{
	/* Configure TIM_TS for 20Hz frequency */
	TIM_TS_CLK_ENABLE();
	TIM_TS->CR1 &= ~(uint32_t)0x01;		/* disable timer */
 80006cc:	4b1e      	ldr	r3, [pc, #120]	; (8000748 <Timers_init+0x94>)
	TIM_TS->PSC  = 10000 - 1;			/* counter_clk = timer_inp_clk/10000 = 100MHz/10000 = 10KHz */
 80006ce:	f242 770f 	movw	r7, #9999	; 0x270f
 80006d2:	f040 0001 	orr.w	r0, r0, #1
	TIM_TS->ARR  = 500 - 1;		    	/* Touch screen polling frequency = counter_clk/500 = 20Hz */
 80006d6:	f240 16f3 	movw	r6, #499	; 0x1f3
 80006da:	6448      	str	r0, [r1, #68]	; 0x44
  tmpreg = READ_BIT(RCC->APB2ENR, Periphs);
 80006dc:	6c48      	ldr	r0, [r1, #68]	; 0x44
 80006de:	f000 0001 	and.w	r0, r0, #1
 80006e2:	9001      	str	r0, [sp, #4]
  (void)tmpreg;
 80006e4:	9801      	ldr	r0, [sp, #4]
	TIM_ADC->CR1 &= ~(uint32_t)0x01;	/* disable timer */
 80006e6:	6810      	ldr	r0, [r2, #0]
 80006e8:	f020 0001 	bic.w	r0, r0, #1
 80006ec:	6010      	str	r0, [r2, #0]
	TIM_ADC->CR2  = 0x00200000;			/* TRGO2 generated on updates */
 80006ee:	6055      	str	r5, [r2, #4]
 */
__STATIC_INLINE void __NVIC_SetPriority(IRQn_Type IRQn, uint32_t priority)
{
  if ((int32_t)(IRQn) >= 0)
  {
    NVIC->IP[((uint32_t)IRQn)]                = (uint8_t)((priority << (8U - __NVIC_PRIO_BITS)) & (uint32_t)0xFFUL);
 80006f0:	2540      	movs	r5, #64	; 0x40
	TIM_ADC->PSC  = 0x00;				/* counter_clk = timer_inp_clk/1 = 100MHz/1 = 100MHz */
 80006f2:	6294      	str	r4, [r2, #40]	; 0x28
    NVIC->ISER[(((uint32_t)IRQn) >> 5UL)] = (uint32_t)(1UL << (((uint32_t)IRQn) & 0x1FUL));
 80006f4:	f04f 4480 	mov.w	r4, #1073741824	; 0x40000000
	TIM_ADC->ARR  = div - 1;		    /* default sampling freq = counter_clk/(0x2D) = 2.222MHz */
 80006f8:	f8c2 e02c 	str.w	lr, [r2, #44]	; 0x2c
	TIM_ADC->CR1 |= 0x01;				/* start timer */
 80006fc:	6810      	ldr	r0, [r2, #0]
 80006fe:	f040 0e01 	orr.w	lr, r0, #1
    NVIC->IP[((uint32_t)IRQn)]                = (uint8_t)((priority << (8U - __NVIC_PRIO_BITS)) & (uint32_t)0xFFUL);
 8000702:	4812      	ldr	r0, [pc, #72]	; (800074c <Timers_init+0x98>)
 8000704:	f8c2 e000 	str.w	lr, [r2]
  SET_BIT(RCC->APB1ENR, Periphs);
 8000708:	6c0a      	ldr	r2, [r1, #64]	; 0x40
 800070a:	f042 0204 	orr.w	r2, r2, #4
 800070e:	640a      	str	r2, [r1, #64]	; 0x40
  tmpreg = READ_BIT(RCC->APB1ENR, Periphs);
 8000710:	6c0a      	ldr	r2, [r1, #64]	; 0x40
 8000712:	f002 0204 	and.w	r2, r2, #4
 8000716:	9200      	str	r2, [sp, #0]
  (void)tmpreg;
 8000718:	9a00      	ldr	r2, [sp, #0]
	TIM_TS->CR1 &= ~(uint32_t)0x01;		/* disable timer */
 800071a:	681a      	ldr	r2, [r3, #0]
 800071c:	f022 0201 	bic.w	r2, r2, #1
 8000720:	601a      	str	r2, [r3, #0]
	TIM_TS->PSC  = 10000 - 1;			/* counter_clk = timer_inp_clk/10000 = 100MHz/10000 = 10KHz */
 8000722:	629f      	str	r7, [r3, #40]	; 0x28
	TIM_TS->ARR  = 500 - 1;		    	/* Touch screen polling frequency = counter_clk/500 = 20Hz */
 8000724:	62de      	str	r6, [r3, #44]	; 0x2c
	TIM_TS->DIER |= 0x01;				/* Enable interrupt on counter overflow */
 8000726:	68da      	ldr	r2, [r3, #12]
 8000728:	f042 0201 	orr.w	r2, r2, #1
 800072c:	60da      	str	r2, [r3, #12]
	TIM_TS->CR1 |= 0x01;				/* start timer */
 800072e:	681a      	ldr	r2, [r3, #0]
 8000730:	f042 0201 	orr.w	r2, r2, #1
 8000734:	601a      	str	r2, [r3, #0]
 8000736:	f880 531e 	strb.w	r5, [r0, #798]	; 0x31e
    NVIC->ISER[(((uint32_t)IRQn) >> 5UL)] = (uint32_t)(1UL << (((uint32_t)IRQn) & 0x1FUL));
 800073a:	6004      	str	r4, [r0, #0]
}
 800073c:	b003      	add	sp, #12
 800073e:	bdf0      	pop	{r4, r5, r6, r7, pc}
 8000740:	40023800 	.word	0x40023800
 8000744:	40010000 	.word	0x40010000
 8000748:	40000800 	.word	0x40000800
 800074c:	e000e100 	.word	0xe000e100

08000750 <TimADC_init>:
{
 8000750:	3801      	subs	r0, #1
 8000752:	b2c0      	uxtb	r0, r0
 8000754:	2805      	cmp	r0, #5
 8000756:	b430      	push	{r4, r5}
 8000758:	b082      	sub	sp, #8
 800075a:	d81f      	bhi.n	800079c <TimADC_init+0x4c>
 800075c:	4b10      	ldr	r3, [pc, #64]	; (80007a0 <TimADC_init+0x50>)
 800075e:	f853 0020 	ldr.w	r0, [r3, r0, lsl #2]
 8000762:	3801      	subs	r0, #1
  SET_BIT(RCC->APB2ENR, Periphs);
 8000764:	4a0f      	ldr	r2, [pc, #60]	; (80007a4 <TimADC_init+0x54>)
	TIM_ADC->CR2  = 0x00200000;			/* TRGO2 generated on updates */
 8000766:	f44f 1500 	mov.w	r5, #2097152	; 0x200000
	TIM_ADC->CR1 &= ~(uint32_t)0x01;	/* disable timer */
 800076a:	4b0f      	ldr	r3, [pc, #60]	; (80007a8 <TimADC_init+0x58>)
	TIM_ADC->PSC  = 0x00;				/* counter_clk = timer_inp_clk/1 = 100MHz/1 = 100MHz */
 800076c:	2400      	movs	r4, #0
 800076e:	6c51      	ldr	r1, [r2, #68]	; 0x44
 8000770:	f041 0101 	orr.w	r1, r1, #1
 8000774:	6451      	str	r1, [r2, #68]	; 0x44
  tmpreg = READ_BIT(RCC->APB2ENR, Periphs);
 8000776:	6c52      	ldr	r2, [r2, #68]	; 0x44
 8000778:	f002 0201 	and.w	r2, r2, #1
 800077c:	9201      	str	r2, [sp, #4]
  (void)tmpreg;
 800077e:	9a01      	ldr	r2, [sp, #4]
	TIM_ADC->CR1 &= ~(uint32_t)0x01;	/* disable timer */
 8000780:	681a      	ldr	r2, [r3, #0]
 8000782:	f022 0201 	bic.w	r2, r2, #1
 8000786:	601a      	str	r2, [r3, #0]
	TIM_ADC->CR2  = 0x00200000;			/* TRGO2 generated on updates */
 8000788:	605d      	str	r5, [r3, #4]
	TIM_ADC->PSC  = 0x00;				/* counter_clk = timer_inp_clk/1 = 100MHz/1 = 100MHz */
 800078a:	629c      	str	r4, [r3, #40]	; 0x28
	TIM_ADC->ARR  = div - 1;		    /* default sampling freq = counter_clk/(0x2D) = 2.222MHz */
 800078c:	62d8      	str	r0, [r3, #44]	; 0x2c
	TIM_ADC->CR1 |= 0x01;				/* start timer */
 800078e:	681a      	ldr	r2, [r3, #0]
 8000790:	f042 0201 	orr.w	r2, r2, #1
 8000794:	601a      	str	r2, [r3, #0]
}
 8000796:	b002      	add	sp, #8
 8000798:	bc30      	pop	{r4, r5}
 800079a:	4770      	bx	lr
{
 800079c:	202c      	movs	r0, #44	; 0x2c
 800079e:	e7e1      	b.n	8000764 <TimADC_init+0x14>
 80007a0:	080032c8 	.word	0x080032c8
 80007a4:	40023800 	.word	0x40023800
 80007a8:	40010000 	.word	0x40010000

080007ac <ADC_Ch2_init>:
  SET_BIT(RCC->AHB1ENR, Periphs);
 80007ac:	4b37      	ldr	r3, [pc, #220]	; (800088c <ADC_Ch2_init+0xe0>)
 80007ae:	f44f 6280 	mov.w	r2, #1024	; 0x400
  */
void ADC_Ch2_init(void)
{
	/* Configure DMA for servicing ADC */
	CH2_ADC_DMA_CLK_ENABLE();
	CH2_ADC_DMA_STREAM->CR  &= ~(uint32_t)0x01;				/* disable stream */
 80007b2:	4937      	ldr	r1, [pc, #220]	; (8000890 <ADC_Ch2_init+0xe4>)
 80007b4:	6b18      	ldr	r0, [r3, #48]	; 0x30
	CH2_ADC_DMA->LIFCR      |= 0x00000F40;					/* clear stream1 flags/errors */

	CH2_ADC_DMA_STREAM->CR = CH2_ADC_DMA_CHANNEL | 			/* ch2, byte-size transfer, high priority,... */
								0x00020500;					/* mem inc, periph-to-mem, TCIE=1, 0x00020500(circular), 0x00020410(normal) */
	CH2_ADC_DMA_STREAM->NDTR = (uint32_t)ADC_BUF_SIZE;		/* transfer size */
	CH2_ADC_DMA_STREAM->PAR  = (uint32_t)&(CH2_ADC->DR);	/* source addr */
 80007b6:	f8df c0f4 	ldr.w	ip, [pc, #244]	; 80008ac <ADC_Ch2_init+0x100>
 80007ba:	f440 0080 	orr.w	r0, r0, #4194304	; 0x400000
{
 80007be:	b5f0      	push	{r4, r5, r6, r7, lr}
 80007c0:	6318      	str	r0, [r3, #48]	; 0x30
 80007c2:	b085      	sub	sp, #20
  tmpreg = READ_BIT(RCC->AHB1ENR, Periphs);
 80007c4:	6b18      	ldr	r0, [r3, #48]	; 0x30
	CH2_ADC_DMA_STREAM->NDTR = (uint32_t)ADC_BUF_SIZE;		/* transfer size */
 80007c6:	f44f 77f0 	mov.w	r7, #480	; 0x1e0
	CH2_ADC_DMA->LIFCR      |= 0x00000F40;					/* clear stream1 flags/errors */
 80007ca:	4d32      	ldr	r5, [pc, #200]	; (8000894 <ADC_Ch2_init+0xe8>)
    NVIC->IP[((uint32_t)IRQn)]                = (uint8_t)((priority << (8U - __NVIC_PRIO_BITS)) & (uint32_t)0xFFUL);
 80007cc:	2620      	movs	r6, #32
 80007ce:	f400 0080 	and.w	r0, r0, #4194304	; 0x400000
	CH2_ADC_DMA_STREAM->CR = CH2_ADC_DMA_CHANNEL | 			/* ch2, byte-size transfer, high priority,... */
 80007d2:	f8df e0dc 	ldr.w	lr, [pc, #220]	; 80008b0 <ADC_Ch2_init+0x104>
    NVIC->ISER[(((uint32_t)IRQn) >> 5UL)] = (uint32_t)(1UL << (((uint32_t)IRQn) & 0x1FUL));
 80007d6:	f04f 7400 	mov.w	r4, #33554432	; 0x2000000
 80007da:	9003      	str	r0, [sp, #12]
  (void)tmpreg;
 80007dc:	9803      	ldr	r0, [sp, #12]
	CH2_ADC_DMA_STREAM->CR  &= ~(uint32_t)0x01;				/* disable stream */
 80007de:	6808      	ldr	r0, [r1, #0]
 80007e0:	f020 0001 	bic.w	r0, r0, #1
 80007e4:	6008      	str	r0, [r1, #0]
	CH2_ADC_DMA->LIFCR      |= 0x00000F40;					/* clear stream1 flags/errors */
 80007e6:	68a8      	ldr	r0, [r5, #8]
 80007e8:	f440 6074 	orr.w	r0, r0, #3904	; 0xf40
 80007ec:	60a8      	str	r0, [r5, #8]
  MODIFY_REG(GPIOx->MODER, (GPIO_MODER_MODER0 << (POSITION_VAL(Pin) * 2U)), (Mode << (POSITION_VAL(Pin) * 2U)));
 80007ee:	f5a5 45a0 	sub.w	r5, r5, #20480	; 0x5000
	CH2_ADC_DMA_STREAM->M0AR = (uint32_t)CH2_ADC_vals;		/* destination addr */
 80007f2:	4829      	ldr	r0, [pc, #164]	; (8000898 <ADC_Ch2_init+0xec>)
	CH2_ADC_DMA_STREAM->CR = CH2_ADC_DMA_CHANNEL | 			/* ch2, byte-size transfer, high priority,... */
 80007f4:	f8c1 e000 	str.w	lr, [r1]
	CH2_ADC_DMA_STREAM->NDTR = (uint32_t)ADC_BUF_SIZE;		/* transfer size */
 80007f8:	604f      	str	r7, [r1, #4]
	CH2_ADC_DMA_STREAM->PAR  = (uint32_t)&(CH2_ADC->DR);	/* source addr */
 80007fa:	f8c1 c008 	str.w	ip, [r1, #8]
	CH2_ADC_DMA_STREAM->M0AR = (uint32_t)CH2_ADC_vals;		/* destination addr */
 80007fe:	60c8      	str	r0, [r1, #12]
	CH2_ADC_DMA_STREAM->CR  |= 0x01;						/* enable stream */
 8000800:	6808      	ldr	r0, [r1, #0]
    NVIC->IP[((uint32_t)IRQn)]                = (uint8_t)((priority << (8U - __NVIC_PRIO_BITS)) & (uint32_t)0xFFUL);
 8000802:	4f26      	ldr	r7, [pc, #152]	; (800089c <ADC_Ch2_init+0xf0>)
 8000804:	f040 0001 	orr.w	r0, r0, #1
 8000808:	6008      	str	r0, [r1, #0]
 800080a:	f887 6339 	strb.w	r6, [r7, #825]	; 0x339
    NVIC->ISER[(((uint32_t)IRQn) >> 5UL)] = (uint32_t)(1UL << (((uint32_t)IRQn) & 0x1FUL));
 800080e:	607c      	str	r4, [r7, #4]
  SET_BIT(RCC->AHB1ENR, Periphs);
 8000810:	6b19      	ldr	r1, [r3, #48]	; 0x30
 8000812:	4331      	orrs	r1, r6
 8000814:	6319      	str	r1, [r3, #48]	; 0x30
  tmpreg = READ_BIT(RCC->AHB1ENR, Periphs);
 8000816:	6b19      	ldr	r1, [r3, #48]	; 0x30
 8000818:	4031      	ands	r1, r6
 800081a:	9102      	str	r1, [sp, #8]
  (void)tmpreg;
 800081c:	9902      	ldr	r1, [sp, #8]
 800081e:	682e      	ldr	r6, [r5, #0]
 8000820:	fa92 f0a2 	rbit	r0, r2
 8000824:	fab0 f080 	clz	r0, r0
 8000828:	fa92 f1a2 	rbit	r1, r2
 800082c:	2703      	movs	r7, #3
 800082e:	fab1 f181 	clz	r1, r1
 8000832:	0040      	lsls	r0, r0, #1
	 */
	CH2_ADC_INP_GPIO_CLK_ENABLE();
	LL_GPIO_SetPinMode(CH2_ADC_INP_GPIO_PORT, CH2_ADC_INP_PIN, LL_GPIO_MODE_ANALOG);

	CH2_ADC_CLK_ENABLE();
	CH2_ADC->CR2 &= ~(uint32_t)0x01;	/* turn off ADC */
 8000834:	4a1a      	ldr	r2, [pc, #104]	; (80008a0 <ADC_Ch2_init+0xf4>)
 8000836:	0049      	lsls	r1, r1, #1

	CH2_ADC->CR1  = 0x02000000;		    /* 8-bits resolution */
	CH2_ADC->CR2  = 0x1A000300;			/* triggered by TIM1 TRGO2, rising edge, DMA enabled, DDS=1, EOCS=0 */
	CH2_ADC->SQR3 = CH2_ADC_CHANNEL;    /* set channel */
	CH2_ADC->SMPR2= LL_ADC_SAMPLINGTIME_3CYCLES << 24U;
 8000838:	f04f 0e00 	mov.w	lr, #0
 800083c:	fa07 f000 	lsl.w	r0, r7, r0
 8000840:	fa07 f101 	lsl.w	r1, r7, r1
	CH2_ADC->CR2  = 0x1A000300;			/* triggered by TIM1 TRGO2, rising edge, DMA enabled, DDS=1, EOCS=0 */
 8000844:	4f17      	ldr	r7, [pc, #92]	; (80008a4 <ADC_Ch2_init+0xf8>)
 8000846:	ea26 0000 	bic.w	r0, r6, r0
	CH2_ADC->SQR3 = CH2_ADC_CHANNEL;    /* set channel */
 800084a:	2608      	movs	r6, #8
 800084c:	4301      	orrs	r1, r0
	ADC->CCR      = 0x00010000;			/* ADCCLK = APB2CLK/4 */

	CH2_ADC->CR2 |= 0x01;				/* turn on ADC */
	LL_mDelay(1);						/* wait for it to stabilize */
 800084e:	2001      	movs	r0, #1
 8000850:	6029      	str	r1, [r5, #0]
	ADC->CCR      = 0x00010000;			/* ADCCLK = APB2CLK/4 */
 8000852:	f44f 3580 	mov.w	r5, #65536	; 0x10000
  SET_BIT(RCC->APB2ENR, Periphs);
 8000856:	6c59      	ldr	r1, [r3, #68]	; 0x44
 8000858:	f441 6180 	orr.w	r1, r1, #1024	; 0x400
 800085c:	6459      	str	r1, [r3, #68]	; 0x44
  tmpreg = READ_BIT(RCC->APB2ENR, Periphs);
 800085e:	6c5b      	ldr	r3, [r3, #68]	; 0x44
 8000860:	4911      	ldr	r1, [pc, #68]	; (80008a8 <ADC_Ch2_init+0xfc>)
 8000862:	f403 6380 	and.w	r3, r3, #1024	; 0x400
 8000866:	9301      	str	r3, [sp, #4]
  (void)tmpreg;
 8000868:	9b01      	ldr	r3, [sp, #4]
	CH2_ADC->CR2 &= ~(uint32_t)0x01;	/* turn off ADC */
 800086a:	6893      	ldr	r3, [r2, #8]
 800086c:	f023 0301 	bic.w	r3, r3, #1
 8000870:	6093      	str	r3, [r2, #8]
	CH2_ADC->CR1  = 0x02000000;		    /* 8-bits resolution */
 8000872:	6054      	str	r4, [r2, #4]
	CH2_ADC->CR2  = 0x1A000300;			/* triggered by TIM1 TRGO2, rising edge, DMA enabled, DDS=1, EOCS=0 */
 8000874:	6097      	str	r7, [r2, #8]
	CH2_ADC->SQR3 = CH2_ADC_CHANNEL;    /* set channel */
 8000876:	6356      	str	r6, [r2, #52]	; 0x34
	CH2_ADC->SMPR2= LL_ADC_SAMPLINGTIME_3CYCLES << 24U;
 8000878:	f8c2 e010 	str.w	lr, [r2, #16]
	ADC->CCR      = 0x00010000;			/* ADCCLK = APB2CLK/4 */
 800087c:	604d      	str	r5, [r1, #4]
	CH2_ADC->CR2 |= 0x01;				/* turn on ADC */
 800087e:	6893      	ldr	r3, [r2, #8]
 8000880:	4303      	orrs	r3, r0
 8000882:	6093      	str	r3, [r2, #8]
	LL_mDelay(1);						/* wait for it to stabilize */
 8000884:	f7ff fcc0 	bl	8000208 <LL_mDelay>
}
 8000888:	b005      	add	sp, #20
 800088a:	bdf0      	pop	{r4, r5, r6, r7, pc}
 800088c:	40023800 	.word	0x40023800
 8000890:	40026428 	.word	0x40026428
 8000894:	40026400 	.word	0x40026400
 8000898:	20000384 	.word	0x20000384
 800089c:	e000e100 	.word	0xe000e100
 80008a0:	40012200 	.word	0x40012200
 80008a4:	1a000300 	.word	0x1a000300
 80008a8:	40012300 	.word	0x40012300
 80008ac:	4001224c 	.word	0x4001224c
 80008b0:	04020500 	.word	0x04020500

080008b4 <ADC_init>:
  SET_BIT(RCC->AHB1ENR, Periphs);
 80008b4:	4b37      	ldr	r3, [pc, #220]	; (8000994 <ADC_init+0xe0>)
 80008b6:	2001      	movs	r0, #1
	CH1_ADC_DMA_STREAM->CR  &= ~(uint32_t)0x01;				/* disable stream */
 80008b8:	4a37      	ldr	r2, [pc, #220]	; (8000998 <ADC_init+0xe4>)
 80008ba:	6b19      	ldr	r1, [r3, #48]	; 0x30
	CH1_ADC_DMA_STREAM->PAR  = (uint32_t)&(CH1_ADC->DR);	/* source addr */
 80008bc:	f8df c0f0 	ldr.w	ip, [pc, #240]	; 80009b0 <ADC_init+0xfc>
 80008c0:	f441 0180 	orr.w	r1, r1, #4194304	; 0x400000
{
 80008c4:	b5f0      	push	{r4, r5, r6, r7, lr}
 80008c6:	6319      	str	r1, [r3, #48]	; 0x30
 80008c8:	b085      	sub	sp, #20
  tmpreg = READ_BIT(RCC->AHB1ENR, Periphs);
 80008ca:	6b19      	ldr	r1, [r3, #48]	; 0x30
	CH1_ADC_DMA_STREAM->NDTR = (uint32_t)ADC_BUF_SIZE;		/* transfer size */
 80008cc:	f44f 77f0 	mov.w	r7, #480	; 0x1e0
	CH1_ADC_DMA->LIFCR      |= 0x0000003D;					/* clear stream0 flags/errors */
 80008d0:	4e32      	ldr	r6, [pc, #200]	; (800099c <ADC_init+0xe8>)
    NVIC->IP[((uint32_t)IRQn)]                = (uint8_t)((priority << (8U - __NVIC_PRIO_BITS)) & (uint32_t)0xFFUL);
 80008d2:	2520      	movs	r5, #32
 80008d4:	f401 0180 	and.w	r1, r1, #4194304	; 0x400000
	CH1_ADC_DMA_STREAM->CR = CH1_ADC_DMA_CHANNEL | 			/* ch0, byte-size transfer, high priority,... */
 80008d8:	f8df e0d8 	ldr.w	lr, [pc, #216]	; 80009b4 <ADC_init+0x100>
    NVIC->ISER[(((uint32_t)IRQn) >> 5UL)] = (uint32_t)(1UL << (((uint32_t)IRQn) & 0x1FUL));
 80008dc:	f04f 7480 	mov.w	r4, #16777216	; 0x1000000
 80008e0:	9101      	str	r1, [sp, #4]
  (void)tmpreg;
 80008e2:	9901      	ldr	r1, [sp, #4]
	CH1_ADC_DMA_STREAM->CR  &= ~(uint32_t)0x01;				/* disable stream */
 80008e4:	6811      	ldr	r1, [r2, #0]
 80008e6:	f021 0101 	bic.w	r1, r1, #1
 80008ea:	6011      	str	r1, [r2, #0]
	CH1_ADC_DMA->LIFCR      |= 0x0000003D;					/* clear stream0 flags/errors */
 80008ec:	68b1      	ldr	r1, [r6, #8]
 80008ee:	f041 013d 	orr.w	r1, r1, #61	; 0x3d
 80008f2:	60b1      	str	r1, [r6, #8]
 80008f4:	f5a6 46c8 	sub.w	r6, r6, #25600	; 0x6400
	CH1_ADC_DMA_STREAM->M0AR = (uint32_t)CH1_ADC_vals;		/* destination addr */
 80008f8:	4929      	ldr	r1, [pc, #164]	; (80009a0 <ADC_init+0xec>)
	CH1_ADC_DMA_STREAM->CR = CH1_ADC_DMA_CHANNEL | 			/* ch0, byte-size transfer, high priority,... */
 80008fa:	f8c2 e000 	str.w	lr, [r2]
	CH1_ADC_DMA_STREAM->NDTR = (uint32_t)ADC_BUF_SIZE;		/* transfer size */
 80008fe:	6057      	str	r7, [r2, #4]
	CH1_ADC_DMA_STREAM->PAR  = (uint32_t)&(CH1_ADC->DR);	/* source addr */
 8000900:	f8c2 c008 	str.w	ip, [r2, #8]
	CH1_ADC_DMA_STREAM->M0AR = (uint32_t)CH1_ADC_vals;		/* destination addr */
 8000904:	60d1      	str	r1, [r2, #12]
	CH1_ADC_DMA_STREAM->CR  |= 0x01;						/* enable stream */
 8000906:	6811      	ldr	r1, [r2, #0]
    NVIC->IP[((uint32_t)IRQn)]                = (uint8_t)((priority << (8U - __NVIC_PRIO_BITS)) & (uint32_t)0xFFUL);
 8000908:	4f26      	ldr	r7, [pc, #152]	; (80009a4 <ADC_init+0xf0>)
 800090a:	4301      	orrs	r1, r0
 800090c:	6011      	str	r1, [r2, #0]
 800090e:	f887 5338 	strb.w	r5, [r7, #824]	; 0x338
    NVIC->ISER[(((uint32_t)IRQn) >> 5UL)] = (uint32_t)(1UL << (((uint32_t)IRQn) & 0x1FUL));
 8000912:	607c      	str	r4, [r7, #4]
  SET_BIT(RCC->AHB1ENR, Periphs);
 8000914:	6b1a      	ldr	r2, [r3, #48]	; 0x30
 8000916:	4302      	orrs	r2, r0
 8000918:	631a      	str	r2, [r3, #48]	; 0x30
  tmpreg = READ_BIT(RCC->AHB1ENR, Periphs);
 800091a:	6b1a      	ldr	r2, [r3, #48]	; 0x30
 800091c:	4002      	ands	r2, r0
 800091e:	9202      	str	r2, [sp, #8]
  (void)tmpreg;
 8000920:	9a02      	ldr	r2, [sp, #8]
 8000922:	6834      	ldr	r4, [r6, #0]
 8000924:	fa90 f1a0 	rbit	r1, r0
 8000928:	fab1 f181 	clz	r1, r1
 800092c:	fa90 f5a0 	rbit	r5, r0
 8000930:	2703      	movs	r7, #3
 8000932:	4081      	lsls	r1, r0
 8000934:	fab5 f585 	clz	r5, r5
	CH1_ADC->CR2 &= ~(uint32_t)0x01;	/* turn off ADC */
 8000938:	4a1b      	ldr	r2, [pc, #108]	; (80009a8 <ADC_init+0xf4>)
 800093a:	fa07 f101 	lsl.w	r1, r7, r1
	ADC->CCR      = 0x00010000;			/* ADCCLK = APB2CLK/4 */
 800093e:	f44f 3e80 	mov.w	lr, #65536	; 0x10000
 8000942:	4085      	lsls	r5, r0
 8000944:	ea24 0101 	bic.w	r1, r4, r1
	CH1_ADC->CR2  = 0x1A000300;			/* triggered by TIM1 TRGO2, rising edge, DMA enabled, DDS=1, EOCS=0 */
 8000948:	4c18      	ldr	r4, [pc, #96]	; (80009ac <ADC_init+0xf8>)
 800094a:	fa07 f505 	lsl.w	r5, r7, r5
	CH1_ADC->CR1  = 0x02000000;		    /* 8-bits resolution */
 800094e:	f04f 7700 	mov.w	r7, #33554432	; 0x2000000
 8000952:	4329      	orrs	r1, r5
	CH1_ADC->SQR3 = CH1_ADC_CHANNEL;    /* set channel */
 8000954:	2500      	movs	r5, #0
 8000956:	6031      	str	r1, [r6, #0]
	ADC->CCR      = 0x00010000;			/* ADCCLK = APB2CLK/4 */
 8000958:	f5a6 465d 	sub.w	r6, r6, #56576	; 0xdd00
  SET_BIT(RCC->APB2ENR, Periphs);
 800095c:	6c59      	ldr	r1, [r3, #68]	; 0x44
 800095e:	f441 7180 	orr.w	r1, r1, #256	; 0x100
 8000962:	6459      	str	r1, [r3, #68]	; 0x44
  tmpreg = READ_BIT(RCC->APB2ENR, Periphs);
 8000964:	6c5b      	ldr	r3, [r3, #68]	; 0x44
 8000966:	f403 7380 	and.w	r3, r3, #256	; 0x100
 800096a:	9303      	str	r3, [sp, #12]
  (void)tmpreg;
 800096c:	9b03      	ldr	r3, [sp, #12]
	CH1_ADC->CR2 &= ~(uint32_t)0x01;	/* turn off ADC */
 800096e:	6893      	ldr	r3, [r2, #8]
 8000970:	f023 0301 	bic.w	r3, r3, #1
 8000974:	6093      	str	r3, [r2, #8]
	CH1_ADC->CR1  = 0x02000000;		    /* 8-bits resolution */
 8000976:	6057      	str	r7, [r2, #4]
	CH1_ADC->CR2  = 0x1A000300;			/* triggered by TIM1 TRGO2, rising edge, DMA enabled, DDS=1, EOCS=0 */
 8000978:	6094      	str	r4, [r2, #8]
	CH1_ADC->SQR3 = CH1_ADC_CHANNEL;    /* set channel */
 800097a:	6355      	str	r5, [r2, #52]	; 0x34
	CH1_ADC->SMPR2= LL_ADC_SAMPLINGTIME_3CYCLES << 0U;
 800097c:	6115      	str	r5, [r2, #16]
	ADC->CCR      = 0x00010000;			/* ADCCLK = APB2CLK/4 */
 800097e:	f8c6 e004 	str.w	lr, [r6, #4]
	CH1_ADC->CR2 |= 0x01;				/* turn on ADC */
 8000982:	6893      	ldr	r3, [r2, #8]
 8000984:	4303      	orrs	r3, r0
 8000986:	6093      	str	r3, [r2, #8]
	LL_mDelay(1);						/* wait for it to stabilize */
 8000988:	f7ff fc3e 	bl	8000208 <LL_mDelay>
	ADC_Ch2_init();
 800098c:	f7ff ff0e 	bl	80007ac <ADC_Ch2_init>
}
 8000990:	b005      	add	sp, #20
 8000992:	bdf0      	pop	{r4, r5, r6, r7, pc}
 8000994:	40023800 	.word	0x40023800
 8000998:	40026410 	.word	0x40026410
 800099c:	40026400 	.word	0x40026400
 80009a0:	20000048 	.word	0x20000048
 80009a4:	e000e100 	.word	0xe000e100
 80009a8:	40012000 	.word	0x40012000
 80009ac:	1a000300 	.word	0x1a000300
 80009b0:	4001204c 	.word	0x4001204c
 80009b4:	00020500 	.word	0x00020500

080009b8 <LEDs_Buttons_init>:
  SET_BIT(RCC->AHB1ENR, Periphs);
 80009b8:	4b82      	ldr	r3, [pc, #520]	; (8000bc4 <LEDs_Buttons_init+0x20c>)
 80009ba:	4983      	ldr	r1, [pc, #524]	; (8000bc8 <LEDs_Buttons_init+0x210>)
 80009bc:	6b1a      	ldr	r2, [r3, #48]	; 0x30
 80009be:	f442 7280 	orr.w	r2, r2, #256	; 0x100
  * @brief  Configures all LEDs and Buttons needed for application.
  * @param  None
  * @retval None
  */
void LEDs_Buttons_init(void)
{
 80009c2:	e92d 47f0 	stmdb	sp!, {r4, r5, r6, r7, r8, r9, sl, lr}
 80009c6:	631a      	str	r2, [r3, #48]	; 0x30
 80009c8:	b086      	sub	sp, #24
  tmpreg = READ_BIT(RCC->AHB1ENR, Periphs);
 80009ca:	6b1a      	ldr	r2, [r3, #48]	; 0x30
 80009cc:	2502      	movs	r5, #2
 80009ce:	f402 7280 	and.w	r2, r2, #256	; 0x100
 80009d2:	9205      	str	r2, [sp, #20]
  (void)tmpreg;
 80009d4:	9a05      	ldr	r2, [sp, #20]
 80009d6:	680e      	ldr	r6, [r1, #0]
 80009d8:	fa95 f4a5 	rbit	r4, r5
 80009dc:	fab4 f484 	clz	r4, r4
 80009e0:	fa95 f0a5 	rbit	r0, r5
 80009e4:	f04f 0e01 	mov.w	lr, #1
 80009e8:	2203      	movs	r2, #3
 80009ea:	fab0 f080 	clz	r0, r0
 80009ee:	0064      	lsls	r4, r4, #1
 80009f0:	fa00 f00e 	lsl.w	r0, r0, lr
 80009f4:	fa02 f404 	lsl.w	r4, r2, r4
 80009f8:	fa0e f000 	lsl.w	r0, lr, r0
 80009fc:	ea26 0404 	bic.w	r4, r6, r4
 8000a00:	4320      	orrs	r0, r4
 8000a02:	6008      	str	r0, [r1, #0]
  MODIFY_REG(GPIOx->OSPEEDR, (GPIO_OSPEEDER_OSPEEDR0 << (POSITION_VAL(Pin) * 2U)),
 8000a04:	688c      	ldr	r4, [r1, #8]
 8000a06:	fa95 f0a5 	rbit	r0, r5
 8000a0a:	fab0 f080 	clz	r0, r0
 8000a0e:	fa00 f00e 	lsl.w	r0, r0, lr
 8000a12:	fa02 f000 	lsl.w	r0, r2, r0
 8000a16:	ea24 0000 	bic.w	r0, r4, r0
 8000a1a:	fa95 f5a5 	rbit	r5, r5
 8000a1e:	6088      	str	r0, [r1, #8]
  *         @arg @ref LL_GPIO_PIN_ALL
  * @retval None
  */
__STATIC_INLINE void LL_GPIO_ResetOutputPin(GPIO_TypeDef *GPIOx, uint32_t PinMask)
{
  WRITE_REG(GPIOx->BSRR, (PinMask << 16));
 8000a20:	f44f 3500 	mov.w	r5, #131072	; 0x20000
  MODIFY_REG(GPIOx->OTYPER, PinMask, (PinMask * OutputType));
 8000a24:	6848      	ldr	r0, [r1, #4]
 8000a26:	f44f 6400 	mov.w	r4, #2048	; 0x800
 8000a2a:	f020 0002 	bic.w	r0, r0, #2
 8000a2e:	6048      	str	r0, [r1, #4]
  WRITE_REG(GPIOx->BSRR, (PinMask << 16));
 8000a30:	618d      	str	r5, [r1, #24]
  SET_BIT(RCC->AHB1ENR, Periphs);
 8000a32:	6b18      	ldr	r0, [r3, #48]	; 0x30
 8000a34:	f440 7080 	orr.w	r0, r0, #256	; 0x100
 8000a38:	6318      	str	r0, [r3, #48]	; 0x30
  tmpreg = READ_BIT(RCC->AHB1ENR, Periphs);
 8000a3a:	6b18      	ldr	r0, [r3, #48]	; 0x30
 8000a3c:	f400 7080 	and.w	r0, r0, #256	; 0x100
 8000a40:	9004      	str	r0, [sp, #16]
  (void)tmpreg;
 8000a42:	9804      	ldr	r0, [sp, #16]
  MODIFY_REG(GPIOx->MODER, (GPIO_MODER_MODER0 << (POSITION_VAL(Pin) * 2U)), (Mode << (POSITION_VAL(Pin) * 2U)));
 8000a44:	680d      	ldr	r5, [r1, #0]
 8000a46:	fa94 f0a4 	rbit	r0, r4
 8000a4a:	fab0 f080 	clz	r0, r0
 8000a4e:	fa00 f00e 	lsl.w	r0, r0, lr
 8000a52:	fa02 f000 	lsl.w	r0, r2, r0
 8000a56:	ea25 0000 	bic.w	r0, r5, r0
 8000a5a:	fa94 f5a4 	rbit	r5, r4
 8000a5e:	6008      	str	r0, [r1, #0]
  MODIFY_REG(GPIOx->OSPEEDR, (GPIO_OSPEEDER_OSPEEDR0 << (POSITION_VAL(Pin) * 2U)),
 8000a60:	688e      	ldr	r6, [r1, #8]
 8000a62:	fa94 f5a4 	rbit	r5, r4
 8000a66:	fab5 f585 	clz	r5, r5
 8000a6a:	fa94 f0a4 	rbit	r0, r4
 8000a6e:	fa05 f50e 	lsl.w	r5, r5, lr
 8000a72:	fab0 f080 	clz	r0, r0
  *         @arg @ref LL_SYSCFG_EXTI_LINE15
  * @retval None
  */
__STATIC_INLINE void LL_SYSCFG_SetEXTISource(uint32_t Port, uint32_t Line)
{
  MODIFY_REG(SYSCFG->EXTICR[Line & 0xFFU], (Line >> 16U), Port << POSITION_VAL((Line >> 16U)));
 8000a76:	4f55      	ldr	r7, [pc, #340]	; (8000bcc <LEDs_Buttons_init+0x214>)
 8000a78:	f44f 4870 	mov.w	r8, #61440	; 0xf000
 8000a7c:	fa00 f00e 	lsl.w	r0, r0, lr
 8000a80:	fa02 f505 	lsl.w	r5, r2, r5
 8000a84:	fa02 f000 	lsl.w	r0, r2, r0
 8000a88:	ea26 0505 	bic.w	r5, r6, r5
 8000a8c:	4328      	orrs	r0, r5
 8000a8e:	6088      	str	r0, [r1, #8]
  SET_BIT(RCC->APB2ENR, Periphs);
 8000a90:	6c59      	ldr	r1, [r3, #68]	; 0x44
 8000a92:	f441 4180 	orr.w	r1, r1, #16384	; 0x4000
 8000a96:	6459      	str	r1, [r3, #68]	; 0x44
  tmpreg = READ_BIT(RCC->APB2ENR, Periphs);
 8000a98:	6c59      	ldr	r1, [r3, #68]	; 0x44
 8000a9a:	f401 4180 	and.w	r1, r1, #16384	; 0x4000
 8000a9e:	9103      	str	r1, [sp, #12]
  (void)tmpreg;
 8000aa0:	9903      	ldr	r1, [sp, #12]
 8000aa2:	6939      	ldr	r1, [r7, #16]
 8000aa4:	fa98 f0a8 	rbit	r0, r8
 8000aa8:	2508      	movs	r5, #8
 8000aaa:	fab0 f080 	clz	r0, r0
 8000aae:	f421 4870 	bic.w	r8, r1, #61440	; 0xf000
  * @note   Please check each device line mapping for EXTI Line availability
  * @retval None
  */
__STATIC_INLINE void LL_EXTI_EnableIT_0_31(uint32_t ExtiLine)
{
  SET_BIT(EXTI->IMR, ExtiLine);
 8000ab2:	4947      	ldr	r1, [pc, #284]	; (8000bd0 <LEDs_Buttons_init+0x218>)
 8000ab4:	fa05 f000 	lsl.w	r0, r5, r0
    NVIC->IP[((uint32_t)IRQn)]                = (uint8_t)((priority << (8U - __NVIC_PRIO_BITS)) & (uint32_t)0xFFUL);
 8000ab8:	4e46      	ldr	r6, [pc, #280]	; (8000bd4 <LEDs_Buttons_init+0x21c>)
 8000aba:	f04f 0ce0 	mov.w	ip, #224	; 0xe0
    NVIC->ISER[(((uint32_t)IRQn) >> 5UL)] = (uint32_t)(1UL << (((uint32_t)IRQn) & 0x1FUL));
 8000abe:	f44f 7980 	mov.w	r9, #256	; 0x100
 8000ac2:	ea48 0800 	orr.w	r8, r8, r0
 8000ac6:	2040      	movs	r0, #64	; 0x40
  MODIFY_REG(GPIOx->MODER, (GPIO_MODER_MODER0 << (POSITION_VAL(Pin) * 2U)), (Mode << (POSITION_VAL(Pin) * 2U)));
 8000ac8:	4d43      	ldr	r5, [pc, #268]	; (8000bd8 <LEDs_Buttons_init+0x220>)
 8000aca:	f8c7 8010 	str.w	r8, [r7, #16]
 8000ace:	f8d1 8000 	ldr.w	r8, [r1]
 8000ad2:	ea48 0804 	orr.w	r8, r8, r4
 8000ad6:	f8c1 8000 	str.w	r8, [r1]
  * @note   Please check each device line mapping for EXTI Line availability
  * @retval None
  */
__STATIC_INLINE void LL_EXTI_EnableFallingTrig_0_31(uint32_t ExtiLine)
{
  SET_BIT(EXTI->FTSR, ExtiLine);
 8000ada:	f8d1 800c 	ldr.w	r8, [r1, #12]
 8000ade:	ea48 0804 	orr.w	r8, r8, r4
 8000ae2:	f8c1 800c 	str.w	r8, [r1, #12]
  * @note   Please check each device line mapping for EXTI Line availability
  * @retval None
  */
__STATIC_INLINE void LL_EXTI_ClearFlag_0_31(uint32_t ExtiLine)
{
  WRITE_REG(EXTI->PR, ExtiLine);
 8000ae6:	614c      	str	r4, [r1, #20]
    NVIC->IP[((uint32_t)IRQn)]                = (uint8_t)((priority << (8U - __NVIC_PRIO_BITS)) & (uint32_t)0xFFUL);
 8000ae8:	f886 c328 	strb.w	ip, [r6, #808]	; 0x328
    NVIC->ISER[(((uint32_t)IRQn) >> 5UL)] = (uint32_t)(1UL << (((uint32_t)IRQn) & 0x1FUL));
 8000aec:	f8c6 9004 	str.w	r9, [r6, #4]
  SET_BIT(RCC->AHB1ENR, Periphs);
 8000af0:	6b1c      	ldr	r4, [r3, #48]	; 0x30
 8000af2:	4304      	orrs	r4, r0
 8000af4:	631c      	str	r4, [r3, #48]	; 0x30
  tmpreg = READ_BIT(RCC->AHB1ENR, Periphs);
 8000af6:	6b1c      	ldr	r4, [r3, #48]	; 0x30
 8000af8:	4004      	ands	r4, r0
 8000afa:	9402      	str	r4, [sp, #8]
  (void)tmpreg;
 8000afc:	9c02      	ldr	r4, [sp, #8]
 8000afe:	f8d5 8000 	ldr.w	r8, [r5]
 8000b02:	fa90 f4a0 	rbit	r4, r0
 8000b06:	fab4 f484 	clz	r4, r4
 8000b0a:	fa04 f40e 	lsl.w	r4, r4, lr
 8000b0e:	fa02 f404 	lsl.w	r4, r2, r4
 8000b12:	ea28 0404 	bic.w	r4, r8, r4
 8000b16:	fa90 f8a0 	rbit	r8, r0
 8000b1a:	602c      	str	r4, [r5, #0]
  MODIFY_REG(GPIOx->OSPEEDR, (GPIO_OSPEEDER_OSPEEDR0 << (POSITION_VAL(Pin) * 2U)),
 8000b1c:	f8d5 8008 	ldr.w	r8, [r5, #8]
 8000b20:	fa90 f9a0 	rbit	r9, r0
 8000b24:	fab9 f989 	clz	r9, r9
 8000b28:	fa90 f4a0 	rbit	r4, r0
 8000b2c:	fa09 f90e 	lsl.w	r9, r9, lr
 8000b30:	fab4 f484 	clz	r4, r4
 8000b34:	fa02 f909 	lsl.w	r9, r2, r9
 8000b38:	fa04 f40e 	lsl.w	r4, r4, lr
 8000b3c:	ea28 0809 	bic.w	r8, r8, r9
 8000b40:	fa02 f404 	lsl.w	r4, r2, r4
 8000b44:	ea48 0404 	orr.w	r4, r8, r4
 8000b48:	60ac      	str	r4, [r5, #8]
  MODIFY_REG(GPIOx->PUPDR, (GPIO_PUPDR_PUPDR0 << (POSITION_VAL(Pin) * 2U)), (Pull << (POSITION_VAL(Pin) * 2U)));
 8000b4a:	f8d5 800c 	ldr.w	r8, [r5, #12]
 8000b4e:	fa90 faa0 	rbit	sl, r0
 8000b52:	faba fa8a 	clz	sl, sl
 8000b56:	fa90 f9a0 	rbit	r9, r0
 8000b5a:	fa0a fa0e 	lsl.w	sl, sl, lr
 8000b5e:	fab9 f989 	clz	r9, r9
 8000b62:	f44f 6470 	mov.w	r4, #3840	; 0xf00
 8000b66:	fa09 f90e 	lsl.w	r9, r9, lr
 8000b6a:	fa02 f20a 	lsl.w	r2, r2, sl
 8000b6e:	fa0e fe09 	lsl.w	lr, lr, r9
 8000b72:	ea28 0202 	bic.w	r2, r8, r2
 8000b76:	ea42 020e 	orr.w	r2, r2, lr
 8000b7a:	60ea      	str	r2, [r5, #12]
  SET_BIT(RCC->APB2ENR, Periphs);
 8000b7c:	6c5a      	ldr	r2, [r3, #68]	; 0x44
 8000b7e:	f442 4280 	orr.w	r2, r2, #16384	; 0x4000
 8000b82:	645a      	str	r2, [r3, #68]	; 0x44
  tmpreg = READ_BIT(RCC->APB2ENR, Periphs);
 8000b84:	6c5b      	ldr	r3, [r3, #68]	; 0x44
 8000b86:	f403 4380 	and.w	r3, r3, #16384	; 0x4000
 8000b8a:	9301      	str	r3, [sp, #4]
  (void)tmpreg;
 8000b8c:	9b01      	ldr	r3, [sp, #4]
 8000b8e:	68fb      	ldr	r3, [r7, #12]
 8000b90:	fa94 f2a4 	rbit	r2, r4
 8000b94:	2506      	movs	r5, #6
 8000b96:	fab2 f282 	clz	r2, r2
 8000b9a:	f423 6370 	bic.w	r3, r3, #3840	; 0xf00
 8000b9e:	f44f 0400 	mov.w	r4, #8388608	; 0x800000
 8000ba2:	fa05 f202 	lsl.w	r2, r5, r2
 8000ba6:	4313      	orrs	r3, r2
 8000ba8:	60fb      	str	r3, [r7, #12]
  SET_BIT(EXTI->IMR, ExtiLine);
 8000baa:	680b      	ldr	r3, [r1, #0]
 8000bac:	4303      	orrs	r3, r0
 8000bae:	600b      	str	r3, [r1, #0]
  SET_BIT(EXTI->RTSR, ExtiLine);
 8000bb0:	688b      	ldr	r3, [r1, #8]
 8000bb2:	4303      	orrs	r3, r0
 8000bb4:	608b      	str	r3, [r1, #8]
  WRITE_REG(EXTI->PR, ExtiLine);
 8000bb6:	6148      	str	r0, [r1, #20]
    NVIC->IP[((uint32_t)IRQn)]                = (uint8_t)((priority << (8U - __NVIC_PRIO_BITS)) & (uint32_t)0xFFUL);
 8000bb8:	f886 c317 	strb.w	ip, [r6, #791]	; 0x317
    NVIC->ISER[(((uint32_t)IRQn) >> 5UL)] = (uint32_t)(1UL << (((uint32_t)IRQn) & 0x1FUL));
 8000bbc:	6034      	str	r4, [r6, #0]
	QE_PB_EXTI_LINE_ENABLE();
	QE_PB_EXTI_RISING_TRIG_ENABLE();
	LL_EXTI_ClearFlag_0_31(QE_PB_EXTI_LINE);
	NVIC_SetPriority(QE_IRQn, 14);
	NVIC_EnableIRQ(QE_IRQn);
}
 8000bbe:	b006      	add	sp, #24
 8000bc0:	e8bd 87f0 	ldmia.w	sp!, {r4, r5, r6, r7, r8, r9, sl, pc}
 8000bc4:	40023800 	.word	0x40023800
 8000bc8:	40022000 	.word	0x40022000
 8000bcc:	40013800 	.word	0x40013800
 8000bd0:	40013c00 	.word	0x40013c00
 8000bd4:	e000e100 	.word	0xe000e100
 8000bd8:	40021800 	.word	0x40021800

08000bdc <LTDC_init>:
  * @rmtoll CR           PLLSAION     LL_RCC_PLLSAI_Disable
  * @retval None
  */
__STATIC_INLINE void LL_RCC_PLLSAI_Disable(void)
{
  CLEAR_BIT(RCC->CR, RCC_CR_PLLSAION);
 8000bdc:	4a9b      	ldr	r2, [pc, #620]	; (8000e4c <LTDC_init+0x270>)
void LTDC_init(void)
{
	/* Generate LCD_CLK = 9.6MHz */
	LL_RCC_PLLSAI_Disable();

	MODIFY_REG(RCC->PLLSAICFGR, RCC_PLLSAICFGR_PLLSAIN | RCC_PLLSAICFGR_PLLSAIR, (192U << RCC_PLLSAICFGR_PLLSAIN_Pos) | LL_RCC_PLLSAIR_DIV_5);
 8000bde:	489c      	ldr	r0, [pc, #624]	; (8000e50 <LTDC_init+0x274>)
 8000be0:	499c      	ldr	r1, [pc, #624]	; (8000e54 <LTDC_init+0x278>)
  * @rmtoll CR           PLLSAIRDY    LL_RCC_PLLSAI_IsReady
  * @retval State of bit (1 or 0).
  */
__STATIC_INLINE uint32_t LL_RCC_PLLSAI_IsReady(void)
{
  return (READ_BIT(RCC->CR, RCC_CR_PLLSAIRDY) == (RCC_CR_PLLSAIRDY));
 8000be2:	4613      	mov	r3, r2
{
 8000be4:	b5f0      	push	{r4, r5, r6, r7, lr}
  CLEAR_BIT(RCC->CR, RCC_CR_PLLSAION);
 8000be6:	6814      	ldr	r4, [r2, #0]
 8000be8:	b087      	sub	sp, #28
 8000bea:	f024 5480 	bic.w	r4, r4, #268435456	; 0x10000000
 8000bee:	6014      	str	r4, [r2, #0]
	MODIFY_REG(RCC->PLLSAICFGR, RCC_PLLSAICFGR_PLLSAIN | RCC_PLLSAICFGR_PLLSAIR, (192U << RCC_PLLSAICFGR_PLLSAIN_Pos) | LL_RCC_PLLSAIR_DIV_5);
 8000bf0:	f8d2 4088 	ldr.w	r4, [r2, #136]	; 0x88
 8000bf4:	4020      	ands	r0, r4
 8000bf6:	4301      	orrs	r1, r0
 8000bf8:	f8c2 1088 	str.w	r1, [r2, #136]	; 0x88
	MODIFY_REG(RCC->DCKCFGR1, RCC_DCKCFGR1_PLLSAIDIVR, LL_RCC_PLLSAIDIVR_DIV_4);
 8000bfc:	f8d2 108c 	ldr.w	r1, [r2, #140]	; 0x8c
 8000c00:	f421 3140 	bic.w	r1, r1, #196608	; 0x30000
 8000c04:	f441 3180 	orr.w	r1, r1, #65536	; 0x10000
 8000c08:	f8c2 108c 	str.w	r1, [r2, #140]	; 0x8c
  SET_BIT(RCC->CR, RCC_CR_PLLSAION);
 8000c0c:	6811      	ldr	r1, [r2, #0]
 8000c0e:	f041 5180 	orr.w	r1, r1, #268435456	; 0x10000000
 8000c12:	6011      	str	r1, [r2, #0]
  return (READ_BIT(RCC->CR, RCC_CR_PLLSAIRDY) == (RCC_CR_PLLSAIRDY));
 8000c14:	681a      	ldr	r2, [r3, #0]

	LL_RCC_PLLSAI_Enable();
	while(!LL_RCC_PLLSAI_IsReady()){
 8000c16:	0092      	lsls	r2, r2, #2
 8000c18:	d5fc      	bpl.n	8000c14 <LTDC_init+0x38>
  SET_BIT(RCC->AHB1ENR, Periphs);
 8000c1a:	6b1c      	ldr	r4, [r3, #48]	; 0x30

	 /* GPIOJ 0-11, 13-15 */
	LL_AHB1_GRP1_EnableClock(LL_AHB1_GRP1_PERIPH_GPIOJ);
	GPIOJ->MODER &= ~(0xFCFFFFFF); GPIOJ->MODER |= (0xA8AAAAAA);
	GPIOJ->OSPEEDR &= ~(0xFCFFFFFF); GPIOJ->OSPEEDR |= (0xA8AAAAAA);
	GPIOJ->AFR[0] &= ~(0xFFFFFFFF); GPIOJ->AFR[0] |= (0xEEEEEEEE);
 8000c1c:	2600      	movs	r6, #0
	GPIOE->MODER &= ~(0x3<<8); 	GPIOE->MODER |= (0x2<<8);
 8000c1e:	488e      	ldr	r0, [pc, #568]	; (8000e58 <LTDC_init+0x27c>)
	GPIOJ->AFR[1] &= ~(0xFFF0FFFF); GPIOJ->AFR[1] |= (0xEEE0EEEE);

	/* GPIOK 0-2, 4-7 */
	LL_AHB1_GRP1_EnableClock(LL_AHB1_GRP1_PERIPH_GPIOK);
	GPIOK->MODER &= ~(0x3<<0 | 0x3<<2 | 0x3<<4 | 0x3<<8 | 0x3<<10 | 0x3<<12 | 0x3<<14);
	GPIOK->MODER |= (0x2<<0 | 0x2<<2 | 0x2<<4 | 0x2<<8 | 0x2<<10 | 0x2<<12 | 0x2<<14);
 8000c20:	f64a 2c2a 	movw	ip, #43562	; 0xaa2a
 8000c24:	f044 0410 	orr.w	r4, r4, #16
	GPIOG->MODER &= ~(0x3<<24); GPIOG->MODER |= (0x2<<24);
 8000c28:	4a8c      	ldr	r2, [pc, #560]	; (8000e5c <LTDC_init+0x280>)
	GPIOI->MODER &= ~(0x3<<18 | 0x3<<20 | 0x3<<26 | 0x3<<28 | 0x3<<30);
 8000c2a:	498d      	ldr	r1, [pc, #564]	; (8000e60 <LTDC_init+0x284>)
  WRITE_REG(GPIOx->BSRR, PinMask);
 8000c2c:	f44f 5e80 	mov.w	lr, #4096	; 0x1000
 8000c30:	631c      	str	r4, [r3, #48]	; 0x30
 8000c32:	2508      	movs	r5, #8
  tmpreg = READ_BIT(RCC->AHB1ENR, Periphs);
 8000c34:	6b1c      	ldr	r4, [r3, #48]	; 0x30
	GPIOI->MODER |= (0x2<<18 | 0x2<<20 | 0x2<<26 | 0x2<<28 | 0x2<<30);
 8000c36:	4f8b      	ldr	r7, [pc, #556]	; (8000e64 <LTDC_init+0x288>)
 8000c38:	f004 0410 	and.w	r4, r4, #16
 8000c3c:	9405      	str	r4, [sp, #20]
  (void)tmpreg;
 8000c3e:	9c05      	ldr	r4, [sp, #20]
	GPIOE->MODER &= ~(0x3<<8); 	GPIOE->MODER |= (0x2<<8);
 8000c40:	6804      	ldr	r4, [r0, #0]
 8000c42:	f424 7440 	bic.w	r4, r4, #768	; 0x300
 8000c46:	6004      	str	r4, [r0, #0]
 8000c48:	6804      	ldr	r4, [r0, #0]
 8000c4a:	f444 7400 	orr.w	r4, r4, #512	; 0x200
 8000c4e:	6004      	str	r4, [r0, #0]
	GPIOE->OSPEEDR &= ~(0x3<<8); GPIOE->OSPEEDR |= (0x2<<8);
 8000c50:	6884      	ldr	r4, [r0, #8]
 8000c52:	f424 7440 	bic.w	r4, r4, #768	; 0x300
 8000c56:	6084      	str	r4, [r0, #8]
 8000c58:	6884      	ldr	r4, [r0, #8]
 8000c5a:	f444 7400 	orr.w	r4, r4, #512	; 0x200
 8000c5e:	6084      	str	r4, [r0, #8]
	GPIOE->AFR[0] &= ~(0xF<<16); GPIOE->AFR[0] |= (0xE<<16);
 8000c60:	6a04      	ldr	r4, [r0, #32]
 8000c62:	f424 2470 	bic.w	r4, r4, #983040	; 0xf0000
 8000c66:	6204      	str	r4, [r0, #32]
 8000c68:	6a04      	ldr	r4, [r0, #32]
 8000c6a:	f444 2460 	orr.w	r4, r4, #917504	; 0xe0000
 8000c6e:	6204      	str	r4, [r0, #32]
  SET_BIT(RCC->AHB1ENR, Periphs);
 8000c70:	6b1c      	ldr	r4, [r3, #48]	; 0x30
	GPIOI->MODER &= ~(0x3<<18 | 0x3<<20 | 0x3<<26 | 0x3<<28 | 0x3<<30);
 8000c72:	487d      	ldr	r0, [pc, #500]	; (8000e68 <LTDC_init+0x28c>)
 8000c74:	f044 0440 	orr.w	r4, r4, #64	; 0x40
 8000c78:	631c      	str	r4, [r3, #48]	; 0x30
  tmpreg = READ_BIT(RCC->AHB1ENR, Periphs);
 8000c7a:	6b1c      	ldr	r4, [r3, #48]	; 0x30
 8000c7c:	f004 0440 	and.w	r4, r4, #64	; 0x40
 8000c80:	9404      	str	r4, [sp, #16]
  (void)tmpreg;
 8000c82:	9c04      	ldr	r4, [sp, #16]
	GPIOG->MODER &= ~(0x3<<24); GPIOG->MODER |= (0x2<<24);
 8000c84:	6814      	ldr	r4, [r2, #0]
 8000c86:	f024 7440 	bic.w	r4, r4, #50331648	; 0x3000000
 8000c8a:	6014      	str	r4, [r2, #0]
 8000c8c:	6814      	ldr	r4, [r2, #0]
 8000c8e:	f044 7400 	orr.w	r4, r4, #33554432	; 0x2000000
 8000c92:	6014      	str	r4, [r2, #0]
	GPIOG->OSPEEDR &= ~(0x3<<24); GPIOG->OSPEEDR |= (0x2<<24);
 8000c94:	6894      	ldr	r4, [r2, #8]
 8000c96:	f024 7440 	bic.w	r4, r4, #50331648	; 0x3000000
 8000c9a:	6094      	str	r4, [r2, #8]
 8000c9c:	6894      	ldr	r4, [r2, #8]
 8000c9e:	f044 7400 	orr.w	r4, r4, #33554432	; 0x2000000
 8000ca2:	6094      	str	r4, [r2, #8]
	GPIOG->AFR[1] &= ~(0xF<<16); GPIOG->AFR[1] |= (0xE<<16);
 8000ca4:	6a54      	ldr	r4, [r2, #36]	; 0x24
 8000ca6:	f424 2470 	bic.w	r4, r4, #983040	; 0xf0000
 8000caa:	6254      	str	r4, [r2, #36]	; 0x24
 8000cac:	6a54      	ldr	r4, [r2, #36]	; 0x24
 8000cae:	f444 2460 	orr.w	r4, r4, #917504	; 0xe0000
 8000cb2:	6254      	str	r4, [r2, #36]	; 0x24
  SET_BIT(RCC->AHB1ENR, Periphs);
 8000cb4:	6b1a      	ldr	r2, [r3, #48]	; 0x30
 8000cb6:	f442 7280 	orr.w	r2, r2, #256	; 0x100
 8000cba:	631a      	str	r2, [r3, #48]	; 0x30
  tmpreg = READ_BIT(RCC->AHB1ENR, Periphs);
 8000cbc:	6b1a      	ldr	r2, [r3, #48]	; 0x30
 8000cbe:	f402 7280 	and.w	r2, r2, #256	; 0x100
 8000cc2:	9203      	str	r2, [sp, #12]
  (void)tmpreg;
 8000cc4:	9a03      	ldr	r2, [sp, #12]
	GPIOI->MODER &= ~(0x3<<18 | 0x3<<20 | 0x3<<26 | 0x3<<28 | 0x3<<30);
 8000cc6:	680c      	ldr	r4, [r1, #0]
 8000cc8:	4004      	ands	r4, r0
 8000cca:	600c      	str	r4, [r1, #0]
	GPIOI->MODER |= (0x2<<18 | 0x2<<20 | 0x2<<26 | 0x2<<28 | 0x2<<30);
 8000ccc:	680c      	ldr	r4, [r1, #0]
 8000cce:	433c      	orrs	r4, r7
 8000cd0:	600c      	str	r4, [r1, #0]
	GPIOI->OSPEEDR &= ~(0x3<<18 | 0x3<<20 | 0x3<<26 | 0x3<<28 | 0x3<<30);
 8000cd2:	688a      	ldr	r2, [r1, #8]
	GPIOI->AFR[1] &= ~(0xF<<4 | 0xF<<8 | 0xF<<20 | 0xF<<24 | 0xF<<28);
 8000cd4:	4c65      	ldr	r4, [pc, #404]	; (8000e6c <LTDC_init+0x290>)
	GPIOI->OSPEEDR &= ~(0x3<<18 | 0x3<<20 | 0x3<<26 | 0x3<<28 | 0x3<<30);
 8000cd6:	4002      	ands	r2, r0
 8000cd8:	608a      	str	r2, [r1, #8]
	GPIOI->OSPEEDR |= (0x2<<18 | 0x2<<20 | 0x2<<26 | 0x2<<28 | 0x2<<30);
 8000cda:	6888      	ldr	r0, [r1, #8]
	GPIOI->AFR[1] |= (0xE<<4 | 0xE<<8 | 0xE<<20 | 0xE<<24 | 0xE<<28);
 8000cdc:	4a64      	ldr	r2, [pc, #400]	; (8000e70 <LTDC_init+0x294>)
	GPIOI->OSPEEDR |= (0x2<<18 | 0x2<<20 | 0x2<<26 | 0x2<<28 | 0x2<<30);
 8000cde:	4338      	orrs	r0, r7
	GPIOJ->MODER &= ~(0xFCFFFFFF); GPIOJ->MODER |= (0xA8AAAAAA);
 8000ce0:	4f64      	ldr	r7, [pc, #400]	; (8000e74 <LTDC_init+0x298>)
	GPIOI->OSPEEDR |= (0x2<<18 | 0x2<<20 | 0x2<<26 | 0x2<<28 | 0x2<<30);
 8000ce2:	6088      	str	r0, [r1, #8]
	GPIOI->AFR[1] &= ~(0xF<<4 | 0xF<<8 | 0xF<<20 | 0xF<<24 | 0xF<<28);
 8000ce4:	6a48      	ldr	r0, [r1, #36]	; 0x24
 8000ce6:	4004      	ands	r4, r0
	GPIOJ->MODER &= ~(0xFCFFFFFF); GPIOJ->MODER |= (0xA8AAAAAA);
 8000ce8:	4863      	ldr	r0, [pc, #396]	; (8000e78 <LTDC_init+0x29c>)
	GPIOI->AFR[1] &= ~(0xF<<4 | 0xF<<8 | 0xF<<20 | 0xF<<24 | 0xF<<28);
 8000cea:	624c      	str	r4, [r1, #36]	; 0x24
	GPIOI->AFR[1] |= (0xE<<4 | 0xE<<8 | 0xE<<20 | 0xE<<24 | 0xE<<28);
 8000cec:	6a4c      	ldr	r4, [r1, #36]	; 0x24
 8000cee:	4322      	orrs	r2, r4
 8000cf0:	624a      	str	r2, [r1, #36]	; 0x24
  SET_BIT(RCC->AHB1ENR, Periphs);
 8000cf2:	6b1a      	ldr	r2, [r3, #48]	; 0x30
 8000cf4:	f442 7200 	orr.w	r2, r2, #512	; 0x200
 8000cf8:	631a      	str	r2, [r3, #48]	; 0x30
  tmpreg = READ_BIT(RCC->AHB1ENR, Periphs);
 8000cfa:	6b1a      	ldr	r2, [r3, #48]	; 0x30
 8000cfc:	f402 7200 	and.w	r2, r2, #512	; 0x200
 8000d00:	9202      	str	r2, [sp, #8]
  (void)tmpreg;
 8000d02:	9a02      	ldr	r2, [sp, #8]
	GPIOJ->MODER &= ~(0xFCFFFFFF); GPIOJ->MODER |= (0xA8AAAAAA);
 8000d04:	6804      	ldr	r4, [r0, #0]
 8000d06:	f004 7440 	and.w	r4, r4, #50331648	; 0x3000000
 8000d0a:	6004      	str	r4, [r0, #0]
 8000d0c:	6804      	ldr	r4, [r0, #0]
 8000d0e:	433c      	orrs	r4, r7
 8000d10:	6004      	str	r4, [r0, #0]
	GPIOJ->OSPEEDR &= ~(0xFCFFFFFF); GPIOJ->OSPEEDR |= (0xA8AAAAAA);
 8000d12:	6884      	ldr	r4, [r0, #8]
 8000d14:	f004 7440 	and.w	r4, r4, #50331648	; 0x3000000
 8000d18:	6084      	str	r4, [r0, #8]
 8000d1a:	6882      	ldr	r2, [r0, #8]
	GPIOJ->AFR[1] &= ~(0xFFF0FFFF); GPIOJ->AFR[1] |= (0xEEE0EEEE);
 8000d1c:	4c57      	ldr	r4, [pc, #348]	; (8000e7c <LTDC_init+0x2a0>)
	GPIOJ->OSPEEDR &= ~(0xFCFFFFFF); GPIOJ->OSPEEDR |= (0xA8AAAAAA);
 8000d1e:	433a      	orrs	r2, r7
	GPIOK->MODER &= ~(0x3<<0 | 0x3<<2 | 0x3<<4 | 0x3<<8 | 0x3<<10 | 0x3<<12 | 0x3<<14);
 8000d20:	4f57      	ldr	r7, [pc, #348]	; (8000e80 <LTDC_init+0x2a4>)
	GPIOJ->OSPEEDR &= ~(0xFCFFFFFF); GPIOJ->OSPEEDR |= (0xA8AAAAAA);
 8000d22:	6082      	str	r2, [r0, #8]
	GPIOJ->AFR[0] &= ~(0xFFFFFFFF); GPIOJ->AFR[0] |= (0xEEEEEEEE);
 8000d24:	6a02      	ldr	r2, [r0, #32]
 8000d26:	6206      	str	r6, [r0, #32]
	LL_GPIO_SetOutputPin(GPIOK, LL_GPIO_PIN_3);

	/* LTDC initialization */
	LL_APB2_GRP1_EnableClock(LL_APB2_GRP1_PERIPH_LTDC);

	LTDC->GCR = 0x00002220;																			/* all signals active LOW, dithering disabled */
 8000d28:	f242 2620 	movw	r6, #8736	; 0x2220
	GPIOJ->AFR[0] &= ~(0xFFFFFFFF); GPIOJ->AFR[0] |= (0xEEEEEEEE);
 8000d2c:	6a02      	ldr	r2, [r0, #32]
 8000d2e:	f042 32ee 	orr.w	r2, r2, #4008636142	; 0xeeeeeeee
 8000d32:	6202      	str	r2, [r0, #32]
	GPIOJ->AFR[1] &= ~(0xFFF0FFFF); GPIOJ->AFR[1] |= (0xEEE0EEEE);
 8000d34:	6a42      	ldr	r2, [r0, #36]	; 0x24
 8000d36:	f402 2270 	and.w	r2, r2, #983040	; 0xf0000
 8000d3a:	6242      	str	r2, [r0, #36]	; 0x24
 8000d3c:	6a42      	ldr	r2, [r0, #36]	; 0x24
 8000d3e:	4314      	orrs	r4, r2
	GPIOK->MODER &= ~(0x3<<0 | 0x3<<2 | 0x3<<4 | 0x3<<8 | 0x3<<10 | 0x3<<12 | 0x3<<14);
 8000d40:	4a50      	ldr	r2, [pc, #320]	; (8000e84 <LTDC_init+0x2a8>)
	GPIOJ->AFR[1] &= ~(0xFFF0FFFF); GPIOJ->AFR[1] |= (0xEEE0EEEE);
 8000d42:	6244      	str	r4, [r0, #36]	; 0x24
  SET_BIT(RCC->AHB1ENR, Periphs);
 8000d44:	6b18      	ldr	r0, [r3, #48]	; 0x30
 8000d46:	f440 6080 	orr.w	r0, r0, #1024	; 0x400
 8000d4a:	6318      	str	r0, [r3, #48]	; 0x30
  tmpreg = READ_BIT(RCC->AHB1ENR, Periphs);
 8000d4c:	6b1c      	ldr	r4, [r3, #48]	; 0x30
 8000d4e:	f404 6480 	and.w	r4, r4, #1024	; 0x400
 8000d52:	9401      	str	r4, [sp, #4]
  (void)tmpreg;
 8000d54:	9801      	ldr	r0, [sp, #4]
	GPIOK->MODER &= ~(0x3<<0 | 0x3<<2 | 0x3<<4 | 0x3<<8 | 0x3<<10 | 0x3<<12 | 0x3<<14);
 8000d56:	6814      	ldr	r4, [r2, #0]
 8000d58:	403c      	ands	r4, r7
 8000d5a:	6014      	str	r4, [r2, #0]
	GPIOK->MODER |= (0x2<<0 | 0x2<<2 | 0x2<<4 | 0x2<<8 | 0x2<<10 | 0x2<<12 | 0x2<<14);
 8000d5c:	6814      	ldr	r4, [r2, #0]
 8000d5e:	ea44 040c 	orr.w	r4, r4, ip
 8000d62:	6014      	str	r4, [r2, #0]
	GPIOK->OSPEEDR &= ~(0x3<<0 | 0x3<<2 | 0x3<<4 | 0x3<<8 | 0x3<<10 | 0x3<<12 | 0x3<<14);
 8000d64:	6890      	ldr	r0, [r2, #8]
	GPIOK->AFR[0] |= (0xE<<0 | 0xE<<4 | 0xE<<8 | 0xE<<16 | 0xE<<20 | 0xE<<24 | 0xE<<28);
 8000d66:	4c48      	ldr	r4, [pc, #288]	; (8000e88 <LTDC_init+0x2ac>)
	GPIOK->OSPEEDR &= ~(0x3<<0 | 0x3<<2 | 0x3<<4 | 0x3<<8 | 0x3<<10 | 0x3<<12 | 0x3<<14);
 8000d68:	4038      	ands	r0, r7
 8000d6a:	6090      	str	r0, [r2, #8]
	GPIOK->OSPEEDR |= (0x2<<0 | 0x2<<2 | 0x2<<4 | 0x2<<8 | 0x2<<10 | 0x2<<12 | 0x2<<14);
 8000d6c:	6897      	ldr	r7, [r2, #8]
	LTDC->GCR = 0x00002220;																			/* all signals active LOW, dithering disabled */
 8000d6e:	4847      	ldr	r0, [pc, #284]	; (8000e8c <LTDC_init+0x2b0>)
	GPIOK->OSPEEDR |= (0x2<<0 | 0x2<<2 | 0x2<<4 | 0x2<<8 | 0x2<<10 | 0x2<<12 | 0x2<<14);
 8000d70:	ea47 070c 	orr.w	r7, r7, ip
					(RK043FN48H_VSYNC + RK043FN48H_VBP - 1);
	LTDC->AWCR = (RK043FN48H_HSYNC + RK043FN48H_HBP + RK043FN48H_WIDTH - 1)<<16 | 					/* accumulated active width */
					(RK043FN48H_VSYNC + RK043FN48H_VBP + RK043FN48H_HEIGHT - 1);
	LTDC->TWCR = (RK043FN48H_HSYNC + RK043FN48H_HBP + RK043FN48H_WIDTH + RK043FN48H_HFP - 1)<<16 | 	/* total width */
					(RK043FN48H_VSYNC + RK043FN48H_VBP + RK043FN48H_HEIGHT + RK043FN48H_VFP - 1);
	LTDC->BCCR = (255U << 16) | (0U << 8) | (0U);		/* background color */
 8000d74:	f44f 0c7f 	mov.w	ip, #16711680	; 0xff0000
	GPIOK->OSPEEDR |= (0x2<<0 | 0x2<<2 | 0x2<<4 | 0x2<<8 | 0x2<<10 | 0x2<<12 | 0x2<<14);
 8000d78:	6097      	str	r7, [r2, #8]
	GPIOK->AFR[0] &= ~(0xF<<0 | 0xF<<4 | 0xF<<8 | 0xF<<16 | 0xF<<20 | 0xF<<24 | 0xF<<28);
 8000d7a:	6a17      	ldr	r7, [r2, #32]
 8000d7c:	f407 4770 	and.w	r7, r7, #61440	; 0xf000
 8000d80:	6217      	str	r7, [r2, #32]
	GPIOK->AFR[0] |= (0xE<<0 | 0xE<<4 | 0xE<<8 | 0xE<<16 | 0xE<<20 | 0xE<<24 | 0xE<<28);
 8000d82:	6a17      	ldr	r7, [r2, #32]
 8000d84:	433c      	orrs	r4, r7
	LTDC->SSCR = (RK043FN48H_HSYNC-1)<<16 | (RK043FN48H_VSYNC-1);									/* sync pulse widths */
 8000d86:	4f42      	ldr	r7, [pc, #264]	; (8000e90 <LTDC_init+0x2b4>)
	GPIOK->AFR[0] |= (0xE<<0 | 0xE<<4 | 0xE<<8 | 0xE<<16 | 0xE<<20 | 0xE<<24 | 0xE<<28);
 8000d88:	6214      	str	r4, [r2, #32]
	GPIOI->MODER &= ~(0x3<<24); GPIOI->MODER |= (0x1<<24);
 8000d8a:	680c      	ldr	r4, [r1, #0]
 8000d8c:	f024 7440 	bic.w	r4, r4, #50331648	; 0x3000000
 8000d90:	600c      	str	r4, [r1, #0]
 8000d92:	680c      	ldr	r4, [r1, #0]
 8000d94:	f044 7480 	orr.w	r4, r4, #16777216	; 0x1000000
 8000d98:	600c      	str	r4, [r1, #0]
	GPIOK->MODER &= ~(0x3<<6); GPIOK->MODER |= (0x1<<6);
 8000d9a:	6814      	ldr	r4, [r2, #0]
 8000d9c:	f024 04c0 	bic.w	r4, r4, #192	; 0xc0
 8000da0:	6014      	str	r4, [r2, #0]
 8000da2:	6814      	ldr	r4, [r2, #0]
 8000da4:	f044 0440 	orr.w	r4, r4, #64	; 0x40
 8000da8:	6014      	str	r4, [r2, #0]
	LTDC_Layer1->WHPCR = (RK043FN48H_HSYNC + RK043FN48H_HBP + RK043FN48H_WIDTH - 1)<<16 |
								(RK043FN48H_HSYNC + RK043FN48H_HBP);
	LTDC_Layer1->WVPCR = (RK043FN48H_VSYNC + RK043FN48H_VBP + RK043FN48H_HEIGHT - 1)<<16 |
								(RK043FN48H_VSYNC + RK043FN48H_VBP);
	LTDC_Layer1->PFCR = 0x02;							/* RGB565 */
	LTDC_Layer1->CACR = 0xFF;							/* constant layer alpha value */
 8000daa:	24ff      	movs	r4, #255	; 0xff
 8000dac:	f8c1 e018 	str.w	lr, [r1, #24]
	LTDC_Layer1->BFCR = (0x5)<<0 | (0x4)<<8;			/* constant_alpha, 1-constant_alpha */
 8000db0:	f240 4e05 	movw	lr, #1029	; 0x405
 8000db4:	6195      	str	r5, [r2, #24]
	LTDC_Layer1->PFCR = 0x02;							/* RGB565 */
 8000db6:	2502      	movs	r5, #2
  SET_BIT(RCC->APB2ENR, Periphs);
 8000db8:	6c5a      	ldr	r2, [r3, #68]	; 0x44
	LTDC->BPCR = (RK043FN48H_HSYNC + RK043FN48H_HBP - 1)<<16 | 										/* accumulated backporch */
 8000dba:	4936      	ldr	r1, [pc, #216]	; (8000e94 <LTDC_init+0x2b8>)
 8000dbc:	f042 6280 	orr.w	r2, r2, #67108864	; 0x4000000
 8000dc0:	645a      	str	r2, [r3, #68]	; 0x44
  tmpreg = READ_BIT(RCC->APB2ENR, Periphs);
 8000dc2:	6c5b      	ldr	r3, [r3, #68]	; 0x44
	LTDC->AWCR = (RK043FN48H_HSYNC + RK043FN48H_HBP + RK043FN48H_WIDTH - 1)<<16 | 					/* accumulated active width */
 8000dc4:	4a34      	ldr	r2, [pc, #208]	; (8000e98 <LTDC_init+0x2bc>)
 8000dc6:	f003 6380 	and.w	r3, r3, #67108864	; 0x4000000
 8000dca:	9300      	str	r3, [sp, #0]
  (void)tmpreg;
 8000dcc:	9b00      	ldr	r3, [sp, #0]
	LTDC->TWCR = (RK043FN48H_HSYNC + RK043FN48H_HBP + RK043FN48H_WIDTH + RK043FN48H_HFP - 1)<<16 | 	/* total width */
 8000dce:	4b33      	ldr	r3, [pc, #204]	; (8000e9c <LTDC_init+0x2c0>)
	LTDC->GCR = 0x00002220;																			/* all signals active LOW, dithering disabled */
 8000dd0:	6186      	str	r6, [r0, #24]
	LTDC_Layer1->CFBAR = LCD_FRAME_BUFFER;				/* frame buffer address */
	LTDC_Layer1->CFBLR = (2*RK043FN48H_WIDTH)<<16 | (2*RK043FN48H_WIDTH + 3)<<0;
	LTDC_Layer1->CFBLNR = RK043FN48H_HEIGHT;
 8000dd2:	f44f 7688 	mov.w	r6, #272	; 0x110
	LTDC->SSCR = (RK043FN48H_HSYNC-1)<<16 | (RK043FN48H_VSYNC-1);									/* sync pulse widths */
 8000dd6:	6087      	str	r7, [r0, #8]
	LTDC_Layer1->CFBAR = LCD_FRAME_BUFFER;				/* frame buffer address */
 8000dd8:	f04f 4740 	mov.w	r7, #3221225472	; 0xc0000000
	LTDC->BPCR = (RK043FN48H_HSYNC + RK043FN48H_HBP - 1)<<16 | 										/* accumulated backporch */
 8000ddc:	60c1      	str	r1, [r0, #12]
    NVIC->IP[((uint32_t)IRQn)]                = (uint8_t)((priority << (8U - __NVIC_PRIO_BITS)) & (uint32_t)0xFFUL);
 8000dde:	2120      	movs	r1, #32
	LTDC->AWCR = (RK043FN48H_HSYNC + RK043FN48H_HBP + RK043FN48H_WIDTH - 1)<<16 | 					/* accumulated active width */
 8000de0:	6102      	str	r2, [r0, #16]
	LTDC->TWCR = (RK043FN48H_HSYNC + RK043FN48H_HBP + RK043FN48H_WIDTH + RK043FN48H_HFP - 1)<<16 | 	/* total width */
 8000de2:	6143      	str	r3, [r0, #20]
	LTDC->BCCR = (255U << 16) | (0U << 8) | (0U);		/* background color */
 8000de4:	f8c0 c02c 	str.w	ip, [r0, #44]	; 0x2c
	LTDC_Layer1->WHPCR = (RK043FN48H_HSYNC + RK043FN48H_HBP + RK043FN48H_WIDTH - 1)<<16 |
 8000de8:	f10c 7c8b 	add.w	ip, ip, #18219008	; 0x1160000
	LTDC->ICR |= 0x0F;									/* clear all flags */
 8000dec:	6bc2      	ldr	r2, [r0, #60]	; 0x3c
	LTDC_Layer1->WHPCR = (RK043FN48H_HSYNC + RK043FN48H_HBP + RK043FN48H_WIDTH - 1)<<16 |
 8000dee:	4b2c      	ldr	r3, [pc, #176]	; (8000ea0 <LTDC_init+0x2c4>)
 8000df0:	f10c 0c36 	add.w	ip, ip, #54	; 0x36
	LTDC->ICR |= 0x0F;									/* clear all flags */
 8000df4:	f042 020f 	orr.w	r2, r2, #15
 8000df8:	63c2      	str	r2, [r0, #60]	; 0x3c
	LTDC->IER |= 0x06;									/* enable transfer and FIFO underrun interrupts */
 8000dfa:	6b42      	ldr	r2, [r0, #52]	; 0x34
 8000dfc:	f042 0206 	orr.w	r2, r2, #6
 8000e00:	6342      	str	r2, [r0, #52]	; 0x34
	LTDC_Layer1->WHPCR = (RK043FN48H_HSYNC + RK043FN48H_HBP + RK043FN48H_WIDTH - 1)<<16 |
 8000e02:	f8c3 c004 	str.w	ip, [r3, #4]
	LTDC_Layer1->WVPCR = (RK043FN48H_VSYNC + RK043FN48H_VBP + RK043FN48H_HEIGHT - 1)<<16 |
 8000e06:	f5ac 0c7a 	sub.w	ip, ip, #16384000	; 0xfa0000
	LTDC_Layer1->CFBLR = (2*RK043FN48H_WIDTH)<<16 | (2*RK043FN48H_WIDTH + 3)<<0;
 8000e0a:	4a26      	ldr	r2, [pc, #152]	; (8000ea4 <LTDC_init+0x2c8>)
	LTDC_Layer1->WVPCR = (RK043FN48H_VSYNC + RK043FN48H_VBP + RK043FN48H_HEIGHT - 1)<<16 |
 8000e0c:	f1ac 0c2a 	sub.w	ip, ip, #42	; 0x2a
 8000e10:	f8c3 c008 	str.w	ip, [r3, #8]
	LTDC_Layer1->PFCR = 0x02;							/* RGB565 */
 8000e14:	611d      	str	r5, [r3, #16]
    NVIC->ISER[(((uint32_t)IRQn) >> 5UL)] = (uint32_t)(1UL << (((uint32_t)IRQn) & 0x1FUL));
 8000e16:	f04f 7500 	mov.w	r5, #33554432	; 0x2000000
	LTDC_Layer1->CACR = 0xFF;							/* constant layer alpha value */
 8000e1a:	615c      	str	r4, [r3, #20]
	LTDC_Layer1->BFCR = (0x5)<<0 | (0x4)<<8;			/* constant_alpha, 1-constant_alpha */
 8000e1c:	f8c3 e01c 	str.w	lr, [r3, #28]
	LTDC_Layer1->CFBAR = LCD_FRAME_BUFFER;				/* frame buffer address */
 8000e20:	629f      	str	r7, [r3, #40]	; 0x28
	LTDC_Layer1->CFBLR = (2*RK043FN48H_WIDTH)<<16 | (2*RK043FN48H_WIDTH + 3)<<0;
 8000e22:	62da      	str	r2, [r3, #44]	; 0x2c
	LTDC_Layer1->CFBLNR = RK043FN48H_HEIGHT;
 8000e24:	631e      	str	r6, [r3, #48]	; 0x30
	LTDC_Layer1->CR |= 0x01;							/* enable layer1 */
 8000e26:	681a      	ldr	r2, [r3, #0]
    NVIC->IP[((uint32_t)IRQn)]                = (uint8_t)((priority << (8U - __NVIC_PRIO_BITS)) & (uint32_t)0xFFUL);
 8000e28:	4c1f      	ldr	r4, [pc, #124]	; (8000ea8 <LTDC_init+0x2cc>)
 8000e2a:	f042 0201 	orr.w	r2, r2, #1
 8000e2e:	601a      	str	r2, [r3, #0]
	LTDC->SRCR |= 0x01;									/* immediate reload */
 8000e30:	6a43      	ldr	r3, [r0, #36]	; 0x24
 8000e32:	f043 0301 	orr.w	r3, r3, #1
 8000e36:	6243      	str	r3, [r0, #36]	; 0x24
	LTDC->GCR  |= 0x01;									/* enable LTDC */
 8000e38:	6983      	ldr	r3, [r0, #24]
 8000e3a:	f043 0301 	orr.w	r3, r3, #1
 8000e3e:	6183      	str	r3, [r0, #24]
 8000e40:	f884 1359 	strb.w	r1, [r4, #857]	; 0x359
    NVIC->ISER[(((uint32_t)IRQn) >> 5UL)] = (uint32_t)(1UL << (((uint32_t)IRQn) & 0x1FUL));
 8000e44:	60a5      	str	r5, [r4, #8]

	NVIC_SetPriority(LTDC_ER_IRQn, 2);
	NVIC_EnableIRQ(LTDC_ER_IRQn);
}
 8000e46:	b007      	add	sp, #28
 8000e48:	bdf0      	pop	{r4, r5, r6, r7, pc}
 8000e4a:	bf00      	nop
 8000e4c:	40023800 	.word	0x40023800
 8000e50:	8fff803f 	.word	0x8fff803f
 8000e54:	50003000 	.word	0x50003000
 8000e58:	40021000 	.word	0x40021000
 8000e5c:	40021800 	.word	0x40021800
 8000e60:	40022000 	.word	0x40022000
 8000e64:	a8280000 	.word	0xa8280000
 8000e68:	03c3ffff 	.word	0x03c3ffff
 8000e6c:	000ff00f 	.word	0x000ff00f
 8000e70:	eee00ee0 	.word	0xeee00ee0
 8000e74:	a8aaaaaa 	.word	0xa8aaaaaa
 8000e78:	40022400 	.word	0x40022400
 8000e7c:	eee0eeee 	.word	0xeee0eeee
 8000e80:	ffff00c0 	.word	0xffff00c0
 8000e84:	40022800 	.word	0x40022800
 8000e88:	eeee0eee 	.word	0xeeee0eee
 8000e8c:	40016800 	.word	0x40016800
 8000e90:	00280009 	.word	0x00280009
 8000e94:	0035000b 	.word	0x0035000b
 8000e98:	0215011b 	.word	0x0215011b
 8000e9c:	0235011d 	.word	0x0235011d
 8000ea0:	40016884 	.word	0x40016884
 8000ea4:	03c003c3 	.word	0x03c003c3
 8000ea8:	e000e100 	.word	0xe000e100

08000eac <SDRAM_init>:
  SET_BIT(RCC->AHB3ENR, Periphs);
 8000eac:	4b93      	ldr	r3, [pc, #588]	; (80010fc <SDRAM_init+0x250>)
	LL_AHB3_GRP1_EnableClock(LL_AHB3_GRP1_PERIPH_FMC);

	/* FMC GPIOs configuration */
	/* GPIOC 3 */
	LL_AHB1_GRP1_EnableClock(LL_AHB1_GRP1_PERIPH_GPIOC);
	GPIOC->MODER &= ~(0x3<<6); GPIOC->MODER |= (0x2<<6);
 8000eae:	4a94      	ldr	r2, [pc, #592]	; (8001100 <SDRAM_init+0x254>)
 8000eb0:	6b98      	ldr	r0, [r3, #56]	; 0x38
	GPIOC->OSPEEDR &= ~(0x3<<6); GPIOC->OSPEEDR |= (0x2<<6);
	GPIOC->AFR[0] &= ~(0xF<<12); GPIOC->AFR[0] |= (0xC<<12);

	/* GPIOD 0, 1, 8-10, 14, 15 */
	LL_AHB1_GRP1_EnableClock(LL_AHB1_GRP1_PERIPH_GPIOD);
	GPIOD->MODER &= ~(0x3<<0 | 0x3<<2 | 0x3<<16 | 0x3<<18 | 0x3<<20 | 0x3<<28 | 0x3<<30);
 8000eb2:	4994      	ldr	r1, [pc, #592]	; (8001104 <SDRAM_init+0x258>)
 8000eb4:	f040 0001 	orr.w	r0, r0, #1
 8000eb8:	f8df c29c 	ldr.w	ip, [pc, #668]	; 8001158 <SDRAM_init+0x2ac>
{
 8000ebc:	e92d 41f0 	stmdb	sp!, {r4, r5, r6, r7, r8, lr}
 8000ec0:	6398      	str	r0, [r3, #56]	; 0x38
 8000ec2:	b088      	sub	sp, #32
  tmpreg = READ_BIT(RCC->AHB3ENR, Periphs);
 8000ec4:	6b98      	ldr	r0, [r3, #56]	; 0x38
	GPIOD->AFR[1] &= ~(0xF<<0 | 0xF<<4 | 0xF<<8 | 0xF<<24 | 0xF<<28);
	GPIOD->AFR[1] |= (0xC<<0 | 0xC<<4 | 0xC<<8 | 0xC<<24 | 0xC<<28);

	/* GPIOE 0, 1, 7-15 */
	LL_AHB1_GRP1_EnableClock(LL_AHB1_GRP1_PERIPH_GPIOE);
	GPIOE->MODER &= ~(0xFFFFC00F); GPIOE->MODER |= (0xAAAA800A);
 8000ec6:	f643 75f0 	movw	r5, #16368	; 0x3ff0
	GPIOD->MODER |= (0x2<<0 | 0x2<<2 | 0x2<<16 | 0x2<<18 | 0x2<<20 | 0x2<<28 | 0x2<<30);
 8000eca:	4e8f      	ldr	r6, [pc, #572]	; (8001108 <SDRAM_init+0x25c>)
	GPIOE->OSPEEDR &= ~(0xFFFFC00F); GPIOE->OSPEEDR |= (0xAAAA800A);
	GPIOE->AFR[0] &= ~(0xF00000FF); GPIOE->AFR[0] |= (0xC00000CC);
	GPIOE->AFR[1] &= ~(0xFFFFFFFF); GPIOE->AFR[1] |= (0xCCCCCCCC);
 8000ecc:	f04f 0800 	mov.w	r8, #0
 8000ed0:	f000 0001 	and.w	r0, r0, #1
	GPIOH->MODER &= ~(0x3<<6 | 0x03<<10); GPIOH->MODER |= (0x2<<6 | 0x02<<10);
	GPIOH->OSPEEDR &= ~(0x3<<6 | 0x03<<10); GPIOH->OSPEEDR |= (0x2<<6 | 0x02<<10);
	GPIOH->AFR[0] &= ~(0xF<<12 | 0xF<<20); GPIOH->AFR[0] |= (0xC<<12 | 0xC<<20);

	/* Bank 1 configuration */
	FMC_Bank5_6->SDCR[0] = (0x00)<<13 	|	/* RPIPE = 0 */
 8000ed4:	f641 1e54 	movw	lr, #6484	; 0x1954
						   (0x06)<<4	|	/* Exit self-refresh delay = 7 */
						   (0x01)<<0;		/* Load-to-active delay = 2 */

	/* SDRAM device initialization */
	/* Clock Configuration Enable */
	FMC_Bank5_6->SDCMR =   (0x00)<<9	|
 8000ed8:	2711      	movs	r7, #17
 8000eda:	9007      	str	r0, [sp, #28]
  (void)tmpreg;
 8000edc:	9807      	ldr	r0, [sp, #28]
  SET_BIT(RCC->AHB1ENR, Periphs);
 8000ede:	6b18      	ldr	r0, [r3, #48]	; 0x30
 8000ee0:	f040 0004 	orr.w	r0, r0, #4
 8000ee4:	6318      	str	r0, [r3, #48]	; 0x30
  tmpreg = READ_BIT(RCC->AHB1ENR, Periphs);
 8000ee6:	6b18      	ldr	r0, [r3, #48]	; 0x30
 8000ee8:	f000 0004 	and.w	r0, r0, #4
 8000eec:	9006      	str	r0, [sp, #24]
  (void)tmpreg;
 8000eee:	9806      	ldr	r0, [sp, #24]
	GPIOC->MODER &= ~(0x3<<6); GPIOC->MODER |= (0x2<<6);
 8000ef0:	6810      	ldr	r0, [r2, #0]
 8000ef2:	f020 00c0 	bic.w	r0, r0, #192	; 0xc0
 8000ef6:	6010      	str	r0, [r2, #0]
 8000ef8:	6810      	ldr	r0, [r2, #0]
 8000efa:	f040 0080 	orr.w	r0, r0, #128	; 0x80
 8000efe:	6010      	str	r0, [r2, #0]
	GPIOC->OSPEEDR &= ~(0x3<<6); GPIOC->OSPEEDR |= (0x2<<6);
 8000f00:	6890      	ldr	r0, [r2, #8]
 8000f02:	f020 00c0 	bic.w	r0, r0, #192	; 0xc0
 8000f06:	6090      	str	r0, [r2, #8]
 8000f08:	6890      	ldr	r0, [r2, #8]
 8000f0a:	f040 0080 	orr.w	r0, r0, #128	; 0x80
 8000f0e:	6090      	str	r0, [r2, #8]
	GPIOC->AFR[0] &= ~(0xF<<12); GPIOC->AFR[0] |= (0xC<<12);
 8000f10:	6a10      	ldr	r0, [r2, #32]
 8000f12:	f420 4070 	bic.w	r0, r0, #61440	; 0xf000
 8000f16:	6210      	str	r0, [r2, #32]
 8000f18:	6a10      	ldr	r0, [r2, #32]
 8000f1a:	f440 4040 	orr.w	r0, r0, #49152	; 0xc000
 8000f1e:	6210      	str	r0, [r2, #32]
  SET_BIT(RCC->AHB1ENR, Periphs);
 8000f20:	6b1a      	ldr	r2, [r3, #48]	; 0x30
 8000f22:	f042 0208 	orr.w	r2, r2, #8
 8000f26:	631a      	str	r2, [r3, #48]	; 0x30
  tmpreg = READ_BIT(RCC->AHB1ENR, Periphs);
 8000f28:	6b1a      	ldr	r2, [r3, #48]	; 0x30
 8000f2a:	f002 0208 	and.w	r2, r2, #8
 8000f2e:	9205      	str	r2, [sp, #20]
  (void)tmpreg;
 8000f30:	9a05      	ldr	r2, [sp, #20]
	GPIOD->MODER &= ~(0x3<<0 | 0x3<<2 | 0x3<<16 | 0x3<<18 | 0x3<<20 | 0x3<<28 | 0x3<<30);
 8000f32:	680c      	ldr	r4, [r1, #0]
 8000f34:	ea04 040c 	and.w	r4, r4, ip
 8000f38:	600c      	str	r4, [r1, #0]
	GPIOD->MODER |= (0x2<<0 | 0x2<<2 | 0x2<<16 | 0x2<<18 | 0x2<<20 | 0x2<<28 | 0x2<<30);
 8000f3a:	680c      	ldr	r4, [r1, #0]
 8000f3c:	4334      	orrs	r4, r6
 8000f3e:	600c      	str	r4, [r1, #0]
	GPIOD->OSPEEDR &= ~(0x3<<0 | 0x3<<2 | 0x3<<16 | 0x3<<18 | 0x3<<20 | 0x3<<28 | 0x3<<30);
 8000f40:	6888      	ldr	r0, [r1, #8]
	GPIOD->AFR[1] &= ~(0xF<<0 | 0xF<<4 | 0xF<<8 | 0xF<<24 | 0xF<<28);
 8000f42:	4c72      	ldr	r4, [pc, #456]	; (800110c <SDRAM_init+0x260>)
	GPIOD->OSPEEDR &= ~(0x3<<0 | 0x3<<2 | 0x3<<16 | 0x3<<18 | 0x3<<20 | 0x3<<28 | 0x3<<30);
 8000f44:	ea00 000c 	and.w	r0, r0, ip
	GPIOF->MODER &= ~(0xFFC00FFF); GPIOF->MODER |= (0xAA800AAA);
 8000f48:	f8df c210 	ldr.w	ip, [pc, #528]	; 800115c <SDRAM_init+0x2b0>
	GPIOD->OSPEEDR &= ~(0x3<<0 | 0x3<<2 | 0x3<<16 | 0x3<<18 | 0x3<<20 | 0x3<<28 | 0x3<<30);
 8000f4c:	6088      	str	r0, [r1, #8]
	GPIOD->OSPEEDR |= (0x2<<0 | 0x2<<2 | 0x2<<16 | 0x2<<18 | 0x2<<20 | 0x2<<28 | 0x2<<30);
 8000f4e:	688a      	ldr	r2, [r1, #8]
	GPIOD->AFR[1] |= (0xC<<0 | 0xC<<4 | 0xC<<8 | 0xC<<24 | 0xC<<28);
 8000f50:	486f      	ldr	r0, [pc, #444]	; (8001110 <SDRAM_init+0x264>)
	GPIOD->OSPEEDR |= (0x2<<0 | 0x2<<2 | 0x2<<16 | 0x2<<18 | 0x2<<20 | 0x2<<28 | 0x2<<30);
 8000f52:	4332      	orrs	r2, r6
	GPIOE->MODER &= ~(0xFFFFC00F); GPIOE->MODER |= (0xAAAA800A);
 8000f54:	f106 6628 	add.w	r6, r6, #176160768	; 0xa800000
	GPIOD->OSPEEDR |= (0x2<<0 | 0x2<<2 | 0x2<<16 | 0x2<<18 | 0x2<<20 | 0x2<<28 | 0x2<<30);
 8000f58:	608a      	str	r2, [r1, #8]
	GPIOE->MODER &= ~(0xFFFFC00F); GPIOE->MODER |= (0xAAAA800A);
 8000f5a:	f506 4600 	add.w	r6, r6, #32768	; 0x8000
	GPIOD->AFR[0] &= ~(0xF<<0 | 0xF<<4);
 8000f5e:	6a0a      	ldr	r2, [r1, #32]
 8000f60:	f022 02ff 	bic.w	r2, r2, #255	; 0xff
 8000f64:	620a      	str	r2, [r1, #32]
	GPIOD->AFR[0] |= (0xC<<0 | 0xC<<4);
 8000f66:	6a0a      	ldr	r2, [r1, #32]
 8000f68:	f042 02cc 	orr.w	r2, r2, #204	; 0xcc
 8000f6c:	620a      	str	r2, [r1, #32]
	GPIOD->AFR[1] &= ~(0xF<<0 | 0xF<<4 | 0xF<<8 | 0xF<<24 | 0xF<<28);
 8000f6e:	6a4a      	ldr	r2, [r1, #36]	; 0x24
 8000f70:	4014      	ands	r4, r2
	GPIOE->MODER &= ~(0xFFFFC00F); GPIOE->MODER |= (0xAAAA800A);
 8000f72:	4a68      	ldr	r2, [pc, #416]	; (8001114 <SDRAM_init+0x268>)
	GPIOD->AFR[1] &= ~(0xF<<0 | 0xF<<4 | 0xF<<8 | 0xF<<24 | 0xF<<28);
 8000f74:	624c      	str	r4, [r1, #36]	; 0x24
	GPIOD->AFR[1] |= (0xC<<0 | 0xC<<4 | 0xC<<8 | 0xC<<24 | 0xC<<28);
 8000f76:	6a4c      	ldr	r4, [r1, #36]	; 0x24
 8000f78:	4320      	orrs	r0, r4
	GPIOE->AFR[0] &= ~(0xF00000FF); GPIOE->AFR[0] |= (0xC00000CC);
 8000f7a:	4c67      	ldr	r4, [pc, #412]	; (8001118 <SDRAM_init+0x26c>)
	GPIOD->AFR[1] |= (0xC<<0 | 0xC<<4 | 0xC<<8 | 0xC<<24 | 0xC<<28);
 8000f7c:	6248      	str	r0, [r1, #36]	; 0x24
  SET_BIT(RCC->AHB1ENR, Periphs);
 8000f7e:	6b19      	ldr	r1, [r3, #48]	; 0x30
 8000f80:	f041 0110 	orr.w	r1, r1, #16
 8000f84:	6319      	str	r1, [r3, #48]	; 0x30
  tmpreg = READ_BIT(RCC->AHB1ENR, Periphs);
 8000f86:	6b19      	ldr	r1, [r3, #48]	; 0x30
 8000f88:	f001 0110 	and.w	r1, r1, #16
 8000f8c:	9104      	str	r1, [sp, #16]
  (void)tmpreg;
 8000f8e:	9904      	ldr	r1, [sp, #16]
	GPIOE->MODER &= ~(0xFFFFC00F); GPIOE->MODER |= (0xAAAA800A);
 8000f90:	6810      	ldr	r0, [r2, #0]
 8000f92:	4028      	ands	r0, r5
 8000f94:	6010      	str	r0, [r2, #0]
 8000f96:	6810      	ldr	r0, [r2, #0]
 8000f98:	4330      	orrs	r0, r6
 8000f9a:	6010      	str	r0, [r2, #0]
	GPIOE->OSPEEDR &= ~(0xFFFFC00F); GPIOE->OSPEEDR |= (0xAAAA800A);
 8000f9c:	6891      	ldr	r1, [r2, #8]
	GPIOE->AFR[0] &= ~(0xF00000FF); GPIOE->AFR[0] |= (0xC00000CC);
 8000f9e:	485f      	ldr	r0, [pc, #380]	; (800111c <SDRAM_init+0x270>)
	GPIOE->OSPEEDR &= ~(0xFFFFC00F); GPIOE->OSPEEDR |= (0xAAAA800A);
 8000fa0:	4029      	ands	r1, r5
 8000fa2:	6091      	str	r1, [r2, #8]
 8000fa4:	6895      	ldr	r5, [r2, #8]
	GPIOF->MODER &= ~(0xFFC00FFF); GPIOF->MODER |= (0xAA800AAA);
 8000fa6:	495e      	ldr	r1, [pc, #376]	; (8001120 <SDRAM_init+0x274>)
	GPIOE->OSPEEDR &= ~(0xFFFFC00F); GPIOE->OSPEEDR |= (0xAAAA800A);
 8000fa8:	4335      	orrs	r5, r6
	GPIOF->MODER &= ~(0xFFC00FFF); GPIOF->MODER |= (0xAA800AAA);
 8000faa:	4e5e      	ldr	r6, [pc, #376]	; (8001124 <SDRAM_init+0x278>)
	GPIOE->OSPEEDR &= ~(0xFFFFC00F); GPIOE->OSPEEDR |= (0xAAAA800A);
 8000fac:	6095      	str	r5, [r2, #8]
	GPIOE->AFR[0] &= ~(0xF00000FF); GPIOE->AFR[0] |= (0xC00000CC);
 8000fae:	6a15      	ldr	r5, [r2, #32]
 8000fb0:	402c      	ands	r4, r5
 8000fb2:	6214      	str	r4, [r2, #32]
 8000fb4:	6a14      	ldr	r4, [r2, #32]
 8000fb6:	4320      	orrs	r0, r4
 8000fb8:	6210      	str	r0, [r2, #32]
	GPIOE->AFR[1] &= ~(0xFFFFFFFF); GPIOE->AFR[1] |= (0xCCCCCCCC);
 8000fba:	6a50      	ldr	r0, [r2, #36]	; 0x24
 8000fbc:	f8c2 8024 	str.w	r8, [r2, #36]	; 0x24
 8000fc0:	6a54      	ldr	r4, [r2, #36]	; 0x24
	GPIOF->AFR[0] &= ~(0x00FFFFFF); GPIOF->AFR[0] |= (0x00CCCCCC);
 8000fc2:	4859      	ldr	r0, [pc, #356]	; (8001128 <SDRAM_init+0x27c>)
	GPIOE->AFR[1] &= ~(0xFFFFFFFF); GPIOE->AFR[1] |= (0xCCCCCCCC);
 8000fc4:	f044 34cc 	orr.w	r4, r4, #3435973836	; 0xcccccccc
 8000fc8:	6254      	str	r4, [r2, #36]	; 0x24
  SET_BIT(RCC->AHB1ENR, Periphs);
 8000fca:	6b1a      	ldr	r2, [r3, #48]	; 0x30
	GPIOF->AFR[1] &= ~(0xFFFFF000); GPIOF->AFR[1] |= (0xCCCCC000);
 8000fcc:	4c57      	ldr	r4, [pc, #348]	; (800112c <SDRAM_init+0x280>)
 8000fce:	f042 0220 	orr.w	r2, r2, #32
 8000fd2:	631a      	str	r2, [r3, #48]	; 0x30
  tmpreg = READ_BIT(RCC->AHB1ENR, Periphs);
 8000fd4:	6b1a      	ldr	r2, [r3, #48]	; 0x30
 8000fd6:	f002 0220 	and.w	r2, r2, #32
 8000fda:	9203      	str	r2, [sp, #12]
  (void)tmpreg;
 8000fdc:	9a03      	ldr	r2, [sp, #12]
	GPIOF->MODER &= ~(0xFFC00FFF); GPIOF->MODER |= (0xAA800AAA);
 8000fde:	680a      	ldr	r2, [r1, #0]
 8000fe0:	4032      	ands	r2, r6
 8000fe2:	600a      	str	r2, [r1, #0]
 8000fe4:	680a      	ldr	r2, [r1, #0]
 8000fe6:	ea42 020c 	orr.w	r2, r2, ip
 8000fea:	600a      	str	r2, [r1, #0]
	GPIOF->OSPEEDR &= ~(0xFFC00FFF); GPIOF->OSPEEDR |= (0xAA800AAA);
 8000fec:	688d      	ldr	r5, [r1, #8]
	GPIOG->MODER &= ~(0x3<<0 | 0x3<<2 | 0x3<<8 | 0x3<<10 | 0x3<<16 | 0x3<<30);
 8000fee:	4a50      	ldr	r2, [pc, #320]	; (8001130 <SDRAM_init+0x284>)
	GPIOF->OSPEEDR &= ~(0xFFC00FFF); GPIOF->OSPEEDR |= (0xAA800AAA);
 8000ff0:	4035      	ands	r5, r6
 8000ff2:	608d      	str	r5, [r1, #8]
 8000ff4:	688e      	ldr	r6, [r1, #8]
	GPIOG->MODER &= ~(0x3<<0 | 0x3<<2 | 0x3<<8 | 0x3<<10 | 0x3<<16 | 0x3<<30);
 8000ff6:	4d4f      	ldr	r5, [pc, #316]	; (8001134 <SDRAM_init+0x288>)
	GPIOF->OSPEEDR &= ~(0xFFC00FFF); GPIOF->OSPEEDR |= (0xAA800AAA);
 8000ff8:	ea46 060c 	orr.w	r6, r6, ip
	GPIOG->MODER |= (0x2<<0 | 0x2<<2 | 0x2<<8 | 0x2<<10 | 0x2<<16 | 0x2<<30);
 8000ffc:	f8df c160 	ldr.w	ip, [pc, #352]	; 8001160 <SDRAM_init+0x2b4>
	GPIOF->OSPEEDR &= ~(0xFFC00FFF); GPIOF->OSPEEDR |= (0xAA800AAA);
 8001000:	608e      	str	r6, [r1, #8]
	GPIOF->AFR[0] &= ~(0x00FFFFFF); GPIOF->AFR[0] |= (0x00CCCCCC);
 8001002:	6a0e      	ldr	r6, [r1, #32]
 8001004:	f006 467f 	and.w	r6, r6, #4278190080	; 0xff000000
 8001008:	620e      	str	r6, [r1, #32]
 800100a:	6a0e      	ldr	r6, [r1, #32]
 800100c:	4330      	orrs	r0, r6
 800100e:	6208      	str	r0, [r1, #32]
	GPIOF->AFR[1] &= ~(0xFFFFF000); GPIOF->AFR[1] |= (0xCCCCC000);
 8001010:	6a48      	ldr	r0, [r1, #36]	; 0x24
 8001012:	f3c0 000b 	ubfx	r0, r0, #0, #12
 8001016:	6248      	str	r0, [r1, #36]	; 0x24
 8001018:	6a48      	ldr	r0, [r1, #36]	; 0x24
 800101a:	4304      	orrs	r4, r0
	GPIOG->AFR[1] &= ~(0xF<<0 | 0xF<<28);
 800101c:	4846      	ldr	r0, [pc, #280]	; (8001138 <SDRAM_init+0x28c>)
	GPIOF->AFR[1] &= ~(0xFFFFF000); GPIOF->AFR[1] |= (0xCCCCC000);
 800101e:	624c      	str	r4, [r1, #36]	; 0x24
  SET_BIT(RCC->AHB1ENR, Periphs);
 8001020:	6b19      	ldr	r1, [r3, #48]	; 0x30
	GPIOG->AFR[1] |= (0xC<<0 | 0xC<<28);
 8001022:	4c46      	ldr	r4, [pc, #280]	; (800113c <SDRAM_init+0x290>)
 8001024:	f041 0140 	orr.w	r1, r1, #64	; 0x40
 8001028:	6319      	str	r1, [r3, #48]	; 0x30
  tmpreg = READ_BIT(RCC->AHB1ENR, Periphs);
 800102a:	6b19      	ldr	r1, [r3, #48]	; 0x30
 800102c:	f001 0140 	and.w	r1, r1, #64	; 0x40
 8001030:	9102      	str	r1, [sp, #8]
  (void)tmpreg;
 8001032:	9902      	ldr	r1, [sp, #8]
	GPIOG->MODER &= ~(0x3<<0 | 0x3<<2 | 0x3<<8 | 0x3<<10 | 0x3<<16 | 0x3<<30);
 8001034:	6811      	ldr	r1, [r2, #0]
 8001036:	4029      	ands	r1, r5
 8001038:	6011      	str	r1, [r2, #0]
	GPIOG->MODER |= (0x2<<0 | 0x2<<2 | 0x2<<8 | 0x2<<10 | 0x2<<16 | 0x2<<30);
 800103a:	6811      	ldr	r1, [r2, #0]
 800103c:	ea41 010c 	orr.w	r1, r1, ip
 8001040:	6011      	str	r1, [r2, #0]
	GPIOG->OSPEEDR &= ~(0x3<<0 | 0x3<<2 | 0x3<<8 | 0x3<<10 | 0x3<<16 | 0x3<<30);
 8001042:	6896      	ldr	r6, [r2, #8]
	GPIOH->MODER &= ~(0x3<<6 | 0x03<<10); GPIOH->MODER |= (0x2<<6 | 0x02<<10);
 8001044:	493e      	ldr	r1, [pc, #248]	; (8001140 <SDRAM_init+0x294>)
	GPIOG->OSPEEDR &= ~(0x3<<0 | 0x3<<2 | 0x3<<8 | 0x3<<10 | 0x3<<16 | 0x3<<30);
 8001046:	402e      	ands	r6, r5
 8001048:	6096      	str	r6, [r2, #8]
	GPIOG->OSPEEDR |= (0x2<<0 | 0x2<<2 | 0x2<<8 | 0x2<<10 | 0x2<<16 | 0x2<<30);
 800104a:	6895      	ldr	r5, [r2, #8]
	GPIOH->AFR[0] &= ~(0xF<<12 | 0xF<<20); GPIOH->AFR[0] |= (0xC<<12 | 0xC<<20);
 800104c:	4e3d      	ldr	r6, [pc, #244]	; (8001144 <SDRAM_init+0x298>)
	GPIOG->OSPEEDR |= (0x2<<0 | 0x2<<2 | 0x2<<8 | 0x2<<10 | 0x2<<16 | 0x2<<30);
 800104e:	ea45 050c 	orr.w	r5, r5, ip
 8001052:	6095      	str	r5, [r2, #8]
	GPIOG->AFR[0] &= ~(0xF<<0 | 0xF<<4 | 0xF<<16 | 0xF<<20);
 8001054:	6a15      	ldr	r5, [r2, #32]
 8001056:	f005 25ff 	and.w	r5, r5, #4278255360	; 0xff00ff00
 800105a:	6215      	str	r5, [r2, #32]
	GPIOG->AFR[0] |= (0xC<<0 | 0xC<<4 | 0xC<<16 | 0xC<<20);
 800105c:	6a15      	ldr	r5, [r2, #32]
 800105e:	f045 15cc 	orr.w	r5, r5, #13369548	; 0xcc00cc
 8001062:	6215      	str	r5, [r2, #32]
	GPIOG->AFR[1] &= ~(0xF<<0 | 0xF<<28);
 8001064:	6a55      	ldr	r5, [r2, #36]	; 0x24
 8001066:	4028      	ands	r0, r5
	GPIOH->AFR[0] &= ~(0xF<<12 | 0xF<<20); GPIOH->AFR[0] |= (0xC<<12 | 0xC<<20);
 8001068:	4d37      	ldr	r5, [pc, #220]	; (8001148 <SDRAM_init+0x29c>)
	GPIOG->AFR[1] &= ~(0xF<<0 | 0xF<<28);
 800106a:	6250      	str	r0, [r2, #36]	; 0x24
	GPIOG->AFR[1] |= (0xC<<0 | 0xC<<28);
 800106c:	6a50      	ldr	r0, [r2, #36]	; 0x24
 800106e:	4304      	orrs	r4, r0
	FMC_Bank5_6->SDCR[0] = (0x00)<<13 	|	/* RPIPE = 0 */
 8001070:	4836      	ldr	r0, [pc, #216]	; (800114c <SDRAM_init+0x2a0>)
	GPIOG->AFR[1] |= (0xC<<0 | 0xC<<28);
 8001072:	6254      	str	r4, [r2, #36]	; 0x24
						   (0x00)<<5	|
						   (0x01)<<4	|	/* cmd target Bank1 */
						   (0x00)<<3	|
						   (0x01)<<0;		/* cmd mode */
	while(FMC_Bank5_6->SDSR & 0x20);		/* wait for cmd to complete */
 8001074:	4604      	mov	r4, r0
  SET_BIT(RCC->AHB1ENR, Periphs);
 8001076:	6b1a      	ldr	r2, [r3, #48]	; 0x30
 8001078:	f042 0280 	orr.w	r2, r2, #128	; 0x80
 800107c:	631a      	str	r2, [r3, #48]	; 0x30
  tmpreg = READ_BIT(RCC->AHB1ENR, Periphs);
 800107e:	6b1b      	ldr	r3, [r3, #48]	; 0x30
	FMC_Bank5_6->SDTR[0] = (0x01)<<24	|	/* Row-to-col delay = 2 */
 8001080:	4a33      	ldr	r2, [pc, #204]	; (8001150 <SDRAM_init+0x2a4>)
 8001082:	f003 0380 	and.w	r3, r3, #128	; 0x80
 8001086:	9301      	str	r3, [sp, #4]
  (void)tmpreg;
 8001088:	9b01      	ldr	r3, [sp, #4]
	GPIOH->MODER &= ~(0x3<<6 | 0x03<<10); GPIOH->MODER |= (0x2<<6 | 0x02<<10);
 800108a:	680b      	ldr	r3, [r1, #0]
 800108c:	f423 634c 	bic.w	r3, r3, #3264	; 0xcc0
 8001090:	600b      	str	r3, [r1, #0]
 8001092:	680b      	ldr	r3, [r1, #0]
 8001094:	f443 6308 	orr.w	r3, r3, #2176	; 0x880
 8001098:	600b      	str	r3, [r1, #0]
	GPIOH->OSPEEDR &= ~(0x3<<6 | 0x03<<10); GPIOH->OSPEEDR |= (0x2<<6 | 0x02<<10);
 800109a:	688b      	ldr	r3, [r1, #8]
 800109c:	f423 634c 	bic.w	r3, r3, #3264	; 0xcc0
 80010a0:	608b      	str	r3, [r1, #8]
 80010a2:	688b      	ldr	r3, [r1, #8]
 80010a4:	f443 6308 	orr.w	r3, r3, #2176	; 0x880
 80010a8:	608b      	str	r3, [r1, #8]
	GPIOH->AFR[0] &= ~(0xF<<12 | 0xF<<20); GPIOH->AFR[0] |= (0xC<<12 | 0xC<<20);
 80010aa:	6a0b      	ldr	r3, [r1, #32]
 80010ac:	401e      	ands	r6, r3
 80010ae:	620e      	str	r6, [r1, #32]
 80010b0:	6a0b      	ldr	r3, [r1, #32]
 80010b2:	431d      	orrs	r5, r3
 80010b4:	620d      	str	r5, [r1, #32]
	FMC_Bank5_6->SDCR[0] = (0x00)<<13 	|	/* RPIPE = 0 */
 80010b6:	f8c0 e000 	str.w	lr, [r0]
	FMC_Bank5_6->SDTR[0] = (0x01)<<24	|	/* Row-to-col delay = 2 */
 80010ba:	6082      	str	r2, [r0, #8]
	FMC_Bank5_6->SDCMR =   (0x00)<<9	|
 80010bc:	6107      	str	r7, [r0, #16]
	while(FMC_Bank5_6->SDSR & 0x20);		/* wait for cmd to complete */
 80010be:	69a3      	ldr	r3, [r4, #24]
 80010c0:	0698      	lsls	r0, r3, #26
 80010c2:	d4fc      	bmi.n	80010be <SDRAM_init+0x212>
	LL_mDelay(1);							/* wait atleast 100us */
 80010c4:	2001      	movs	r0, #1
 80010c6:	f7ff f89f 	bl	8000208 <LL_mDelay>

	/* Precharge all banks */
	FMC_Bank5_6->SDCMR =   (0x00)<<9	|
 80010ca:	2312      	movs	r3, #18
						   (0x00)<<5	|
						   (0x01)<<4	|	/* cmd target Bank1 */
						   (0x00)<<3	|
						   (0x02)<<0;		/* cmd mode */
	while(FMC_Bank5_6->SDSR & 0x20);		/* wait for cmd to complete */
 80010cc:	4a1f      	ldr	r2, [pc, #124]	; (800114c <SDRAM_init+0x2a0>)
	FMC_Bank5_6->SDCMR =   (0x00)<<9	|
 80010ce:	6123      	str	r3, [r4, #16]
	while(FMC_Bank5_6->SDSR & 0x20);		/* wait for cmd to complete */
 80010d0:	6993      	ldr	r3, [r2, #24]
 80010d2:	0699      	lsls	r1, r3, #26
 80010d4:	d4fc      	bmi.n	80010d0 <SDRAM_init+0x224>

	/* Set no. of Auto-refresh cycles */
	FMC_Bank5_6->SDCMR =   (0x00)<<9	|
 80010d6:	23f3      	movs	r3, #243	; 0xf3
						   (0x07)<<5	|	/* no. of auto-refresh (8 cycles) */
						   (0x01)<<4	|	/* cmd target Bank1 */
						   (0x00)<<3	|
						   (0x03)<<0;		/* cmd mode */
	while(FMC_Bank5_6->SDSR & 0x20);		/* wait for cmd to complete */
 80010d8:	491c      	ldr	r1, [pc, #112]	; (800114c <SDRAM_init+0x2a0>)
	FMC_Bank5_6->SDCMR =   (0x00)<<9	|
 80010da:	6113      	str	r3, [r2, #16]
	while(FMC_Bank5_6->SDSR & 0x20);		/* wait for cmd to complete */
 80010dc:	698b      	ldr	r3, [r1, #24]
 80010de:	069a      	lsls	r2, r3, #26
 80010e0:	d4fc      	bmi.n	80010dc <SDRAM_init+0x230>

	/* Load mode register */
	FMC_Bank5_6->SDCMR =   (0x220)<<9	|	/* mode reg definition */
 80010e2:	4b1c      	ldr	r3, [pc, #112]	; (8001154 <SDRAM_init+0x2a8>)
						   (0x00)<<5	|
						   (0x01)<<4	|	/* cmd target Bank1 */
						   (0x00)<<3	|
						   (0x04)<<0;		/* cmd mode */
	while(FMC_Bank5_6->SDSR & 0x20);		/* wait for cmd to complete */
 80010e4:	4a19      	ldr	r2, [pc, #100]	; (800114c <SDRAM_init+0x2a0>)
	FMC_Bank5_6->SDCMR =   (0x220)<<9	|	/* mode reg definition */
 80010e6:	610b      	str	r3, [r1, #16]
	while(FMC_Bank5_6->SDSR & 0x20);		/* wait for cmd to complete */
 80010e8:	6993      	ldr	r3, [r2, #24]
 80010ea:	069b      	lsls	r3, r3, #26
 80010ec:	d4fc      	bmi.n	80010e8 <SDRAM_init+0x23c>

	/* Set refresh rate */
	FMC_Bank5_6->SDRTR =   (0x0603)<<1;
 80010ee:	f640 4306 	movw	r3, #3078	; 0xc06
 80010f2:	6153      	str	r3, [r2, #20]
}
 80010f4:	b008      	add	sp, #32
 80010f6:	e8bd 81f0 	ldmia.w	sp!, {r4, r5, r6, r7, r8, pc}
 80010fa:	bf00      	nop
 80010fc:	40023800 	.word	0x40023800
 8001100:	40020800 	.word	0x40020800
 8001104:	40020c00 	.word	0x40020c00
 8001108:	a02a000a 	.word	0xa02a000a
 800110c:	00fff000 	.word	0x00fff000
 8001110:	cc000ccc 	.word	0xcc000ccc
 8001114:	40021000 	.word	0x40021000
 8001118:	0fffff00 	.word	0x0fffff00
 800111c:	c00000cc 	.word	0xc00000cc
 8001120:	40021400 	.word	0x40021400
 8001124:	003ff000 	.word	0x003ff000
 8001128:	00cccccc 	.word	0x00cccccc
 800112c:	ccccc000 	.word	0xccccc000
 8001130:	40021800 	.word	0x40021800
 8001134:	3ffcf0f0 	.word	0x3ffcf0f0
 8001138:	0ffffff0 	.word	0x0ffffff0
 800113c:	c000000c 	.word	0xc000000c
 8001140:	40021c00 	.word	0x40021c00
 8001144:	ff0f0fff 	.word	0xff0f0fff
 8001148:	00c0c000 	.word	0x00c0c000
 800114c:	a0000140 	.word	0xa0000140
 8001150:	01116361 	.word	0x01116361
 8001154:	00044014 	.word	0x00044014
 8001158:	0fc0fff0 	.word	0x0fc0fff0
 800115c:	aa800aaa 	.word	0xaa800aaa
 8001160:	80020a0a 	.word	0x80020a0a

08001164 <DMA2D_init>:
  SET_BIT(RCC->AHB1ENR, Periphs);
 8001164:	4b20      	ldr	r3, [pc, #128]	; (80011e8 <DMA2D_init+0x84>)
void DMA2D_init(void)
{
	LL_AHB1_GRP1_EnableClock(LL_AHB1_GRP1_PERIPH_DMA2D);

	/* wait for any ongoing transfers to complete */
	while(DMA2D->CR & 0x01);
 8001166:	4921      	ldr	r1, [pc, #132]	; (80011ec <DMA2D_init+0x88>)
 8001168:	6b1a      	ldr	r2, [r3, #48]	; 0x30
 800116a:	f442 0200 	orr.w	r2, r2, #8388608	; 0x800000
{
 800116e:	b4f0      	push	{r4, r5, r6, r7}
 8001170:	631a      	str	r2, [r3, #48]	; 0x30
 8001172:	b082      	sub	sp, #8
  tmpreg = READ_BIT(RCC->AHB1ENR, Periphs);
 8001174:	6b1b      	ldr	r3, [r3, #48]	; 0x30
 8001176:	f403 0300 	and.w	r3, r3, #8388608	; 0x800000
 800117a:	9301      	str	r3, [sp, #4]
  (void)tmpreg;
 800117c:	9b01      	ldr	r3, [sp, #4]
	while(DMA2D->CR & 0x01);
 800117e:	680b      	ldr	r3, [r1, #0]
 8001180:	f013 0301 	ands.w	r3, r3, #1
 8001184:	d1fb      	bne.n	800117e <DMA2D_init+0x1a>
	DMA2D->CR = 0x00030100;					/* reg-memory, transfer error intr enable */
	DMA2D->OCOLR = C_BLACK;					/* fill uGUI draw buffer with black */

	DMA2D->OMAR	= LCD_DRAW_BUFFER_UGUI;		/* output addr */
	DMA2D->OPFCCR = 0x02;					/* output format RGB565 */
	DMA2D->NLR = (RK043FN48H_WIDTH)<<16 |	/* frame dimensions */
 8001186:	4a1a      	ldr	r2, [pc, #104]	; (80011f0 <DMA2D_init+0x8c>)
	DMA2D->OPFCCR = 0x02;					/* output format RGB565 */
 8001188:	2002      	movs	r0, #2
	DMA2D->CR = 0x00030100;					/* reg-memory, transfer error intr enable */
 800118a:	4d1a      	ldr	r5, [pc, #104]	; (80011f4 <DMA2D_init+0x90>)
	DMA2D->OMAR	= LCD_DRAW_BUFFER_UGUI;		/* output addr */
 800118c:	4c1a      	ldr	r4, [pc, #104]	; (80011f8 <DMA2D_init+0x94>)
	DMA2D->CR = 0x00030100;					/* reg-memory, transfer error intr enable */
 800118e:	600d      	str	r5, [r1, #0]
	DMA2D->OCOLR = C_BLACK;					/* fill uGUI draw buffer with black */
 8001190:	638b      	str	r3, [r1, #56]	; 0x38
	DMA2D->OMAR	= LCD_DRAW_BUFFER_UGUI;		/* output addr */
 8001192:	63cc      	str	r4, [r1, #60]	; 0x3c
	DMA2D->OPFCCR = 0x02;					/* output format RGB565 */
 8001194:	6348      	str	r0, [r1, #52]	; 0x34
	DMA2D->NLR = (RK043FN48H_WIDTH)<<16 |	/* frame dimensions */
 8001196:	644a      	str	r2, [r1, #68]	; 0x44
					(RK043FN48H_HEIGHT)<<0;

	DMA2D->IFCR |= 0x3F;					/* clear all flags */
 8001198:	688b      	ldr	r3, [r1, #8]
	DMA2D->CR |= 0x01;						/* start transfer */

	/* wait for the transfer to complete */
	while(DMA2D->CR & 0x01);
 800119a:	4a14      	ldr	r2, [pc, #80]	; (80011ec <DMA2D_init+0x88>)
	DMA2D->IFCR |= 0x3F;					/* clear all flags */
 800119c:	f043 033f 	orr.w	r3, r3, #63	; 0x3f
 80011a0:	608b      	str	r3, [r1, #8]
	DMA2D->CR |= 0x01;						/* start transfer */
 80011a2:	680b      	ldr	r3, [r1, #0]
 80011a4:	f043 0301 	orr.w	r3, r3, #1
 80011a8:	600b      	str	r3, [r1, #0]
	while(DMA2D->CR & 0x01);
 80011aa:	6813      	ldr	r3, [r2, #0]
 80011ac:	f013 0301 	ands.w	r3, r3, #1
 80011b0:	d1fb      	bne.n	80011aa <DMA2D_init+0x46>

	DMA2D->CR = 0x00030100;					/* reg-memory, transfer error intr enable */
 80011b2:	4f10      	ldr	r7, [pc, #64]	; (80011f4 <DMA2D_init+0x90>)
	DMA2D->OCOLR = C_BLACK;					/* fill Wave draw buffer with black */

	DMA2D->OMAR	= LCD_DRAW_BUFFER_WAVE;		/* output addr */
	DMA2D->OPFCCR = 0x02;					/* output format RGB565 */
 80011b4:	2502      	movs	r5, #2
	DMA2D->OMAR	= LCD_DRAW_BUFFER_WAVE;		/* output addr */
 80011b6:	4e11      	ldr	r6, [pc, #68]	; (80011fc <DMA2D_init+0x98>)
    NVIC->IP[((uint32_t)IRQn)]                = (uint8_t)((priority << (8U - __NVIC_PRIO_BITS)) & (uint32_t)0xFFUL);
 80011b8:	2420      	movs	r4, #32
	DMA2D->NLR = (RK043FN48H_WIDTH)<<16 |	/* frame dimensions */
 80011ba:	490d      	ldr	r1, [pc, #52]	; (80011f0 <DMA2D_init+0x8c>)
    NVIC->ISER[(((uint32_t)IRQn) >> 5UL)] = (uint32_t)(1UL << (((uint32_t)IRQn) & 0x1FUL));
 80011bc:	f04f 6080 	mov.w	r0, #67108864	; 0x4000000
	DMA2D->CR = 0x00030100;					/* reg-memory, transfer error intr enable */
 80011c0:	6017      	str	r7, [r2, #0]
	DMA2D->OCOLR = C_BLACK;					/* fill Wave draw buffer with black */
 80011c2:	6393      	str	r3, [r2, #56]	; 0x38
	DMA2D->OMAR	= LCD_DRAW_BUFFER_WAVE;		/* output addr */
 80011c4:	63d6      	str	r6, [r2, #60]	; 0x3c
	DMA2D->OPFCCR = 0x02;					/* output format RGB565 */
 80011c6:	6355      	str	r5, [r2, #52]	; 0x34
	DMA2D->NLR = (RK043FN48H_WIDTH)<<16 |	/* frame dimensions */
 80011c8:	6451      	str	r1, [r2, #68]	; 0x44
					(RK043FN48H_HEIGHT)<<0;

	DMA2D->IFCR |= 0x3F;					/* clear all flags */
 80011ca:	6893      	ldr	r3, [r2, #8]
    NVIC->IP[((uint32_t)IRQn)]                = (uint8_t)((priority << (8U - __NVIC_PRIO_BITS)) & (uint32_t)0xFFUL);
 80011cc:	490c      	ldr	r1, [pc, #48]	; (8001200 <DMA2D_init+0x9c>)
 80011ce:	f043 033f 	orr.w	r3, r3, #63	; 0x3f
 80011d2:	6093      	str	r3, [r2, #8]
	DMA2D->CR |= 0x01;						/* start transfer */
 80011d4:	6813      	ldr	r3, [r2, #0]
 80011d6:	f043 0301 	orr.w	r3, r3, #1
 80011da:	6013      	str	r3, [r2, #0]
 80011dc:	f881 435a 	strb.w	r4, [r1, #858]	; 0x35a
    NVIC->ISER[(((uint32_t)IRQn) >> 5UL)] = (uint32_t)(1UL << (((uint32_t)IRQn) & 0x1FUL));
 80011e0:	6088      	str	r0, [r1, #8]

	NVIC_SetPriority(DMA2D_IRQn, 2);
	NVIC_EnableIRQ(DMA2D_IRQn);
}
 80011e2:	b002      	add	sp, #8
 80011e4:	bcf0      	pop	{r4, r5, r6, r7}
 80011e6:	4770      	bx	lr
 80011e8:	40023800 	.word	0x40023800
 80011ec:	4002b000 	.word	0x4002b000
 80011f0:	01e00110 	.word	0x01e00110
 80011f4:	00030100 	.word	0x00030100
 80011f8:	c0200000 	.word	0xc0200000
 80011fc:	c0400000 	.word	0xc0400000
 8001200:	e000e100 	.word	0xe000e100

08001204 <I2C_TS_init>:
  SET_BIT(RCC->AHB1ENR, Periphs);
 8001204:	4953      	ldr	r1, [pc, #332]	; (8001354 <I2C_TS_init+0x150>)
 8001206:	2280      	movs	r2, #128	; 0x80
  MODIFY_REG(GPIOx->MODER, (GPIO_MODER_MODER0 << (POSITION_VAL(Pin) * 2U)), (Mode << (POSITION_VAL(Pin) * 2U)));
 8001208:	4b53      	ldr	r3, [pc, #332]	; (8001358 <I2C_TS_init+0x154>)
 800120a:	6b08      	ldr	r0, [r1, #48]	; 0x30
 800120c:	4310      	orrs	r0, r2
  * @brief  Touch screen I2C initialization.
  * @param  None
  * @retval None
  */
void I2C_TS_init(void)
{
 800120e:	b5f0      	push	{r4, r5, r6, r7, lr}
 8001210:	6308      	str	r0, [r1, #48]	; 0x30
 8001212:	b083      	sub	sp, #12
  tmpreg = READ_BIT(RCC->AHB1ENR, Periphs);
 8001214:	6b08      	ldr	r0, [r1, #48]	; 0x30
 8001216:	4010      	ands	r0, r2
 8001218:	9001      	str	r0, [sp, #4]
  (void)tmpreg;
 800121a:	9801      	ldr	r0, [sp, #4]
 800121c:	f8d3 e000 	ldr.w	lr, [r3]
 8001220:	fa92 f5a2 	rbit	r5, r2
 8001224:	fab5 f585 	clz	r5, r5
 8001228:	fa92 f4a2 	rbit	r4, r2
 800122c:	2703      	movs	r7, #3
 800122e:	fab4 f484 	clz	r4, r4
 8001232:	006d      	lsls	r5, r5, #1
 8001234:	2602      	movs	r6, #2
 8001236:	0064      	lsls	r4, r4, #1
 8001238:	f44f 7080 	mov.w	r0, #256	; 0x100
 800123c:	fa07 f505 	lsl.w	r5, r7, r5
 8001240:	fa06 f404 	lsl.w	r4, r6, r4
 8001244:	ea2e 0505 	bic.w	r5, lr, r5
 8001248:	432c      	orrs	r4, r5
 800124a:	601c      	str	r4, [r3, #0]
 800124c:	f8d3 e000 	ldr.w	lr, [r3]
 8001250:	fa90 f5a0 	rbit	r5, r0
 8001254:	fab5 f585 	clz	r5, r5
 8001258:	fa90 f4a0 	rbit	r4, r0
 800125c:	fab4 f484 	clz	r4, r4
 8001260:	006d      	lsls	r5, r5, #1
 8001262:	0064      	lsls	r4, r4, #1
 8001264:	fa07 f505 	lsl.w	r5, r7, r5
 8001268:	fa06 f404 	lsl.w	r4, r6, r4
 800126c:	ea2e 0505 	bic.w	r5, lr, r5
 8001270:	432c      	orrs	r4, r5
 8001272:	601c      	str	r4, [r3, #0]
  MODIFY_REG(GPIOx->OSPEEDR, (GPIO_OSPEEDER_OSPEEDR0 << (POSITION_VAL(Pin) * 2U)),
 8001274:	f8d3 e008 	ldr.w	lr, [r3, #8]
 8001278:	fa92 f5a2 	rbit	r5, r2
 800127c:	fab5 f585 	clz	r5, r5
 8001280:	fa92 f4a2 	rbit	r4, r2
 8001284:	fab4 f484 	clz	r4, r4
 8001288:	006d      	lsls	r5, r5, #1
 800128a:	0064      	lsls	r4, r4, #1
 800128c:	fa07 f505 	lsl.w	r5, r7, r5
 8001290:	fa06 f404 	lsl.w	r4, r6, r4
 8001294:	ea2e 0505 	bic.w	r5, lr, r5
 8001298:	432c      	orrs	r4, r5
 800129a:	609c      	str	r4, [r3, #8]
 800129c:	689c      	ldr	r4, [r3, #8]
 800129e:	fa90 f5a0 	rbit	r5, r0
 80012a2:	fab5 f585 	clz	r5, r5
 80012a6:	fa90 f0a0 	rbit	r0, r0
 80012aa:	006d      	lsls	r5, r5, #1
 80012ac:	fab0 f080 	clz	r0, r0
 80012b0:	40af      	lsls	r7, r5
 80012b2:	0040      	lsls	r0, r0, #1
 80012b4:	ea24 0707 	bic.w	r7, r4, r7
 80012b8:	fa06 f000 	lsl.w	r0, r6, r0
 80012bc:	4338      	orrs	r0, r7
 80012be:	6098      	str	r0, [r3, #8]
  MODIFY_REG(GPIOx->OTYPER, PinMask, (PinMask * OutputType));
 80012c0:	6858      	ldr	r0, [r3, #4]
 80012c2:	f440 70c0 	orr.w	r0, r0, #384	; 0x180
 80012c6:	6058      	str	r0, [r3, #4]
  MODIFY_REG(GPIOx->AFR[0], (GPIO_AFRL_AFRL0 << (POSITION_VAL(Pin) * 4U)),
 80012c8:	6a1e      	ldr	r6, [r3, #32]
 80012ca:	fa92 f4a2 	rbit	r4, r2
 80012ce:	fab4 f484 	clz	r4, r4
 80012d2:	fa92 f2a2 	rbit	r2, r2
 80012d6:	250f      	movs	r5, #15
 80012d8:	fab2 f282 	clz	r2, r2
 80012dc:	00a4      	lsls	r4, r4, #2
 80012de:	2704      	movs	r7, #4
 80012e0:	0092      	lsls	r2, r2, #2
 80012e2:	2001      	movs	r0, #1
 80012e4:	fa05 f404 	lsl.w	r4, r5, r4
 80012e8:	fa07 f202 	lsl.w	r2, r7, r2
 80012ec:	ea26 0404 	bic.w	r4, r6, r4
 80012f0:	4322      	orrs	r2, r4
 80012f2:	621a      	str	r2, [r3, #32]
  MODIFY_REG(GPIOx->AFR[1], (GPIO_AFRH_AFRH0 << (POSITION_VAL(Pin >> 8U) * 4U)),
 80012f4:	6a5c      	ldr	r4, [r3, #36]	; 0x24
 80012f6:	fa90 f6a0 	rbit	r6, r0
 80012fa:	fab6 f686 	clz	r6, r6
 80012fe:	fa90 f0a0 	rbit	r0, r0
 8001302:	00b6      	lsls	r6, r6, #2
 8001304:	fab0 f080 	clz	r0, r0

	TS_I2Cx_CLK_ENABLE();
	TS_I2Cx_FORCE_RESET();
	TS_I2Cx_RELEASE_RESET();

	TS_I2Cx->TIMINGR = I2Cx_TIMING;
 8001308:	4a14      	ldr	r2, [pc, #80]	; (800135c <I2C_TS_init+0x158>)
 800130a:	40b5      	lsls	r5, r6
 800130c:	0080      	lsls	r0, r0, #2
 800130e:	4e14      	ldr	r6, [pc, #80]	; (8001360 <I2C_TS_init+0x15c>)
 8001310:	4087      	lsls	r7, r0
 8001312:	ea24 0005 	bic.w	r0, r4, r5
 8001316:	4338      	orrs	r0, r7
 8001318:	6258      	str	r0, [r3, #36]	; 0x24
  SET_BIT(RCC->APB1ENR, Periphs);
 800131a:	6c0b      	ldr	r3, [r1, #64]	; 0x40
 800131c:	f443 0300 	orr.w	r3, r3, #8388608	; 0x800000
 8001320:	640b      	str	r3, [r1, #64]	; 0x40
  tmpreg = READ_BIT(RCC->APB1ENR, Periphs);
 8001322:	6c0b      	ldr	r3, [r1, #64]	; 0x40
 8001324:	f403 0300 	and.w	r3, r3, #8388608	; 0x800000
 8001328:	9300      	str	r3, [sp, #0]
  (void)tmpreg;
 800132a:	9b00      	ldr	r3, [sp, #0]
  SET_BIT(RCC->APB1RSTR, Periphs);
 800132c:	6a0b      	ldr	r3, [r1, #32]
 800132e:	f443 0300 	orr.w	r3, r3, #8388608	; 0x800000
 8001332:	620b      	str	r3, [r1, #32]
  CLEAR_BIT(RCC->APB1RSTR, Periphs);
 8001334:	6a0b      	ldr	r3, [r1, #32]
 8001336:	f423 0300 	bic.w	r3, r3, #8388608	; 0x800000
 800133a:	620b      	str	r3, [r1, #32]
 800133c:	6116      	str	r6, [r2, #16]
	TS_I2Cx->CR2 	|= LL_I2C_MODE_AUTOEND;
 800133e:	6853      	ldr	r3, [r2, #4]
 8001340:	f043 7300 	orr.w	r3, r3, #33554432	; 0x2000000
 8001344:	6053      	str	r3, [r2, #4]
	TS_I2Cx->CR1 	|= I2C_CR1_PE;			 /* Enable I2C */
 8001346:	6813      	ldr	r3, [r2, #0]
 8001348:	f043 0301 	orr.w	r3, r3, #1
 800134c:	6013      	str	r3, [r2, #0]
}
 800134e:	b003      	add	sp, #12
 8001350:	bdf0      	pop	{r4, r5, r6, r7, pc}
 8001352:	bf00      	nop
 8001354:	40023800 	.word	0x40023800
 8001358:	40021c00 	.word	0x40021c00
 800135c:	40005c00 	.word	0x40005c00
 8001360:	40912732 	.word	0x40912732

08001364 <SystemClock_Config>:
  SET_BIT(RCC->CR, RCC_CR_HSEON);
 8001364:	4b37      	ldr	r3, [pc, #220]	; (8001444 <SystemClock_Config+0xe0>)
 8001366:	6819      	ldr	r1, [r3, #0]
  return (READ_BIT(RCC->CR, RCC_CR_HSERDY) == (RCC_CR_HSERDY));
 8001368:	461a      	mov	r2, r3
  *            Flash Latency(WS)              = 6
  * @param  None
  * @retval None
  */
void SystemClock_Config(void)
{
 800136a:	b5f0      	push	{r4, r5, r6, r7, lr}
  SET_BIT(RCC->CR, RCC_CR_HSEON);
 800136c:	f441 3180 	orr.w	r1, r1, #65536	; 0x10000
 8001370:	b083      	sub	sp, #12
 8001372:	6019      	str	r1, [r3, #0]
  return (READ_BIT(RCC->CR, RCC_CR_HSERDY) == (RCC_CR_HSERDY));
 8001374:	6813      	ldr	r3, [r2, #0]
  /* Enable HSE */
  LL_RCC_HSE_Enable();
  while(LL_RCC_HSE_IsReady() != 1){
 8001376:	039c      	lsls	r4, r3, #14
 8001378:	d5fc      	bpl.n	8001374 <SystemClock_Config+0x10>
  MODIFY_REG(RCC->PLLCFGR, RCC_PLLCFGR_PLLSRC | RCC_PLLCFGR_PLLM | RCC_PLLCFGR_PLLN | RCC_PLLCFGR_PLLP,
 800137a:	6851      	ldr	r1, [r2, #4]
 800137c:	4832      	ldr	r0, [pc, #200]	; (8001448 <SystemClock_Config+0xe4>)
 800137e:	4b33      	ldr	r3, [pc, #204]	; (800144c <SystemClock_Config+0xe8>)
 8001380:	4008      	ands	r0, r1
  return (READ_BIT(RCC->CR, RCC_CR_PLLRDY) == (RCC_CR_PLLRDY));
 8001382:	4930      	ldr	r1, [pc, #192]	; (8001444 <SystemClock_Config+0xe0>)
  MODIFY_REG(RCC->PLLCFGR, RCC_PLLCFGR_PLLSRC | RCC_PLLCFGR_PLLM | RCC_PLLCFGR_PLLN | RCC_PLLCFGR_PLLP,
 8001384:	4303      	orrs	r3, r0
 8001386:	6053      	str	r3, [r2, #4]
  SET_BIT(RCC->CR, RCC_CR_PLLON);
 8001388:	6813      	ldr	r3, [r2, #0]
 800138a:	f043 7380 	orr.w	r3, r3, #16777216	; 0x1000000
 800138e:	6013      	str	r3, [r2, #0]
  return (READ_BIT(RCC->CR, RCC_CR_PLLRDY) == (RCC_CR_PLLRDY));
 8001390:	680b      	ldr	r3, [r1, #0]
  }

  /* Main PLL configuration and activation */
  LL_RCC_PLL_ConfigDomain_SYS(LL_RCC_PLLSOURCE_HSE, LL_RCC_PLLM_DIV_25, 400, LL_RCC_PLLP_DIV_2);
  LL_RCC_PLL_Enable();
  while(LL_RCC_PLL_IsReady() != 1){
 8001392:	0198      	lsls	r0, r3, #6
 8001394:	d5fc      	bpl.n	8001390 <SystemClock_Config+0x2c>
  SET_BIT(RCC->APB1ENR, Periphs);
 8001396:	6c08      	ldr	r0, [r1, #64]	; 0x40
  * @rmtoll CR1    ODEN       LL_PWR_EnableOverDriveMode
  * @retval None
  */
__STATIC_INLINE void LL_PWR_EnableOverDriveMode(void)
{
  SET_BIT(PWR->CR1, PWR_CR1_ODEN);
 8001398:	4b2d      	ldr	r3, [pc, #180]	; (8001450 <SystemClock_Config+0xec>)
 800139a:	f040 5080 	orr.w	r0, r0, #268435456	; 0x10000000
  * @rmtoll CSR1   ODRDY       LL_PWR_IsActiveFlag_OD
  * @retval State of bit (1 or 0).
  */
__STATIC_INLINE uint32_t LL_PWR_IsActiveFlag_OD(void)
{
  return (READ_BIT(PWR->CSR1, PWR_CSR1_ODRDY) == (PWR_CSR1_ODRDY));
 800139e:	461a      	mov	r2, r3
 80013a0:	6408      	str	r0, [r1, #64]	; 0x40
  tmpreg = READ_BIT(RCC->APB1ENR, Periphs);
 80013a2:	6c09      	ldr	r1, [r1, #64]	; 0x40
 80013a4:	f001 5180 	and.w	r1, r1, #268435456	; 0x10000000
 80013a8:	9101      	str	r1, [sp, #4]
  (void)tmpreg;
 80013aa:	9901      	ldr	r1, [sp, #4]
  SET_BIT(PWR->CR1, PWR_CR1_ODEN);
 80013ac:	6819      	ldr	r1, [r3, #0]
 80013ae:	f441 3180 	orr.w	r1, r1, #65536	; 0x10000
 80013b2:	6019      	str	r1, [r3, #0]
  return (READ_BIT(PWR->CSR1, PWR_CSR1_ODRDY) == (PWR_CSR1_ODRDY));
 80013b4:	6853      	ldr	r3, [r2, #4]
  /* Enable PWR clock */
  LL_APB1_GRP1_EnableClock(LL_APB1_GRP1_PERIPH_PWR);

  /* Activation OverDrive Mode */
  LL_PWR_EnableOverDriveMode();
  while(LL_PWR_IsActiveFlag_OD() != 1){
 80013b6:	03d9      	lsls	r1, r3, #15
 80013b8:	d5fc      	bpl.n	80013b4 <SystemClock_Config+0x50>
  SET_BIT(PWR->CR1, PWR_CR1_ODSWEN);
 80013ba:	6813      	ldr	r3, [r2, #0]
  * @rmtoll CSR1   ODSWRDY       LL_PWR_IsActiveFlag_ODSW
  * @retval State of bit (1 or 0).
  */
__STATIC_INLINE uint32_t LL_PWR_IsActiveFlag_ODSW(void)
{
  return (READ_BIT(PWR->CSR1, PWR_CSR1_ODSWRDY) == (PWR_CSR1_ODSWRDY));
 80013bc:	4924      	ldr	r1, [pc, #144]	; (8001450 <SystemClock_Config+0xec>)
  SET_BIT(PWR->CR1, PWR_CR1_ODSWEN);
 80013be:	f443 3300 	orr.w	r3, r3, #131072	; 0x20000
 80013c2:	6013      	str	r3, [r2, #0]
  return (READ_BIT(PWR->CSR1, PWR_CSR1_ODSWRDY) == (PWR_CSR1_ODSWRDY));
 80013c4:	684b      	ldr	r3, [r1, #4]
  }

  /* Activation OverDrive Switching */
  LL_PWR_EnableOverDriveSwitching();
  while(LL_PWR_IsActiveFlag_ODSW() != 1){
 80013c6:	039b      	lsls	r3, r3, #14
 80013c8:	d5fc      	bpl.n	80013c4 <SystemClock_Config+0x60>
  *         @arg @ref LL_FLASH_LATENCY_15
  * @retval None
  */
__STATIC_INLINE void LL_FLASH_SetLatency(uint32_t Latency)
{
  MODIFY_REG(FLASH->ACR, FLASH_ACR_LATENCY, Latency);
 80013ca:	4922      	ldr	r1, [pc, #136]	; (8001454 <SystemClock_Config+0xf0>)
 80013cc:	680b      	ldr	r3, [r1, #0]
  *         @arg @ref LL_FLASH_LATENCY_14
  *         @arg @ref LL_FLASH_LATENCY_15
  */
__STATIC_INLINE uint32_t LL_FLASH_GetLatency(void)
{
  return (uint32_t)(READ_BIT(FLASH->ACR, FLASH_ACR_LATENCY));
 80013ce:	460a      	mov	r2, r1
  MODIFY_REG(FLASH->ACR, FLASH_ACR_LATENCY, Latency);
 80013d0:	f023 030f 	bic.w	r3, r3, #15
 80013d4:	f043 0306 	orr.w	r3, r3, #6
 80013d8:	600b      	str	r3, [r1, #0]
  return (uint32_t)(READ_BIT(FLASH->ACR, FLASH_ACR_LATENCY));
 80013da:	6813      	ldr	r3, [r2, #0]
 80013dc:	f003 030f 	and.w	r3, r3, #15

  /* Set FLASH latency */
  LL_FLASH_SetLatency(LL_FLASH_LATENCY_6);

  /* Check if the new latency value has taken effect */
  while(LL_FLASH_GetLatency() != LL_FLASH_LATENCY_6){
 80013e0:	2b06      	cmp	r3, #6
 80013e2:	d1fa      	bne.n	80013da <SystemClock_Config+0x76>
  MODIFY_REG(RCC->CFGR, RCC_CFGR_HPRE, Prescaler);
 80013e4:	4b17      	ldr	r3, [pc, #92]	; (8001444 <SystemClock_Config+0xe0>)
 80013e6:	6899      	ldr	r1, [r3, #8]
  return (uint32_t)(READ_BIT(RCC->CFGR, RCC_CFGR_SWS));
 80013e8:	461a      	mov	r2, r3
  MODIFY_REG(RCC->CFGR, RCC_CFGR_HPRE, Prescaler);
 80013ea:	f021 01f0 	bic.w	r1, r1, #240	; 0xf0
 80013ee:	6099      	str	r1, [r3, #8]
  MODIFY_REG(RCC->CFGR, RCC_CFGR_SW, Source);
 80013f0:	6899      	ldr	r1, [r3, #8]
 80013f2:	f021 0103 	bic.w	r1, r1, #3
 80013f6:	f041 0102 	orr.w	r1, r1, #2
 80013fa:	6099      	str	r1, [r3, #8]
  return (uint32_t)(READ_BIT(RCC->CFGR, RCC_CFGR_SWS));
 80013fc:	6893      	ldr	r3, [r2, #8]
 80013fe:	f003 030c 	and.w	r3, r3, #12
  }

  /* Sysclk activation on the main PLL */
  LL_RCC_SetAHBPrescaler(LL_RCC_SYSCLK_DIV_1);
  LL_RCC_SetSysClkSource(LL_RCC_SYS_CLKSOURCE_PLL);
  while(LL_RCC_GetSysClkSource() != LL_RCC_SYS_CLKSOURCE_STATUS_PLL){
 8001402:	2b08      	cmp	r3, #8
 8001404:	d1fa      	bne.n	80013fc <SystemClock_Config+0x98>
  MODIFY_REG(RCC->CFGR, RCC_CFGR_PPRE1, Prescaler);
 8001406:	6893      	ldr	r3, [r2, #8]
  }
  else
  {
    SCB->SHPR[(((uint32_t)IRQn) & 0xFUL)-4UL] = (uint8_t)((priority << (8U - __NVIC_PRIO_BITS)) & (uint32_t)0xFFUL);
 8001408:	f04f 0ef0 	mov.w	lr, #240	; 0xf0
  if ((ticks - 1UL) > SysTick_LOAD_RELOAD_Msk)
  {
    return (1UL);                                                   /* Reload value impossible */
  }

  SysTick->LOAD  = (uint32_t)(ticks - 1UL);                         /* set reload register */
 800140c:	4912      	ldr	r1, [pc, #72]	; (8001458 <SystemClock_Config+0xf4>)
  NVIC_SetPriority (SysTick_IRQn, (1UL << __NVIC_PRIO_BITS) - 1UL); /* set Priority for Systick Interrupt */
  SysTick->VAL   = 0UL;                                             /* Load the SysTick Counter Value */
 800140e:	2600      	movs	r6, #0
 8001410:	f423 53e0 	bic.w	r3, r3, #7168	; 0x1c00
  SysTick->LOAD  = (uint32_t)(ticks - 1UL);                         /* set reload register */
 8001414:	f8df c050 	ldr.w	ip, [pc, #80]	; 8001468 <SystemClock_Config+0x104>
    SCB->SHPR[(((uint32_t)IRQn) & 0xFUL)-4UL] = (uint8_t)((priority << (8U - __NVIC_PRIO_BITS)) & (uint32_t)0xFFUL);
 8001418:	4f10      	ldr	r7, [pc, #64]	; (800145c <SystemClock_Config+0xf8>)
  SysTick->CTRL  = SysTick_CTRL_CLKSOURCE_Msk |
 800141a:	2507      	movs	r5, #7
 800141c:	f443 53a0 	orr.w	r3, r3, #5120	; 0x1400

  /* Set systick to 1ms */
  SysTick_Config(200000000 / 1000);

  /* Update CMSIS variable (which can be updated also through SystemCoreClockUpdate function) */
  SystemCoreClock = 200000000;
 8001420:	480f      	ldr	r0, [pc, #60]	; (8001460 <SystemClock_Config+0xfc>)
 8001422:	4c10      	ldr	r4, [pc, #64]	; (8001464 <SystemClock_Config+0x100>)
 8001424:	6093      	str	r3, [r2, #8]
  MODIFY_REG(RCC->CFGR, RCC_CFGR_PPRE2, Prescaler);
 8001426:	6893      	ldr	r3, [r2, #8]
 8001428:	f423 4360 	bic.w	r3, r3, #57344	; 0xe000
 800142c:	f443 4300 	orr.w	r3, r3, #32768	; 0x8000
 8001430:	6093      	str	r3, [r2, #8]
  SysTick->LOAD  = (uint32_t)(ticks - 1UL);                         /* set reload register */
 8001432:	f8c1 c004 	str.w	ip, [r1, #4]
    SCB->SHPR[(((uint32_t)IRQn) & 0xFUL)-4UL] = (uint8_t)((priority << (8U - __NVIC_PRIO_BITS)) & (uint32_t)0xFFUL);
 8001436:	f887 e023 	strb.w	lr, [r7, #35]	; 0x23
  SysTick->VAL   = 0UL;                                             /* Load the SysTick Counter Value */
 800143a:	608e      	str	r6, [r1, #8]
  SysTick->CTRL  = SysTick_CTRL_CLKSOURCE_Msk |
 800143c:	600d      	str	r5, [r1, #0]
 800143e:	6004      	str	r4, [r0, #0]
}
 8001440:	b003      	add	sp, #12
 8001442:	bdf0      	pop	{r4, r5, r6, r7, pc}
 8001444:	40023800 	.word	0x40023800
 8001448:	ffbc8000 	.word	0xffbc8000
 800144c:	00406419 	.word	0x00406419
 8001450:	40007000 	.word	0x40007000
 8001454:	40023c00 	.word	0x40023c00
 8001458:	e000e010 	.word	0xe000e010
 800145c:	e000ed00 	.word	0xe000ed00
 8001460:	20000004 	.word	0x20000004
 8001464:	0bebc200 	.word	0x0bebc200
 8001468:	00030d3f 	.word	0x00030d3f

0800146c <CPU_CACHE_Enable>:
  * @brief  CPU L1-Cache enable.
  * @param  None
  * @retval None
  */
void CPU_CACHE_Enable(void)
{
 800146c:	b5f0      	push	{r4, r5, r6, r7, lr}
  __ASM volatile ("dsb 0xF":::"memory");
 800146e:	f3bf 8f4f 	dsb	sy
  __ASM volatile ("isb 0xF":::"memory");
 8001472:	f3bf 8f6f 	isb	sy
    SCB->ICIALLU = 0UL;                     /* invalidate I-Cache */
 8001476:	4c1d      	ldr	r4, [pc, #116]	; (80014ec <CPU_CACHE_Enable+0x80>)
 8001478:	2200      	movs	r2, #0
 800147a:	f8c4 2250 	str.w	r2, [r4, #592]	; 0x250
  __ASM volatile ("dsb 0xF":::"memory");
 800147e:	f3bf 8f4f 	dsb	sy
  __ASM volatile ("isb 0xF":::"memory");
 8001482:	f3bf 8f6f 	isb	sy
    SCB->CCR |=  (uint32_t)SCB_CCR_IC_Msk;  /* enable I-Cache */
 8001486:	6963      	ldr	r3, [r4, #20]
 8001488:	f443 3300 	orr.w	r3, r3, #131072	; 0x20000
 800148c:	6163      	str	r3, [r4, #20]
  __ASM volatile ("dsb 0xF":::"memory");
 800148e:	f3bf 8f4f 	dsb	sy
  __ASM volatile ("isb 0xF":::"memory");
 8001492:	f3bf 8f6f 	isb	sy
    SCB->CSSELR = 0U; /*(0U << 1U) | 0U;*/  /* Level 1 data cache */
 8001496:	f8c4 2084 	str.w	r2, [r4, #132]	; 0x84
  __ASM volatile ("dsb 0xF":::"memory");
 800149a:	f3bf 8f4f 	dsb	sy
    ccsidr = SCB->CCSIDR;
 800149e:	f8d4 3080 	ldr.w	r3, [r4, #128]	; 0x80
 80014a2:	f643 7ee0 	movw	lr, #16352	; 0x3fe0
 80014a6:	f3c3 06c9 	ubfx	r6, r3, #3, #10
    sets = (uint32_t)(CCSIDR_SETS(ccsidr));
 80014aa:	f3c3 334e 	ubfx	r3, r3, #13, #15
 80014ae:	07b7      	lsls	r7, r6, #30
 80014b0:	015d      	lsls	r5, r3, #5
 80014b2:	ea05 000e 	and.w	r0, r5, lr
 80014b6:	4639      	mov	r1, r7
      ways = (uint32_t)(CCSIDR_WAYS(ccsidr));
 80014b8:	4632      	mov	r2, r6
        SCB->DCISW = (((sets << SCB_DCISW_SET_Pos) & SCB_DCISW_SET_Msk) |
 80014ba:	ea40 0301 	orr.w	r3, r0, r1
      } while (ways-- != 0U);
 80014be:	3a01      	subs	r2, #1
        SCB->DCISW = (((sets << SCB_DCISW_SET_Pos) & SCB_DCISW_SET_Msk) |
 80014c0:	f101 4140 	add.w	r1, r1, #3221225472	; 0xc0000000
 80014c4:	f8c4 3260 	str.w	r3, [r4, #608]	; 0x260
      } while (ways-- != 0U);
 80014c8:	1c53      	adds	r3, r2, #1
 80014ca:	d1f6      	bne.n	80014ba <CPU_CACHE_Enable+0x4e>
 80014cc:	3d20      	subs	r5, #32
    } while(sets-- != 0U);
 80014ce:	f115 0f20 	cmn.w	r5, #32
 80014d2:	d1ee      	bne.n	80014b2 <CPU_CACHE_Enable+0x46>
 80014d4:	f3bf 8f4f 	dsb	sy
    SCB->CCR |=  (uint32_t)SCB_CCR_DC_Msk;  /* enable D-Cache */
 80014d8:	6963      	ldr	r3, [r4, #20]
 80014da:	f443 3380 	orr.w	r3, r3, #65536	; 0x10000
 80014de:	6163      	str	r3, [r4, #20]
 80014e0:	f3bf 8f4f 	dsb	sy
  __ASM volatile ("isb 0xF":::"memory");
 80014e4:	f3bf 8f6f 	isb	sy
 80014e8:	bdf0      	pop	{r4, r5, r6, r7, pc}
 80014ea:	bf00      	nop
 80014ec:	e000ed00 	.word	0xe000ed00

080014f0 <window_1_callback>:
/* Callback function for window 1 */
static void window_1_callback(UG_MESSAGE* msg)
{
	static uint8_t wind1_state = 0;		/* window1 maximized/minimized state */

	if (msg->type == MSG_TYPE_OBJECT)
 80014f0:	7803      	ldrb	r3, [r0, #0]
 80014f2:	2b02      	cmp	r3, #2
 80014f4:	d000      	beq.n	80014f8 <window_1_callback+0x8>
 80014f6:	4770      	bx	lr
	{
	  if (msg->id == OBJ_TYPE_BUTTON)
 80014f8:	7843      	ldrb	r3, [r0, #1]
 80014fa:	2b01      	cmp	r3, #1
 80014fc:	d1fb      	bne.n	80014f6 <window_1_callback+0x6>
	  {
		  if(msg->event == OBJ_EVENT_PRESSED)
 80014fe:	78c3      	ldrb	r3, [r0, #3]
 8001500:	2b04      	cmp	r3, #4
 8001502:	d1f8      	bne.n	80014f6 <window_1_callback+0x6>
		  {
			 switch(msg->sub_id)
 8001504:	7883      	ldrb	r3, [r0, #2]
 8001506:	2b04      	cmp	r3, #4
 8001508:	d8f5      	bhi.n	80014f6 <window_1_callback+0x6>
 800150a:	e8df f003 	tbb	[pc, r3]
 800150e:	212a      	.short	0x212a
 8001510:	1a33      	.short	0x1a33
 8001512:	03          	.byte	0x03
 8001513:	00          	.byte	0x00
{
 8001514:	b530      	push	{r4, r5, lr}
					break;
				case BTN_ID_3:
					vscale += (vscale == 4) ? 0 : 1;	/* decrease vertical scale */
					break;
				case BTN_ID_4:
					if(wind1_state == 0){
 8001516:	4c23      	ldr	r4, [pc, #140]	; (80015a4 <window_1_callback+0xb4>)
{
 8001518:	b083      	sub	sp, #12
					if(wind1_state == 0){
 800151a:	7825      	ldrb	r5, [r4, #0]
 800151c:	2d00      	cmp	r5, #0
 800151e:	d030      	beq.n	8001582 <window_1_callback+0x92>
						UG_WindowResize(&window_1, LCD_WIDTH - 50, 0, LCD_WIDTH - 1, LCD_HEIGHT - 1);	/* maximize */
						UG_FillScreen(C_BLACK);		/* clear uGUI layer */
						wind1_state = 1;
					}
					else{
						UG_WindowResize(&window_1, LCD_WIDTH - 50, 0, LCD_WIDTH - 1, 14);	/* minimize */
 8001520:	200e      	movs	r0, #14
 8001522:	f240 13df 	movw	r3, #479	; 0x1df
 8001526:	2200      	movs	r2, #0
 8001528:	f44f 71d7 	mov.w	r1, #430	; 0x1ae
 800152c:	9000      	str	r0, [sp, #0]
 800152e:	481e      	ldr	r0, [pc, #120]	; (80015a8 <window_1_callback+0xb8>)
 8001530:	f001 fa1e 	bl	8002970 <UG_WindowResize>
						UG_FillScreen(C_BLACK);		/* clear uGUI layer */
 8001534:	2000      	movs	r0, #0
 8001536:	f000 fb21 	bl	8001b7c <UG_FillScreen>
						wind1_state = 0;
 800153a:	2300      	movs	r3, #0
 800153c:	7023      	strb	r3, [r4, #0]
					break;
			 }
		  }
	  }
	}
}
 800153e:	b003      	add	sp, #12
 8001540:	bd30      	pop	{r4, r5, pc}
					vscale += (vscale == 4) ? 0 : 1;	/* decrease vertical scale */
 8001542:	4a1a      	ldr	r2, [pc, #104]	; (80015ac <window_1_callback+0xbc>)
 8001544:	6813      	ldr	r3, [r2, #0]
 8001546:	2b04      	cmp	r3, #4
 8001548:	bf18      	it	ne
 800154a:	3301      	addne	r3, #1
 800154c:	6013      	str	r3, [r2, #0]
 800154e:	4770      	bx	lr
					tscale += (tscale == 6) ? 0 : 1;	/* decrease timescale */
 8001550:	4a17      	ldr	r2, [pc, #92]	; (80015b0 <window_1_callback+0xc0>)
 8001552:	6813      	ldr	r3, [r2, #0]
 8001554:	2b06      	cmp	r3, #6
 8001556:	bf18      	it	ne
 8001558:	3301      	addne	r3, #1
					TimADC_init(tscale);
 800155a:	b2d8      	uxtb	r0, r3
					tscale += (tscale == 6) ? 0 : 1;	/* decrease timescale */
 800155c:	6013      	str	r3, [r2, #0]
					TimADC_init(tscale);
 800155e:	f7ff b8f7 	b.w	8000750 <TimADC_init>
					tscale += (tscale == 0) ? 0 : -1;	/* increase timescale */
 8001562:	4a13      	ldr	r2, [pc, #76]	; (80015b0 <window_1_callback+0xc0>)
 8001564:	6813      	ldr	r3, [r2, #0]
 8001566:	2b00      	cmp	r3, #0
 8001568:	bf18      	it	ne
 800156a:	3b01      	subne	r3, #1
					TimADC_init(tscale);
 800156c:	b2d8      	uxtb	r0, r3
					tscale += (tscale == 0) ? 0 : -1;	/* increase timescale */
 800156e:	6013      	str	r3, [r2, #0]
					TimADC_init(tscale);
 8001570:	f7ff b8ee 	b.w	8000750 <TimADC_init>
					vscale += (vscale == 1) ? 0 : -1;	/* increase vertical scale */
 8001574:	4a0d      	ldr	r2, [pc, #52]	; (80015ac <window_1_callback+0xbc>)
 8001576:	6813      	ldr	r3, [r2, #0]
 8001578:	2b01      	cmp	r3, #1
 800157a:	bf18      	it	ne
 800157c:	3b01      	subne	r3, #1
 800157e:	6013      	str	r3, [r2, #0]
 8001580:	4770      	bx	lr
						UG_WindowResize(&window_1, LCD_WIDTH - 50, 0, LCD_WIDTH - 1, LCD_HEIGHT - 1);	/* maximize */
 8001582:	f240 100f 	movw	r0, #271	; 0x10f
 8001586:	f240 13df 	movw	r3, #479	; 0x1df
 800158a:	462a      	mov	r2, r5
 800158c:	f44f 71d7 	mov.w	r1, #430	; 0x1ae
 8001590:	9000      	str	r0, [sp, #0]
 8001592:	4805      	ldr	r0, [pc, #20]	; (80015a8 <window_1_callback+0xb8>)
 8001594:	f001 f9ec 	bl	8002970 <UG_WindowResize>
						UG_FillScreen(C_BLACK);		/* clear uGUI layer */
 8001598:	4628      	mov	r0, r5
 800159a:	f000 faef 	bl	8001b7c <UG_FillScreen>
						wind1_state = 1;
 800159e:	2301      	movs	r3, #1
 80015a0:	7023      	strb	r3, [r4, #0]
 80015a2:	e7cc      	b.n	800153e <window_1_callback+0x4e>
 80015a4:	20000034 	.word	0x20000034
 80015a8:	2000057c 	.word	0x2000057c
 80015ac:	20000000 	.word	0x20000000
 80015b0:	20000030 	.word	0x20000030

080015b4 <main>:
{
 80015b4:	e92d 4ff0 	stmdb	sp!, {r4, r5, r6, r7, r8, r9, sl, fp, lr}
  uint32_t QE_Count=0, QE_Count_prev=1;
 80015b8:	f04f 0b01 	mov.w	fp, #1
{
 80015bc:	b085      	sub	sp, #20
  CPU_CACHE_Enable();
 80015be:	f7ff ff55 	bl	800146c <CPU_CACHE_Enable>
  UG_ButtonCreate(&window_1, &button1_4, BTN_ID_4, 5, 0, 45, 14);
 80015c2:	2400      	movs	r4, #0
  SystemClock_Config();
 80015c4:	f7ff fece 	bl	8001364 <SystemClock_Config>
  UG_ButtonCreate(&window_1, &button1_0, BTN_ID_0, 5, 25, 45, 65);
 80015c8:	252d      	movs	r5, #45	; 0x2d
  SDRAM_init();
 80015ca:	f7ff fc6f 	bl	8000eac <SDRAM_init>
  UG_ButtonCreate(&window_1, &button1_4, BTN_ID_4, 5, 0, 45, 14);
 80015ce:	260e      	movs	r6, #14
  LTDC_init();
 80015d0:	f7ff fb04 	bl	8000bdc <LTDC_init>
 80015d4:	f8df 82f0 	ldr.w	r8, [pc, #752]	; 80018c8 <main+0x314>
  DMA2D_init();
 80015d8:	f7ff fdc4 	bl	8001164 <DMA2D_init>
 80015dc:	f8df 92ec 	ldr.w	r9, [pc, #748]	; 80018cc <main+0x318>
  ADC_init();
 80015e0:	f7ff f968 	bl	80008b4 <ADC_init>
	  QE_Count = (TIM_QE->CNT & 0xFFFFU) >> 1U;
 80015e4:	4fa0      	ldr	r7, [pc, #640]	; (8001868 <main+0x2b4>)
  Timers_init();
 80015e6:	f7ff f865 	bl	80006b4 <Timers_init>
	  while(DMA2D->CR & 0x01);
 80015ea:	f8df a2e4 	ldr.w	sl, [pc, #740]	; 80018d0 <main+0x31c>
  LEDs_Buttons_init();
 80015ee:	f7ff f9e3 	bl	80009b8 <LEDs_Buttons_init>
  I2C_TS_init();
 80015f2:	f7ff fe07 	bl	8001204 <I2C_TS_init>
  clearScreen();
 80015f6:	f7fe fe23 	bl	8000240 <clearScreen>
  UG_Init(&gui, (void(*)(UG_S16,UG_S16,UG_COLOR))pset, LCD_WIDTH, LCD_HEIGHT);
 80015fa:	f44f 7388 	mov.w	r3, #272	; 0x110
 80015fe:	f44f 72f0 	mov.w	r2, #480	; 0x1e0
 8001602:	499a      	ldr	r1, [pc, #616]	; (800186c <main+0x2b8>)
 8001604:	489a      	ldr	r0, [pc, #616]	; (8001870 <main+0x2bc>)
 8001606:	f000 fa7f 	bl	8001b08 <UG_Init>
  UG_DriverRegister(DRIVER_FILL_FRAME, (void*)fillFrameUGUI);
 800160a:	499a      	ldr	r1, [pc, #616]	; (8001874 <main+0x2c0>)
 800160c:	4658      	mov	r0, fp
 800160e:	f001 f925 	bl	800285c <UG_DriverRegister>
  UG_DriverEnable(DRIVER_FILL_FRAME);
 8001612:	4658      	mov	r0, fp
 8001614:	f001 f930 	bl	8002878 <UG_DriverEnable>
  UG_DriverRegister(DRIVER_DRAW_LINE, (void*)drawLineUGUI);
 8001618:	4997      	ldr	r1, [pc, #604]	; (8001878 <main+0x2c4>)
 800161a:	4620      	mov	r0, r4
 800161c:	f001 f91e 	bl	800285c <UG_DriverRegister>
  UG_DriverEnable(DRIVER_DRAW_LINE);
 8001620:	4620      	mov	r0, r4
 8001622:	f001 f929 	bl	8002878 <UG_DriverEnable>
  UG_WindowCreate(&window_1, obj_buff_wnd_1, UGUI_MAX_OBJECTS, window_1_callback);
 8001626:	4b95      	ldr	r3, [pc, #596]	; (800187c <main+0x2c8>)
 8001628:	220a      	movs	r2, #10
 800162a:	4995      	ldr	r1, [pc, #596]	; (8001880 <main+0x2cc>)
 800162c:	4895      	ldr	r0, [pc, #596]	; (8001884 <main+0x2d0>)
 800162e:	f001 f93d 	bl	80028ac <UG_WindowCreate>
  UG_WindowSetStyle(&window_1, WND_STYLE_2D | WND_STYLE_HIDE_TITLE);
 8001632:	4621      	mov	r1, r4
 8001634:	4893      	ldr	r0, [pc, #588]	; (8001884 <main+0x2d0>)
 8001636:	f001 faeb 	bl	8002c10 <UG_WindowSetStyle>
  UG_WindowResize(&window_1, LCD_WIDTH - 50, 0, LCD_WIDTH - 1, LCD_HEIGHT - 1);
 800163a:	f240 110f 	movw	r1, #271	; 0x10f
 800163e:	4622      	mov	r2, r4
 8001640:	f240 13df 	movw	r3, #479	; 0x1df
 8001644:	9100      	str	r1, [sp, #0]
 8001646:	f44f 71d7 	mov.w	r1, #430	; 0x1ae
 800164a:	488e      	ldr	r0, [pc, #568]	; (8001884 <main+0x2d0>)
 800164c:	f001 f990 	bl	8002970 <UG_WindowResize>
  UG_ButtonCreate(&window_1, &button1_0, BTN_ID_0, 5, 25, 45, 65);
 8001650:	2341      	movs	r3, #65	; 0x41
 8001652:	2219      	movs	r2, #25
 8001654:	9501      	str	r5, [sp, #4]
 8001656:	9302      	str	r3, [sp, #8]
 8001658:	2305      	movs	r3, #5
 800165a:	9200      	str	r2, [sp, #0]
 800165c:	4622      	mov	r2, r4
 800165e:	498a      	ldr	r1, [pc, #552]	; (8001888 <main+0x2d4>)
 8001660:	4888      	ldr	r0, [pc, #544]	; (8001884 <main+0x2d0>)
 8001662:	f001 fd29 	bl	80030b8 <UG_ButtonCreate>
  UG_ButtonCreate(&window_1, &button1_1, BTN_ID_1, 5, 70, 45, 110);
 8001666:	236e      	movs	r3, #110	; 0x6e
 8001668:	2246      	movs	r2, #70	; 0x46
 800166a:	9501      	str	r5, [sp, #4]
 800166c:	9302      	str	r3, [sp, #8]
 800166e:	2305      	movs	r3, #5
 8001670:	9200      	str	r2, [sp, #0]
 8001672:	465a      	mov	r2, fp
 8001674:	4985      	ldr	r1, [pc, #532]	; (800188c <main+0x2d8>)
 8001676:	4883      	ldr	r0, [pc, #524]	; (8001884 <main+0x2d0>)
 8001678:	f001 fd1e 	bl	80030b8 <UG_ButtonCreate>
  UG_ButtonCreate(&window_1, &button1_2, BTN_ID_2, 5, 115, 45, 155);
 800167c:	239b      	movs	r3, #155	; 0x9b
 800167e:	2273      	movs	r2, #115	; 0x73
 8001680:	9501      	str	r5, [sp, #4]
 8001682:	9302      	str	r3, [sp, #8]
 8001684:	2305      	movs	r3, #5
 8001686:	9200      	str	r2, [sp, #0]
 8001688:	2202      	movs	r2, #2
 800168a:	4981      	ldr	r1, [pc, #516]	; (8001890 <main+0x2dc>)
 800168c:	487d      	ldr	r0, [pc, #500]	; (8001884 <main+0x2d0>)
 800168e:	f001 fd13 	bl	80030b8 <UG_ButtonCreate>
  UG_ButtonCreate(&window_1, &button1_3, BTN_ID_3, 5, 160, 45, 200);
 8001692:	23c8      	movs	r3, #200	; 0xc8
 8001694:	22a0      	movs	r2, #160	; 0xa0
 8001696:	9501      	str	r5, [sp, #4]
 8001698:	9302      	str	r3, [sp, #8]
 800169a:	2305      	movs	r3, #5
 800169c:	9200      	str	r2, [sp, #0]
 800169e:	2203      	movs	r2, #3
 80016a0:	497c      	ldr	r1, [pc, #496]	; (8001894 <main+0x2e0>)
 80016a2:	4878      	ldr	r0, [pc, #480]	; (8001884 <main+0x2d0>)
 80016a4:	f001 fd08 	bl	80030b8 <UG_ButtonCreate>
  UG_ButtonCreate(&window_1, &button1_4, BTN_ID_4, 5, 0, 45, 14);
 80016a8:	2305      	movs	r3, #5
 80016aa:	9501      	str	r5, [sp, #4]
 80016ac:	2204      	movs	r2, #4
 80016ae:	9400      	str	r4, [sp, #0]
 80016b0:	4979      	ldr	r1, [pc, #484]	; (8001898 <main+0x2e4>)
 80016b2:	9602      	str	r6, [sp, #8]
 80016b4:	4873      	ldr	r0, [pc, #460]	; (8001884 <main+0x2d0>)
 80016b6:	f001 fcff 	bl	80030b8 <UG_ButtonCreate>
  UG_ButtonSetFont(&window_1, BTN_ID_0, &FONT_6X8);
 80016ba:	4621      	mov	r1, r4
 80016bc:	4a77      	ldr	r2, [pc, #476]	; (800189c <main+0x2e8>)
 80016be:	4871      	ldr	r0, [pc, #452]	; (8001884 <main+0x2d0>)
 80016c0:	f001 fdae 	bl	8003220 <UG_ButtonSetFont>
  UG_ButtonSetBackColor(&window_1, BTN_ID_0, C_LIME);
 80016c4:	4621      	mov	r1, r4
 80016c6:	f44f 62fc 	mov.w	r2, #2016	; 0x7e0
 80016ca:	486e      	ldr	r0, [pc, #440]	; (8001884 <main+0x2d0>)
 80016cc:	f001 fd60 	bl	8003190 <UG_ButtonSetBackColor>
  UG_ButtonSetText(&window_1, BTN_ID_0, "Hsc+");
 80016d0:	4621      	mov	r1, r4
 80016d2:	4a73      	ldr	r2, [pc, #460]	; (80018a0 <main+0x2ec>)
 80016d4:	486b      	ldr	r0, [pc, #428]	; (8001884 <main+0x2d0>)
 80016d6:	f001 fd7f 	bl	80031d8 <UG_ButtonSetText>
  UG_ButtonSetFont(&window_1, BTN_ID_1, &FONT_6X8);
 80016da:	4a70      	ldr	r2, [pc, #448]	; (800189c <main+0x2e8>)
 80016dc:	4659      	mov	r1, fp
 80016de:	4869      	ldr	r0, [pc, #420]	; (8001884 <main+0x2d0>)
 80016e0:	f001 fd9e 	bl	8003220 <UG_ButtonSetFont>
  UG_ButtonSetBackColor(&window_1, BTN_ID_1, C_RED);
 80016e4:	f44f 4278 	mov.w	r2, #63488	; 0xf800
 80016e8:	4659      	mov	r1, fp
 80016ea:	4866      	ldr	r0, [pc, #408]	; (8001884 <main+0x2d0>)
 80016ec:	f001 fd50 	bl	8003190 <UG_ButtonSetBackColor>
  UG_ButtonSetText(&window_1, BTN_ID_1, "Hsc-");
 80016f0:	4a6c      	ldr	r2, [pc, #432]	; (80018a4 <main+0x2f0>)
 80016f2:	4659      	mov	r1, fp
 80016f4:	4863      	ldr	r0, [pc, #396]	; (8001884 <main+0x2d0>)
 80016f6:	f001 fd6f 	bl	80031d8 <UG_ButtonSetText>
  UG_ButtonSetFont(&window_1, BTN_ID_2, &FONT_6X8);
 80016fa:	4a68      	ldr	r2, [pc, #416]	; (800189c <main+0x2e8>)
 80016fc:	2102      	movs	r1, #2
 80016fe:	4861      	ldr	r0, [pc, #388]	; (8001884 <main+0x2d0>)
 8001700:	f001 fd8e 	bl	8003220 <UG_ButtonSetFont>
  UG_ButtonSetBackColor(&window_1, BTN_ID_2, C_YELLOW);
 8001704:	f64f 72e0 	movw	r2, #65504	; 0xffe0
 8001708:	2102      	movs	r1, #2
 800170a:	485e      	ldr	r0, [pc, #376]	; (8001884 <main+0x2d0>)
 800170c:	f001 fd40 	bl	8003190 <UG_ButtonSetBackColor>
  UG_ButtonSetText(&window_1, BTN_ID_2, "Vsc+");
 8001710:	4a65      	ldr	r2, [pc, #404]	; (80018a8 <main+0x2f4>)
 8001712:	2102      	movs	r1, #2
 8001714:	485b      	ldr	r0, [pc, #364]	; (8001884 <main+0x2d0>)
 8001716:	f001 fd5f 	bl	80031d8 <UG_ButtonSetText>
  UG_ButtonSetFont(&window_1, BTN_ID_3, &FONT_6X8);
 800171a:	4a60      	ldr	r2, [pc, #384]	; (800189c <main+0x2e8>)
 800171c:	2103      	movs	r1, #3
 800171e:	4859      	ldr	r0, [pc, #356]	; (8001884 <main+0x2d0>)
 8001720:	f001 fd7e 	bl	8003220 <UG_ButtonSetFont>
  UG_ButtonSetBackColor(&window_1, BTN_ID_3, C_BLUE);
 8001724:	221f      	movs	r2, #31
 8001726:	2103      	movs	r1, #3
 8001728:	4856      	ldr	r0, [pc, #344]	; (8001884 <main+0x2d0>)
 800172a:	f001 fd31 	bl	8003190 <UG_ButtonSetBackColor>
  UG_ButtonSetText(&window_1, BTN_ID_3, "Vsc-");
 800172e:	4a5f      	ldr	r2, [pc, #380]	; (80018ac <main+0x2f8>)
 8001730:	2103      	movs	r1, #3
 8001732:	4854      	ldr	r0, [pc, #336]	; (8001884 <main+0x2d0>)
 8001734:	f001 fd50 	bl	80031d8 <UG_ButtonSetText>
  UG_ButtonSetFont(&window_1, BTN_ID_4, &FONT_6X8);
 8001738:	4a58      	ldr	r2, [pc, #352]	; (800189c <main+0x2e8>)
 800173a:	2104      	movs	r1, #4
 800173c:	4851      	ldr	r0, [pc, #324]	; (8001884 <main+0x2d0>)
 800173e:	f001 fd6f 	bl	8003220 <UG_ButtonSetFont>
  UG_ButtonSetBackColor(&window_1, BTN_ID_4, C_ORANGE);
 8001742:	f64f 5220 	movw	r2, #64800	; 0xfd20
 8001746:	2104      	movs	r1, #4
 8001748:	484e      	ldr	r0, [pc, #312]	; (8001884 <main+0x2d0>)
 800174a:	f001 fd21 	bl	8003190 <UG_ButtonSetBackColor>
  UG_ButtonSetText(&window_1, BTN_ID_4, "MENU");
 800174e:	4a58      	ldr	r2, [pc, #352]	; (80018b0 <main+0x2fc>)
 8001750:	2104      	movs	r1, #4
 8001752:	484c      	ldr	r0, [pc, #304]	; (8001884 <main+0x2d0>)
 8001754:	f001 fd40 	bl	80031d8 <UG_ButtonSetText>
  UG_FillScreen(C_BLACK);
 8001758:	4620      	mov	r0, r4
 800175a:	f000 fa0f 	bl	8001b7c <UG_FillScreen>
  UG_WindowShow(&window_1);
 800175e:	4849      	ldr	r0, [pc, #292]	; (8001884 <main+0x2d0>)
 8001760:	f001 f8f4 	bl	800294c <UG_WindowShow>
  UG_WindowResize(&window_1, LCD_WIDTH - 50, 0, LCD_WIDTH - 1, 14);
 8001764:	4622      	mov	r2, r4
 8001766:	f240 13df 	movw	r3, #479	; 0x1df
 800176a:	9600      	str	r6, [sp, #0]
 800176c:	f44f 71d7 	mov.w	r1, #430	; 0x1ae
 8001770:	4844      	ldr	r0, [pc, #272]	; (8001884 <main+0x2d0>)
 8001772:	f001 f8fd 	bl	8002970 <UG_WindowResize>
	  if(TS_read_pending){
 8001776:	4b4f      	ldr	r3, [pc, #316]	; (80018b4 <main+0x300>)
 8001778:	4d4f      	ldr	r5, [pc, #316]	; (80018b8 <main+0x304>)
 800177a:	781b      	ldrb	r3, [r3, #0]
 800177c:	4c4f      	ldr	r4, [pc, #316]	; (80018bc <main+0x308>)
 800177e:	2b00      	cmp	r3, #0
 8001780:	d151      	bne.n	8001826 <main+0x272>
	  QE_Count = (TIM_QE->CNT & 0xFFFFU) >> 1U;
 8001782:	6a7e      	ldr	r6, [r7, #36]	; 0x24
 8001784:	f3c6 064e 	ubfx	r6, r6, #1, #15
	  if(QE_Count != QE_Count_prev){
 8001788:	45b3      	cmp	fp, r6
 800178a:	d00e      	beq.n	80017aa <main+0x1f6>
		  tscale += (TIM_QE->CR1 & 0x10)?(tscale==0?0:-1):(tscale==6?0:1);	/* check rotation direction */
 800178c:	683b      	ldr	r3, [r7, #0]
 800178e:	f8d8 2000 	ldr.w	r2, [r8]
 8001792:	06d9      	lsls	r1, r3, #27
 8001794:	d55c      	bpl.n	8001850 <main+0x29c>
 8001796:	1c13      	adds	r3, r2, #0
 8001798:	bf18      	it	ne
 800179a:	2301      	movne	r3, #1
 800179c:	425b      	negs	r3, r3
 800179e:	4413      	add	r3, r2
		  TimADC_init(tscale);
 80017a0:	b2d8      	uxtb	r0, r3
		  tscale += (TIM_QE->CR1 & 0x10)?(tscale==0?0:-1):(tscale==6?0:1);	/* check rotation direction */
 80017a2:	f8c8 3000 	str.w	r3, [r8]
		  TimADC_init(tscale);
 80017a6:	f7fe ffd3 	bl	8000750 <TimADC_init>
	  fillScreenWave(C_BLACK);
 80017aa:	2000      	movs	r0, #0
 80017ac:	f7fe fd6a 	bl	8000284 <fillScreenWave>
	  while(DMA2D->CR & 0x01);
 80017b0:	f8da 3000 	ldr.w	r3, [sl]
 80017b4:	f013 0301 	ands.w	r3, r3, #1
 80017b8:	d1fa      	bne.n	80017b0 <main+0x1fc>
 80017ba:	461a      	mov	r2, r3
 80017bc:	2040      	movs	r0, #64	; 0x40
 80017be:	f8d9 3000 	ldr.w	r3, [r9]
		  pFrame[i][j] = C_GREEN;
 80017c2:	f44f 6bfc 	mov.w	fp, #2016	; 0x7e0
		  pFrame[i][j] = C_AQUA;
 80017c6:	f240 7cff 	movw	ip, #2047	; 0x7ff
 80017ca:	0059      	lsls	r1, r3, #1
 80017cc:	fbb0 f0f3 	udiv	r0, r0, r3
 80017d0:	f100 0e3f 	add.w	lr, r0, #63	; 0x3f
 80017d4:	30bf      	adds	r0, #191	; 0xbf
		  i = (63 + 64/vscale) - (CH1_ADC_vals[j]/(2*vscale));
 80017d6:	5cab      	ldrb	r3, [r5, r2]
 80017d8:	fbb3 f3f1 	udiv	r3, r3, r1
 80017dc:	ebae 0303 	sub.w	r3, lr, r3
		  pFrame[i][j] = C_GREEN;
 80017e0:	ebc3 1303 	rsb	r3, r3, r3, lsl #4
 80017e4:	019b      	lsls	r3, r3, #6
 80017e6:	f1a3 537f 	sub.w	r3, r3, #1069547520	; 0x3fc00000
 80017ea:	f823 b012 	strh.w	fp, [r3, r2, lsl #1]
		  i = (191 + 64/vscale) - (CH2_ADC_vals[j]/(2*vscale));
 80017ee:	5ca3      	ldrb	r3, [r4, r2]
 80017f0:	fbb3 f3f1 	udiv	r3, r3, r1
 80017f4:	1ac3      	subs	r3, r0, r3
		  pFrame[i][j] = C_AQUA;
 80017f6:	ebc3 1303 	rsb	r3, r3, r3, lsl #4
 80017fa:	019b      	lsls	r3, r3, #6
 80017fc:	f1a3 537f 	sub.w	r3, r3, #1069547520	; 0x3fc00000
 8001800:	f823 c012 	strh.w	ip, [r3, r2, lsl #1]
	  for(j = 0; j < LCD_WIDTH; j++){
 8001804:	3201      	adds	r2, #1
 8001806:	f5b2 7ff0 	cmp.w	r2, #480	; 0x1e0
 800180a:	d1e4      	bne.n	80017d6 <main+0x222>
	  UG_Update();
 800180c:	f001 fba4 	bl	8002f58 <UG_Update>
	  updateToScreen();
 8001810:	f7fe fde2 	bl	80003d8 <updateToScreen>
	  while(DMA2D->CR & 0x01);
 8001814:	f8da 3000 	ldr.w	r3, [sl]
 8001818:	07db      	lsls	r3, r3, #31
 800181a:	d4fb      	bmi.n	8001814 <main+0x260>
	  if(TS_read_pending){
 800181c:	4b25      	ldr	r3, [pc, #148]	; (80018b4 <main+0x300>)
	  QE_Count = (TIM_QE->CNT & 0xFFFFU) >> 1U;
 800181e:	46b3      	mov	fp, r6
	  if(TS_read_pending){
 8001820:	781b      	ldrb	r3, [r3, #0]
 8001822:	2b00      	cmp	r3, #0
 8001824:	d0ad      	beq.n	8001782 <main+0x1ce>
		  if(TS_DetectNumTouches() > 0){
 8001826:	f000 f93b 	bl	8001aa0 <TS_DetectNumTouches>
 800182a:	b1a8      	cbz	r0, 8001858 <main+0x2a4>
			  TS_GetXY(&TS_Y, &TS_X);		/* X & Y coords are swapped and passed, since TS physical orientation is reverse */
 800182c:	4924      	ldr	r1, [pc, #144]	; (80018c0 <main+0x30c>)
 800182e:	4825      	ldr	r0, [pc, #148]	; (80018c4 <main+0x310>)
 8001830:	f000 f942 	bl	8001ab8 <TS_GetXY>
			  UG_TouchUpdate(TS_X, TS_Y, TOUCH_STATE_PRESSED);
 8001834:	4b23      	ldr	r3, [pc, #140]	; (80018c4 <main+0x310>)
 8001836:	2201      	movs	r2, #1
 8001838:	f9b3 1000 	ldrsh.w	r1, [r3]
 800183c:	4b20      	ldr	r3, [pc, #128]	; (80018c0 <main+0x30c>)
 800183e:	f9b3 0000 	ldrsh.w	r0, [r3]
 8001842:	f001 f82b 	bl	800289c <UG_TouchUpdate>
		  TS_read_pending = 0;
 8001846:	4b1b      	ldr	r3, [pc, #108]	; (80018b4 <main+0x300>)
 8001848:	f04f 0200 	mov.w	r2, #0
 800184c:	701a      	strb	r2, [r3, #0]
 800184e:	e798      	b.n	8001782 <main+0x1ce>
		  tscale += (TIM_QE->CR1 & 0x10)?(tscale==0?0:-1):(tscale==6?0:1);	/* check rotation direction */
 8001850:	1f93      	subs	r3, r2, #6
 8001852:	bf18      	it	ne
 8001854:	2301      	movne	r3, #1
 8001856:	e7a2      	b.n	800179e <main+0x1ea>
			  UG_TouchUpdate(-1, -1, TOUCH_STATE_RELEASED);
 8001858:	f04f 31ff 	mov.w	r1, #4294967295
 800185c:	4602      	mov	r2, r0
 800185e:	4608      	mov	r0, r1
 8001860:	f001 f81c 	bl	800289c <UG_TouchUpdate>
 8001864:	e7ef      	b.n	8001846 <main+0x292>
 8001866:	bf00      	nop
 8001868:	40010400 	.word	0x40010400
 800186c:	0800022d 	.word	0x0800022d
 8001870:	200005b0 	.word	0x200005b0
 8001874:	080002c9 	.word	0x080002c9
 8001878:	0800033d 	.word	0x0800033d
 800187c:	080014f1 	.word	0x080014f1
 8001880:	2000022c 	.word	0x2000022c
 8001884:	2000057c 	.word	0x2000057c
 8001888:	20000614 	.word	0x20000614
 800188c:	20000564 	.word	0x20000564
 8001890:	2000036c 	.word	0x2000036c
 8001894:	2000062c 	.word	0x2000062c
 8001898:	20000648 	.word	0x20000648
 800189c:	08003308 	.word	0x08003308
 80018a0:	080032e0 	.word	0x080032e0
 80018a4:	080032e8 	.word	0x080032e8
 80018a8:	080032f0 	.word	0x080032f0
 80018ac:	080032f8 	.word	0x080032f8
 80018b0:	08003300 	.word	0x08003300
 80018b4:	20000028 	.word	0x20000028
 80018b8:	20000048 	.word	0x20000048
 80018bc:	20000384 	.word	0x20000384
 80018c0:	20000228 	.word	0x20000228
 80018c4:	20000644 	.word	0x20000644
 80018c8:	20000030 	.word	0x20000030
 80018cc:	20000000 	.word	0x20000000
 80018d0:	4002b000 	.word	0x4002b000

080018d4 <Get_tick>:
	return (uint32_t)Tick_1ms;
 80018d4:	4b01      	ldr	r3, [pc, #4]	; (80018dc <Get_tick+0x8>)
 80018d6:	6818      	ldr	r0, [r3, #0]
}
 80018d8:	4770      	bx	lr
 80018da:	bf00      	nop
 80018dc:	2000002c 	.word	0x2000002c

080018e0 <Reset_Handler>:

    .section  .text.Reset_Handler
  .weak  Reset_Handler
  .type  Reset_Handler, %function
Reset_Handler:  
  ldr   sp, =_estack      /* set stack pointer */
 80018e0:	f8df d034 	ldr.w	sp, [pc, #52]	; 8001918 <LoopFillZerobss+0x14>

/* Copy the data segment initializers from flash to SRAM */  
  movs  r1, #0
 80018e4:	2100      	movs	r1, #0
  b  LoopCopyDataInit
 80018e6:	e003      	b.n	80018f0 <LoopCopyDataInit>

080018e8 <CopyDataInit>:

CopyDataInit:
  ldr  r3, =_sidata
 80018e8:	4b0c      	ldr	r3, [pc, #48]	; (800191c <LoopFillZerobss+0x18>)
  ldr  r3, [r3, r1]
 80018ea:	585b      	ldr	r3, [r3, r1]
  str  r3, [r0, r1]
 80018ec:	5043      	str	r3, [r0, r1]
  adds  r1, r1, #4
 80018ee:	3104      	adds	r1, #4

080018f0 <LoopCopyDataInit>:
    
LoopCopyDataInit:
  ldr  r0, =_sdata
 80018f0:	480b      	ldr	r0, [pc, #44]	; (8001920 <LoopFillZerobss+0x1c>)
  ldr  r3, =_edata
 80018f2:	4b0c      	ldr	r3, [pc, #48]	; (8001924 <LoopFillZerobss+0x20>)
  adds  r2, r0, r1
 80018f4:	1842      	adds	r2, r0, r1
  cmp  r2, r3
 80018f6:	429a      	cmp	r2, r3
  bcc  CopyDataInit
 80018f8:	d3f6      	bcc.n	80018e8 <CopyDataInit>
  ldr  r2, =_sbss
 80018fa:	4a0b      	ldr	r2, [pc, #44]	; (8001928 <LoopFillZerobss+0x24>)
  b  LoopFillZerobss
 80018fc:	e002      	b.n	8001904 <LoopFillZerobss>

080018fe <FillZerobss>:
/* Zero fill the bss segment. */  
FillZerobss:
  movs  r3, #0
 80018fe:	2300      	movs	r3, #0
  str  r3, [r2], #4
 8001900:	f842 3b04 	str.w	r3, [r2], #4

08001904 <LoopFillZerobss>:
    
LoopFillZerobss:
  ldr  r3, = _ebss
 8001904:	4b09      	ldr	r3, [pc, #36]	; (800192c <LoopFillZerobss+0x28>)
  cmp  r2, r3
 8001906:	429a      	cmp	r2, r3
  bcc  FillZerobss
 8001908:	d3f9      	bcc.n	80018fe <FillZerobss>

/* Call the clock system initialization function.*/
  bl  SystemInit   
 800190a:	f000 f8a1 	bl	8001a50 <SystemInit>
/* Call static constructors */
    bl __libc_init_array
 800190e:	f001 fcab 	bl	8003268 <__libc_init_array>
/* Call the application's entry point.*/
  bl  main
 8001912:	f7ff fe4f 	bl	80015b4 <main>
  bx  lr    
 8001916:	4770      	bx	lr
  ldr   sp, =_estack      /* set stack pointer */
 8001918:	20050000 	.word	0x20050000
  ldr  r3, =_sidata
 800191c:	08003b70 	.word	0x08003b70
  ldr  r0, =_sdata
 8001920:	20000000 	.word	0x20000000
  ldr  r3, =_edata
 8001924:	20000008 	.word	0x20000008
  ldr  r2, =_sbss
 8001928:	20000008 	.word	0x20000008
  ldr  r3, = _ebss
 800192c:	20000660 	.word	0x20000660

08001930 <ADC_IRQHandler>:
 * @retval None       
*/
    .section  .text.Default_Handler,"ax",%progbits
Default_Handler:
Infinite_Loop:
  b  Infinite_Loop
 8001930:	e7fe      	b.n	8001930 <ADC_IRQHandler>
	...

08001934 <NMI_Handler>:
 8001934:	4770      	bx	lr
 8001936:	bf00      	nop

08001938 <HardFault_Handler>:
  * @brief  This function handles Hard Fault exception.
  * @param  None
  * @retval None
  */
void HardFault_Handler(void)
{
 8001938:	e7fe      	b.n	8001938 <HardFault_Handler>
 800193a:	bf00      	nop

0800193c <MemManage_Handler>:
  * @brief  This function handles Memory Manage exception.
  * @param  None
  * @retval None
  */
void MemManage_Handler(void)
{
 800193c:	e7fe      	b.n	800193c <MemManage_Handler>
 800193e:	bf00      	nop

08001940 <BusFault_Handler>:
  * @brief  This function handles Bus Fault exception.
  * @param  None
  * @retval None
  */
void BusFault_Handler(void)
{
 8001940:	e7fe      	b.n	8001940 <BusFault_Handler>
 8001942:	bf00      	nop

08001944 <UsageFault_Handler>:
  * @brief  This function handles Usage Fault exception.
  * @param  None
  * @retval None
  */
void UsageFault_Handler(void)
{
 8001944:	e7fe      	b.n	8001944 <UsageFault_Handler>
 8001946:	bf00      	nop

08001948 <SVC_Handler>:
 8001948:	4770      	bx	lr
 800194a:	bf00      	nop

0800194c <DebugMon_Handler>:
 800194c:	4770      	bx	lr
 800194e:	bf00      	nop

08001950 <PendSV_Handler>:
  * @brief  This function handles PendSVC exception.
  * @param  None
  * @retval None
  */
void PendSV_Handler(void)
{
 8001950:	4770      	bx	lr
 8001952:	bf00      	nop

08001954 <SysTick_Handler>:
  * @param  None
  * @retval None
  */
void SysTick_Handler(void)
{
	Tick_1ms++;
 8001954:	4a02      	ldr	r2, [pc, #8]	; (8001960 <SysTick_Handler+0xc>)
 8001956:	6813      	ldr	r3, [r2, #0]
 8001958:	3301      	adds	r3, #1
 800195a:	6013      	str	r3, [r2, #0]
 800195c:	4770      	bx	lr
 800195e:	bf00      	nop
 8001960:	2000002c 	.word	0x2000002c

08001964 <EXTI9_5_IRQHandler>:
  * @brief  This function handles Quadrature encoder module push-button event.
  * @param  None
  * @retval None
  */
void QE_IRQHandler(void)
{
 8001964:	b508      	push	{r3, lr}
	static uint32_t prev_time = 0;
	uint32_t curr_time;

	curr_time = Get_tick();
 8001966:	f7ff ffb5 	bl	80018d4 <Get_tick>
 800196a:	4b08      	ldr	r3, [pc, #32]	; (800198c <EXTI9_5_IRQHandler+0x28>)
 800196c:	2140      	movs	r1, #64	; 0x40

	LL_EXTI_ClearFlag_0_31(QE_PB_EXTI_LINE);

	if(curr_time - prev_time > QE_PB_DEBOUNCE_TIMEOUT) {
 800196e:	4a08      	ldr	r2, [pc, #32]	; (8001990 <EXTI9_5_IRQHandler+0x2c>)
 8001970:	6159      	str	r1, [r3, #20]
 8001972:	6813      	ldr	r3, [r2, #0]
 8001974:	1ac3      	subs	r3, r0, r3
 8001976:	f5b3 7ffa 	cmp.w	r3, #500	; 0x1f4
 800197a:	d905      	bls.n	8001988 <EXTI9_5_IRQHandler+0x24>
  *         @arg @ref LL_GPIO_PIN_ALL
  * @retval None
  */
__STATIC_INLINE void LL_GPIO_TogglePin(GPIO_TypeDef *GPIOx, uint32_t PinMask)
{
  WRITE_REG(GPIOx->ODR, READ_REG(GPIOx->ODR) ^ PinMask);
 800197c:	4905      	ldr	r1, [pc, #20]	; (8001994 <EXTI9_5_IRQHandler+0x30>)
 800197e:	694b      	ldr	r3, [r1, #20]
 8001980:	f083 0302 	eor.w	r3, r3, #2
 8001984:	614b      	str	r3, [r1, #20]
		LL_GPIO_TogglePin(LED1_GPIO_PORT, LED1_PIN);
		prev_time = curr_time;
 8001986:	6010      	str	r0, [r2, #0]
 8001988:	bd08      	pop	{r3, pc}
 800198a:	bf00      	nop
 800198c:	40013c00 	.word	0x40013c00
 8001990:	20000038 	.word	0x20000038
 8001994:	40022000 	.word	0x40022000

08001998 <EXTI15_10_IRQHandler>:
 8001998:	4b04      	ldr	r3, [pc, #16]	; (80019ac <EXTI15_10_IRQHandler+0x14>)
 800199a:	f44f 6100 	mov.w	r1, #2048	; 0x800
 800199e:	4a04      	ldr	r2, [pc, #16]	; (80019b0 <EXTI15_10_IRQHandler+0x18>)
 80019a0:	6159      	str	r1, [r3, #20]
 80019a2:	6953      	ldr	r3, [r2, #20]
 80019a4:	f083 0302 	eor.w	r3, r3, #2
 80019a8:	6153      	str	r3, [r2, #20]
 80019aa:	4770      	bx	lr
 80019ac:	40013c00 	.word	0x40013c00
 80019b0:	40022000 	.word	0x40022000

080019b4 <DMA2_Stream0_IRQHandler>:
  * @param  None
  * @retval None
  */
void CH1_ADC_DMA_IRQHandler(void)
{
	CH1_ADC_DMA->LIFCR      |= 0x0000003D;	/* clear flags/errors */
 80019b4:	4a04      	ldr	r2, [pc, #16]	; (80019c8 <DMA2_Stream0_IRQHandler+0x14>)
	CH1_acq_comp = 1;
 80019b6:	2001      	movs	r0, #1
 80019b8:	4904      	ldr	r1, [pc, #16]	; (80019cc <DMA2_Stream0_IRQHandler+0x18>)
	CH1_ADC_DMA->LIFCR      |= 0x0000003D;	/* clear flags/errors */
 80019ba:	6893      	ldr	r3, [r2, #8]
 80019bc:	f043 033d 	orr.w	r3, r3, #61	; 0x3d
 80019c0:	6093      	str	r3, [r2, #8]
	CH1_acq_comp = 1;
 80019c2:	7008      	strb	r0, [r1, #0]
 80019c4:	4770      	bx	lr
 80019c6:	bf00      	nop
 80019c8:	40026400 	.word	0x40026400
 80019cc:	20000024 	.word	0x20000024

080019d0 <DMA2_Stream1_IRQHandler>:
  * @param  None
  * @retval None
  */
void CH2_ADC_DMA_IRQHandler(void)
{
	CH2_ADC_DMA->LIFCR      |= 0x00000F40;	/* clear flags/errors */
 80019d0:	4a04      	ldr	r2, [pc, #16]	; (80019e4 <DMA2_Stream1_IRQHandler+0x14>)
	CH2_acq_comp = 1;
 80019d2:	2001      	movs	r0, #1
 80019d4:	4904      	ldr	r1, [pc, #16]	; (80019e8 <DMA2_Stream1_IRQHandler+0x18>)
	CH2_ADC_DMA->LIFCR      |= 0x00000F40;	/* clear flags/errors */
 80019d6:	6893      	ldr	r3, [r2, #8]
 80019d8:	f443 6374 	orr.w	r3, r3, #3904	; 0xf40
 80019dc:	6093      	str	r3, [r2, #8]
	CH2_acq_comp = 1;
 80019de:	7008      	strb	r0, [r1, #0]
 80019e0:	4770      	bx	lr
 80019e2:	bf00      	nop
 80019e4:	40026400 	.word	0x40026400
 80019e8:	20000025 	.word	0x20000025

080019ec <LTDC_ER_IRQHandler>:
  * @param  None
  * @retval None
  */
void LTDC_ER_IRQHandler(void)
{
	LTDC->IER &= ~0x06;			/* disable transfer and FIFO underrun interrupts */
 80019ec:	4b06      	ldr	r3, [pc, #24]	; (8001a08 <LTDC_ER_IRQHandler+0x1c>)
	LTDC->ICR |= 0x0F;			/* clear all flags */

	LTDC_error_flag = 1;
 80019ee:	2001      	movs	r0, #1
 80019f0:	4906      	ldr	r1, [pc, #24]	; (8001a0c <LTDC_ER_IRQHandler+0x20>)
	LTDC->IER &= ~0x06;			/* disable transfer and FIFO underrun interrupts */
 80019f2:	6b5a      	ldr	r2, [r3, #52]	; 0x34
 80019f4:	f022 0206 	bic.w	r2, r2, #6
 80019f8:	635a      	str	r2, [r3, #52]	; 0x34
	LTDC->ICR |= 0x0F;			/* clear all flags */
 80019fa:	6bda      	ldr	r2, [r3, #60]	; 0x3c
 80019fc:	f042 020f 	orr.w	r2, r2, #15
 8001a00:	63da      	str	r2, [r3, #60]	; 0x3c
	LTDC_error_flag = 1;
 8001a02:	7008      	strb	r0, [r1, #0]
 8001a04:	4770      	bx	lr
 8001a06:	bf00      	nop
 8001a08:	40016800 	.word	0x40016800
 8001a0c:	20000027 	.word	0x20000027

08001a10 <DMA2D_IRQHandler>:
  * @param  None
  * @retval None
  */
void DMA2D_IRQHandler(void)
{
	DMA2D->CR &= ~0x0100;		/* disable transfer interrupts */
 8001a10:	4b06      	ldr	r3, [pc, #24]	; (8001a2c <DMA2D_IRQHandler+0x1c>)
	DMA2D->IFCR |= 0x3F;		/* clear all flags */

	DMA2D_error_flag = 1;
 8001a12:	2001      	movs	r0, #1
 8001a14:	4906      	ldr	r1, [pc, #24]	; (8001a30 <DMA2D_IRQHandler+0x20>)
	DMA2D->CR &= ~0x0100;		/* disable transfer interrupts */
 8001a16:	681a      	ldr	r2, [r3, #0]
 8001a18:	f422 7280 	bic.w	r2, r2, #256	; 0x100
 8001a1c:	601a      	str	r2, [r3, #0]
	DMA2D->IFCR |= 0x3F;		/* clear all flags */
 8001a1e:	689a      	ldr	r2, [r3, #8]
 8001a20:	f042 023f 	orr.w	r2, r2, #63	; 0x3f
 8001a24:	609a      	str	r2, [r3, #8]
	DMA2D_error_flag = 1;
 8001a26:	7008      	strb	r0, [r1, #0]
 8001a28:	4770      	bx	lr
 8001a2a:	bf00      	nop
 8001a2c:	4002b000 	.word	0x4002b000
 8001a30:	20000026 	.word	0x20000026

08001a34 <TIM4_IRQHandler>:
  * @param  None
  * @retval None
  */
void TIM4_IRQHandler(void)
{
	TS_read_pending = 1;
 8001a34:	4b04      	ldr	r3, [pc, #16]	; (8001a48 <TIM4_IRQHandler+0x14>)
 8001a36:	2101      	movs	r1, #1
	TIM_TS->SR &= ~0x01;
 8001a38:	4a04      	ldr	r2, [pc, #16]	; (8001a4c <TIM4_IRQHandler+0x18>)
	TS_read_pending = 1;
 8001a3a:	7019      	strb	r1, [r3, #0]
	TIM_TS->SR &= ~0x01;
 8001a3c:	6913      	ldr	r3, [r2, #16]
 8001a3e:	f023 0301 	bic.w	r3, r3, #1
 8001a42:	6113      	str	r3, [r2, #16]
 8001a44:	4770      	bx	lr
 8001a46:	bf00      	nop
 8001a48:	20000028 	.word	0x20000028
 8001a4c:	40000800 	.word	0x40000800

08001a50 <SystemInit>:
  */
void SystemInit(void)
{
  /* FPU settings ------------------------------------------------------------*/
  #if (__FPU_PRESENT == 1) && (__FPU_USED == 1)
    SCB->CPACR |= ((3UL << 10*2)|(3UL << 11*2));  /* set CP10 and CP11 Full Access */
 8001a50:	4a0f      	ldr	r2, [pc, #60]	; (8001a90 <SystemInit+0x40>)
  #endif
  /* Reset the RCC clock configuration to the default reset state ------------*/
  /* Set HSION bit */
  RCC->CR |= (uint32_t)0x00000001;
 8001a52:	4b10      	ldr	r3, [pc, #64]	; (8001a94 <SystemInit+0x44>)
    SCB->CPACR |= ((3UL << 10*2)|(3UL << 11*2));  /* set CP10 and CP11 Full Access */
 8001a54:	f8d2 0088 	ldr.w	r0, [r2, #136]	; 0x88

  /* Reset CFGR register */
  RCC->CFGR = 0x00000000;

  /* Reset HSEON, CSSON and PLLON bits */
  RCC->CR &= (uint32_t)0xFEF6FFFF;
 8001a58:	490f      	ldr	r1, [pc, #60]	; (8001a98 <SystemInit+0x48>)
    SCB->CPACR |= ((3UL << 10*2)|(3UL << 11*2));  /* set CP10 and CP11 Full Access */
 8001a5a:	f440 0070 	orr.w	r0, r0, #15728640	; 0xf00000
{
 8001a5e:	b470      	push	{r4, r5, r6}
    SCB->CPACR |= ((3UL << 10*2)|(3UL << 11*2));  /* set CP10 and CP11 Full Access */
 8001a60:	f8c2 0088 	str.w	r0, [r2, #136]	; 0x88
  RCC->CFGR = 0x00000000;
 8001a64:	2400      	movs	r4, #0
  RCC->CR |= (uint32_t)0x00000001;
 8001a66:	6818      	ldr	r0, [r3, #0]

  /* Configure the Vector Table location add offset address ------------------*/
#ifdef VECT_TAB_SRAM
  SCB->VTOR = RAMDTCM_BASE | VECT_TAB_OFFSET; /* Vector Table Relocation in Internal SRAM */
#else
  SCB->VTOR = FLASH_BASE | VECT_TAB_OFFSET; /* Vector Table Relocation in Internal FLASH */
 8001a68:	f04f 6500 	mov.w	r5, #134217728	; 0x8000000
  RCC->PLLCFGR = 0x24003010;
 8001a6c:	4e0b      	ldr	r6, [pc, #44]	; (8001a9c <SystemInit+0x4c>)
  RCC->CR |= (uint32_t)0x00000001;
 8001a6e:	f040 0001 	orr.w	r0, r0, #1
 8001a72:	6018      	str	r0, [r3, #0]
  RCC->CFGR = 0x00000000;
 8001a74:	609c      	str	r4, [r3, #8]
  RCC->CR &= (uint32_t)0xFEF6FFFF;
 8001a76:	6818      	ldr	r0, [r3, #0]
 8001a78:	4001      	ands	r1, r0
 8001a7a:	6019      	str	r1, [r3, #0]
  RCC->PLLCFGR = 0x24003010;
 8001a7c:	605e      	str	r6, [r3, #4]
  RCC->CR &= (uint32_t)0xFFFBFFFF;
 8001a7e:	6819      	ldr	r1, [r3, #0]
 8001a80:	f421 2180 	bic.w	r1, r1, #262144	; 0x40000
 8001a84:	6019      	str	r1, [r3, #0]
  RCC->CIR = 0x00000000;
 8001a86:	60dc      	str	r4, [r3, #12]
  SCB->VTOR = FLASH_BASE | VECT_TAB_OFFSET; /* Vector Table Relocation in Internal FLASH */
 8001a88:	6095      	str	r5, [r2, #8]
#endif
}
 8001a8a:	bc70      	pop	{r4, r5, r6}
 8001a8c:	4770      	bx	lr
 8001a8e:	bf00      	nop
 8001a90:	e000ed00 	.word	0xe000ed00
 8001a94:	40023800 	.word	0x40023800
 8001a98:	fef6ffff 	.word	0xfef6ffff
 8001a9c:	24003010 	.word	0x24003010

08001aa0 <TS_DetectNumTouches>:
  * @brief  Get number of current touches detected.
  * @param  None
  * @retval Number of touches
  */
uint8_t TS_DetectNumTouches(void)
{
 8001aa0:	b508      	push	{r3, lr}
  * @param  register to be read from
  * @retval Read data
  */
uint8_t TS_ReadSingle(uint8_t reg)
{
	return I2C_ReadSingle(TS_I2Cx, TS_I2C_ADDRESS, reg);
 8001aa2:	2202      	movs	r2, #2
 8001aa4:	2170      	movs	r1, #112	; 0x70
 8001aa6:	4803      	ldr	r0, [pc, #12]	; (8001ab4 <TS_DetectNumTouches+0x14>)
 8001aa8:	f7fe fcc6 	bl	8000438 <I2C_ReadSingle>
}
 8001aac:	2805      	cmp	r0, #5
 8001aae:	bf88      	it	hi
 8001ab0:	2000      	movhi	r0, #0
 8001ab2:	bd08      	pop	{r3, pc}
 8001ab4:	40005c00 	.word	0x40005c00

08001ab8 <TS_GetXY>:
{
 8001ab8:	b5f8      	push	{r3, r4, r5, r6, r7, lr}
	return I2C_ReadSingle(TS_I2Cx, TS_I2C_ADDRESS, reg);
 8001aba:	4e12      	ldr	r6, [pc, #72]	; (8001b04 <TS_GetXY+0x4c>)
{
 8001abc:	4607      	mov	r7, r0
 8001abe:	460d      	mov	r5, r1
	return I2C_ReadSingle(TS_I2Cx, TS_I2C_ADDRESS, reg);
 8001ac0:	2203      	movs	r2, #3
 8001ac2:	2170      	movs	r1, #112	; 0x70
 8001ac4:	4630      	mov	r0, r6
 8001ac6:	f7fe fcb7 	bl	8000438 <I2C_ReadSingle>
 8001aca:	4604      	mov	r4, r0
 8001acc:	2204      	movs	r2, #4
 8001ace:	2170      	movs	r1, #112	; 0x70
	*X = ((TS_ReadSingle(FT5336_P1_XH_REG) & 0x0F) << 8) | TS_ReadSingle(FT5336_P1_XL_REG);
 8001ad0:	0224      	lsls	r4, r4, #8
	return I2C_ReadSingle(TS_I2Cx, TS_I2C_ADDRESS, reg);
 8001ad2:	4630      	mov	r0, r6
 8001ad4:	f7fe fcb0 	bl	8000438 <I2C_ReadSingle>
 8001ad8:	2205      	movs	r2, #5
	*X = ((TS_ReadSingle(FT5336_P1_XH_REG) & 0x0F) << 8) | TS_ReadSingle(FT5336_P1_XL_REG);
 8001ada:	f404 6470 	and.w	r4, r4, #3840	; 0xf00
	return I2C_ReadSingle(TS_I2Cx, TS_I2C_ADDRESS, reg);
 8001ade:	2170      	movs	r1, #112	; 0x70
	*X = ((TS_ReadSingle(FT5336_P1_XH_REG) & 0x0F) << 8) | TS_ReadSingle(FT5336_P1_XL_REG);
 8001ae0:	4304      	orrs	r4, r0
	return I2C_ReadSingle(TS_I2Cx, TS_I2C_ADDRESS, reg);
 8001ae2:	4630      	mov	r0, r6
	*X = ((TS_ReadSingle(FT5336_P1_XH_REG) & 0x0F) << 8) | TS_ReadSingle(FT5336_P1_XL_REG);
 8001ae4:	803c      	strh	r4, [r7, #0]
	return I2C_ReadSingle(TS_I2Cx, TS_I2C_ADDRESS, reg);
 8001ae6:	f7fe fca7 	bl	8000438 <I2C_ReadSingle>
 8001aea:	4604      	mov	r4, r0
 8001aec:	2206      	movs	r2, #6
 8001aee:	4630      	mov	r0, r6
	*Y = ((TS_ReadSingle(FT5336_P1_YH_REG) & 0x0F) << 8) | TS_ReadSingle(FT5336_P1_YL_REG);
 8001af0:	0224      	lsls	r4, r4, #8
	return I2C_ReadSingle(TS_I2Cx, TS_I2C_ADDRESS, reg);
 8001af2:	2170      	movs	r1, #112	; 0x70
 8001af4:	f7fe fca0 	bl	8000438 <I2C_ReadSingle>
	*Y = ((TS_ReadSingle(FT5336_P1_YH_REG) & 0x0F) << 8) | TS_ReadSingle(FT5336_P1_YL_REG);
 8001af8:	f404 6470 	and.w	r4, r4, #3840	; 0xf00
 8001afc:	4304      	orrs	r4, r0
 8001afe:	802c      	strh	r4, [r5, #0]
 8001b00:	bdf8      	pop	{r3, r4, r5, r6, r7, pc}
 8001b02:	bf00      	nop
 8001b04:	40005c00 	.word	0x40005c00

08001b08 <UG_Init>:
#endif



UG_S16 UG_Init( UG_GUI* g, void (*p)(UG_S16,UG_S16,UG_COLOR), UG_S16 x, UG_S16 y )
{
 8001b08:	b5f0      	push	{r4, r5, r6, r7, lr}
 8001b0a:	4604      	mov	r4, r0
   g->pset = (void(*)(UG_S16,UG_S16,UG_COLOR))p;
   g->x_dim = x;
   g->y_dim = y;
   g->console.x_start = 4;
   g->console.y_start = 4;
   g->console.x_end = g->x_dim - g->console.x_start-1;
 8001b0c:	1f55      	subs	r5, r2, #5
   g->console.y_end = g->y_dim - g->console.x_start-1;
 8001b0e:	1f58      	subs	r0, r3, #5
   g->console.x_start = 4;
 8001b10:	2604      	movs	r6, #4
   g->console.x_end = g->x_dim - g->console.x_start-1;
 8001b12:	b22d      	sxth	r5, r5
   g->font.widths = NULL;
   #ifdef USE_COLOR_RGB888
   g->desktop_color = 0x5E8BEf;
   #endif
   #ifdef USE_COLOR_RGB565
   g->desktop_color = 0x5C5D;
 8001b14:	f645 4e5d 	movw	lr, #23645	; 0x5c5d
   #endif
   g->fore_color = C_WHITE;
 8001b18:	f64f 77ff 	movw	r7, #65535	; 0xffff
   g->pset = (void(*)(UG_S16,UG_S16,UG_COLOR))p;
 8001b1c:	6021      	str	r1, [r4, #0]
   {
      g->driver[i].driver = NULL;
      g->driver[i].state = 0;
   }

   gui = g;
 8001b1e:	f8df c058 	ldr.w	ip, [pc, #88]	; 8001b78 <UG_Init+0x70>
   g->console.y_end = g->y_dim - g->console.x_start-1;
 8001b22:	b201      	sxth	r1, r0
   g->x_dim = x;
 8001b24:	80a2      	strh	r2, [r4, #4]
   g->char_h_space = 1;
 8001b26:	2201      	movs	r2, #1
   g->y_dim = y;
 8001b28:	80e3      	strh	r3, [r4, #6]
   g->font.p = NULL;
 8001b2a:	2300      	movs	r3, #0
   g->console.x_end = g->x_dim - g->console.x_start-1;
 8001b2c:	84a5      	strh	r5, [r4, #36]	; 0x24
   return 1;
}
 8001b2e:	4610      	mov	r0, r2
   g->console.x_pos = g->console.x_end;
 8001b30:	83a5      	strh	r5, [r4, #28]
   g->console.y_end = g->y_dim - g->console.x_start-1;
 8001b32:	84e1      	strh	r1, [r4, #38]	; 0x26
   g->console.y_pos = g->console.y_end;
 8001b34:	83e1      	strh	r1, [r4, #30]
   g->desktop_color = 0x5C5D;
 8001b36:	f8a4 e046 	strh.w	lr, [r4, #70]	; 0x46
   g->fore_color = C_WHITE;
 8001b3a:	f8a4 7042 	strh.w	r7, [r4, #66]	; 0x42
   gui = g;
 8001b3e:	f8cc 4000 	str.w	r4, [ip]
   g->console.x_start = 4;
 8001b42:	8426      	strh	r6, [r4, #32]
   g->console.y_start = 4;
 8001b44:	8466      	strh	r6, [r4, #34]	; 0x22
   g->char_h_space = 1;
 8001b46:	f884 2040 	strb.w	r2, [r4, #64]	; 0x40
   g->char_v_space = 1;
 8001b4a:	f884 2041 	strb.w	r2, [r4, #65]	; 0x41
   g->font.p = NULL;
 8001b4e:	62e3      	str	r3, [r4, #44]	; 0x2c
   g->font.char_height = 0;
 8001b50:	86a3      	strh	r3, [r4, #52]	; 0x34
   g->font.char_width = 0;
 8001b52:	8663      	strh	r3, [r4, #50]	; 0x32
   g->font.start_char = 0;
 8001b54:	86e3      	strh	r3, [r4, #54]	; 0x36
   g->font.end_char = 0;
 8001b56:	8723      	strh	r3, [r4, #56]	; 0x38
   g->font.widths = NULL;
 8001b58:	63e3      	str	r3, [r4, #60]	; 0x3c
   g->back_color = C_BLACK;
 8001b5a:	f8a4 3044 	strh.w	r3, [r4, #68]	; 0x44
   g->next_window = NULL;
 8001b5e:	6123      	str	r3, [r4, #16]
   g->active_window = NULL;
 8001b60:	6163      	str	r3, [r4, #20]
   g->last_window = NULL;
 8001b62:	61a3      	str	r3, [r4, #24]
      g->driver[i].driver = NULL;
 8001b64:	64e3      	str	r3, [r4, #76]	; 0x4c
      g->driver[i].state = 0;
 8001b66:	f884 3050 	strb.w	r3, [r4, #80]	; 0x50
      g->driver[i].driver = NULL;
 8001b6a:	6563      	str	r3, [r4, #84]	; 0x54
      g->driver[i].state = 0;
 8001b6c:	f884 3058 	strb.w	r3, [r4, #88]	; 0x58
      g->driver[i].driver = NULL;
 8001b70:	65e3      	str	r3, [r4, #92]	; 0x5c
      g->driver[i].state = 0;
 8001b72:	f884 3060 	strb.w	r3, [r4, #96]	; 0x60
}
 8001b76:	bdf0      	pop	{r4, r5, r6, r7, pc}
 8001b78:	2000003c 	.word	0x2000003c

08001b7c <UG_FillScreen>:
{
   gui->font = *font;
}

void UG_FillScreen( UG_COLOR c )
{
 8001b7c:	e92d 47f0 	stmdb	sp!, {r4, r5, r6, r7, r8, r9, sl, lr}
   UG_FillFrame(0,0,gui->x_dim-1,gui->y_dim-1,c);
 8001b80:	4e1f      	ldr	r6, [pc, #124]	; (8001c00 <UG_FillScreen+0x84>)
{
 8001b82:	b082      	sub	sp, #8
 8001b84:	4680      	mov	r8, r0
   UG_FillFrame(0,0,gui->x_dim-1,gui->y_dim-1,c);
 8001b86:	6832      	ldr	r2, [r6, #0]
 8001b88:	f8b2 9004 	ldrh.w	r9, [r2, #4]
 8001b8c:	88d5      	ldrh	r5, [r2, #6]
 8001b8e:	f109 39ff 	add.w	r9, r9, #4294967295
 8001b92:	3d01      	subs	r5, #1
 8001b94:	fa0f f989 	sxth.w	r9, r9
 8001b98:	b22d      	sxth	r5, r5

void UG_FillFrame( UG_S16 x1, UG_S16 y1, UG_S16 x2, UG_S16 y2, UG_COLOR c )
{
   UG_S16 n,m;

   if ( x2 < x1 )
 8001b9a:	f1b9 0f00 	cmp.w	r9, #0
 8001b9e:	db2c      	blt.n	8001bfa <UG_FillScreen+0x7e>
 8001ba0:	464f      	mov	r7, r9
 8001ba2:	f04f 0900 	mov.w	r9, #0
   {
      n = x2;
      x2 = x1;
      x1 = n;
   }
   if ( y2 < y1 )
 8001ba6:	2d00      	cmp	r5, #0
 8001ba8:	db24      	blt.n	8001bf4 <UG_FillScreen+0x78>
 8001baa:	46aa      	mov	sl, r5
 8001bac:	2500      	movs	r5, #0
      y2 = y1;
      y1 = n;
   }

   /* Is hardware acceleration available? */
   if ( gui->driver[DRIVER_FILL_FRAME].state & DRIVER_ENABLED )
 8001bae:	f892 3058 	ldrb.w	r3, [r2, #88]	; 0x58
 8001bb2:	079b      	lsls	r3, r3, #30
 8001bb4:	d411      	bmi.n	8001bda <UG_FillScreen+0x5e>
      y2 = y1;
 8001bb6:	464c      	mov	r4, r9
 8001bb8:	e000      	b.n	8001bbc <UG_FillScreen+0x40>
 8001bba:	6832      	ldr	r2, [r6, #0]

   for( m=y1; m<=y2; m++ )
   {
      for( n=x1; n<=x2; n++ )
      {
         gui->pset(n,m,c);
 8001bbc:	4620      	mov	r0, r4
 8001bbe:	3401      	adds	r4, #1
 8001bc0:	6813      	ldr	r3, [r2, #0]
 8001bc2:	4629      	mov	r1, r5
 8001bc4:	b224      	sxth	r4, r4
 8001bc6:	4642      	mov	r2, r8
 8001bc8:	4798      	blx	r3
      for( n=x1; n<=x2; n++ )
 8001bca:	42a7      	cmp	r7, r4
 8001bcc:	daf5      	bge.n	8001bba <UG_FillScreen+0x3e>
 8001bce:	3501      	adds	r5, #1
 8001bd0:	b22d      	sxth	r5, r5
   for( m=y1; m<=y2; m++ )
 8001bd2:	45aa      	cmp	sl, r5
 8001bd4:	db0b      	blt.n	8001bee <UG_FillScreen+0x72>
 8001bd6:	6832      	ldr	r2, [r6, #0]
 8001bd8:	e7ed      	b.n	8001bb6 <UG_FillScreen+0x3a>
      if( ((UG_RESULT(*)(UG_S16 x1, UG_S16 y1, UG_S16 x2, UG_S16 y2, UG_COLOR c))gui->driver[DRIVER_FILL_FRAME].driver)(x1,y1,x2,y2,c) == UG_RESULT_OK ) return;
 8001bda:	f8cd 8000 	str.w	r8, [sp]
 8001bde:	4653      	mov	r3, sl
 8001be0:	6d54      	ldr	r4, [r2, #84]	; 0x54
 8001be2:	4629      	mov	r1, r5
 8001be4:	463a      	mov	r2, r7
 8001be6:	4648      	mov	r0, r9
 8001be8:	47a0      	blx	r4
 8001bea:	2800      	cmp	r0, #0
 8001bec:	d1f3      	bne.n	8001bd6 <UG_FillScreen+0x5a>
}
 8001bee:	b002      	add	sp, #8
 8001bf0:	e8bd 87f0 	ldmia.w	sp!, {r4, r5, r6, r7, r8, r9, sl, pc}
      y2 = y1;
 8001bf4:	f04f 0a00 	mov.w	sl, #0
 8001bf8:	e7d9      	b.n	8001bae <UG_FillScreen+0x32>
      x2 = x1;
 8001bfa:	2700      	movs	r7, #0
 8001bfc:	e7d3      	b.n	8001ba6 <UG_FillScreen+0x2a>
 8001bfe:	bf00      	nop
 8001c00:	2000003c 	.word	0x2000003c

08001c04 <UG_DrawLine>:
      }
   }
}

void UG_DrawLine( UG_S16 x1, UG_S16 y1, UG_S16 x2, UG_S16 y2, UG_COLOR c )
{
 8001c04:	e92d 4ff0 	stmdb	sp!, {r4, r5, r6, r7, r8, r9, sl, fp, lr}
   UG_S16 n, dx, dy, sgndx, sgndy, dxabs, dyabs, x, y, drawx, drawy;

   /* Is hardware acceleration available? */
   if ( gui->driver[DRIVER_DRAW_LINE].state & DRIVER_ENABLED )
 8001c08:	f8df a124 	ldr.w	sl, [pc, #292]	; 8001d30 <UG_DrawLine+0x12c>
{
 8001c0c:	b087      	sub	sp, #28
 8001c0e:	4605      	mov	r5, r0
 8001c10:	460e      	mov	r6, r1
   if ( gui->driver[DRIVER_DRAW_LINE].state & DRIVER_ENABLED )
 8001c12:	f8da 7000 	ldr.w	r7, [sl]
{
 8001c16:	4690      	mov	r8, r2
 8001c18:	461c      	mov	r4, r3
 8001c1a:	f8bd 9040 	ldrh.w	r9, [sp, #64]	; 0x40
   if ( gui->driver[DRIVER_DRAW_LINE].state & DRIVER_ENABLED )
 8001c1e:	f897 e050 	ldrb.w	lr, [r7, #80]	; 0x50
 8001c22:	f01e 0f02 	tst.w	lr, #2
 8001c26:	d17a      	bne.n	8001d1e <UG_DrawLine+0x11a>
   {
      if( ((UG_RESULT(*)(UG_S16 x1, UG_S16 y1, UG_S16 x2, UG_S16 y2, UG_COLOR c))gui->driver[DRIVER_DRAW_LINE].driver)(x1,y1,x2,y2,c) == UG_RESULT_OK ) return;
   }

   dx = x2 - x1;
 8001c28:	eba8 0805 	sub.w	r8, r8, r5
   dy = y2 - y1;
 8001c2c:	eba4 0e06 	sub.w	lr, r4, r6
   dxabs = (dx>0)?dx:-dx;
   dyabs = (dy>0)?dy:-dy;
   sgndx = (dx>0)?1:-1;
 8001c30:	f64f 7cff 	movw	ip, #65535	; 0xffff
   x = dyabs >> 1;
   y = dxabs >> 1;
   drawx = x1;
   drawy = y1;

   gui->pset(drawx, drawy,c);
 8001c34:	683c      	ldr	r4, [r7, #0]
   dx = x2 - x1;
 8001c36:	fa0f f888 	sxth.w	r8, r8
   gui->pset(drawx, drawy,c);
 8001c3a:	464a      	mov	r2, r9
   dy = y2 - y1;
 8001c3c:	fa0f fe8e 	sxth.w	lr, lr
   gui->pset(drawx, drawy,c);
 8001c40:	4631      	mov	r1, r6
   dxabs = (dx>0)?dx:-dx;
 8001c42:	ea88 73e8 	eor.w	r3, r8, r8, asr #31
   sgndx = (dx>0)?1:-1;
 8001c46:	f1b8 0f00 	cmp.w	r8, #0
   dyabs = (dy>0)?dy:-dy;
 8001c4a:	ea8e 7bee 	eor.w	fp, lr, lr, asr #31
   gui->pset(drawx, drawy,c);
 8001c4e:	4628      	mov	r0, r5
   dxabs = (dx>0)?dx:-dx;
 8001c50:	eba3 73e8 	sub.w	r3, r3, r8, asr #31
   dyabs = (dy>0)?dy:-dy;
 8001c54:	ebab 7bee 	sub.w	fp, fp, lr, asr #31
   dxabs = (dx>0)?dx:-dx;
 8001c58:	b21f      	sxth	r7, r3
 8001c5a:	9305      	str	r3, [sp, #20]
   sgndx = (dx>0)?1:-1;
 8001c5c:	bfd4      	ite	le
 8001c5e:	4663      	movle	r3, ip
 8001c60:	2301      	movgt	r3, #1
   sgndy = (dy>0)?1:-1;
 8001c62:	f1be 0f00 	cmp.w	lr, #0
   dyabs = (dy>0)?dy:-dy;
 8001c66:	fa0f f88b 	sxth.w	r8, fp
   sgndx = (dx>0)?1:-1;
 8001c6a:	9303      	str	r3, [sp, #12]
   sgndy = (dy>0)?1:-1;
 8001c6c:	bfd4      	ite	le
 8001c6e:	4663      	movle	r3, ip
 8001c70:	2301      	movgt	r3, #1
 8001c72:	9304      	str	r3, [sp, #16]
   gui->pset(drawx, drawy,c);
 8001c74:	47a0      	blx	r4

   if( dxabs >= dyabs )
 8001c76:	4547      	cmp	r7, r8
 8001c78:	db29      	blt.n	8001cce <UG_DrawLine+0xca>
   {
      for( n=0; n<dxabs; n++ )
 8001c7a:	2f00      	cmp	r7, #0
 8001c7c:	dd24      	ble.n	8001cc8 <UG_DrawLine+0xc4>
 8001c7e:	fa1f f38b 	uxth.w	r3, fp
   y = dxabs >> 1;
 8001c82:	f04f 0800 	mov.w	r8, #0
 8001c86:	107c      	asrs	r4, r7, #1
 8001c88:	469b      	mov	fp, r3
 8001c8a:	9b03      	ldr	r3, [sp, #12]
      {
         y += dyabs;
 8001c8c:	445c      	add	r4, fp
         if( y >= dxabs )
         {
            y -= dxabs;
            drawy += sgndy;
 8001c8e:	9804      	ldr	r0, [sp, #16]
 8001c90:	f108 0801 	add.w	r8, r8, #1
 8001c94:	441d      	add	r5, r3
         y += dyabs;
 8001c96:	b2a3      	uxth	r3, r4
            y -= dxabs;
 8001c98:	9905      	ldr	r1, [sp, #20]
            drawy += sgndy;
 8001c9a:	eb00 0e06 	add.w	lr, r0, r6
         y += dyabs;
 8001c9e:	b21c      	sxth	r4, r3
         }
         drawx += sgndx;
         gui->pset(drawx, drawy,c);
 8001ca0:	f8da c000 	ldr.w	ip, [sl]
 8001ca4:	b22d      	sxth	r5, r5
 8001ca6:	464a      	mov	r2, r9
         if( y >= dxabs )
 8001ca8:	42a7      	cmp	r7, r4
            y -= dxabs;
 8001caa:	eba3 0301 	sub.w	r3, r3, r1
         gui->pset(drawx, drawy,c);
 8001cae:	4628      	mov	r0, r5
         if( y >= dxabs )
 8001cb0:	dc02      	bgt.n	8001cb8 <UG_DrawLine+0xb4>
            y -= dxabs;
 8001cb2:	b21c      	sxth	r4, r3
            drawy += sgndy;
 8001cb4:	fa0f f68e 	sxth.w	r6, lr
         gui->pset(drawx, drawy,c);
 8001cb8:	f8dc 3000 	ldr.w	r3, [ip]
 8001cbc:	4631      	mov	r1, r6
 8001cbe:	4798      	blx	r3
      for( n=0; n<dxabs; n++ )
 8001cc0:	fa0f f388 	sxth.w	r3, r8
 8001cc4:	429f      	cmp	r7, r3
 8001cc6:	dce0      	bgt.n	8001c8a <UG_DrawLine+0x86>
         }
         drawy += sgndy;
         gui->pset(drawx, drawy,c);
      }
   }  
}
 8001cc8:	b007      	add	sp, #28
 8001cca:	e8bd 8ff0 	ldmia.w	sp!, {r4, r5, r6, r7, r8, r9, sl, fp, pc}
      for( n=0; n<dyabs; n++ )
 8001cce:	f1b8 0f00 	cmp.w	r8, #0
 8001cd2:	ddf9      	ble.n	8001cc8 <UG_DrawLine+0xc4>
 8001cd4:	f8bd 3014 	ldrh.w	r3, [sp, #20]
   x = dyabs >> 1;
 8001cd8:	2700      	movs	r7, #0
 8001cda:	ea4f 0468 	mov.w	r4, r8, asr #1
 8001cde:	9305      	str	r3, [sp, #20]
 8001ce0:	9b04      	ldr	r3, [sp, #16]
 8001ce2:	3701      	adds	r7, #1
            drawx += sgndx;
 8001ce4:	9903      	ldr	r1, [sp, #12]
         gui->pset(drawx, drawy,c);
 8001ce6:	464a      	mov	r2, r9
 8001ce8:	441e      	add	r6, r3
         x += dxabs;
 8001cea:	9b05      	ldr	r3, [sp, #20]
            drawx += sgndx;
 8001cec:	eb01 0e05 	add.w	lr, r1, r5
         gui->pset(drawx, drawy,c);
 8001cf0:	f8da 0000 	ldr.w	r0, [sl]
         x += dxabs;
 8001cf4:	441c      	add	r4, r3
 8001cf6:	b236      	sxth	r6, r6
 8001cf8:	b2a3      	uxth	r3, r4
         gui->pset(drawx, drawy,c);
 8001cfa:	4631      	mov	r1, r6
         x += dxabs;
 8001cfc:	b21c      	sxth	r4, r3
            x -= dyabs;
 8001cfe:	eba3 030b 	sub.w	r3, r3, fp
         if( x >= dyabs )
 8001d02:	45a0      	cmp	r8, r4
 8001d04:	dc02      	bgt.n	8001d0c <UG_DrawLine+0x108>
            x -= dyabs;
 8001d06:	b21c      	sxth	r4, r3
            drawx += sgndx;
 8001d08:	fa0f f58e 	sxth.w	r5, lr
         gui->pset(drawx, drawy,c);
 8001d0c:	6803      	ldr	r3, [r0, #0]
 8001d0e:	4628      	mov	r0, r5
 8001d10:	4798      	blx	r3
      for( n=0; n<dyabs; n++ )
 8001d12:	b23b      	sxth	r3, r7
 8001d14:	4598      	cmp	r8, r3
 8001d16:	dce3      	bgt.n	8001ce0 <UG_DrawLine+0xdc>
}
 8001d18:	b007      	add	sp, #28
 8001d1a:	e8bd 8ff0 	ldmia.w	sp!, {r4, r5, r6, r7, r8, r9, sl, fp, pc}
      if( ((UG_RESULT(*)(UG_S16 x1, UG_S16 y1, UG_S16 x2, UG_S16 y2, UG_COLOR c))gui->driver[DRIVER_DRAW_LINE].driver)(x1,y1,x2,y2,c) == UG_RESULT_OK ) return;
 8001d1e:	f8cd 9000 	str.w	r9, [sp]
 8001d22:	6cff      	ldr	r7, [r7, #76]	; 0x4c
 8001d24:	47b8      	blx	r7
 8001d26:	2800      	cmp	r0, #0
 8001d28:	d0ce      	beq.n	8001cc8 <UG_DrawLine+0xc4>
 8001d2a:	f8da 7000 	ldr.w	r7, [sl]
 8001d2e:	e77b      	b.n	8001c28 <UG_DrawLine+0x24>
 8001d30:	2000003c 	.word	0x2000003c

08001d34 <_UG_PutChar>:

/* -------------------------------------------------------------------------------- */
/* -- INTERNAL FUNCTIONS                                                         -- */
/* -------------------------------------------------------------------------------- */
void _UG_PutChar( char chr, UG_S16 x, UG_S16 y, UG_COLOR fc, UG_COLOR bc, const UG_FONT* font)
{
 8001d34:	e92d 4ff0 	stmdb	sp!, {r4, r5, r6, r7, r8, r9, sl, fp, lr}
 8001d38:	b08d      	sub	sp, #52	; 0x34
   UG_COLOR color;
   void(*push_pixel)(UG_COLOR);

   bt = (UG_U8)chr;

   switch ( bt )
 8001d3a:	f1a0 04b0 	sub.w	r4, r0, #176	; 0xb0
{
 8001d3e:	f8bd 5058 	ldrh.w	r5, [sp, #88]	; 0x58
 8001d42:	46a8      	mov	r8, r5
   switch ( bt )
 8001d44:	2c4c      	cmp	r4, #76	; 0x4c
 8001d46:	f200 80b9 	bhi.w	8001ebc <_UG_PutChar+0x188>
 8001d4a:	e8df f004 	tbb	[pc, r4]
 8001d4e:	b7ae      	.short	0xb7ae
 8001d50:	b1b7b7b7 	.word	0xb1b7b7b7
 8001d54:	b7b7b7b7 	.word	0xb7b7b7b7
 8001d58:	b7b7b7b7 	.word	0xb7b7b7b7
 8001d5c:	b7b7b7b7 	.word	0xb7b7b7b7
 8001d60:	b7b4b7b7 	.word	0xb7b4b7b7
 8001d64:	b7b7b7b7 	.word	0xb7b7b7b7
 8001d68:	b7b7b7b7 	.word	0xb7b7b7b7
 8001d6c:	b7b7b7b7 	.word	0xb7b7b7b7
 8001d70:	b7b7b7b7 	.word	0xb7b7b7b7
 8001d74:	b7b7b727 	.word	0xb7b7b727
 8001d78:	b79cb7b7 	.word	0xb79cb7b7
 8001d7c:	b7b7b7b7 	.word	0xb7b7b7b7
 8001d80:	b7a5b7b7 	.word	0xb7a5b7b7
 8001d84:	b7b7b7b7 	.word	0xb7b7b7b7
 8001d88:	b7b7b7b7 	.word	0xb7b7b7b7
 8001d8c:	b7b7b7b7 	.word	0xb7b7b7b7
 8001d90:	b7b7b7b7 	.word	0xb7b7b7b7
 8001d94:	b7b7b7a8 	.word	0xb7b7b7a8
 8001d98:	b7b7      	.short	0xb7b7
 8001d9a:	ab          	.byte	0xab
 8001d9b:	00          	.byte	0x00
 8001d9c:	2499      	movs	r4, #153	; 0x99
   {
      case 0xF6: bt = 0x94; break; // 
      case 0xD6: bt = 0x99; break; // 
 8001d9e:	4626      	mov	r6, r4
      case 0xC4: bt = 0x8E; break; // 
      case 0xB5: bt = 0xE6; break; // 
      case 0xB0: bt = 0xF8; break; // 
   }

   if (bt < font->start_char || bt > font->end_char) return;
 8001da0:	9817      	ldr	r0, [sp, #92]	; 0x5c
 8001da2:	8947      	ldrh	r7, [r0, #10]
 8001da4:	42a7      	cmp	r7, r4
 8001da6:	d874      	bhi.n	8001e92 <_UG_PutChar+0x15e>
 8001da8:	8980      	ldrh	r0, [r0, #12]
 8001daa:	42a0      	cmp	r0, r4
 8001dac:	d371      	bcc.n	8001e92 <_UG_PutChar+0x15e>
   
   yo = y;
   bn = font->char_width;
 8001dae:	9817      	ldr	r0, [sp, #92]	; 0x5c
 8001db0:	f9b0 4006 	ldrsh.w	r4, [r0, #6]
 8001db4:	b2a0      	uxth	r0, r4
 8001db6:	9003      	str	r0, [sp, #12]
   if ( !bn ) return;
 8001db8:	2800      	cmp	r0, #0
 8001dba:	d06a      	beq.n	8001e92 <_UG_PutChar+0x15e>
   bn >>= 3;
 8001dbc:	08c5      	lsrs	r5, r0, #3
   if ( font->char_width % 8 ) bn++;
 8001dbe:	0740      	lsls	r0, r0, #29
   actual_char_width = (font->widths ? font->widths[bt - font->start_char] : font->char_width);
 8001dc0:	9817      	ldr	r0, [sp, #92]	; 0x5c
   if ( font->char_width % 8 ) bn++;
 8001dc2:	bf18      	it	ne
 8001dc4:	3501      	addne	r5, #1
   actual_char_width = (font->widths ? font->widths[bt - font->start_char] : font->char_width);
 8001dc6:	6900      	ldr	r0, [r0, #16]
 8001dc8:	b120      	cbz	r0, 8001dd4 <_UG_PutChar+0xa0>
 8001dca:	eba6 0e07 	sub.w	lr, r6, r7
 8001dce:	f810 000e 	ldrb.w	r0, [r0, lr]
 8001dd2:	9003      	str	r0, [sp, #12]

   /* Is hardware acceleration available? */
   if ( gui->driver[DRIVER_FILL_AREA].state & DRIVER_ENABLED )
 8001dd4:	f8df a37c 	ldr.w	sl, [pc, #892]	; 8002154 <_UG_PutChar+0x420>
 8001dd8:	469b      	mov	fp, r3
 8001dda:	4608      	mov	r0, r1
   yo = y;
 8001ddc:	b293      	uxth	r3, r2
   if ( gui->driver[DRIVER_FILL_AREA].state & DRIVER_ENABLED )
 8001dde:	f8da 1000 	ldr.w	r1, [sl]
   yo = y;
 8001de2:	9304      	str	r3, [sp, #16]
   if ( gui->driver[DRIVER_FILL_AREA].state & DRIVER_ENABLED )
 8001de4:	f891 3060 	ldrb.w	r3, [r1, #96]	; 0x60
 8001de8:	f013 0302 	ands.w	r3, r3, #2
 8001dec:	f040 80e7 	bne.w	8001fbe <_UG_PutChar+0x28a>
	  }
   }
   else
   {
	   /*Not accelerated output*/
	   if (font->font_type == FONT_TYPE_1BPP)
 8001df0:	9a17      	ldr	r2, [sp, #92]	; 0x5c
 8001df2:	7912      	ldrb	r2, [r2, #4]
 8001df4:	2a00      	cmp	r2, #0
 8001df6:	d174      	bne.n	8001ee2 <_UG_PutChar+0x1ae>
	   {
         index = (bt - font->start_char)* font->char_height * bn;
 8001df8:	9917      	ldr	r1, [sp, #92]	; 0x5c
 8001dfa:	1bf3      	subs	r3, r6, r7
 8001dfc:	f9b1 1008 	ldrsh.w	r1, [r1, #8]
 8001e00:	fb01 f303 	mul.w	r3, r1, r3
         for( j=0;j<font->char_height;j++ )
 8001e04:	2900      	cmp	r1, #0
         index = (bt - font->start_char)* font->char_height * bn;
 8001e06:	fb05 f903 	mul.w	r9, r5, r3
         for( j=0;j<font->char_height;j++ )
 8001e0a:	dd42      	ble.n	8001e92 <_UG_PutChar+0x15e>
 8001e0c:	b283      	uxth	r3, r0
 8001e0e:	9305      	str	r3, [sp, #20]
 8001e10:	2d00      	cmp	r5, #0
 8001e12:	d03e      	beq.n	8001e92 <_UG_PutChar+0x15e>
 8001e14:	3d01      	subs	r5, #1
 8001e16:	f8cd 9000 	str.w	r9, [sp]
 8001e1a:	46c1      	mov	r9, r8
 8001e1c:	9202      	str	r2, [sp, #8]
 8001e1e:	b2ad      	uxth	r5, r5
 8001e20:	1c6b      	adds	r3, r5, #1
 8001e22:	9306      	str	r3, [sp, #24]
 8001e24:	9b04      	ldr	r3, [sp, #16]
 8001e26:	9a02      	ldr	r2, [sp, #8]
 8001e28:	9d03      	ldr	r5, [sp, #12]
 8001e2a:	189e      	adds	r6, r3, r2
 8001e2c:	9a06      	ldr	r2, [sp, #24]
 8001e2e:	9b00      	ldr	r3, [sp, #0]
 8001e30:	b236      	sxth	r6, r6
 8001e32:	9f05      	ldr	r7, [sp, #20]
 8001e34:	441a      	add	r2, r3
 8001e36:	9201      	str	r2, [sp, #4]
         {
           xo = x;
           c=actual_char_width;
           for( i=0;i<bn;i++ )
           {
             b = font->p[index++];
 8001e38:	9900      	ldr	r1, [sp, #0]
 8001e3a:	9a17      	ldr	r2, [sp, #92]	; 0x5c
 8001e3c:	3101      	adds	r1, #1
 8001e3e:	6812      	ldr	r2, [r2, #0]
 8001e40:	9100      	str	r1, [sp, #0]
 8001e42:	f812 8003 	ldrb.w	r8, [r2, r3]
             for( k=0;(k<8) && c;k++ )
 8001e46:	2d00      	cmp	r5, #0
 8001e48:	d03c      	beq.n	8001ec4 <_UG_PutChar+0x190>
 8001e4a:	463c      	mov	r4, r7
 8001e4c:	e00c      	b.n	8001e68 <_UG_PutChar+0x134>
               }
               else
               {
                  gui->pset(xo,yo,bc);
               }
               b >>= 1;
 8001e4e:	ea4f 0858 	mov.w	r8, r8, lsr #1
                  gui->pset(xo,yo,fc);
 8001e52:	681b      	ldr	r3, [r3, #0]
               xo++;
 8001e54:	3401      	adds	r4, #1
                  gui->pset(xo,yo,bc);
 8001e56:	4798      	blx	r3
               c--;
 8001e58:	3d01      	subs	r5, #1
               xo++;
 8001e5a:	b2a4      	uxth	r4, r4
               c--;
 8001e5c:	b2ad      	uxth	r5, r5
             for( k=0;(k<8) && c;k++ )
 8001e5e:	1be3      	subs	r3, r4, r7
 8001e60:	b29b      	uxth	r3, r3
 8001e62:	2b07      	cmp	r3, #7
 8001e64:	d82d      	bhi.n	8001ec2 <_UG_PutChar+0x18e>
 8001e66:	b365      	cbz	r5, 8001ec2 <_UG_PutChar+0x18e>
               if( b & 0x01 )
 8001e68:	f018 0f01 	tst.w	r8, #1
                  gui->pset(xo,yo,fc);
 8001e6c:	b220      	sxth	r0, r4
 8001e6e:	465a      	mov	r2, fp
 8001e70:	4631      	mov	r1, r6
 8001e72:	f8da 3000 	ldr.w	r3, [sl]
               if( b & 0x01 )
 8001e76:	d1ea      	bne.n	8001e4e <_UG_PutChar+0x11a>
                  gui->pset(xo,yo,bc);
 8001e78:	464a      	mov	r2, r9
 8001e7a:	4631      	mov	r1, r6
 8001e7c:	b220      	sxth	r0, r4
 8001e7e:	681b      	ldr	r3, [r3, #0]
               b >>= 1;
 8001e80:	ea4f 0858 	mov.w	r8, r8, lsr #1
 8001e84:	e7e6      	b.n	8001e54 <_UG_PutChar+0x120>
   if (bt < font->start_char || bt > font->end_char) return;
 8001e86:	9817      	ldr	r0, [sp, #92]	; 0x5c
      case 0xDC: bt = 0x9A; break; // 
 8001e88:	249a      	movs	r4, #154	; 0x9a
   if (bt < font->start_char || bt > font->end_char) return;
 8001e8a:	8947      	ldrh	r7, [r0, #10]
      case 0xDC: bt = 0x9A; break; // 
 8001e8c:	4626      	mov	r6, r4
   if (bt < font->start_char || bt > font->end_char) return;
 8001e8e:	42a7      	cmp	r7, r4
 8001e90:	d98a      	bls.n	8001da8 <_UG_PutChar+0x74>
            index += font->char_width - actual_char_width;
            yo++;
         }
      }
   }
}
 8001e92:	b00d      	add	sp, #52	; 0x34
 8001e94:	e8bd 8ff0 	ldmia.w	sp!, {r4, r5, r6, r7, r8, r9, sl, fp, pc}
      case 0xE4: bt = 0x84; break; // 
 8001e98:	2484      	movs	r4, #132	; 0x84
 8001e9a:	4626      	mov	r6, r4
 8001e9c:	e780      	b.n	8001da0 <_UG_PutChar+0x6c>
   switch ( bt )
 8001e9e:	2494      	movs	r4, #148	; 0x94
      case 0xF6: bt = 0x94; break; // 
 8001ea0:	4626      	mov	r6, r4
 8001ea2:	e77d      	b.n	8001da0 <_UG_PutChar+0x6c>
      case 0xFC: bt = 0x81; break; // 
 8001ea4:	2481      	movs	r4, #129	; 0x81
 8001ea6:	4626      	mov	r6, r4
 8001ea8:	e77a      	b.n	8001da0 <_UG_PutChar+0x6c>
      case 0xB0: bt = 0xF8; break; // 
 8001eaa:	24f8      	movs	r4, #248	; 0xf8
 8001eac:	4626      	mov	r6, r4
 8001eae:	e777      	b.n	8001da0 <_UG_PutChar+0x6c>
      case 0xB5: bt = 0xE6; break; // 
 8001eb0:	24e6      	movs	r4, #230	; 0xe6
 8001eb2:	4626      	mov	r6, r4
 8001eb4:	e774      	b.n	8001da0 <_UG_PutChar+0x6c>
      case 0xC4: bt = 0x8E; break; // 
 8001eb6:	248e      	movs	r4, #142	; 0x8e
 8001eb8:	4626      	mov	r6, r4
 8001eba:	e771      	b.n	8001da0 <_UG_PutChar+0x6c>
 8001ebc:	b284      	uxth	r4, r0
   switch ( bt )
 8001ebe:	4606      	mov	r6, r0
 8001ec0:	e76e      	b.n	8001da0 <_UG_PutChar+0x6c>
               xo++;
 8001ec2:	4627      	mov	r7, r4
 8001ec4:	9a00      	ldr	r2, [sp, #0]
           for( i=0;i<bn;i++ )
 8001ec6:	9901      	ldr	r1, [sp, #4]
 8001ec8:	4613      	mov	r3, r2
 8001eca:	428a      	cmp	r2, r1
 8001ecc:	d1b4      	bne.n	8001e38 <_UG_PutChar+0x104>
         for( j=0;j<font->char_height;j++ )
 8001ece:	9b02      	ldr	r3, [sp, #8]
 8001ed0:	9a17      	ldr	r2, [sp, #92]	; 0x5c
 8001ed2:	3301      	adds	r3, #1
 8001ed4:	f9b2 2008 	ldrsh.w	r2, [r2, #8]
 8001ed8:	b299      	uxth	r1, r3
 8001eda:	9302      	str	r3, [sp, #8]
 8001edc:	4291      	cmp	r1, r2
 8001ede:	dba1      	blt.n	8001e24 <_UG_PutChar+0xf0>
 8001ee0:	e7d7      	b.n	8001e92 <_UG_PutChar+0x15e>
      else if (font->font_type == FONT_TYPE_8BPP)
 8001ee2:	2a01      	cmp	r2, #1
 8001ee4:	d1d5      	bne.n	8001e92 <_UG_PutChar+0x15e>
         index = (bt - font->start_char)* font->char_height * font->char_width;
 8001ee6:	9917      	ldr	r1, [sp, #92]	; 0x5c
 8001ee8:	1bf2      	subs	r2, r6, r7
 8001eea:	f9b1 1008 	ldrsh.w	r1, [r1, #8]
 8001eee:	fb01 f202 	mul.w	r2, r1, r2
         for( j=0;j<font->char_height;j++ )
 8001ef2:	2900      	cmp	r1, #0
         index = (bt - font->start_char)* font->char_height * font->char_width;
 8001ef4:	fb04 f202 	mul.w	r2, r4, r2
 8001ef8:	9205      	str	r2, [sp, #20]
         for( j=0;j<font->char_height;j++ )
 8001efa:	ddca      	ble.n	8001e92 <_UG_PutChar+0x15e>
 8001efc:	b282      	uxth	r2, r0
 8001efe:	920b      	str	r2, [sp, #44]	; 0x2c
 8001f00:	9a03      	ldr	r2, [sp, #12]
 8001f02:	2a00      	cmp	r2, #0
 8001f04:	d0c5      	beq.n	8001e92 <_UG_PutChar+0x15e>
 8001f06:	9306      	str	r3, [sp, #24]
 8001f08:	f02b 03ff 	bic.w	r3, fp, #255	; 0xff
 8001f0c:	3a01      	subs	r2, #1
 8001f0e:	fa5f fb8b 	uxtb.w	fp, fp
 8001f12:	9309      	str	r3, [sp, #36]	; 0x24
 8001f14:	f028 03ff 	bic.w	r3, r8, #255	; 0xff
 8001f18:	b292      	uxth	r2, r2
 8001f1a:	f8dd 905c 	ldr.w	r9, [sp, #92]	; 0x5c
 8001f1e:	930a      	str	r3, [sp, #40]	; 0x28
 8001f20:	fa5f f388 	uxtb.w	r3, r8
 8001f24:	f8cd b008 	str.w	fp, [sp, #8]
 8001f28:	9301      	str	r3, [sp, #4]
 8001f2a:	1c53      	adds	r3, r2, #1
 8001f2c:	9307      	str	r3, [sp, #28]
 8001f2e:	9a07      	ldr	r2, [sp, #28]
 8001f30:	9905      	ldr	r1, [sp, #20]
 8001f32:	4610      	mov	r0, r2
 8001f34:	f8bd 3018 	ldrh.w	r3, [sp, #24]
 8001f38:	f8bd b024 	ldrh.w	fp, [sp, #36]	; 0x24
 8001f3c:	460c      	mov	r4, r1
 8001f3e:	eb00 0801 	add.w	r8, r0, r1
 8001f42:	9804      	ldr	r0, [sp, #16]
 8001f44:	9308      	str	r3, [sp, #32]
 8001f46:	18c5      	adds	r5, r0, r3
 8001f48:	9b0b      	ldr	r3, [sp, #44]	; 0x2c
 8001f4a:	f8bd 7028 	ldrh.w	r7, [sp, #40]	; 0x28
 8001f4e:	b22d      	sxth	r5, r5
 8001f50:	1a5e      	subs	r6, r3, r1
 8001f52:	9500      	str	r5, [sp, #0]
               b = font->p[index++];
 8001f54:	f8d9 2000 	ldr.w	r2, [r9]
               gui->pset(xo,yo,color);
 8001f58:	1930      	adds	r0, r6, r4
               color = ((((fc & 0xFF) * b + (bc & 0xFF) * (256 - b)) >> 8) & 0xFF) 	|				//Blue component
 8001f5a:	9d01      	ldr	r5, [sp, #4]
 8001f5c:	5d12      	ldrb	r2, [r2, r4]
 8001f5e:	3401      	adds	r4, #1
               gui->pset(xo,yo,color);
 8001f60:	f8da 3000 	ldr.w	r3, [sl]
 8001f64:	b200      	sxth	r0, r0
               color = ((((fc & 0xFF) * b + (bc & 0xFF) * (256 - b)) >> 8) & 0xFF) 	|				//Blue component
 8001f66:	f5c2 7c80 	rsb	ip, r2, #256	; 0x100
               gui->pset(xo,yo,color);
 8001f6a:	9900      	ldr	r1, [sp, #0]
 8001f6c:	681b      	ldr	r3, [r3, #0]
                       ((((fc & 0xFF00) * b + (bc & 0xFF00) * (256 - b)) >> 8) & 0xFF00)  |			//Green component
 8001f6e:	fb07 fe0c 	mul.w	lr, r7, ip
               color = ((((fc & 0xFF) * b + (bc & 0xFF) * (256 - b)) >> 8) & 0xFF) 	|				//Blue component
 8001f72:	fb05 fc0c 	mul.w	ip, r5, ip
 8001f76:	9d02      	ldr	r5, [sp, #8]
                       ((((fc & 0xFF00) * b + (bc & 0xFF00) * (256 - b)) >> 8) & 0xFF00)  |			//Green component
 8001f78:	fb0b ee02 	mla	lr, fp, r2, lr
               color = ((((fc & 0xFF) * b + (bc & 0xFF) * (256 - b)) >> 8) & 0xFF) 	|				//Blue component
 8001f7c:	fb05 c202 	mla	r2, r5, r2, ip
                       ((((fc & 0xFF00) * b + (bc & 0xFF00) * (256 - b)) >> 8) & 0xFF00)  |			//Green component
 8001f80:	ea4f 2e2e 	mov.w	lr, lr, asr #8
               color = ((((fc & 0xFF) * b + (bc & 0xFF) * (256 - b)) >> 8) & 0xFF) 	|				//Blue component
 8001f84:	f3c2 2207 	ubfx	r2, r2, #8, #8
 8001f88:	f40e 4e7f 	and.w	lr, lr, #65280	; 0xff00
               gui->pset(xo,yo,color);
 8001f8c:	ea4e 0202 	orr.w	r2, lr, r2
 8001f90:	4798      	blx	r3
            for( i=0;i<actual_char_width;i++ )
 8001f92:	45a0      	cmp	r8, r4
 8001f94:	d1de      	bne.n	8001f54 <_UG_PutChar+0x220>
 8001f96:	9906      	ldr	r1, [sp, #24]
            index += font->char_width - actual_char_width;
 8001f98:	9803      	ldr	r0, [sp, #12]
 8001f9a:	f9b9 2006 	ldrsh.w	r2, [r9, #6]
 8001f9e:	3101      	adds	r1, #1
         for( j=0;j<font->char_height;j++ )
 8001fa0:	9b08      	ldr	r3, [sp, #32]
            index += font->char_width - actual_char_width;
 8001fa2:	1a12      	subs	r2, r2, r0
 8001fa4:	9807      	ldr	r0, [sp, #28]
         for( j=0;j<font->char_height;j++ )
 8001fa6:	3301      	adds	r3, #1
 8001fa8:	9106      	str	r1, [sp, #24]
            index += font->char_width - actual_char_width;
 8001faa:	4402      	add	r2, r0
         for( j=0;j<font->char_height;j++ )
 8001fac:	f9b9 1008 	ldrsh.w	r1, [r9, #8]
            index += font->char_width - actual_char_width;
 8001fb0:	9805      	ldr	r0, [sp, #20]
         for( j=0;j<font->char_height;j++ )
 8001fb2:	b29b      	uxth	r3, r3
            index += font->char_width - actual_char_width;
 8001fb4:	4410      	add	r0, r2
         for( j=0;j<font->char_height;j++ )
 8001fb6:	428b      	cmp	r3, r1
            index += font->char_width - actual_char_width;
 8001fb8:	9005      	str	r0, [sp, #20]
         for( j=0;j<font->char_height;j++ )
 8001fba:	dbb8      	blt.n	8001f2e <_UG_PutChar+0x1fa>
 8001fbc:	e769      	b.n	8001e92 <_UG_PutChar+0x15e>
      push_pixel = ((void*(*)(UG_S16, UG_S16, UG_S16, UG_S16))gui->driver[DRIVER_FILL_AREA].driver)(x,y,x+actual_char_width-1,y+font->char_height-1);
 8001fbe:	9c17      	ldr	r4, [sp, #92]	; 0x5c
 8001fc0:	1e47      	subs	r7, r0, #1
 8001fc2:	9b04      	ldr	r3, [sp, #16]
 8001fc4:	f8b4 e008 	ldrh.w	lr, [r4, #8]
 8001fc8:	3b01      	subs	r3, #1
 8001fca:	6dcc      	ldr	r4, [r1, #92]	; 0x5c
 8001fcc:	4611      	mov	r1, r2
 8001fce:	9a03      	ldr	r2, [sp, #12]
 8001fd0:	4473      	add	r3, lr
 8001fd2:	443a      	add	r2, r7
 8001fd4:	b21b      	sxth	r3, r3
 8001fd6:	b212      	sxth	r2, r2
 8001fd8:	47a0      	blx	r4
      if (font->font_type == FONT_TYPE_1BPP)
 8001fda:	9b17      	ldr	r3, [sp, #92]	; 0x5c
      push_pixel = ((void*(*)(UG_S16, UG_S16, UG_S16, UG_S16))gui->driver[DRIVER_FILL_AREA].driver)(x,y,x+actual_char_width-1,y+font->char_height-1);
 8001fdc:	4604      	mov	r4, r0
      if (font->font_type == FONT_TYPE_1BPP)
 8001fde:	791b      	ldrb	r3, [r3, #4]
 8001fe0:	2b00      	cmp	r3, #0
 8001fe2:	d143      	bne.n	800206c <_UG_PutChar+0x338>
	      index = (bt - font->start_char)* font->char_height * bn;
 8001fe4:	9a17      	ldr	r2, [sp, #92]	; 0x5c
 8001fe6:	9917      	ldr	r1, [sp, #92]	; 0x5c
 8001fe8:	8952      	ldrh	r2, [r2, #10]
 8001fea:	f9b1 1008 	ldrsh.w	r1, [r1, #8]
 8001fee:	1ab2      	subs	r2, r6, r2
		  for( j=0;j<font->char_height;j++ )
 8001ff0:	2900      	cmp	r1, #0
	      index = (bt - font->start_char)* font->char_height * bn;
 8001ff2:	fb01 f202 	mul.w	r2, r1, r2
 8001ff6:	fb05 f202 	mul.w	r2, r5, r2
		  for( j=0;j<font->char_height;j++ )
 8001ffa:	f77f af4a 	ble.w	8001e92 <_UG_PutChar+0x15e>
 8001ffe:	2d00      	cmp	r5, #0
 8002000:	f43f af47 	beq.w	8001e92 <_UG_PutChar+0x15e>
 8002004:	3d01      	subs	r5, #1
 8002006:	9301      	str	r3, [sp, #4]
 8002008:	b2ad      	uxth	r5, r5
 800200a:	1c6b      	adds	r3, r5, #1
 800200c:	4645      	mov	r5, r8
 800200e:	f8dd 805c 	ldr.w	r8, [sp, #92]	; 0x5c
 8002012:	9302      	str	r3, [sp, #8]
 8002014:	9b02      	ldr	r3, [sp, #8]
      case 0xB0: bt = 0xF8; break; // 
 8002016:	9f03      	ldr	r7, [sp, #12]
 8002018:	4413      	add	r3, r2
 800201a:	9300      	str	r3, [sp, #0]
				b = font->p[index++];
 800201c:	f8d8 3000 	ldr.w	r3, [r8]
 8002020:	f102 0901 	add.w	r9, r2, #1
 8002024:	f813 a002 	ldrb.w	sl, [r3, r2]
				for( k=0;(k<8) && c;k++ )
 8002028:	2f00      	cmp	r7, #0
 800202a:	f000 808b 	beq.w	8002144 <_UG_PutChar+0x410>
 800202e:	2600      	movs	r6, #0
				   if( b & 0x01 )
 8002030:	f01a 0f01 	tst.w	sl, #1
					  push_pixel(bc);
 8002034:	4628      	mov	r0, r5
				   if( b & 0x01 )
 8002036:	d078      	beq.n	800212a <_UG_PutChar+0x3f6>
				   c--;
 8002038:	3f01      	subs	r7, #1
				for( k=0;(k<8) && c;k++ )
 800203a:	3601      	adds	r6, #1
					  push_pixel(fc);
 800203c:	4658      	mov	r0, fp
				   b >>= 1;
 800203e:	ea4f 0a5a 	mov.w	sl, sl, lsr #1
				   c--;
 8002042:	b2bf      	uxth	r7, r7
					  push_pixel(fc);
 8002044:	47a0      	blx	r4
				for( k=0;(k<8) && c;k++ )
 8002046:	b2b6      	uxth	r6, r6
 8002048:	b10f      	cbz	r7, 800204e <_UG_PutChar+0x31a>
 800204a:	2e07      	cmp	r6, #7
 800204c:	d9f0      	bls.n	8002030 <_UG_PutChar+0x2fc>
				b = font->p[index++];
 800204e:	464a      	mov	r2, r9
 8002050:	9b00      	ldr	r3, [sp, #0]
			 for( i=0;i<bn;i++ )
 8002052:	429a      	cmp	r2, r3
 8002054:	d1e2      	bne.n	800201c <_UG_PutChar+0x2e8>
		  for( j=0;j<font->char_height;j++ )
 8002056:	9b01      	ldr	r3, [sp, #4]
 8002058:	f103 0901 	add.w	r9, r3, #1
 800205c:	f9b8 3008 	ldrsh.w	r3, [r8, #8]
 8002060:	fa1f f189 	uxth.w	r1, r9
 8002064:	4299      	cmp	r1, r3
 8002066:	9101      	str	r1, [sp, #4]
 8002068:	dbd4      	blt.n	8002014 <_UG_PutChar+0x2e0>
 800206a:	e712      	b.n	8001e92 <_UG_PutChar+0x15e>
	  else if (font->font_type == FONT_TYPE_8BPP)
 800206c:	2b01      	cmp	r3, #1
 800206e:	f47f af10 	bne.w	8001e92 <_UG_PutChar+0x15e>
		   index = (bt - font->start_char)* font->char_height * font->char_width;
 8002072:	9b17      	ldr	r3, [sp, #92]	; 0x5c
 8002074:	9a17      	ldr	r2, [sp, #92]	; 0x5c
 8002076:	f8b3 900a 	ldrh.w	r9, [r3, #10]
 800207a:	f9b3 3008 	ldrsh.w	r3, [r3, #8]
 800207e:	eba6 0909 	sub.w	r9, r6, r9
 8002082:	f9b2 2006 	ldrsh.w	r2, [r2, #6]
		   for( j=0;j<font->char_height;j++ )
 8002086:	2b00      	cmp	r3, #0
		   index = (bt - font->start_char)* font->char_height * font->char_width;
 8002088:	fb03 f909 	mul.w	r9, r3, r9
 800208c:	fb02 f909 	mul.w	r9, r2, r9
		   for( j=0;j<font->char_height;j++ )
 8002090:	f77f aeff 	ble.w	8001e92 <_UG_PutChar+0x15e>
 8002094:	9b03      	ldr	r3, [sp, #12]
 8002096:	2b00      	cmp	r3, #0
 8002098:	f43f aefb 	beq.w	8001e92 <_UG_PutChar+0x15e>
 800209c:	1e5a      	subs	r2, r3, #1
 800209e:	2300      	movs	r3, #0
 80020a0:	fa5f f588 	uxtb.w	r5, r8
 80020a4:	f8dd a05c 	ldr.w	sl, [sp, #92]	; 0x5c
 80020a8:	9301      	str	r3, [sp, #4]
 80020aa:	f02b 03ff 	bic.w	r3, fp, #255	; 0xff
 80020ae:	b292      	uxth	r2, r2
 80020b0:	f8cd 9000 	str.w	r9, [sp]
 80020b4:	9309      	str	r3, [sp, #36]	; 0x24
 80020b6:	f028 03ff 	bic.w	r3, r8, #255	; 0xff
 80020ba:	fa5f fb8b 	uxtb.w	fp, fp
 80020be:	930a      	str	r3, [sp, #40]	; 0x28
 80020c0:	1c53      	adds	r3, r2, #1
 80020c2:	9302      	str	r3, [sp, #8]
 80020c4:	464b      	mov	r3, r9
 80020c6:	9a02      	ldr	r2, [sp, #8]
 80020c8:	f8bd 8024 	ldrh.w	r8, [sp, #36]	; 0x24
 80020cc:	189f      	adds	r7, r3, r2
 80020ce:	f8bd 6028 	ldrh.w	r6, [sp, #40]	; 0x28
				 b = font->p[index++];
 80020d2:	f8da 2000 	ldr.w	r2, [sl]
 80020d6:	f103 0901 	add.w	r9, r3, #1
				 color = ((((fc & 0xFF) * b + (bc & 0xFF) * (256 - b)) >> 8) & 0xFF) |				//Blue component
 80020da:	5cd3      	ldrb	r3, [r2, r3]
 80020dc:	f5c3 7280 	rsb	r2, r3, #256	; 0x100
				         ((((fc & 0xFF00) * b + (bc & 0xFF00) * (256 - b)) >> 8) & 0xFF00) |		//Green component
 80020e0:	fb06 f002 	mul.w	r0, r6, r2
				 color = ((((fc & 0xFF) * b + (bc & 0xFF) * (256 - b)) >> 8) & 0xFF) |				//Blue component
 80020e4:	fb05 f202 	mul.w	r2, r5, r2
				         ((((fc & 0xFF00) * b + (bc & 0xFF00) * (256 - b)) >> 8) & 0xFF00) |		//Green component
 80020e8:	fb08 0003 	mla	r0, r8, r3, r0
				 color = ((((fc & 0xFF) * b + (bc & 0xFF) * (256 - b)) >> 8) & 0xFF) |				//Blue component
 80020ec:	fb0b 2303 	mla	r3, fp, r3, r2
				         ((((fc & 0xFF00) * b + (bc & 0xFF00) * (256 - b)) >> 8) & 0xFF00) |		//Green component
 80020f0:	1200      	asrs	r0, r0, #8
				 color = ((((fc & 0xFF) * b + (bc & 0xFF) * (256 - b)) >> 8) & 0xFF) |				//Blue component
 80020f2:	f3c3 2307 	ubfx	r3, r3, #8, #8
 80020f6:	f400 407f 	and.w	r0, r0, #65280	; 0xff00
				 push_pixel(color);
 80020fa:	4318      	orrs	r0, r3
 80020fc:	47a0      	blx	r4
			  for( i=0;i<actual_char_width;i++ )
 80020fe:	45b9      	cmp	r9, r7
 8002100:	464b      	mov	r3, r9
 8002102:	d1e6      	bne.n	80020d2 <_UG_PutChar+0x39e>
		   for( j=0;j<font->char_height;j++ )
 8002104:	9901      	ldr	r1, [sp, #4]
			  index += font->char_width - actual_char_width;
 8002106:	9803      	ldr	r0, [sp, #12]
 8002108:	f9ba 3006 	ldrsh.w	r3, [sl, #6]
		   for( j=0;j<font->char_height;j++ )
 800210c:	3101      	adds	r1, #1
 800210e:	f9ba 2008 	ldrsh.w	r2, [sl, #8]
			  index += font->char_width - actual_char_width;
 8002112:	1a1b      	subs	r3, r3, r0
 8002114:	9802      	ldr	r0, [sp, #8]
		   for( j=0;j<font->char_height;j++ )
 8002116:	b289      	uxth	r1, r1
			  index += font->char_width - actual_char_width;
 8002118:	4403      	add	r3, r0
 800211a:	9800      	ldr	r0, [sp, #0]
		   for( j=0;j<font->char_height;j++ )
 800211c:	4291      	cmp	r1, r2
 800211e:	9101      	str	r1, [sp, #4]
			  index += font->char_width - actual_char_width;
 8002120:	4418      	add	r0, r3
 8002122:	4603      	mov	r3, r0
 8002124:	9000      	str	r0, [sp, #0]
		   for( j=0;j<font->char_height;j++ )
 8002126:	dbce      	blt.n	80020c6 <_UG_PutChar+0x392>
 8002128:	e6b3      	b.n	8001e92 <_UG_PutChar+0x15e>
				for( k=0;(k<8) && c;k++ )
 800212a:	3601      	adds	r6, #1
					  push_pixel(bc);
 800212c:	47a0      	blx	r4
				   c--;
 800212e:	3f01      	subs	r7, #1
				   b >>= 1;
 8002130:	ea4f 0a5a 	mov.w	sl, sl, lsr #1
				for( k=0;(k<8) && c;k++ )
 8002134:	b2b6      	uxth	r6, r6
				   c--;
 8002136:	b2bf      	uxth	r7, r7
				for( k=0;(k<8) && c;k++ )
 8002138:	2e07      	cmp	r6, #7
 800213a:	d888      	bhi.n	800204e <_UG_PutChar+0x31a>
 800213c:	2f00      	cmp	r7, #0
 800213e:	f47f af77 	bne.w	8002030 <_UG_PutChar+0x2fc>
 8002142:	e784      	b.n	800204e <_UG_PutChar+0x31a>
			 for( i=0;i<bn;i++ )
 8002144:	9b00      	ldr	r3, [sp, #0]
 8002146:	4599      	cmp	r9, r3
 8002148:	d001      	beq.n	800214e <_UG_PutChar+0x41a>
				b = font->p[index++];
 800214a:	3202      	adds	r2, #2
 800214c:	e781      	b.n	8002052 <_UG_PutChar+0x31e>
 800214e:	461a      	mov	r2, r3
 8002150:	e781      	b.n	8002056 <_UG_PutChar+0x322>
 8002152:	bf00      	nop
 8002154:	2000003c 	.word	0x2000003c

08002158 <_UG_PutText>:

void _UG_PutText(UG_TEXT* txt)
{
 8002158:	e92d 4ff0 	stmdb	sp!, {r4, r5, r6, r7, r8, r9, sl, fp, lr}
 800215c:	4606      	mov	r6, r0
   UG_S16 xs=txt->a.xs;
   UG_S16 ys=txt->a.ys;
   UG_S16 xe=txt->a.xe;
   UG_S16 ye=txt->a.ye;
   UG_U8  align=txt->align;
   UG_S16 char_width=txt->font->char_width;
 800215e:	6840      	ldr	r0, [r0, #4]
{
 8002160:	b087      	sub	sp, #28
   char chr;

   char* str = txt->str;
   char* c = str;

   if ( txt->font->p == NULL ) return;
 8002162:	6803      	ldr	r3, [r0, #0]
   char* str = txt->str;
 8002164:	f8d6 b000 	ldr.w	fp, [r6]
   if ( str == NULL ) return;
 8002168:	2b00      	cmp	r3, #0
 800216a:	f000 80ae 	beq.w	80022ca <_UG_PutText+0x172>
 800216e:	f1bb 0f00 	cmp.w	fp, #0
 8002172:	f000 80aa 	beq.w	80022ca <_UG_PutText+0x172>
   UG_S16 ys=txt->a.ys;
 8002176:	f9b6 800a 	ldrsh.w	r8, [r6, #10]
   UG_S16 ye=txt->a.ye;
 800217a:	f9b6 e00e 	ldrsh.w	lr, [r6, #14]
   UG_S16 char_height=txt->font->char_height;
 800217e:	f9b0 4008 	ldrsh.w	r4, [r0, #8]
   if ( (ye - ys) < txt->font->char_height ) return;
 8002182:	ebae 0308 	sub.w	r3, lr, r8
 8002186:	42a3      	cmp	r3, r4
 8002188:	f2c0 809f 	blt.w	80022ca <_UG_PutText+0x172>

   rc=1;
   c=str;
   while ( *c != 0 )
 800218c:	f89b 5000 	ldrb.w	r5, [fp]
 8002190:	2d00      	cmp	r5, #0
 8002192:	f000 80a1 	beq.w	80022d8 <_UG_PutText+0x180>
 8002196:	462a      	mov	r2, r5
 8002198:	4659      	mov	r1, fp
 800219a:	2301      	movs	r3, #1
 800219c:	2a0a      	cmp	r2, #10
 800219e:	bf08      	it	eq
 80021a0:	3301      	addeq	r3, #1
 80021a2:	f811 2f01 	ldrb.w	r2, [r1, #1]!
 80021a6:	b29b      	uxth	r3, r3
 80021a8:	2a00      	cmp	r2, #0
 80021aa:	d1f7      	bne.n	800219c <_UG_PutText+0x44>
   UG_U8  align=txt->align;
 80021ac:	7d32      	ldrb	r2, [r6, #20]
   }

   yp = 0;
   if ( align & (ALIGN_V_CENTER | ALIGN_V_BOTTOM) )
   {
      yp = ye - ys + 1;
 80021ae:	fa1f f188 	uxth.w	r1, r8
   UG_S16 char_v_space=txt->v_space;
 80021b2:	f9b6 c018 	ldrsh.w	ip, [r6, #24]
   if ( align & (ALIGN_V_CENTER | ALIGN_V_BOTTOM) )
 80021b6:	f012 0730 	ands.w	r7, r2, #48	; 0x30
 80021ba:	d00d      	beq.n	80021d8 <_UG_PutText+0x80>
      yp = ye - ys + 1;
 80021bc:	f10e 0701 	add.w	r7, lr, #1
      yp -= char_height*rc;
 80021c0:	fb14 fe03 	smulbb	lr, r4, r3
      yp -= char_v_space*(rc-1);
 80021c4:	3b01      	subs	r3, #1
      yp = ye - ys + 1;
 80021c6:	1a7f      	subs	r7, r7, r1
      yp -= char_v_space*(rc-1);
 80021c8:	fb13 f30c 	smulbb	r3, r3, ip
      yp -= char_height*rc;
 80021cc:	eba7 070e 	sub.w	r7, r7, lr
      yp -= char_v_space*(rc-1);
 80021d0:	1afb      	subs	r3, r7, r3
 80021d2:	b21f      	sxth	r7, r3
      if ( yp < 0 ) return;
 80021d4:	2f00      	cmp	r7, #0
 80021d6:	db78      	blt.n	80022ca <_UG_PutText+0x172>
   }
   if ( align & ALIGN_V_CENTER ) yp >>= 1;
 80021d8:	06d3      	lsls	r3, r2, #27
 80021da:	89b3      	ldrh	r3, [r6, #12]
 80021dc:	f8b6 a008 	ldrh.w	sl, [r6, #8]
 80021e0:	bf48      	it	mi
 80021e2:	107f      	asrmi	r7, r7, #1
 80021e4:	3301      	adds	r3, #1
 80021e6:	f8b6 8016 	ldrh.w	r8, [r6, #22]
   yp += ys;
 80021ea:	440f      	add	r7, r1
 80021ec:	eba3 030a 	sub.w	r3, r3, sl
         if ( chr == 0 ) return;
         _UG_PutChar(chr,xp,yp,txt->fc,txt->bc,txt->font);
         xp += (txt->font->widths ? txt->font->widths[chr - txt->font->start_char] : char_width) + char_h_space;
      }
      str++;
      yp += char_height + char_v_space;
 80021f0:	eb04 010c 	add.w	r1, r4, ip
         wl += (txt->font->widths ? txt->font->widths[*c - txt->font->start_char] : char_width) + char_h_space;
 80021f4:	f8b0 9006 	ldrh.w	r9, [r0, #6]
 80021f8:	b29b      	uxth	r3, r3
      yp += char_height + char_v_space;
 80021fa:	9104      	str	r1, [sp, #16]
   yp += ys;
 80021fc:	b23f      	sxth	r7, r7
 80021fe:	f002 0101 	and.w	r1, r2, #1
 8002202:	f002 0202 	and.w	r2, r2, #2
 8002206:	9302      	str	r3, [sp, #8]
 8002208:	9103      	str	r1, [sp, #12]
 800220a:	9205      	str	r2, [sp, #20]
 800220c:	46de      	mov	lr, fp
      wl = 0;
 800220e:	2100      	movs	r1, #0
      while( (*c != 0) && (*c != '\n') )
 8002210:	f81e 3b01 	ldrb.w	r3, [lr], #1
         if (*c < txt->font->start_char || *c > txt->font->end_char) {c++; continue;}
 8002214:	b29a      	uxth	r2, r3
      while( (*c != 0) && (*c != '\n') )
 8002216:	b1bb      	cbz	r3, 8002248 <_UG_PutText+0xf0>
 8002218:	2b0a      	cmp	r3, #10
 800221a:	d015      	beq.n	8002248 <_UG_PutText+0xf0>
         if (*c < txt->font->start_char || *c > txt->font->end_char) {c++; continue;}
 800221c:	f8b0 c00a 	ldrh.w	ip, [r0, #10]
 8002220:	4562      	cmp	r2, ip
 8002222:	d3f5      	bcc.n	8002210 <_UG_PutText+0xb8>
 8002224:	8984      	ldrh	r4, [r0, #12]
         wl += (txt->font->widths ? txt->font->widths[*c - txt->font->start_char] : char_width) + char_h_space;
 8002226:	eba3 030c 	sub.w	r3, r3, ip
         if (*c < txt->font->start_char || *c > txt->font->end_char) {c++; continue;}
 800222a:	4294      	cmp	r4, r2
 800222c:	d3f0      	bcc.n	8002210 <_UG_PutText+0xb8>
         wl += (txt->font->widths ? txt->font->widths[*c - txt->font->start_char] : char_width) + char_h_space;
 800222e:	6902      	ldr	r2, [r0, #16]
 8002230:	2a00      	cmp	r2, #0
 8002232:	d04f      	beq.n	80022d4 <_UG_PutText+0x17c>
 8002234:	5cd3      	ldrb	r3, [r2, r3]
 8002236:	4441      	add	r1, r8
 8002238:	fa13 f181 	uxtah	r1, r3, r1
      while( (*c != 0) && (*c != '\n') )
 800223c:	f81e 3b01 	ldrb.w	r3, [lr], #1
         wl += (txt->font->widths ? txt->font->widths[*c - txt->font->start_char] : char_width) + char_h_space;
 8002240:	b289      	uxth	r1, r1
         if (*c < txt->font->start_char || *c > txt->font->end_char) {c++; continue;}
 8002242:	b29a      	uxth	r2, r3
      while( (*c != 0) && (*c != '\n') )
 8002244:	2b00      	cmp	r3, #0
 8002246:	d1e7      	bne.n	8002218 <_UG_PutText+0xc0>
      xp -= wl;
 8002248:	9b02      	ldr	r3, [sp, #8]
      wl -= char_h_space;
 800224a:	eba1 0408 	sub.w	r4, r1, r8
      xp -= wl;
 800224e:	1b1c      	subs	r4, r3, r4
 8002250:	b2a4      	uxth	r4, r4
 8002252:	b223      	sxth	r3, r4
      if ( xp < 0 ) return;
 8002254:	2b00      	cmp	r3, #0
 8002256:	db38      	blt.n	80022ca <_UG_PutText+0x172>
      if ( align & ALIGN_H_LEFT ) xp = 0;
 8002258:	9a03      	ldr	r2, [sp, #12]
 800225a:	2a00      	cmp	r2, #0
 800225c:	d138      	bne.n	80022d0 <_UG_PutText+0x178>
      else if ( align & ALIGN_H_CENTER ) xp >>= 1;
 800225e:	9a05      	ldr	r2, [sp, #20]
 8002260:	b10a      	cbz	r2, 8002266 <_UG_PutText+0x10e>
 8002262:	f3c3 044f 	ubfx	r4, r3, #1, #16
      xp += xs;
 8002266:	4454      	add	r4, sl
      while( (*str != '\n') )
 8002268:	2d0a      	cmp	r5, #10
      xp += xs;
 800226a:	b224      	sxth	r4, r4
      while( (*str != '\n') )
 800226c:	d036      	beq.n	80022dc <_UG_PutText+0x184>
         chr = *str++;
 800226e:	f10b 0b01 	add.w	fp, fp, #1
         if ( chr == 0 ) return;
 8002272:	b95d      	cbnz	r5, 800228c <_UG_PutText+0x134>
 8002274:	e029      	b.n	80022ca <_UG_PutText+0x172>
         xp += (txt->font->widths ? txt->font->widths[chr - txt->font->start_char] : char_width) + char_h_space;
 8002276:	8943      	ldrh	r3, [r0, #10]
 8002278:	4444      	add	r4, r8
 800227a:	1aed      	subs	r5, r5, r3
 800227c:	5d4b      	ldrb	r3, [r1, r5]
      while( (*str != '\n') )
 800227e:	f81b 5b01 	ldrb.w	r5, [fp], #1
         xp += (txt->font->widths ? txt->font->widths[chr - txt->font->start_char] : char_width) + char_h_space;
 8002282:	441c      	add	r4, r3
      while( (*str != '\n') )
 8002284:	2d0a      	cmp	r5, #10
         xp += (txt->font->widths ? txt->font->widths[chr - txt->font->start_char] : char_width) + char_h_space;
 8002286:	b224      	sxth	r4, r4
      while( (*str != '\n') )
 8002288:	d018      	beq.n	80022bc <_UG_PutText+0x164>
         if ( chr == 0 ) return;
 800228a:	b1f5      	cbz	r5, 80022ca <_UG_PutText+0x172>
         _UG_PutChar(chr,xp,yp,txt->fc,txt->bc,txt->font);
 800228c:	f8b6 e012 	ldrh.w	lr, [r6, #18]
 8002290:	463a      	mov	r2, r7
 8002292:	8a33      	ldrh	r3, [r6, #16]
 8002294:	4621      	mov	r1, r4
 8002296:	9001      	str	r0, [sp, #4]
 8002298:	4628      	mov	r0, r5
 800229a:	f8cd e000 	str.w	lr, [sp]
 800229e:	f7ff fd49 	bl	8001d34 <_UG_PutChar>
         xp += (txt->font->widths ? txt->font->widths[chr - txt->font->start_char] : char_width) + char_h_space;
 80022a2:	6870      	ldr	r0, [r6, #4]
 80022a4:	465a      	mov	r2, fp
 80022a6:	6901      	ldr	r1, [r0, #16]
 80022a8:	2900      	cmp	r1, #0
 80022aa:	d1e4      	bne.n	8002276 <_UG_PutText+0x11e>
 80022ac:	464b      	mov	r3, r9
 80022ae:	4444      	add	r4, r8
      while( (*str != '\n') )
 80022b0:	f81b 5b01 	ldrb.w	r5, [fp], #1
         xp += (txt->font->widths ? txt->font->widths[chr - txt->font->start_char] : char_width) + char_h_space;
 80022b4:	441c      	add	r4, r3
      while( (*str != '\n') )
 80022b6:	2d0a      	cmp	r5, #10
         xp += (txt->font->widths ? txt->font->widths[chr - txt->font->start_char] : char_width) + char_h_space;
 80022b8:	b224      	sxth	r4, r4
      while( (*str != '\n') )
 80022ba:	d1e6      	bne.n	800228a <_UG_PutText+0x132>
 80022bc:	9b04      	ldr	r3, [sp, #16]
      str++;
 80022be:	f102 0b01 	add.w	fp, r2, #1
 80022c2:	7855      	ldrb	r5, [r2, #1]
 80022c4:	441f      	add	r7, r3
 80022c6:	b23f      	sxth	r7, r7
      sl=0;
 80022c8:	e7a0      	b.n	800220c <_UG_PutText+0xb4>
   }
}
 80022ca:	b007      	add	sp, #28
 80022cc:	e8bd 8ff0 	ldmia.w	sp!, {r4, r5, r6, r7, r8, r9, sl, fp, pc}
 80022d0:	2400      	movs	r4, #0
 80022d2:	e7c8      	b.n	8002266 <_UG_PutText+0x10e>
         wl += (txt->font->widths ? txt->font->widths[*c - txt->font->start_char] : char_width) + char_h_space;
 80022d4:	464b      	mov	r3, r9
 80022d6:	e7ae      	b.n	8002236 <_UG_PutText+0xde>
   while ( *c != 0 )
 80022d8:	2301      	movs	r3, #1
 80022da:	e767      	b.n	80021ac <_UG_PutText+0x54>
      while( (*str != '\n') )
 80022dc:	465a      	mov	r2, fp
 80022de:	e7ed      	b.n	80022bc <_UG_PutText+0x164>

080022e0 <_UG_ProcessTouchData>:
   UG_OBJECT* obj;
   UG_U8 objstate;
   UG_U8 objtouch;
   UG_U8 tchstate;

   xp = gui->touch.xp;
 80022e0:	4a30      	ldr	r2, [pc, #192]	; (80023a4 <_UG_ProcessTouchData+0xc4>)
{
 80022e2:	b4f0      	push	{r4, r5, r6, r7}
   xp = gui->touch.xp;
 80022e4:	6812      	ldr	r2, [r2, #0]
   yp = gui->touch.yp;
   tchstate = gui->touch.state;

   objcnt = wnd->objcnt;
 80022e6:	7803      	ldrb	r3, [r0, #0]
   xp = gui->touch.xp;
 80022e8:	f9b2 400a 	ldrsh.w	r4, [r2, #10]
   yp = gui->touch.yp;
 80022ec:	f9b2 500c 	ldrsh.w	r5, [r2, #12]
   tchstate = gui->touch.state;
 80022f0:	7a16      	ldrb	r6, [r2, #8]
   for(i=0; i<objcnt; i++)
 80022f2:	2b00      	cmp	r3, #0
 80022f4:	d03d      	beq.n	8002372 <_UG_ProcessTouchData+0x92>
 80022f6:	1e5a      	subs	r2, r3, #1
 80022f8:	6843      	ldr	r3, [r0, #4]
      objstate = obj->state;
      objtouch = obj->touch_state;
      if ( !(objstate & OBJ_STATE_FREE) && (objstate & OBJ_STATE_VALID) && (objstate & OBJ_STATE_VISIBLE) && !(objstate & OBJ_STATE_REDRAW))
      {
         /* Process touch data */
         if ( (tchstate) && xp != -1 )
 80022fa:	2e00      	cmp	r6, #0
 80022fc:	bf18      	it	ne
 80022fe:	f1b4 3fff 	cmpne.w	r4, #4294967295
 8002302:	b290      	uxth	r0, r2
 8002304:	bf14      	ite	ne
 8002306:	2601      	movne	r6, #1
 8002308:	2600      	moveq	r6, #0
 800230a:	3001      	adds	r0, #1
 800230c:	eb03 1040 	add.w	r0, r3, r0, lsl #5
 8002310:	e003      	b.n	800231a <_UG_ProcessTouchData+0x3a>
               objtouch |= OBJ_TOUCH_STATE_CHANGED;
            }
            objtouch &= ~(OBJ_TOUCH_STATE_PRESSED_OUTSIDE_OBJECT | OBJ_TOUCH_STATE_PRESSED_ON_OBJECT | OBJ_TOUCH_STATE_IS_PRESSED);
         }
      }
      obj->touch_state = objtouch;
 8002312:	7059      	strb	r1, [r3, #1]
 8002314:	3320      	adds	r3, #32
   for(i=0; i<objcnt; i++)
 8002316:	4298      	cmp	r0, r3
 8002318:	d02b      	beq.n	8002372 <_UG_ProcessTouchData+0x92>
      if ( !(objstate & OBJ_STATE_FREE) && (objstate & OBJ_STATE_VALID) && (objstate & OBJ_STATE_VISIBLE) && !(objstate & OBJ_STATE_REDRAW))
 800231a:	781a      	ldrb	r2, [r3, #0]
      objtouch = obj->touch_state;
 800231c:	7859      	ldrb	r1, [r3, #1]
      if ( !(objstate & OBJ_STATE_FREE) && (objstate & OBJ_STATE_VALID) && (objstate & OBJ_STATE_VISIBLE) && !(objstate & OBJ_STATE_REDRAW))
 800231e:	f002 024b 	and.w	r2, r2, #75	; 0x4b
 8002322:	2a0a      	cmp	r2, #10
 8002324:	d1f5      	bne.n	8002312 <_UG_ProcessTouchData+0x32>
         if ( (tchstate) && xp != -1 )
 8002326:	b336      	cbz	r6, 8002376 <_UG_ProcessTouchData+0x96>
            if ( !(objtouch & OBJ_TOUCH_STATE_IS_PRESSED) )
 8002328:	064a      	lsls	r2, r1, #25
 800232a:	d403      	bmi.n	8002334 <_UG_ProcessTouchData+0x54>
 800232c:	f001 0167 	and.w	r1, r1, #103	; 0x67
               objtouch &= ~(OBJ_TOUCH_STATE_RELEASED_ON_OBJECT | OBJ_TOUCH_STATE_RELEASED_OUTSIDE_OBJECT | OBJ_TOUCH_STATE_CLICK_ON_OBJECT);
 8002330:	f041 0105 	orr.w	r1, r1, #5
            if ( xp >= obj->a_abs.xs )
 8002334:	f9b3 7008 	ldrsh.w	r7, [r3, #8]
            objtouch &= ~OBJ_TOUCH_STATE_IS_PRESSED_ON_OBJECT;
 8002338:	f001 02df 	and.w	r2, r1, #223	; 0xdf
            if ( xp >= obj->a_abs.xs )
 800233c:	42a7      	cmp	r7, r4
 800233e:	dc11      	bgt.n	8002364 <_UG_ProcessTouchData+0x84>
               if ( xp <= obj->a_abs.xe )
 8002340:	f9b3 700c 	ldrsh.w	r7, [r3, #12]
 8002344:	42a7      	cmp	r7, r4
 8002346:	db0d      	blt.n	8002364 <_UG_ProcessTouchData+0x84>
                  if ( yp >= obj->a_abs.ys )
 8002348:	f9b3 700a 	ldrsh.w	r7, [r3, #10]
 800234c:	42af      	cmp	r7, r5
 800234e:	dc09      	bgt.n	8002364 <_UG_ProcessTouchData+0x84>
                     if ( yp <= obj->a_abs.ye )
 8002350:	f9b3 700e 	ldrsh.w	r7, [r3, #14]
 8002354:	42af      	cmp	r7, r5
 8002356:	db05      	blt.n	8002364 <_UG_ProcessTouchData+0x84>
                        if ( !(objtouch & OBJ_TOUCH_STATE_IS_PRESSED) )
 8002358:	064f      	lsls	r7, r1, #25
 800235a:	d420      	bmi.n	800239e <_UG_ProcessTouchData+0xbe>
 800235c:	f001 01db 	and.w	r1, r1, #219	; 0xdb
                           objtouch |= OBJ_TOUCH_STATE_PRESSED_ON_OBJECT;
 8002360:	f041 0222 	orr.w	r2, r1, #34	; 0x22
            objtouch |= OBJ_TOUCH_STATE_IS_PRESSED;
 8002364:	f042 0140 	orr.w	r1, r2, #64	; 0x40
 8002368:	3320      	adds	r3, #32
      obj->touch_state = objtouch;
 800236a:	f803 1c1f 	strb.w	r1, [r3, #-31]
   for(i=0; i<objcnt; i++)
 800236e:	4298      	cmp	r0, r3
 8002370:	d1d3      	bne.n	800231a <_UG_ProcessTouchData+0x3a>
   }
}
 8002372:	bcf0      	pop	{r4, r5, r6, r7}
 8002374:	4770      	bx	lr
         else if ( objtouch & OBJ_TOUCH_STATE_IS_PRESSED )
 8002376:	064f      	lsls	r7, r1, #25
 8002378:	d5cb      	bpl.n	8002312 <_UG_ProcessTouchData+0x32>
            if ( objtouch & OBJ_TOUCH_STATE_IS_PRESSED_ON_OBJECT )
 800237a:	068a      	lsls	r2, r1, #26
 800237c:	d408      	bmi.n	8002390 <_UG_ProcessTouchData+0xb0>
               objtouch |= OBJ_TOUCH_STATE_RELEASED_OUTSIDE_OBJECT;
 800237e:	f041 0110 	orr.w	r1, r1, #16
            if ( objtouch & OBJ_TOUCH_STATE_IS_PRESSED )
 8002382:	064a      	lsls	r2, r1, #25
               objtouch |= OBJ_TOUCH_STATE_CHANGED;
 8002384:	bf48      	it	mi
 8002386:	f041 0101 	orrmi.w	r1, r1, #1
            objtouch &= ~(OBJ_TOUCH_STATE_PRESSED_OUTSIDE_OBJECT | OBJ_TOUCH_STATE_PRESSED_ON_OBJECT | OBJ_TOUCH_STATE_IS_PRESSED);
 800238a:	f001 01b9 	and.w	r1, r1, #185	; 0xb9
 800238e:	e7c0      	b.n	8002312 <_UG_ProcessTouchData+0x32>
               if ( objtouch & OBJ_TOUCH_STATE_PRESSED_ON_OBJECT ) objtouch |= OBJ_TOUCH_STATE_CLICK_ON_OBJECT;
 8002390:	078f      	lsls	r7, r1, #30
 8002392:	bf48      	it	mi
 8002394:	f041 0180 	orrmi.w	r1, r1, #128	; 0x80
               objtouch |= OBJ_TOUCH_STATE_RELEASED_ON_OBJECT;
 8002398:	f041 0108 	orr.w	r1, r1, #8
 800239c:	e7f1      	b.n	8002382 <_UG_ProcessTouchData+0xa2>
                        objtouch |= OBJ_TOUCH_STATE_IS_PRESSED_ON_OBJECT;
 800239e:	f042 0220 	orr.w	r2, r2, #32
 80023a2:	e7df      	b.n	8002364 <_UG_ProcessTouchData+0x84>
 80023a4:	2000003c 	.word	0x2000003c

080023a8 <_UG_DrawObjectFrame>:
      }
   }
}

void _UG_DrawObjectFrame( UG_S16 xs, UG_S16 ys, UG_S16 xe, UG_S16 ye, UG_COLOR* p )
{
 80023a8:	e92d 4ff0 	stmdb	sp!, {r4, r5, r6, r7, r8, r9, sl, fp, lr}
 80023ac:	4699      	mov	r9, r3
 80023ae:	b087      	sub	sp, #28
   // Frame 0
   UG_DrawLine(xs, ys  , xe-1, ys  , *p++);
 80023b0:	b293      	uxth	r3, r2
{
 80023b2:	4617      	mov	r7, r2
 80023b4:	9c10      	ldr	r4, [sp, #64]	; 0x40
   UG_DrawLine(xs, ys+1, xs  , ye-1, *p++);
 80023b6:	fa1f fe89 	uxth.w	lr, r9
   UG_DrawLine(xs, ys  , xe-1, ys  , *p++);
 80023ba:	461d      	mov	r5, r3
   UG_DrawLine(xs, ys+1, xs  , ye-1, *p++);
 80023bc:	b28b      	uxth	r3, r1
   UG_DrawLine(xs, ys  , xe-1, ys  , *p++);
 80023be:	8822      	ldrh	r2, [r4, #0]
{
 80023c0:	4688      	mov	r8, r1
   UG_DrawLine(xs, ys  , xe-1, ys  , *p++);
 80023c2:	f105 3aff 	add.w	sl, r5, #4294967295
   UG_DrawLine(xs, ys+1, xs  , ye-1, *p++);
 80023c6:	461e      	mov	r6, r3
   UG_DrawLine(xs, ys  , xe-1, ys  , *p++);
 80023c8:	9200      	str	r2, [sp, #0]
   UG_DrawLine(xs, ye  , xe  , ye  , *p++);
   UG_DrawLine(xe, ys  , xe  , ye-1, *p++);
   // Frame 1
   UG_DrawLine(xs+1, ys+1, xe-2, ys+1, *p++);
 80023ca:	b282      	uxth	r2, r0
   UG_DrawLine(xs, ys  , xe-1, ys  , *p++);
 80023cc:	fa0f fa8a 	sxth.w	sl, sl
 80023d0:	460b      	mov	r3, r1
   UG_DrawLine(xs+1, ys+1, xe-2, ys+1, *p++);
 80023d2:	9205      	str	r2, [sp, #20]
   UG_DrawLine(xs, ys  , xe-1, ys  , *p++);
 80023d4:	4652      	mov	r2, sl
   UG_DrawLine(xs, ys+1, xs  , ye-1, *p++);
 80023d6:	f8cd e008 	str.w	lr, [sp, #8]
   UG_DrawLine(xs, ys  , xe-1, ys  , *p++);
 80023da:	9503      	str	r5, [sp, #12]
{
 80023dc:	4605      	mov	r5, r0
   UG_DrawLine(xs, ys  , xe-1, ys  , *p++);
 80023de:	f7ff fc11 	bl	8001c04 <UG_DrawLine>
   UG_DrawLine(xs, ys+1, xs  , ye-1, *p++);
 80023e2:	9902      	ldr	r1, [sp, #8]
 80023e4:	9604      	str	r6, [sp, #16]
 80023e6:	3601      	adds	r6, #1
 80023e8:	f101 3bff 	add.w	fp, r1, #4294967295
 80023ec:	8863      	ldrh	r3, [r4, #2]
 80023ee:	b236      	sxth	r6, r6
 80023f0:	462a      	mov	r2, r5
 80023f2:	fa0f fb8b 	sxth.w	fp, fp
 80023f6:	9300      	str	r3, [sp, #0]
 80023f8:	4631      	mov	r1, r6
 80023fa:	4628      	mov	r0, r5
 80023fc:	465b      	mov	r3, fp
 80023fe:	f7ff fc01 	bl	8001c04 <UG_DrawLine>
   UG_DrawLine(xs, ye  , xe  , ye  , *p++);
 8002402:	88a2      	ldrh	r2, [r4, #4]
 8002404:	464b      	mov	r3, r9
 8002406:	4649      	mov	r1, r9
 8002408:	9200      	str	r2, [sp, #0]
 800240a:	4628      	mov	r0, r5
 800240c:	463a      	mov	r2, r7
 800240e:	f7ff fbf9 	bl	8001c04 <UG_DrawLine>
   UG_DrawLine(xe, ys  , xe  , ye-1, *p++);
 8002412:	88e2      	ldrh	r2, [r4, #6]
 8002414:	4641      	mov	r1, r8
 8002416:	465b      	mov	r3, fp
 8002418:	9200      	str	r2, [sp, #0]
 800241a:	4638      	mov	r0, r7
 800241c:	463a      	mov	r2, r7
 800241e:	f7ff fbf1 	bl	8001c04 <UG_DrawLine>
   UG_DrawLine(xs+1, ys+1, xe-2, ys+1, *p++);
 8002422:	9805      	ldr	r0, [sp, #20]
 8002424:	9a03      	ldr	r2, [sp, #12]
 8002426:	4633      	mov	r3, r6
 8002428:	1c47      	adds	r7, r0, #1
 800242a:	4631      	mov	r1, r6
 800242c:	f1a2 0802 	sub.w	r8, r2, #2
 8002430:	8922      	ldrh	r2, [r4, #8]
 8002432:	b23f      	sxth	r7, r7
 8002434:	fa0f f888 	sxth.w	r8, r8
 8002438:	9200      	str	r2, [sp, #0]
 800243a:	4638      	mov	r0, r7
 800243c:	4642      	mov	r2, r8
 800243e:	f7ff fbe1 	bl	8001c04 <UG_DrawLine>
   UG_DrawLine(xs+1, ys+2, xs+1, ye-2, *p++);
 8002442:	9b04      	ldr	r3, [sp, #16]
 8002444:	9802      	ldr	r0, [sp, #8]
 8002446:	463a      	mov	r2, r7
 8002448:	1c9d      	adds	r5, r3, #2
 800244a:	8963      	ldrh	r3, [r4, #10]
 800244c:	f1a0 0902 	sub.w	r9, r0, #2
 8002450:	4638      	mov	r0, r7
 8002452:	b22d      	sxth	r5, r5
 8002454:	9300      	str	r3, [sp, #0]
 8002456:	fa0f f989 	sxth.w	r9, r9
 800245a:	4629      	mov	r1, r5
 800245c:	464b      	mov	r3, r9
 800245e:	f7ff fbd1 	bl	8001c04 <UG_DrawLine>
   UG_DrawLine(xs+1, ye-1, xe-1, ye-1, *p++);
 8002462:	f8b4 e00c 	ldrh.w	lr, [r4, #12]
 8002466:	4638      	mov	r0, r7
 8002468:	465b      	mov	r3, fp
 800246a:	f8cd e000 	str.w	lr, [sp]
 800246e:	4659      	mov	r1, fp
 8002470:	4652      	mov	r2, sl
 8002472:	f7ff fbc7 	bl	8001c04 <UG_DrawLine>
   UG_DrawLine(xe-1, ys+1, xe-1, ye-2, *p++);
 8002476:	89e7      	ldrh	r7, [r4, #14]
 8002478:	4631      	mov	r1, r6
 800247a:	464b      	mov	r3, r9
 800247c:	4652      	mov	r2, sl
 800247e:	4650      	mov	r0, sl
 8002480:	9700      	str	r7, [sp, #0]
 8002482:	f7ff fbbf 	bl	8001c04 <UG_DrawLine>
   // Frame 2
   UG_DrawLine(xs+2, ys+2, xe-3, ys+2, *p++);
 8002486:	9e05      	ldr	r6, [sp, #20]
 8002488:	9a03      	ldr	r2, [sp, #12]
 800248a:	462b      	mov	r3, r5
 800248c:	3602      	adds	r6, #2
 800248e:	8a27      	ldrh	r7, [r4, #16]
 8002490:	3a03      	subs	r2, #3
 8002492:	4629      	mov	r1, r5
 8002494:	b236      	sxth	r6, r6
 8002496:	9700      	str	r7, [sp, #0]
 8002498:	b212      	sxth	r2, r2
 800249a:	4630      	mov	r0, r6
 800249c:	f7ff fbb2 	bl	8001c04 <UG_DrawLine>
   UG_DrawLine(xs+2, ys+3, xs+2, ye-3, *p++);
 80024a0:	9802      	ldr	r0, [sp, #8]
 80024a2:	9b04      	ldr	r3, [sp, #16]
 80024a4:	4632      	mov	r2, r6
 80024a6:	1ec7      	subs	r7, r0, #3
 80024a8:	f8b4 e012 	ldrh.w	lr, [r4, #18]
 80024ac:	1cd9      	adds	r1, r3, #3
 80024ae:	4630      	mov	r0, r6
 80024b0:	b23f      	sxth	r7, r7
 80024b2:	f8cd e000 	str.w	lr, [sp]
 80024b6:	b209      	sxth	r1, r1
 80024b8:	463b      	mov	r3, r7
 80024ba:	f7ff fba3 	bl	8001c04 <UG_DrawLine>
   UG_DrawLine(xs+2, ye-2, xe-2, ye-2, *p++);
 80024be:	f8b4 e014 	ldrh.w	lr, [r4, #20]
 80024c2:	4630      	mov	r0, r6
 80024c4:	464b      	mov	r3, r9
 80024c6:	4649      	mov	r1, r9
 80024c8:	4642      	mov	r2, r8
 80024ca:	f8cd e000 	str.w	lr, [sp]
 80024ce:	f7ff fb99 	bl	8001c04 <UG_DrawLine>
   UG_DrawLine(xe-2, ys+2, xe-2, ye-3, *p);
 80024d2:	8ae2      	ldrh	r2, [r4, #22]
 80024d4:	463b      	mov	r3, r7
 80024d6:	4629      	mov	r1, r5
 80024d8:	9210      	str	r2, [sp, #64]	; 0x40
 80024da:	4640      	mov	r0, r8
 80024dc:	4642      	mov	r2, r8
}
 80024de:	b007      	add	sp, #28
 80024e0:	e8bd 4ff0 	ldmia.w	sp!, {r4, r5, r6, r7, r8, r9, sl, fp, lr}
   UG_DrawLine(xe-2, ys+2, xe-2, ye-3, *p);
 80024e4:	f7ff bb8e 	b.w	8001c04 <UG_DrawLine>

080024e8 <_UG_ButtonUpdate>:
   return align;
}


void _UG_ButtonUpdate(UG_WINDOW* wnd, UG_OBJECT* obj)
{
 80024e8:	e92d 4ff0 	stmdb	sp!, {r4, r5, r6, r7, r8, r9, sl, fp, lr}
   btn = (UG_BUTTON*)(obj->data);

   /* -------------------------------------------------- */
   /* Object touch section                               */
   /* -------------------------------------------------- */
   if ( (obj->touch_state & OBJ_TOUCH_STATE_CHANGED) )
 80024ec:	784a      	ldrb	r2, [r1, #1]
{
 80024ee:	b091      	sub	sp, #68	; 0x44
   btn = (UG_BUTTON*)(obj->data);
 80024f0:	69cf      	ldr	r7, [r1, #28]
   if ( (obj->touch_state & OBJ_TOUCH_STATE_CHANGED) )
 80024f2:	07d6      	lsls	r6, r2, #31
   {
      /* Handle 'click' event */
      if ( obj->touch_state & OBJ_TOUCH_STATE_CLICK_ON_OBJECT )
      {
         obj->event = BTN_EVENT_CLICKED;
         obj->state |= OBJ_STATE_UPDATE;
 80024f4:	780b      	ldrb	r3, [r1, #0]
   if ( (obj->touch_state & OBJ_TOUCH_STATE_CHANGED) )
 80024f6:	d50f      	bpl.n	8002518 <_UG_ButtonUpdate+0x30>
      if ( obj->touch_state & OBJ_TOUCH_STATE_CLICK_ON_OBJECT )
 80024f8:	0614      	lsls	r4, r2, #24
 80024fa:	d463      	bmi.n	80025c4 <_UG_ButtonUpdate+0xdc>
      }
      /* Is the button pressed down? */
      if ( obj->touch_state & OBJ_TOUCH_STATE_PRESSED_ON_OBJECT )
 80024fc:	0796      	lsls	r6, r2, #30
      {
         btn->state |= BTN_STATE_PRESSED;
 80024fe:	783c      	ldrb	r4, [r7, #0]
      if ( obj->touch_state & OBJ_TOUCH_STATE_PRESSED_ON_OBJECT )
 8002500:	d555      	bpl.n	80025ae <_UG_ButtonUpdate+0xc6>
         obj->state |= OBJ_STATE_UPDATE;
 8002502:	f043 0320 	orr.w	r3, r3, #32
         obj->event = OBJ_EVENT_PRESSED;
 8002506:	2604      	movs	r6, #4
         btn->state |= BTN_STATE_PRESSED;
 8002508:	f044 0401 	orr.w	r4, r4, #1
 800250c:	703c      	strb	r4, [r7, #0]
         obj->state |= OBJ_STATE_UPDATE;
 800250e:	700b      	strb	r3, [r1, #0]
         obj->event = OBJ_EVENT_PRESSED;
 8002510:	768e      	strb	r6, [r1, #26]
      {
         btn->state &= ~BTN_STATE_PRESSED;
         obj->state |= OBJ_STATE_UPDATE;
         obj->event = OBJ_EVENT_RELEASED;
      }
      obj->touch_state &= ~OBJ_TOUCH_STATE_CHANGED;
 8002512:	f022 0201 	bic.w	r2, r2, #1
 8002516:	704a      	strb	r2, [r1, #1]
   }

   /* -------------------------------------------------- */
   /* Object update section                              */
   /* -------------------------------------------------- */
   if ( obj->state & OBJ_STATE_UPDATE )
 8002518:	069c      	lsls	r4, r3, #26
 800251a:	d53b      	bpl.n	8002594 <_UG_ButtonUpdate+0xac>
 800251c:	4606      	mov	r6, r0
   {
      if ( obj->state & OBJ_STATE_VISIBLE )
 800251e:	0718      	lsls	r0, r3, #28
 8002520:	460c      	mov	r4, r1
 8002522:	d53a      	bpl.n	800259a <_UG_ButtonUpdate+0xb2>
      {
         /* Full redraw necessary? */
         if ( (obj->state & OBJ_STATE_REDRAW) || (btn->state & BTN_STATE_ALWAYS_REDRAW) )
 8002524:	0659      	lsls	r1, r3, #25
 8002526:	d403      	bmi.n	8002530 <_UG_ButtonUpdate+0x48>
 8002528:	783b      	ldrb	r3, [r7, #0]
 800252a:	079a      	lsls	r2, r3, #30
 800252c:	f140 80b3 	bpl.w	8002696 <_UG_ButtonUpdate+0x1ae>
   if ( (wnd != NULL) && (wnd->state & WND_STATE_VALID) )
 8002530:	b1b6      	cbz	r6, 8002560 <_UG_ButtonUpdate+0x78>
 8002532:	7a33      	ldrb	r3, [r6, #8]
 8002534:	079b      	lsls	r3, r3, #30
 8002536:	d513      	bpl.n	8002560 <_UG_ButtonUpdate+0x78>
      if ( wnd->style & WND_STYLE_3D )
 8002538:	7db2      	ldrb	r2, [r6, #22]
      a->xs = wnd->xs;
 800253a:	f9b6 e00e 	ldrsh.w	lr, [r6, #14]
      if ( wnd->style & WND_STYLE_3D )
 800253e:	07d0      	lsls	r0, r2, #31
      a->ys = wnd->ys;
 8002540:	f9b6 5010 	ldrsh.w	r5, [r6, #16]
      if ( wnd->style & WND_STYLE_3D )
 8002544:	d505      	bpl.n	8002552 <_UG_ButtonUpdate+0x6a>
         a->xs+=3;
 8002546:	f10e 0303 	add.w	r3, lr, #3
         a->ys+=3;
 800254a:	3503      	adds	r5, #3
         a->xs+=3;
 800254c:	fa0f fe83 	sxth.w	lr, r3
         a->ys+=3;
 8002550:	b22d      	sxth	r5, r5
      if ( wnd->style & WND_STYLE_SHOW_TITLE )
 8002552:	0791      	lsls	r1, r2, #30
 8002554:	d504      	bpl.n	8002560 <_UG_ButtonUpdate+0x78>
         a->ys+= wnd->title.height+1;
 8002556:	f896 302c 	ldrb.w	r3, [r6, #44]	; 0x2c
 800255a:	3301      	adds	r3, #1
 800255c:	441d      	add	r5, r3
 800255e:	b22d      	sxth	r5, r5
         {
            UG_WindowGetArea(wnd,&a);
            obj->a_abs.xs = obj->a_rel.xs + a.xs;
            obj->a_abs.ys = obj->a_rel.ys + a.ys;
 8002560:	b2ad      	uxth	r5, r5
            obj->a_abs.xe = obj->a_rel.xe + a.xs;
            obj->a_abs.ye = obj->a_rel.ye + a.ys;
 8002562:	8ae2      	ldrh	r2, [r4, #22]
            obj->a_abs.xs = obj->a_rel.xs + a.xs;
 8002564:	fa1f f38e 	uxth.w	r3, lr
            obj->a_abs.ys = obj->a_rel.ys + a.ys;
 8002568:	8a60      	ldrh	r0, [r4, #18]
            obj->a_abs.ye = obj->a_rel.ye + a.ys;
 800256a:	442a      	add	r2, r5
            obj->a_abs.xe = obj->a_rel.xe + a.xs;
 800256c:	8aa1      	ldrh	r1, [r4, #20]
            obj->a_abs.ys = obj->a_rel.ys + a.ys;
 800256e:	4405      	add	r5, r0
            obj->a_abs.xs = obj->a_rel.xs + a.xs;
 8002570:	f8b4 e010 	ldrh.w	lr, [r4, #16]
            if ( obj->a_abs.ye > wnd->ye ) return;
 8002574:	f9b6 0014 	ldrsh.w	r0, [r6, #20]
            obj->a_abs.xe = obj->a_rel.xe + a.xs;
 8002578:	4419      	add	r1, r3
            obj->a_abs.ye = obj->a_rel.ye + a.ys;
 800257a:	b212      	sxth	r2, r2
            obj->a_abs.xs = obj->a_rel.xs + a.xs;
 800257c:	4473      	add	r3, lr
            obj->a_abs.xe = obj->a_rel.xe + a.xs;
 800257e:	b209      	sxth	r1, r1
            obj->a_abs.ys = obj->a_rel.ys + a.ys;
 8002580:	8165      	strh	r5, [r4, #10]
            if ( obj->a_abs.ye > wnd->ye ) return;
 8002582:	4290      	cmp	r0, r2
            obj->a_abs.xs = obj->a_rel.xs + a.xs;
 8002584:	8123      	strh	r3, [r4, #8]
            obj->a_abs.xe = obj->a_rel.xe + a.xs;
 8002586:	81a1      	strh	r1, [r4, #12]
            obj->a_abs.ye = obj->a_rel.ye + a.ys;
 8002588:	81e2      	strh	r2, [r4, #14]
            if ( obj->a_abs.ye > wnd->ye ) return;
 800258a:	db03      	blt.n	8002594 <_UG_ButtonUpdate+0xac>
            if ( obj->a_abs.xe > wnd->xe ) return;
 800258c:	f9b6 3012 	ldrsh.w	r3, [r6, #18]
 8002590:	428b      	cmp	r3, r1
 8002592:	da20      	bge.n	80025d6 <_UG_ButtonUpdate+0xee>
          if ( !(btn->style & BTN_STYLE_NO_FILL) )
            UG_FillFrame(obj->a_abs.xs, obj->a_abs.ys, obj->a_abs.xe, obj->a_abs.ye, wnd->bc);
      }
      obj->state &= ~OBJ_STATE_UPDATE;
   }
}
 8002594:	b011      	add	sp, #68	; 0x44
 8002596:	e8bd 8ff0 	ldmia.w	sp!, {r4, r5, r6, r7, r8, r9, sl, fp, pc}
          if ( !(btn->style & BTN_STYLE_NO_FILL) )
 800259a:	787a      	ldrb	r2, [r7, #1]
 800259c:	06d0      	lsls	r0, r2, #27
 800259e:	f140 80a2 	bpl.w	80026e6 <_UG_ButtonUpdate+0x1fe>
      obj->state &= ~OBJ_STATE_UPDATE;
 80025a2:	f023 0320 	bic.w	r3, r3, #32
 80025a6:	7023      	strb	r3, [r4, #0]
}
 80025a8:	b011      	add	sp, #68	; 0x44
 80025aa:	e8bd 8ff0 	ldmia.w	sp!, {r4, r5, r6, r7, r8, r9, sl, fp, pc}
      else if ( btn->state & BTN_STATE_PRESSED )
 80025ae:	07e6      	lsls	r6, r4, #31
 80025b0:	d5af      	bpl.n	8002512 <_UG_ButtonUpdate+0x2a>
         btn->state &= ~BTN_STATE_PRESSED;
 80025b2:	f024 0401 	bic.w	r4, r4, #1
         obj->state |= OBJ_STATE_UPDATE;
 80025b6:	f043 0320 	orr.w	r3, r3, #32
         obj->event = OBJ_EVENT_RELEASED;
 80025ba:	2605      	movs	r6, #5
         btn->state &= ~BTN_STATE_PRESSED;
 80025bc:	703c      	strb	r4, [r7, #0]
         obj->state |= OBJ_STATE_UPDATE;
 80025be:	700b      	strb	r3, [r1, #0]
         obj->event = OBJ_EVENT_RELEASED;
 80025c0:	768e      	strb	r6, [r1, #26]
 80025c2:	e7a6      	b.n	8002512 <_UG_ButtonUpdate+0x2a>
         obj->event = BTN_EVENT_CLICKED;
 80025c4:	2401      	movs	r4, #1
         obj->state |= OBJ_STATE_UPDATE;
 80025c6:	f043 0320 	orr.w	r3, r3, #32
      if ( obj->touch_state & OBJ_TOUCH_STATE_PRESSED_ON_OBJECT )
 80025ca:	0796      	lsls	r6, r2, #30
         obj->event = BTN_EVENT_CLICKED;
 80025cc:	768c      	strb	r4, [r1, #26]
         obj->state |= OBJ_STATE_UPDATE;
 80025ce:	700b      	strb	r3, [r1, #0]
         btn->state |= BTN_STATE_PRESSED;
 80025d0:	783c      	ldrb	r4, [r7, #0]
      if ( obj->touch_state & OBJ_TOUCH_STATE_PRESSED_ON_OBJECT )
 80025d2:	d5ec      	bpl.n	80025ae <_UG_ButtonUpdate+0xc6>
 80025d4:	e795      	b.n	8002502 <_UG_ButtonUpdate+0x1a>
	msg.event = OBJ_EVENT_PRERENDER;
 80025d6:	2302      	movs	r3, #2
	msg.id = obj->type;
 80025d8:	7e21      	ldrb	r1, [r4, #24]
	msg.sub_id = obj->id;
 80025da:	7e62      	ldrb	r2, [r4, #25]
	wnd->cb(&msg);
 80025dc:	a809      	add	r0, sp, #36	; 0x24
	msg.event = OBJ_EVENT_PRERENDER;
 80025de:	f88d 3027 	strb.w	r3, [sp, #39]	; 0x27
	msg.type = MSG_TYPE_OBJECT;
 80025e2:	f88d 3024 	strb.w	r3, [sp, #36]	; 0x24
	msg.id = obj->type;
 80025e6:	f88d 1025 	strb.w	r1, [sp, #37]	; 0x25
	msg.sub_id = obj->id;
 80025ea:	f88d 2026 	strb.w	r2, [sp, #38]	; 0x26
	wnd->cb(&msg);
 80025ee:	6b33      	ldr	r3, [r6, #48]	; 0x30
	msg.src = obj;
 80025f0:	940a      	str	r4, [sp, #40]	; 0x28
	wnd->cb(&msg);
 80025f2:	4798      	blx	r3
            d = ( btn->style & BTN_STYLE_3D )? 3:1;
 80025f4:	787b      	ldrb	r3, [r7, #1]
            txt.fc = btn->fc;
 80025f6:	f8d7 2002 	ldr.w	r2, [r7, #2]
            d = ( btn->style & BTN_STYLE_3D )? 3:1;
 80025fa:	f013 0f01 	tst.w	r3, #1
            txt.bc = btn->bc;
 80025fe:	f8b7 a004 	ldrh.w	sl, [r7, #4]
            txt.fc = btn->fc;
 8002602:	8879      	ldrh	r1, [r7, #2]
 8002604:	920d      	str	r2, [sp, #52]	; 0x34
            d = ( btn->style & BTN_STYLE_3D )? 3:1;
 8002606:	bf0c      	ite	eq
 8002608:	2201      	moveq	r2, #1
 800260a:	2203      	movne	r2, #3
 800260c:	9202      	str	r2, [sp, #8]
            if( btn->state & BTN_STATE_PRESSED )
 800260e:	783a      	ldrb	r2, [r7, #0]
 8002610:	07d2      	lsls	r2, r2, #31
 8002612:	d507      	bpl.n	8002624 <_UG_ButtonUpdate+0x13c>
               if( btn->style & BTN_STYLE_TOGGLE_COLORS )
 8002614:	079d      	lsls	r5, r3, #30
 8002616:	f140 8102 	bpl.w	800281e <_UG_ButtonUpdate+0x336>
                  txt.fc = btn->bc;
 800261a:	f8ad a034 	strh.w	sl, [sp, #52]	; 0x34
 800261e:	468a      	mov	sl, r1
                  txt.bc = btn->fc;
 8002620:	f8ad 1036 	strh.w	r1, [sp, #54]	; 0x36
            if ( !(btn->style & BTN_STYLE_NO_FILL) )
 8002624:	06d9      	lsls	r1, r3, #27
 8002626:	f140 80b9 	bpl.w	800279c <_UG_ButtonUpdate+0x2b4>
            txt.a.xs = obj->a_abs.xs+d;
 800262a:	9b02      	ldr	r3, [sp, #8]
            txt.h_space = 2;
 800262c:	f04f 1e02 	mov.w	lr, #131074	; 0x20002
            txt.a.xs = obj->a_abs.xs+d;
 8002630:	8925      	ldrh	r5, [r4, #8]
            _UG_PutText( &txt );
 8002632:	a809      	add	r0, sp, #36	; 0x24
            txt.a.ys = obj->a_abs.ys+d;
 8002634:	8961      	ldrh	r1, [r4, #10]
            txt.a.xs = obj->a_abs.xs+d;
 8002636:	eb05 0c03 	add.w	ip, r5, r3
            txt.a.xe = obj->a_abs.xe-d;
 800263a:	89a2      	ldrh	r2, [r4, #12]
            txt.a.ys = obj->a_abs.ys+d;
 800263c:	461d      	mov	r5, r3
 800263e:	4419      	add	r1, r3
            txt.a.ye = obj->a_abs.ye-d;
 8002640:	89e3      	ldrh	r3, [r4, #14]
            txt.a.xe = obj->a_abs.xe-d;
 8002642:	1b52      	subs	r2, r2, r5
            txt.a.ys = obj->a_abs.ys+d;
 8002644:	f8ad 102e 	strh.w	r1, [sp, #46]	; 0x2e
            txt.a.ye = obj->a_abs.ye-d;
 8002648:	1b5b      	subs	r3, r3, r5
            txt.a.xs = obj->a_abs.xs+d;
 800264a:	f8ad c02c 	strh.w	ip, [sp, #44]	; 0x2c
            txt.a.xe = obj->a_abs.xe-d;
 800264e:	f8ad 2030 	strh.w	r2, [sp, #48]	; 0x30
	msg.type = MSG_TYPE_OBJECT;
 8002652:	2502      	movs	r5, #2
            txt.a.ye = obj->a_abs.ye-d;
 8002654:	f8ad 3032 	strh.w	r3, [sp, #50]	; 0x32
            txt.align = btn->align;
 8002658:	7c3b      	ldrb	r3, [r7, #16]
 800265a:	f88d 3038 	strb.w	r3, [sp, #56]	; 0x38
            txt.font = btn->font;
 800265e:	68fa      	ldr	r2, [r7, #12]
            txt.str = btn->str;
 8002660:	697b      	ldr	r3, [r7, #20]
            txt.font = btn->font;
 8002662:	920a      	str	r2, [sp, #40]	; 0x28
            txt.str = btn->str;
 8002664:	9309      	str	r3, [sp, #36]	; 0x24
            txt.h_space = 2;
 8002666:	f8cd e03a 	str.w	lr, [sp, #58]	; 0x3a
            _UG_PutText( &txt );
 800266a:	f7ff fd75 	bl	8002158 <_UG_PutText>
            obj->state &= ~OBJ_STATE_REDRAW;
 800266e:	7823      	ldrb	r3, [r4, #0]
	msg.event = OBJ_EVENT_POSTRENDER;
 8002670:	f04f 0e03 	mov.w	lr, #3
	msg.id = obj->type;
 8002674:	7e21      	ldrb	r1, [r4, #24]
	wnd->cb(&msg);
 8002676:	a807      	add	r0, sp, #28
            obj->state &= ~OBJ_STATE_REDRAW;
 8002678:	f023 0340 	bic.w	r3, r3, #64	; 0x40
	msg.sub_id = obj->id;
 800267c:	7e62      	ldrb	r2, [r4, #25]
	msg.src = obj;
 800267e:	9408      	str	r4, [sp, #32]
            obj->state &= ~OBJ_STATE_REDRAW;
 8002680:	7023      	strb	r3, [r4, #0]
	msg.event = OBJ_EVENT_POSTRENDER;
 8002682:	f88d e01f 	strb.w	lr, [sp, #31]
	wnd->cb(&msg);
 8002686:	6b33      	ldr	r3, [r6, #48]	; 0x30
	msg.type = MSG_TYPE_OBJECT;
 8002688:	f88d 501c 	strb.w	r5, [sp, #28]
	msg.id = obj->type;
 800268c:	f88d 101d 	strb.w	r1, [sp, #29]
	msg.sub_id = obj->id;
 8002690:	f88d 201e 	strb.w	r2, [sp, #30]
	wnd->cb(&msg);
 8002694:	4798      	blx	r3
         if ( !(btn->style & BTN_STYLE_NO_BORDERS) )
 8002696:	787b      	ldrb	r3, [r7, #1]
 8002698:	071a      	lsls	r2, r3, #28
 800269a:	d422      	bmi.n	80026e2 <_UG_ButtonUpdate+0x1fa>
             if ( btn->style & BTN_STYLE_3D )
 800269c:	f013 0f01 	tst.w	r3, #1
                _UG_DrawObjectFrame(obj->a_abs.xs,obj->a_abs.ys,obj->a_abs.xe,obj->a_abs.ye, (btn->state&BTN_STATE_PRESSED)?(UG_COLOR*)pal_button_pressed:(UG_COLOR*)pal_button_released);
 80026a0:	783b      	ldrb	r3, [r7, #0]
             if ( btn->style & BTN_STYLE_3D )
 80026a2:	d050      	beq.n	8002746 <_UG_ButtonUpdate+0x25e>
                _UG_DrawObjectFrame(obj->a_abs.xs,obj->a_abs.ys,obj->a_abs.xe,obj->a_abs.ye, (btn->state&BTN_STATE_PRESSED)?(UG_COLOR*)pal_button_pressed:(UG_COLOR*)pal_button_released);
 80026a4:	f013 0f01 	tst.w	r3, #1
 80026a8:	4b69      	ldr	r3, [pc, #420]	; (8002850 <_UG_ButtonUpdate+0x368>)
 80026aa:	4d6a      	ldr	r5, [pc, #424]	; (8002854 <_UG_ButtonUpdate+0x36c>)
 80026ac:	bf18      	it	ne
 80026ae:	461d      	movne	r5, r3
 80026b0:	f9b4 0008 	ldrsh.w	r0, [r4, #8]
 80026b4:	f9b4 300e 	ldrsh.w	r3, [r4, #14]
 80026b8:	f9b4 100a 	ldrsh.w	r1, [r4, #10]
 80026bc:	f9b4 200c 	ldrsh.w	r2, [r4, #12]
 80026c0:	9500      	str	r5, [sp, #0]
 80026c2:	f7ff fe71 	bl	80023a8 <_UG_DrawObjectFrame>
 80026c6:	7823      	ldrb	r3, [r4, #0]
 80026c8:	e76b      	b.n	80025a2 <_UG_ButtonUpdate+0xba>
      if( ((UG_RESULT(*)(UG_S16 x1, UG_S16 y1, UG_S16 x2, UG_S16 y2, UG_COLOR c))gui->driver[DRIVER_FILL_FRAME].driver)(x1,y1,x2,y2,c) == UG_RESULT_OK ) return;
 80026ca:	f8cd 8000 	str.w	r8, [sp]
 80026ce:	4653      	mov	r3, sl
 80026d0:	f8d2 b054 	ldr.w	fp, [r2, #84]	; 0x54
 80026d4:	4631      	mov	r1, r6
 80026d6:	463a      	mov	r2, r7
 80026d8:	4648      	mov	r0, r9
 80026da:	47d8      	blx	fp
 80026dc:	b108      	cbz	r0, 80026e2 <_UG_ButtonUpdate+0x1fa>
   for( m=y1; m<=y2; m++ )
 80026de:	4556      	cmp	r6, sl
 80026e0:	dd15      	ble.n	800270e <_UG_ButtonUpdate+0x226>
 80026e2:	7823      	ldrb	r3, [r4, #0]
 80026e4:	e75d      	b.n	80025a2 <_UG_ButtonUpdate+0xba>
            UG_FillFrame(obj->a_abs.xs, obj->a_abs.ys, obj->a_abs.xe, obj->a_abs.ye, wnd->bc);
 80026e6:	f9b1 7008 	ldrsh.w	r7, [r1, #8]
 80026ea:	f9b1 900c 	ldrsh.w	r9, [r1, #12]
 80026ee:	f8b6 800c 	ldrh.w	r8, [r6, #12]
   if ( x2 < x1 )
 80026f2:	454f      	cmp	r7, r9
            UG_FillFrame(obj->a_abs.xs, obj->a_abs.ys, obj->a_abs.xe, obj->a_abs.ye, wnd->bc);
 80026f4:	f9b1 a00a 	ldrsh.w	sl, [r1, #10]
 80026f8:	f9b1 600e 	ldrsh.w	r6, [r1, #14]
   if ( x2 < x1 )
 80026fc:	dd1f      	ble.n	800273e <_UG_ButtonUpdate+0x256>
   if ( y2 < y1 )
 80026fe:	45b2      	cmp	sl, r6
 8002700:	dd19      	ble.n	8002736 <_UG_ButtonUpdate+0x24e>
   if ( gui->driver[DRIVER_FILL_FRAME].state & DRIVER_ENABLED )
 8002702:	4d55      	ldr	r5, [pc, #340]	; (8002858 <_UG_ButtonUpdate+0x370>)
 8002704:	682a      	ldr	r2, [r5, #0]
 8002706:	f892 3058 	ldrb.w	r3, [r2, #88]	; 0x58
 800270a:	079b      	lsls	r3, r3, #30
 800270c:	d4dd      	bmi.n	80026ca <_UG_ButtonUpdate+0x1e2>
 800270e:	45b9      	cmp	r9, r7
 8002710:	dce7      	bgt.n	80026e2 <_UG_ButtonUpdate+0x1fa>
   if ( x2 < x1 )
 8002712:	46cb      	mov	fp, r9
         gui->pset(n,m,c);
 8002714:	4658      	mov	r0, fp
 8002716:	f10b 0b01 	add.w	fp, fp, #1
 800271a:	682b      	ldr	r3, [r5, #0]
 800271c:	4642      	mov	r2, r8
 800271e:	fa0f fb8b 	sxth.w	fp, fp
 8002722:	4631      	mov	r1, r6
 8002724:	681b      	ldr	r3, [r3, #0]
 8002726:	4798      	blx	r3
      for( n=x1; n<=x2; n++ )
 8002728:	455f      	cmp	r7, fp
 800272a:	daf3      	bge.n	8002714 <_UG_ButtonUpdate+0x22c>
 800272c:	3601      	adds	r6, #1
 800272e:	b236      	sxth	r6, r6
   for( m=y1; m<=y2; m++ )
 8002730:	45b2      	cmp	sl, r6
 8002732:	daee      	bge.n	8002712 <_UG_ButtonUpdate+0x22a>
 8002734:	e7d5      	b.n	80026e2 <_UG_ButtonUpdate+0x1fa>
   if ( y2 < y1 )
 8002736:	4633      	mov	r3, r6
 8002738:	4656      	mov	r6, sl
 800273a:	469a      	mov	sl, r3
 800273c:	e7e1      	b.n	8002702 <_UG_ButtonUpdate+0x21a>
   if ( x2 < x1 )
 800273e:	464b      	mov	r3, r9
 8002740:	46b9      	mov	r9, r7
 8002742:	461f      	mov	r7, r3
 8002744:	e7db      	b.n	80026fe <_UG_ButtonUpdate+0x216>
                 UG_DrawFrame(obj->a_abs.xs,obj->a_abs.ys,obj->a_abs.xe,obj->a_abs.ye,(btn->state&BTN_STATE_PRESSED)?btn->abc:btn->afc);
 8002746:	07db      	lsls	r3, r3, #31
 8002748:	f9b4 9008 	ldrsh.w	r9, [r4, #8]
 800274c:	f9b4 500a 	ldrsh.w	r5, [r4, #10]
 8002750:	bf48      	it	mi
 8002752:	893f      	ldrhmi	r7, [r7, #8]
   UG_DrawLine(x1,y1,x2,y1,c);
 8002754:	4648      	mov	r0, r9
                 UG_DrawFrame(obj->a_abs.xs,obj->a_abs.ys,obj->a_abs.xe,obj->a_abs.ye,(btn->state&BTN_STATE_PRESSED)?btn->abc:btn->afc);
 8002756:	bf58      	it	pl
 8002758:	88ff      	ldrhpl	r7, [r7, #6]
   UG_DrawLine(x1,y1,x2,y1,c);
 800275a:	462b      	mov	r3, r5
                 UG_DrawFrame(obj->a_abs.xs,obj->a_abs.ys,obj->a_abs.xe,obj->a_abs.ye,(btn->state&BTN_STATE_PRESSED)?btn->abc:btn->afc);
 800275c:	f9b4 800c 	ldrsh.w	r8, [r4, #12]
   UG_DrawLine(x1,y1,x2,y1,c);
 8002760:	4629      	mov	r1, r5
                 UG_DrawFrame(obj->a_abs.xs,obj->a_abs.ys,obj->a_abs.xe,obj->a_abs.ye,(btn->state&BTN_STATE_PRESSED)?btn->abc:btn->afc);
 8002762:	f9b4 600e 	ldrsh.w	r6, [r4, #14]
   UG_DrawLine(x1,y1,x2,y1,c);
 8002766:	4642      	mov	r2, r8
 8002768:	9700      	str	r7, [sp, #0]
 800276a:	f7ff fa4b 	bl	8001c04 <UG_DrawLine>
   UG_DrawLine(x1,y2,x2,y2,c);
 800276e:	4633      	mov	r3, r6
 8002770:	4642      	mov	r2, r8
 8002772:	4631      	mov	r1, r6
 8002774:	4648      	mov	r0, r9
 8002776:	9700      	str	r7, [sp, #0]
 8002778:	f7ff fa44 	bl	8001c04 <UG_DrawLine>
   UG_DrawLine(x1,y1,x1,y2,c);
 800277c:	4633      	mov	r3, r6
 800277e:	464a      	mov	r2, r9
 8002780:	4648      	mov	r0, r9
 8002782:	4629      	mov	r1, r5
 8002784:	9700      	str	r7, [sp, #0]
 8002786:	f7ff fa3d 	bl	8001c04 <UG_DrawLine>
   UG_DrawLine(x2,y1,x2,y2,c);
 800278a:	4633      	mov	r3, r6
 800278c:	9700      	str	r7, [sp, #0]
 800278e:	4629      	mov	r1, r5
 8002790:	4642      	mov	r2, r8
 8002792:	4640      	mov	r0, r8
 8002794:	f7ff fa36 	bl	8001c04 <UG_DrawLine>
 8002798:	7823      	ldrb	r3, [r4, #0]
 800279a:	e702      	b.n	80025a2 <_UG_ButtonUpdate+0xba>
               UG_FillFrame(obj->a_abs.xs+d, obj->a_abs.ys+d, obj->a_abs.xe-d, obj->a_abs.ye-d, txt.bc);
 800279c:	9802      	ldr	r0, [sp, #8]
 800279e:	f8b4 9008 	ldrh.w	r9, [r4, #8]
 80027a2:	89a2      	ldrh	r2, [r4, #12]
 80027a4:	4481      	add	r9, r0
 80027a6:	8963      	ldrh	r3, [r4, #10]
 80027a8:	1a12      	subs	r2, r2, r0
 80027aa:	f8b4 800e 	ldrh.w	r8, [r4, #14]
 80027ae:	fa0f f989 	sxth.w	r9, r9
 80027b2:	4403      	add	r3, r0
 80027b4:	b212      	sxth	r2, r2
 80027b6:	eba8 0800 	sub.w	r8, r8, r0
 80027ba:	b21b      	sxth	r3, r3
   if ( x2 < x1 )
 80027bc:	4591      	cmp	r9, r2
               UG_FillFrame(obj->a_abs.xs+d, obj->a_abs.ys+d, obj->a_abs.xe-d, obj->a_abs.ye-d, txt.bc);
 80027be:	9204      	str	r2, [sp, #16]
 80027c0:	9303      	str	r3, [sp, #12]
 80027c2:	fa0f f888 	sxth.w	r8, r8
   if ( x2 < x1 )
 80027c6:	dc02      	bgt.n	80027ce <_UG_ButtonUpdate+0x2e6>
 80027c8:	f8cd 9010 	str.w	r9, [sp, #16]
 80027cc:	4691      	mov	r9, r2
   if ( y2 < y1 )
 80027ce:	9a03      	ldr	r2, [sp, #12]
 80027d0:	4542      	cmp	r2, r8
 80027d2:	dc02      	bgt.n	80027da <_UG_ButtonUpdate+0x2f2>
 80027d4:	4643      	mov	r3, r8
 80027d6:	4690      	mov	r8, r2
 80027d8:	9303      	str	r3, [sp, #12]
   if ( gui->driver[DRIVER_FILL_FRAME].state & DRIVER_ENABLED )
 80027da:	4d1f      	ldr	r5, [pc, #124]	; (8002858 <_UG_ButtonUpdate+0x370>)
 80027dc:	682a      	ldr	r2, [r5, #0]
 80027de:	f892 3058 	ldrb.w	r3, [r2, #88]	; 0x58
 80027e2:	0799      	lsls	r1, r3, #30
 80027e4:	d424      	bmi.n	8002830 <_UG_ButtonUpdate+0x348>
 80027e6:	9a04      	ldr	r2, [sp, #16]
 80027e8:	454a      	cmp	r2, r9
 80027ea:	f73f af1e 	bgt.w	800262a <_UG_ButtonUpdate+0x142>
 80027ee:	9405      	str	r4, [sp, #20]
 80027f0:	4693      	mov	fp, r2
 80027f2:	9c03      	ldr	r4, [sp, #12]
 80027f4:	9704      	str	r7, [sp, #16]
   if ( x2 < x1 )
 80027f6:	465f      	mov	r7, fp
         gui->pset(n,m,c);
 80027f8:	4638      	mov	r0, r7
 80027fa:	3701      	adds	r7, #1
 80027fc:	682b      	ldr	r3, [r5, #0]
 80027fe:	4652      	mov	r2, sl
 8002800:	b23f      	sxth	r7, r7
 8002802:	4641      	mov	r1, r8
 8002804:	681b      	ldr	r3, [r3, #0]
 8002806:	4798      	blx	r3
      for( n=x1; n<=x2; n++ )
 8002808:	454f      	cmp	r7, r9
 800280a:	ddf5      	ble.n	80027f8 <_UG_ButtonUpdate+0x310>
 800280c:	f108 0801 	add.w	r8, r8, #1
 8002810:	fa0f f888 	sxth.w	r8, r8
   for( m=y1; m<=y2; m++ )
 8002814:	45a0      	cmp	r8, r4
 8002816:	ddee      	ble.n	80027f6 <_UG_ButtonUpdate+0x30e>
 8002818:	9f04      	ldr	r7, [sp, #16]
 800281a:	9c05      	ldr	r4, [sp, #20]
 800281c:	e705      	b.n	800262a <_UG_ButtonUpdate+0x142>
               else if ( btn->style & BTN_STYLE_USE_ALTERNATE_COLORS )
 800281e:	0758      	lsls	r0, r3, #29
 8002820:	f57f af00 	bpl.w	8002624 <_UG_ButtonUpdate+0x13c>
                  txt.fc = btn->afc;
 8002824:	f8d7 2006 	ldr.w	r2, [r7, #6]
                  txt.bc = btn->abc;
 8002828:	f8b7 a008 	ldrh.w	sl, [r7, #8]
                  txt.fc = btn->afc;
 800282c:	920d      	str	r2, [sp, #52]	; 0x34
 800282e:	e6f9      	b.n	8002624 <_UG_ButtonUpdate+0x13c>
      if( ((UG_RESULT(*)(UG_S16 x1, UG_S16 y1, UG_S16 x2, UG_S16 y2, UG_COLOR c))gui->driver[DRIVER_FILL_FRAME].driver)(x1,y1,x2,y2,c) == UG_RESULT_OK ) return;
 8002830:	f8cd a000 	str.w	sl, [sp]
 8002834:	4641      	mov	r1, r8
 8002836:	f8d2 b054 	ldr.w	fp, [r2, #84]	; 0x54
 800283a:	464a      	mov	r2, r9
 800283c:	9b03      	ldr	r3, [sp, #12]
 800283e:	9804      	ldr	r0, [sp, #16]
 8002840:	47d8      	blx	fp
 8002842:	2800      	cmp	r0, #0
 8002844:	f43f aef1 	beq.w	800262a <_UG_ButtonUpdate+0x142>
   for( m=y1; m<=y2; m++ )
 8002848:	9b03      	ldr	r3, [sp, #12]
 800284a:	4543      	cmp	r3, r8
 800284c:	dacb      	bge.n	80027e6 <_UG_ButtonUpdate+0x2fe>
 800284e:	e6ec      	b.n	800262a <_UG_ButtonUpdate+0x142>
 8002850:	08003b20 	.word	0x08003b20
 8002854:	08003b38 	.word	0x08003b38
 8002858:	2000003c 	.word	0x2000003c

0800285c <UG_DriverRegister>:
   if ( type >= NUMBER_OF_DRIVERS ) return;
 800285c:	2802      	cmp	r0, #2
 800285e:	d807      	bhi.n	8002870 <UG_DriverRegister+0x14>
   gui->driver[type].driver = driver;
 8002860:	4b04      	ldr	r3, [pc, #16]	; (8002874 <UG_DriverRegister+0x18>)
   gui->driver[type].state = DRIVER_REGISTERED | DRIVER_ENABLED;
 8002862:	2203      	movs	r2, #3
 8002864:	681b      	ldr	r3, [r3, #0]
 8002866:	eb03 00c0 	add.w	r0, r3, r0, lsl #3
   gui->driver[type].driver = driver;
 800286a:	64c1      	str	r1, [r0, #76]	; 0x4c
   gui->driver[type].state = DRIVER_REGISTERED | DRIVER_ENABLED;
 800286c:	f880 2050 	strb.w	r2, [r0, #80]	; 0x50
 8002870:	4770      	bx	lr
 8002872:	bf00      	nop
 8002874:	2000003c 	.word	0x2000003c

08002878 <UG_DriverEnable>:
   if ( type >= NUMBER_OF_DRIVERS ) return;
 8002878:	2802      	cmp	r0, #2
 800287a:	d80b      	bhi.n	8002894 <UG_DriverEnable+0x1c>
   if ( gui->driver[type].state & DRIVER_REGISTERED )
 800287c:	4b06      	ldr	r3, [pc, #24]	; (8002898 <UG_DriverEnable+0x20>)
 800287e:	681b      	ldr	r3, [r3, #0]
 8002880:	eb03 00c0 	add.w	r0, r3, r0, lsl #3
 8002884:	f890 3050 	ldrb.w	r3, [r0, #80]	; 0x50
 8002888:	07da      	lsls	r2, r3, #31
 800288a:	d503      	bpl.n	8002894 <UG_DriverEnable+0x1c>
      gui->driver[type].state |= DRIVER_ENABLED;
 800288c:	f043 0302 	orr.w	r3, r3, #2
 8002890:	f880 3050 	strb.w	r3, [r0, #80]	; 0x50
 8002894:	4770      	bx	lr
 8002896:	bf00      	nop
 8002898:	2000003c 	.word	0x2000003c

0800289c <UG_TouchUpdate>:
   gui->touch.xp = xp;
 800289c:	4b02      	ldr	r3, [pc, #8]	; (80028a8 <UG_TouchUpdate+0xc>)
 800289e:	681b      	ldr	r3, [r3, #0]
 80028a0:	8158      	strh	r0, [r3, #10]
   gui->touch.yp = yp;
 80028a2:	8199      	strh	r1, [r3, #12]
   gui->touch.state = state;
 80028a4:	721a      	strb	r2, [r3, #8]
 80028a6:	4770      	bx	lr
 80028a8:	2000003c 	.word	0x2000003c

080028ac <UG_WindowCreate>:
   if ( (wnd == NULL) || (objlst == NULL) || (objcnt == 0) ) return UG_RESULT_FAIL;
 80028ac:	2a00      	cmp	r2, #0
 80028ae:	bf18      	it	ne
 80028b0:	2900      	cmpne	r1, #0
 80028b2:	d03f      	beq.n	8002934 <UG_WindowCreate+0x88>
{
 80028b4:	b5f0      	push	{r4, r5, r6, r7, lr}
   if ( (wnd == NULL) || (objlst == NULL) || (objcnt == 0) ) return UG_RESULT_FAIL;
 80028b6:	fab0 f680 	clz	r6, r0
 80028ba:	0976      	lsrs	r6, r6, #5
 80028bc:	2e00      	cmp	r6, #0
 80028be:	d136      	bne.n	800292e <UG_WindowCreate+0x82>
 80028c0:	1e55      	subs	r5, r2, #1
 80028c2:	460c      	mov	r4, r1
      obj->state = OBJ_STATE_INIT;
 80028c4:	2703      	movs	r7, #3
 80028c6:	b2ed      	uxtb	r5, r5
 80028c8:	3501      	adds	r5, #1
 80028ca:	eb01 1545 	add.w	r5, r1, r5, lsl #5
 80028ce:	7027      	strb	r7, [r4, #0]
 80028d0:	3420      	adds	r4, #32
      obj->data = NULL;
 80028d2:	f844 6c04 	str.w	r6, [r4, #-4]
   for(i=0; i<objcnt; i++)
 80028d6:	42ac      	cmp	r4, r5
 80028d8:	d1f9      	bne.n	80028ce <UG_WindowCreate+0x22>
   return gui->x_dim;
 80028da:	4d18      	ldr	r5, [pc, #96]	; (800293c <UG_WindowCreate+0x90>)
   wnd->state = WND_STATE_VALID;
 80028dc:	2402      	movs	r4, #2
   wnd->objcnt = objcnt;
 80028de:	7002      	strb	r2, [r0, #0]
   wnd->title.align = ALIGN_CENTER_LEFT;
 80028e0:	f04f 0e11 	mov.w	lr, #17
   return gui->x_dim;
 80028e4:	682a      	ldr	r2, [r5, #0]
   wnd->fc = 0x0000;
 80028e6:	4d16      	ldr	r5, [pc, #88]	; (8002940 <UG_WindowCreate+0x94>)
   wnd->state = WND_STATE_VALID;
 80028e8:	7204      	strb	r4, [r0, #8]
   if (gui != NULL) wnd->title.font = &gui->font;
 80028ea:	f102 0c2c 	add.w	ip, r2, #44	; 0x2c
   wnd->xs = 0;
 80028ee:	f8c0 600e 	str.w	r6, [r0, #14]
   wnd->fc = 0x0000;
 80028f2:	f8c0 500a 	str.w	r5, [r0, #10]
   wnd->xe = UG_GetXDim()-1;
 80028f6:	8895      	ldrh	r5, [r2, #4]
   wnd->ye = UG_GetYDim()-1;
 80028f8:	88d2      	ldrh	r2, [r2, #6]
   wnd->xe = UG_GetXDim()-1;
 80028fa:	3d01      	subs	r5, #1
   wnd->objlst = objlst;
 80028fc:	6041      	str	r1, [r0, #4]
   wnd->ye = UG_GetYDim()-1;
 80028fe:	3a01      	subs	r2, #1
   wnd->title.height = 15;
 8002900:	210f      	movs	r1, #15
   wnd->title.h_space = 2;
 8002902:	f880 4020 	strb.w	r4, [r0, #32]
   wnd->ye = UG_GetYDim()-1;
 8002906:	8282      	strh	r2, [r0, #20]
   return UG_RESULT_OK;
 8002908:	2200      	movs	r2, #0
   wnd->title.v_space = 2;
 800290a:	f880 4021 	strb.w	r4, [r0, #33]	; 0x21
   wnd->cb = cb;
 800290e:	6303      	str	r3, [r0, #48]	; 0x30
   wnd->title.fc = C_WHITE;
 8002910:	4c0c      	ldr	r4, [pc, #48]	; (8002944 <UG_WindowCreate+0x98>)
 8002912:	4b0d      	ldr	r3, [pc, #52]	; (8002948 <UG_WindowCreate+0x9c>)
   if (gui != NULL) wnd->title.font = &gui->font;
 8002914:	f8c0 c01c 	str.w	ip, [r0, #28]
   wnd->xe = UG_GetXDim()-1;
 8002918:	8245      	strh	r5, [r0, #18]
   wnd->style = WND_STYLE_3D | WND_STYLE_SHOW_TITLE;
 800291a:	7587      	strb	r7, [r0, #22]
   wnd->title.str = NULL;
 800291c:	6186      	str	r6, [r0, #24]
   wnd->title.align = ALIGN_CENTER_LEFT;
 800291e:	f880 e022 	strb.w	lr, [r0, #34]	; 0x22
   wnd->title.fc = C_WHITE;
 8002922:	6244      	str	r4, [r0, #36]	; 0x24
 8002924:	6283      	str	r3, [r0, #40]	; 0x28
   wnd->title.height = 15;
 8002926:	f880 102c 	strb.w	r1, [r0, #44]	; 0x2c
}
 800292a:	4610      	mov	r0, r2
 800292c:	bdf0      	pop	{r4, r5, r6, r7, pc}
   if ( (wnd == NULL) || (objlst == NULL) || (objcnt == 0) ) return UG_RESULT_FAIL;
 800292e:	f04f 32ff 	mov.w	r2, #4294967295
 8002932:	e7fa      	b.n	800292a <UG_WindowCreate+0x7e>
 8002934:	f04f 32ff 	mov.w	r2, #4294967295
}
 8002938:	4610      	mov	r0, r2
 800293a:	4770      	bx	lr
 800293c:	2000003c 	.word	0x2000003c
 8002940:	ef7d0000 	.word	0xef7d0000
 8002944:	001fffff 	.word	0x001fffff
 8002948:	8410ffff 	.word	0x8410ffff

0800294c <UG_WindowShow>:
   if ( wnd != NULL )
 800294c:	4602      	mov	r2, r0
 800294e:	b150      	cbz	r0, 8002966 <UG_WindowShow+0x1a>
      wnd->state &= ~WND_STATE_REDRAW_TITLE;
 8002950:	7a03      	ldrb	r3, [r0, #8]
      return UG_RESULT_OK;
 8002952:	2000      	movs	r0, #0
      gui->next_window = wnd;
 8002954:	4905      	ldr	r1, [pc, #20]	; (800296c <UG_WindowShow+0x20>)
      wnd->state &= ~WND_STATE_REDRAW_TITLE;
 8002956:	f023 0340 	bic.w	r3, r3, #64	; 0x40
      gui->next_window = wnd;
 800295a:	6809      	ldr	r1, [r1, #0]
      wnd->state &= ~WND_STATE_REDRAW_TITLE;
 800295c:	f043 0328 	orr.w	r3, r3, #40	; 0x28
 8002960:	7213      	strb	r3, [r2, #8]
      gui->next_window = wnd;
 8002962:	610a      	str	r2, [r1, #16]
      return UG_RESULT_OK;
 8002964:	4770      	bx	lr
   return UG_RESULT_FAIL;
 8002966:	f04f 30ff 	mov.w	r0, #4294967295
}
 800296a:	4770      	bx	lr
 800296c:	2000003c 	.word	0x2000003c

08002970 <UG_WindowResize>:
{
 8002970:	e92d 4ff0 	stmdb	sp!, {r4, r5, r6, r7, r8, r9, sl, fp, lr}
   return gui->x_dim;
 8002974:	4da5      	ldr	r5, [pc, #660]	; (8002c0c <UG_WindowResize+0x29c>)
{
 8002976:	b089      	sub	sp, #36	; 0x24
 8002978:	468c      	mov	ip, r1
   return gui->x_dim;
 800297a:	6829      	ldr	r1, [r5, #0]
{
 800297c:	f9bd b048 	ldrsh.w	fp, [sp, #72]	; 0x48
   xmax = UG_GetXDim()-1;
 8002980:	888e      	ldrh	r6, [r1, #4]
   ymax = UG_GetYDim()-1;
 8002982:	f8b1 8006 	ldrh.w	r8, [r1, #6]
   if ( (wnd != NULL) && (wnd->state & WND_STATE_VALID) )
 8002986:	2800      	cmp	r0, #0
 8002988:	d060      	beq.n	8002a4c <UG_WindowResize+0xdc>
 800298a:	7a04      	ldrb	r4, [r0, #8]
 800298c:	07a7      	lsls	r7, r4, #30
 800298e:	d55d      	bpl.n	8002a4c <UG_WindowResize+0xdc>
      if ( (xs < 0) || (ys < 0) ) return UG_RESULT_FAIL;
 8002990:	f1bc 0f00 	cmp.w	ip, #0
 8002994:	db5a      	blt.n	8002a4c <UG_WindowResize+0xdc>
 8002996:	fa1f f982 	uxth.w	r9, r2
 800299a:	ea5f 37d9 	movs.w	r7, r9, lsr #15
 800299e:	d155      	bne.n	8002a4c <UG_WindowResize+0xdc>
 80029a0:	3e01      	subs	r6, #1
 80029a2:	b236      	sxth	r6, r6
      if ( (xe > xmax) || (ye > ymax) ) return UG_RESULT_FAIL;
 80029a4:	429e      	cmp	r6, r3
 80029a6:	db51      	blt.n	8002a4c <UG_WindowResize+0xdc>
 80029a8:	f108 38ff 	add.w	r8, r8, #4294967295
 80029ac:	fa0f f888 	sxth.w	r8, r8
 80029b0:	45d8      	cmp	r8, fp
 80029b2:	bfac      	ite	ge
 80029b4:	2700      	movge	r7, #0
 80029b6:	2701      	movlt	r7, #1
 80029b8:	2f00      	cmp	r7, #0
 80029ba:	d147      	bne.n	8002a4c <UG_WindowResize+0xdc>
      pos = xe-xs;
 80029bc:	eba3 0e0c 	sub.w	lr, r3, ip
      if ( pos < 10 ) return UG_RESULT_FAIL;
 80029c0:	fa0f fe8e 	sxth.w	lr, lr
 80029c4:	f1be 0f09 	cmp.w	lr, #9
 80029c8:	dd40      	ble.n	8002a4c <UG_WindowResize+0xdc>
      pos = ye-ys;
 80029ca:	fa1f fa8b 	uxth.w	sl, fp
 80029ce:	ebaa 0e09 	sub.w	lr, sl, r9
      if ( pos < 10 ) return UG_RESULT_FAIL;
 80029d2:	fa0f fe8e 	sxth.w	lr, lr
 80029d6:	f1be 0f09 	cmp.w	lr, #9
 80029da:	dd37      	ble.n	8002a4c <UG_WindowResize+0xdc>
      wnd->xs = xs;
 80029dc:	46be      	mov	lr, r7
 80029de:	f363 070f 	bfi	r7, r3, #0, #16
      if ( (wnd->state & WND_STATE_VISIBLE) && (gui->active_window == wnd) )
 80029e2:	f014 0408 	ands.w	r4, r4, #8
      wnd->xs = xs;
 80029e6:	f36c 0e0f 	bfi	lr, ip, #0, #16
 80029ea:	f36b 471f 	bfi	r7, fp, #16, #16
 80029ee:	f362 4e1f 	bfi	lr, r2, #16, #16
 80029f2:	f8c0 7012 	str.w	r7, [r0, #18]
 80029f6:	f8c0 e00e 	str.w	lr, [r0, #14]
      if ( (wnd->state & WND_STATE_VISIBLE) && (gui->active_window == wnd) )
 80029fa:	d002      	beq.n	8002a02 <UG_WindowResize+0x92>
 80029fc:	694b      	ldr	r3, [r1, #20]
 80029fe:	4298      	cmp	r0, r3
 8002a00:	d003      	beq.n	8002a0a <UG_WindowResize+0x9a>
      return UG_RESULT_OK;
 8002a02:	2000      	movs	r0, #0
}
 8002a04:	b009      	add	sp, #36	; 0x24
 8002a06:	e8bd 8ff0 	ldmia.w	sp!, {r4, r5, r6, r7, r8, r9, sl, fp, pc}
 8002a0a:	9003      	str	r0, [sp, #12]
         if ( wnd->ys ) UG_FillFrame(0, 0, xmax,wnd->ys-1,gui->desktop_color);
 8002a0c:	bb1a      	cbnz	r2, 8002a56 <UG_WindowResize+0xe6>
         pos = wnd->ye+1;
 8002a0e:	f10a 0701 	add.w	r7, sl, #1
 8002a12:	b23f      	sxth	r7, r7
         if ( !(pos > ymax) ) UG_FillFrame(0, pos, xmax,ymax,gui->desktop_color);
 8002a14:	45b8      	cmp	r8, r7
 8002a16:	f280 80b6 	bge.w	8002b86 <UG_WindowResize+0x216>
         if ( wnd->xs ) UG_FillFrame(0, wnd->ys, wnd->xs-1,wnd->ye,gui->desktop_color);
 8002a1a:	9b03      	ldr	r3, [sp, #12]
 8002a1c:	f9b3 300e 	ldrsh.w	r3, [r3, #14]
 8002a20:	2b00      	cmp	r3, #0
 8002a22:	d178      	bne.n	8002b16 <UG_WindowResize+0x1a6>
         pos = wnd->xe+1;
 8002a24:	9b03      	ldr	r3, [sp, #12]
 8002a26:	f8b3 9012 	ldrh.w	r9, [r3, #18]
 8002a2a:	f109 0901 	add.w	r9, r9, #1
 8002a2e:	fa0f f989 	sxth.w	r9, r9
         if ( !(pos > xmax) ) UG_FillFrame(pos, wnd->ys,xmax,wnd->ye,gui->desktop_color);
 8002a32:	454e      	cmp	r6, r9
 8002a34:	da42      	bge.n	8002abc <UG_WindowResize+0x14c>
         wnd->state &= ~WND_STATE_REDRAW_TITLE;
 8002a36:	9a03      	ldr	r2, [sp, #12]
      return UG_RESULT_OK;
 8002a38:	2000      	movs	r0, #0
         wnd->state &= ~WND_STATE_REDRAW_TITLE;
 8002a3a:	7a13      	ldrb	r3, [r2, #8]
 8002a3c:	f023 0340 	bic.w	r3, r3, #64	; 0x40
         wnd->state |= WND_STATE_UPDATE;
 8002a40:	f043 0320 	orr.w	r3, r3, #32
 8002a44:	7213      	strb	r3, [r2, #8]
}
 8002a46:	b009      	add	sp, #36	; 0x24
 8002a48:	e8bd 8ff0 	ldmia.w	sp!, {r4, r5, r6, r7, r8, r9, sl, fp, pc}
   return UG_RESULT_FAIL;
 8002a4c:	f04f 30ff 	mov.w	r0, #4294967295
}
 8002a50:	b009      	add	sp, #36	; 0x24
 8002a52:	e8bd 8ff0 	ldmia.w	sp!, {r4, r5, r6, r7, r8, r9, sl, fp, pc}
         if ( wnd->ys ) UG_FillFrame(0, 0, xmax,wnd->ys-1,gui->desktop_color);
 8002a56:	f109 39ff 	add.w	r9, r9, #4294967295
   if ( x2 < x1 )
 8002a5a:	2e00      	cmp	r6, #0
   if ( gui->driver[DRIVER_FILL_FRAME].state & DRIVER_ENABLED )
 8002a5c:	f891 3058 	ldrb.w	r3, [r1, #88]	; 0x58
         if ( wnd->ys ) UG_FillFrame(0, 0, xmax,wnd->ys-1,gui->desktop_color);
 8002a60:	fa0f f289 	sxth.w	r2, r9
   if ( x2 < x1 )
 8002a64:	bfac      	ite	ge
 8002a66:	46b2      	movge	sl, r6
 8002a68:	f04f 0a00 	movlt.w	sl, #0
         if ( wnd->ys ) UG_FillFrame(0, 0, xmax,wnd->ys-1,gui->desktop_color);
 8002a6c:	f8b1 9046 	ldrh.w	r9, [r1, #70]	; 0x46
 8002a70:	9204      	str	r2, [sp, #16]
   if ( x2 < x1 )
 8002a72:	bfb4      	ite	lt
 8002a74:	4632      	movlt	r2, r6
 8002a76:	2200      	movge	r2, #0
   if ( gui->driver[DRIVER_FILL_FRAME].state & DRIVER_ENABLED )
 8002a78:	079c      	lsls	r4, r3, #30
   if ( x2 < x1 )
 8002a7a:	9205      	str	r2, [sp, #20]
   if ( gui->driver[DRIVER_FILL_FRAME].state & DRIVER_ENABLED )
 8002a7c:	f100 80ba 	bmi.w	8002bf4 <UG_WindowResize+0x284>
      x2 = x1;
 8002a80:	f04f 0b00 	mov.w	fp, #0
 8002a84:	9606      	str	r6, [sp, #24]
 8002a86:	f8cd 801c 	str.w	r8, [sp, #28]
 8002a8a:	465f      	mov	r7, fp
 8002a8c:	9e04      	ldr	r6, [sp, #16]
 8002a8e:	f8dd 8014 	ldr.w	r8, [sp, #20]
 8002a92:	4644      	mov	r4, r8
 8002a94:	e000      	b.n	8002a98 <UG_WindowResize+0x128>
 8002a96:	6829      	ldr	r1, [r5, #0]
         gui->pset(n,m,c);
 8002a98:	4620      	mov	r0, r4
 8002a9a:	3401      	adds	r4, #1
 8002a9c:	680b      	ldr	r3, [r1, #0]
 8002a9e:	464a      	mov	r2, r9
 8002aa0:	b224      	sxth	r4, r4
 8002aa2:	4639      	mov	r1, r7
 8002aa4:	4798      	blx	r3
      for( n=x1; n<=x2; n++ )
 8002aa6:	45a2      	cmp	sl, r4
 8002aa8:	daf5      	bge.n	8002a96 <UG_WindowResize+0x126>
 8002aaa:	f10b 0b01 	add.w	fp, fp, #1
   for( m=y1; m<=y2; m++ )
 8002aae:	fa0f f78b 	sxth.w	r7, fp
 8002ab2:	42be      	cmp	r6, r7
 8002ab4:	f2c0 8094 	blt.w	8002be0 <UG_WindowResize+0x270>
 8002ab8:	6829      	ldr	r1, [r5, #0]
 8002aba:	e7ea      	b.n	8002a92 <UG_WindowResize+0x122>
         if ( !(pos > xmax) ) UG_FillFrame(pos, wnd->ys,xmax,wnd->ye,gui->desktop_color);
 8002abc:	f9b3 a010 	ldrsh.w	sl, [r3, #16]
 8002ac0:	f9b3 7014 	ldrsh.w	r7, [r3, #20]
 8002ac4:	682a      	ldr	r2, [r5, #0]
   if ( y2 < y1 )
 8002ac6:	45ba      	cmp	sl, r7
         if ( !(pos > xmax) ) UG_FillFrame(pos, wnd->ys,xmax,wnd->ye,gui->desktop_color);
 8002ac8:	f8b2 8046 	ldrh.w	r8, [r2, #70]	; 0x46
   if ( y2 < y1 )
 8002acc:	dc02      	bgt.n	8002ad4 <UG_WindowResize+0x164>
 8002ace:	463b      	mov	r3, r7
 8002ad0:	4657      	mov	r7, sl
 8002ad2:	469a      	mov	sl, r3
   if ( gui->driver[DRIVER_FILL_FRAME].state & DRIVER_ENABLED )
 8002ad4:	f892 3058 	ldrb.w	r3, [r2, #88]	; 0x58
 8002ad8:	079b      	lsls	r3, r3, #30
 8002ada:	d411      	bmi.n	8002b00 <UG_WindowResize+0x190>
      x2 = x1;
 8002adc:	464c      	mov	r4, r9
 8002ade:	e000      	b.n	8002ae2 <UG_WindowResize+0x172>
 8002ae0:	682a      	ldr	r2, [r5, #0]
         gui->pset(n,m,c);
 8002ae2:	4620      	mov	r0, r4
 8002ae4:	3401      	adds	r4, #1
 8002ae6:	6813      	ldr	r3, [r2, #0]
 8002ae8:	4639      	mov	r1, r7
 8002aea:	b224      	sxth	r4, r4
 8002aec:	4642      	mov	r2, r8
 8002aee:	4798      	blx	r3
      for( n=x1; n<=x2; n++ )
 8002af0:	42a6      	cmp	r6, r4
 8002af2:	daf5      	bge.n	8002ae0 <UG_WindowResize+0x170>
 8002af4:	3701      	adds	r7, #1
 8002af6:	b23f      	sxth	r7, r7
   for( m=y1; m<=y2; m++ )
 8002af8:	45ba      	cmp	sl, r7
 8002afa:	db9c      	blt.n	8002a36 <UG_WindowResize+0xc6>
 8002afc:	682a      	ldr	r2, [r5, #0]
 8002afe:	e7ed      	b.n	8002adc <UG_WindowResize+0x16c>
      if( ((UG_RESULT(*)(UG_S16 x1, UG_S16 y1, UG_S16 x2, UG_S16 y2, UG_COLOR c))gui->driver[DRIVER_FILL_FRAME].driver)(x1,y1,x2,y2,c) == UG_RESULT_OK ) return;
 8002b00:	f8cd 8000 	str.w	r8, [sp]
 8002b04:	4653      	mov	r3, sl
 8002b06:	6d54      	ldr	r4, [r2, #84]	; 0x54
 8002b08:	4639      	mov	r1, r7
 8002b0a:	4632      	mov	r2, r6
 8002b0c:	4648      	mov	r0, r9
 8002b0e:	47a0      	blx	r4
 8002b10:	2800      	cmp	r0, #0
 8002b12:	d1f1      	bne.n	8002af8 <UG_WindowResize+0x188>
 8002b14:	e78f      	b.n	8002a36 <UG_WindowResize+0xc6>
         if ( wnd->xs ) UG_FillFrame(0, wnd->ys, wnd->xs-1,wnd->ye,gui->desktop_color);
 8002b16:	3b01      	subs	r3, #1
 8002b18:	9803      	ldr	r0, [sp, #12]
 8002b1a:	682a      	ldr	r2, [r5, #0]
 8002b1c:	fa0f fa83 	sxth.w	sl, r3
 8002b20:	f9b0 b010 	ldrsh.w	fp, [r0, #16]
 8002b24:	f8b2 8046 	ldrh.w	r8, [r2, #70]	; 0x46
   if ( x2 < x1 )
 8002b28:	f1ba 0f00 	cmp.w	sl, #0
         if ( wnd->xs ) UG_FillFrame(0, wnd->ys, wnd->xs-1,wnd->ye,gui->desktop_color);
 8002b2c:	f9b0 7014 	ldrsh.w	r7, [r0, #20]
   if ( x2 < x1 )
 8002b30:	db5d      	blt.n	8002bee <UG_WindowResize+0x27e>
 8002b32:	46d1      	mov	r9, sl
 8002b34:	f04f 0a00 	mov.w	sl, #0
   if ( y2 < y1 )
 8002b38:	45bb      	cmp	fp, r7
 8002b3a:	dc02      	bgt.n	8002b42 <UG_WindowResize+0x1d2>
 8002b3c:	463b      	mov	r3, r7
 8002b3e:	465f      	mov	r7, fp
 8002b40:	469b      	mov	fp, r3
   if ( gui->driver[DRIVER_FILL_FRAME].state & DRIVER_ENABLED )
 8002b42:	f892 3058 	ldrb.w	r3, [r2, #88]	; 0x58
 8002b46:	0799      	lsls	r1, r3, #30
 8002b48:	d412      	bmi.n	8002b70 <UG_WindowResize+0x200>
      x2 = x1;
 8002b4a:	4654      	mov	r4, sl
 8002b4c:	e000      	b.n	8002b50 <UG_WindowResize+0x1e0>
 8002b4e:	682a      	ldr	r2, [r5, #0]
         gui->pset(n,m,c);
 8002b50:	4620      	mov	r0, r4
 8002b52:	3401      	adds	r4, #1
 8002b54:	6813      	ldr	r3, [r2, #0]
 8002b56:	4639      	mov	r1, r7
 8002b58:	b224      	sxth	r4, r4
 8002b5a:	4642      	mov	r2, r8
 8002b5c:	4798      	blx	r3
      for( n=x1; n<=x2; n++ )
 8002b5e:	45a1      	cmp	r9, r4
 8002b60:	daf5      	bge.n	8002b4e <UG_WindowResize+0x1de>
 8002b62:	3701      	adds	r7, #1
 8002b64:	b23f      	sxth	r7, r7
   for( m=y1; m<=y2; m++ )
 8002b66:	45bb      	cmp	fp, r7
 8002b68:	f6ff af5c 	blt.w	8002a24 <UG_WindowResize+0xb4>
 8002b6c:	682a      	ldr	r2, [r5, #0]
 8002b6e:	e7ec      	b.n	8002b4a <UG_WindowResize+0x1da>
      if( ((UG_RESULT(*)(UG_S16 x1, UG_S16 y1, UG_S16 x2, UG_S16 y2, UG_COLOR c))gui->driver[DRIVER_FILL_FRAME].driver)(x1,y1,x2,y2,c) == UG_RESULT_OK ) return;
 8002b70:	f8cd 8000 	str.w	r8, [sp]
 8002b74:	465b      	mov	r3, fp
 8002b76:	6d54      	ldr	r4, [r2, #84]	; 0x54
 8002b78:	4639      	mov	r1, r7
 8002b7a:	464a      	mov	r2, r9
 8002b7c:	4650      	mov	r0, sl
 8002b7e:	47a0      	blx	r4
 8002b80:	2800      	cmp	r0, #0
 8002b82:	d1f0      	bne.n	8002b66 <UG_WindowResize+0x1f6>
 8002b84:	e74e      	b.n	8002a24 <UG_WindowResize+0xb4>
         if ( !(pos > ymax) ) UG_FillFrame(0, pos, xmax,ymax,gui->desktop_color);
 8002b86:	682a      	ldr	r2, [r5, #0]
   if ( x2 < x1 )
 8002b88:	2e00      	cmp	r6, #0
   if ( gui->driver[DRIVER_FILL_FRAME].state & DRIVER_ENABLED )
 8002b8a:	f892 3058 	ldrb.w	r3, [r2, #88]	; 0x58
   if ( x2 < x1 )
 8002b8e:	bfad      	iteet	ge
 8002b90:	46b2      	movge	sl, r6
 8002b92:	f04f 0a00 	movlt.w	sl, #0
 8002b96:	46b3      	movlt	fp, r6
 8002b98:	f04f 0b00 	movge.w	fp, #0
   if ( gui->driver[DRIVER_FILL_FRAME].state & DRIVER_ENABLED )
 8002b9c:	0798      	lsls	r0, r3, #30
         if ( !(pos > ymax) ) UG_FillFrame(0, pos, xmax,ymax,gui->desktop_color);
 8002b9e:	f8b2 9046 	ldrh.w	r9, [r2, #70]	; 0x46
   if ( gui->driver[DRIVER_FILL_FRAME].state & DRIVER_ENABLED )
 8002ba2:	d412      	bmi.n	8002bca <UG_WindowResize+0x25a>
      x2 = x1;
 8002ba4:	465c      	mov	r4, fp
 8002ba6:	e000      	b.n	8002baa <UG_WindowResize+0x23a>
 8002ba8:	682a      	ldr	r2, [r5, #0]
         gui->pset(n,m,c);
 8002baa:	4620      	mov	r0, r4
 8002bac:	3401      	adds	r4, #1
 8002bae:	6813      	ldr	r3, [r2, #0]
 8002bb0:	4639      	mov	r1, r7
 8002bb2:	b224      	sxth	r4, r4
 8002bb4:	464a      	mov	r2, r9
 8002bb6:	4798      	blx	r3
      for( n=x1; n<=x2; n++ )
 8002bb8:	45a2      	cmp	sl, r4
 8002bba:	daf5      	bge.n	8002ba8 <UG_WindowResize+0x238>
 8002bbc:	3701      	adds	r7, #1
 8002bbe:	b23f      	sxth	r7, r7
   for( m=y1; m<=y2; m++ )
 8002bc0:	45b8      	cmp	r8, r7
 8002bc2:	f6ff af2a 	blt.w	8002a1a <UG_WindowResize+0xaa>
 8002bc6:	682a      	ldr	r2, [r5, #0]
 8002bc8:	e7ec      	b.n	8002ba4 <UG_WindowResize+0x234>
      if( ((UG_RESULT(*)(UG_S16 x1, UG_S16 y1, UG_S16 x2, UG_S16 y2, UG_COLOR c))gui->driver[DRIVER_FILL_FRAME].driver)(x1,y1,x2,y2,c) == UG_RESULT_OK ) return;
 8002bca:	f8cd 9000 	str.w	r9, [sp]
 8002bce:	4643      	mov	r3, r8
 8002bd0:	6d54      	ldr	r4, [r2, #84]	; 0x54
 8002bd2:	4639      	mov	r1, r7
 8002bd4:	4652      	mov	r2, sl
 8002bd6:	4658      	mov	r0, fp
 8002bd8:	47a0      	blx	r4
 8002bda:	2800      	cmp	r0, #0
 8002bdc:	d1f3      	bne.n	8002bc6 <UG_WindowResize+0x256>
 8002bde:	e71c      	b.n	8002a1a <UG_WindowResize+0xaa>
 8002be0:	9e06      	ldr	r6, [sp, #24]
 8002be2:	f8dd 801c 	ldr.w	r8, [sp, #28]
 8002be6:	9b03      	ldr	r3, [sp, #12]
 8002be8:	f8b3 a014 	ldrh.w	sl, [r3, #20]
 8002bec:	e70f      	b.n	8002a0e <UG_WindowResize+0x9e>
      x2 = x1;
 8002bee:	f04f 0900 	mov.w	r9, #0
 8002bf2:	e7a1      	b.n	8002b38 <UG_WindowResize+0x1c8>
 8002bf4:	4610      	mov	r0, r2
      if( ((UG_RESULT(*)(UG_S16 x1, UG_S16 y1, UG_S16 x2, UG_S16 y2, UG_COLOR c))gui->driver[DRIVER_FILL_FRAME].driver)(x1,y1,x2,y2,c) == UG_RESULT_OK ) return;
 8002bf6:	f8cd 9000 	str.w	r9, [sp]
 8002bfa:	9b04      	ldr	r3, [sp, #16]
 8002bfc:	4652      	mov	r2, sl
 8002bfe:	6d4c      	ldr	r4, [r1, #84]	; 0x54
 8002c00:	2100      	movs	r1, #0
 8002c02:	47a0      	blx	r4
 8002c04:	2800      	cmp	r0, #0
 8002c06:	d0ee      	beq.n	8002be6 <UG_WindowResize+0x276>
 8002c08:	6829      	ldr	r1, [r5, #0]
 8002c0a:	e739      	b.n	8002a80 <UG_WindowResize+0x110>
 8002c0c:	2000003c 	.word	0x2000003c

08002c10 <UG_WindowSetStyle>:
   if ( (wnd != NULL) && (wnd->state & WND_STATE_VALID) )
 8002c10:	4603      	mov	r3, r0
 8002c12:	b1b8      	cbz	r0, 8002c44 <UG_WindowSetStyle+0x34>
 8002c14:	7a00      	ldrb	r0, [r0, #8]
 8002c16:	0782      	lsls	r2, r0, #30
 8002c18:	d514      	bpl.n	8002c44 <UG_WindowSetStyle+0x34>
         wnd->style |= WND_STYLE_3D;
 8002c1a:	7d9a      	ldrb	r2, [r3, #22]
      if ( style & WND_STYLE_3D )
 8002c1c:	f011 0f01 	tst.w	r1, #1
         wnd->style |= WND_STYLE_3D;
 8002c20:	bf14      	ite	ne
 8002c22:	f042 0201 	orrne.w	r2, r2, #1
         wnd->style &= ~WND_STYLE_3D;
 8002c26:	f002 02fe 	andeq.w	r2, r2, #254	; 0xfe
      if ( style & WND_STYLE_SHOW_TITLE )
 8002c2a:	0789      	lsls	r1, r1, #30
      wnd->state |= WND_STATE_UPDATE;
 8002c2c:	f040 0120 	orr.w	r1, r0, #32
      return UG_RESULT_OK;
 8002c30:	f04f 0000 	mov.w	r0, #0
         wnd->style |= WND_STYLE_SHOW_TITLE;
 8002c34:	bf4c      	ite	mi
 8002c36:	f042 0202 	orrmi.w	r2, r2, #2
         wnd->style &= ~WND_STYLE_SHOW_TITLE;
 8002c3a:	f002 02fd 	andpl.w	r2, r2, #253	; 0xfd
      wnd->state |= WND_STATE_UPDATE;
 8002c3e:	7219      	strb	r1, [r3, #8]
 8002c40:	759a      	strb	r2, [r3, #22]
      return UG_RESULT_OK;
 8002c42:	4770      	bx	lr
   return UG_RESULT_FAIL;
 8002c44:	f04f 30ff 	mov.w	r0, #4294967295
}
 8002c48:	4770      	bx	lr
 8002c4a:	bf00      	nop

08002c4c <_UG_WindowDrawTitle>:
   if ( (wnd != NULL) && (wnd->state & WND_STATE_VALID) )
 8002c4c:	2800      	cmp	r0, #0
 8002c4e:	f000 80a8 	beq.w	8002da2 <_UG_WindowDrawTitle+0x156>
 8002c52:	7a03      	ldrb	r3, [r0, #8]
 8002c54:	079b      	lsls	r3, r3, #30
 8002c56:	f140 80a4 	bpl.w	8002da2 <_UG_WindowDrawTitle+0x156>
      ys = wnd->ys;
 8002c5a:	f9b0 1010 	ldrsh.w	r1, [r0, #16]
      xs = wnd->xs;
 8002c5e:	f9b0 200e 	ldrsh.w	r2, [r0, #14]
{
 8002c62:	e92d 4ff0 	stmdb	sp!, {r4, r5, r6, r7, r8, r9, sl, fp, lr}
 8002c66:	b08f      	sub	sp, #60	; 0x3c
      if ( wnd->style & WND_STYLE_3D )
 8002c68:	7d83      	ldrb	r3, [r0, #22]
      ys = wnd->ys;
 8002c6a:	460c      	mov	r4, r1
 8002c6c:	9102      	str	r1, [sp, #8]
      xe = wnd->xe;
 8002c6e:	f9b0 1012 	ldrsh.w	r1, [r0, #18]
      xs = wnd->xs;
 8002c72:	9203      	str	r2, [sp, #12]
      xe = wnd->xe;
 8002c74:	460d      	mov	r5, r1
 8002c76:	9104      	str	r1, [sp, #16]
      if ( wnd->style & WND_STYLE_3D )
 8002c78:	07d9      	lsls	r1, r3, #31
 8002c7a:	d472      	bmi.n	8002d62 <_UG_WindowDrawTitle+0x116>
      if ( wnd == gui->active_window )
 8002c7c:	4f4a      	ldr	r7, [pc, #296]	; (8002da8 <_UG_WindowDrawTitle+0x15c>)
 8002c7e:	683a      	ldr	r2, [r7, #0]
 8002c80:	6953      	ldr	r3, [r2, #20]
 8002c82:	4298      	cmp	r0, r3
 8002c84:	d07d      	beq.n	8002d82 <_UG_WindowDrawTitle+0x136>
         txt.bc = wnd->title.ibc;
 8002c86:	8d45      	ldrh	r5, [r0, #42]	; 0x2a
         txt.fc = wnd->title.ifc;
 8002c88:	8d03      	ldrh	r3, [r0, #40]	; 0x28
      UG_FillFrame(xs,ys,xe,ys+wnd->title.height-1,txt.bc);
 8002c8a:	f890 902c 	ldrb.w	r9, [r0, #44]	; 0x2c
 8002c8e:	f8bd 1008 	ldrh.w	r1, [sp, #8]
 8002c92:	f109 39ff 	add.w	r9, r9, #4294967295
   if ( x2 < x1 )
 8002c96:	9e03      	ldr	r6, [sp, #12]
 8002c98:	9c04      	ldr	r4, [sp, #16]
      UG_FillFrame(xs,ys,xe,ys+wnd->title.height-1,txt.bc);
 8002c9a:	4489      	add	r9, r1
 8002c9c:	9105      	str	r1, [sp, #20]
   if ( x2 < x1 )
 8002c9e:	42a6      	cmp	r6, r4
 8002ca0:	f8ad 302c 	strh.w	r3, [sp, #44]	; 0x2c
 8002ca4:	f8ad 502e 	strh.w	r5, [sp, #46]	; 0x2e
      UG_FillFrame(xs,ys,xe,ys+wnd->title.height-1,txt.bc);
 8002ca8:	fa0f f989 	sxth.w	r9, r9
   if ( x2 < x1 )
 8002cac:	dc57      	bgt.n	8002d5e <_UG_WindowDrawTitle+0x112>
 8002cae:	4626      	mov	r6, r4
 8002cb0:	f8dd a00c 	ldr.w	sl, [sp, #12]
   if ( y2 < y1 )
 8002cb4:	9c02      	ldr	r4, [sp, #8]
 8002cb6:	454c      	cmp	r4, r9
 8002cb8:	dd02      	ble.n	8002cc0 <_UG_WindowDrawTitle+0x74>
 8002cba:	464c      	mov	r4, r9
 8002cbc:	f8dd 9008 	ldr.w	r9, [sp, #8]
   if ( gui->driver[DRIVER_FILL_FRAME].state & DRIVER_ENABLED )
 8002cc0:	f892 3058 	ldrb.w	r3, [r2, #88]	; 0x58
 8002cc4:	4680      	mov	r8, r0
 8002cc6:	079b      	lsls	r3, r3, #30
 8002cc8:	d45e      	bmi.n	8002d88 <_UG_WindowDrawTitle+0x13c>
 8002cca:	45b2      	cmp	sl, r6
 8002ccc:	dc10      	bgt.n	8002cf0 <_UG_WindowDrawTitle+0xa4>
   if ( x2 < x1 )
 8002cce:	46d3      	mov	fp, sl
         gui->pset(n,m,c);
 8002cd0:	4658      	mov	r0, fp
 8002cd2:	f10b 0b01 	add.w	fp, fp, #1
 8002cd6:	683b      	ldr	r3, [r7, #0]
 8002cd8:	462a      	mov	r2, r5
 8002cda:	fa0f fb8b 	sxth.w	fp, fp
 8002cde:	4621      	mov	r1, r4
 8002ce0:	681b      	ldr	r3, [r3, #0]
 8002ce2:	4798      	blx	r3
      for( n=x1; n<=x2; n++ )
 8002ce4:	45b3      	cmp	fp, r6
 8002ce6:	ddf3      	ble.n	8002cd0 <_UG_WindowDrawTitle+0x84>
 8002ce8:	3401      	adds	r4, #1
 8002cea:	b224      	sxth	r4, r4
   for( m=y1; m<=y2; m++ )
 8002cec:	45a1      	cmp	r9, r4
 8002cee:	daee      	bge.n	8002cce <_UG_WindowDrawTitle+0x82>
      txt.a.ys = ys;
 8002cf0:	f8bd 2008 	ldrh.w	r2, [sp, #8]
      _UG_PutText( &txt );
 8002cf4:	a807      	add	r0, sp, #28
      txt.a.ye = ys+wnd->title.height-1;
 8002cf6:	f898 302c 	ldrb.w	r3, [r8, #44]	; 0x2c
 8002cfa:	9e05      	ldr	r6, [sp, #20]
      txt.a.ys = ys;
 8002cfc:	f8ad 2026 	strh.w	r2, [sp, #38]	; 0x26
      txt.a.ye = ys+wnd->title.height-1;
 8002d00:	3b01      	subs	r3, #1
      txt.str = wnd->title.str;
 8002d02:	f8d8 2018 	ldr.w	r2, [r8, #24]
      txt.a.xs = xs+3;
 8002d06:	9d03      	ldr	r5, [sp, #12]
      txt.a.ye = ys+wnd->title.height-1;
 8002d08:	4433      	add	r3, r6
      txt.str = wnd->title.str;
 8002d0a:	9207      	str	r2, [sp, #28]
      txt.font = wnd->title.font;
 8002d0c:	f8d8 201c 	ldr.w	r2, [r8, #28]
      txt.a.xs = xs+3;
 8002d10:	1cec      	adds	r4, r5, #3
      txt.a.xe = xe;
 8002d12:	9f04      	ldr	r7, [sp, #16]
      txt.align = wnd->title.align;
 8002d14:	f898 1022 	ldrb.w	r1, [r8, #34]	; 0x22
      txt.a.ye = ys+wnd->title.height-1;
 8002d18:	f8ad 302a 	strh.w	r3, [sp, #42]	; 0x2a
      txt.font = wnd->title.font;
 8002d1c:	9208      	str	r2, [sp, #32]
      txt.v_space = wnd->title.v_space;
 8002d1e:	f998 3021 	ldrsb.w	r3, [r8, #33]	; 0x21
      txt.h_space = wnd->title.h_space;
 8002d22:	f998 2020 	ldrsb.w	r2, [r8, #32]
      txt.align = wnd->title.align;
 8002d26:	f88d 1030 	strb.w	r1, [sp, #48]	; 0x30
      txt.h_space = wnd->title.h_space;
 8002d2a:	f8ad 2032 	strh.w	r2, [sp, #50]	; 0x32
      txt.v_space = wnd->title.v_space;
 8002d2e:	f8ad 3034 	strh.w	r3, [sp, #52]	; 0x34
      txt.a.xe = xe;
 8002d32:	f8ad 7028 	strh.w	r7, [sp, #40]	; 0x28
      txt.a.xs = xs+3;
 8002d36:	f8ad 4024 	strh.w	r4, [sp, #36]	; 0x24
      _UG_PutText( &txt );
 8002d3a:	f7ff fa0d 	bl	8002158 <_UG_PutText>
      UG_DrawLine(xs,ys+wnd->title.height,xe,ys+wnd->title.height,pal_window[11]);
 8002d3e:	f898 302c 	ldrb.w	r3, [r8, #44]	; 0x2c
 8002d42:	f649 5113 	movw	r1, #40211	; 0x9d13
 8002d46:	4628      	mov	r0, r5
 8002d48:	463a      	mov	r2, r7
 8002d4a:	4433      	add	r3, r6
 8002d4c:	9100      	str	r1, [sp, #0]
 8002d4e:	b21b      	sxth	r3, r3
 8002d50:	4619      	mov	r1, r3
 8002d52:	f7fe ff57 	bl	8001c04 <UG_DrawLine>
      return UG_RESULT_OK;
 8002d56:	2000      	movs	r0, #0
}
 8002d58:	b00f      	add	sp, #60	; 0x3c
 8002d5a:	e8bd 8ff0 	ldmia.w	sp!, {r4, r5, r6, r7, r8, r9, sl, fp, pc}
   if ( x2 < x1 )
 8002d5e:	46a2      	mov	sl, r4
 8002d60:	e7a8      	b.n	8002cb4 <_UG_WindowDrawTitle+0x68>
         xs+=3;
 8002d62:	4611      	mov	r1, r2
         ys+=3;
 8002d64:	4622      	mov	r2, r4
         xe-=3;
 8002d66:	1eeb      	subs	r3, r5, #3
      if ( wnd == gui->active_window )
 8002d68:	4f0f      	ldr	r7, [pc, #60]	; (8002da8 <_UG_WindowDrawTitle+0x15c>)
         ys+=3;
 8002d6a:	3203      	adds	r2, #3
         xs+=3;
 8002d6c:	3103      	adds	r1, #3
         xe-=3;
 8002d6e:	b21b      	sxth	r3, r3
         ys+=3;
 8002d70:	b212      	sxth	r2, r2
         xe-=3;
 8002d72:	9304      	str	r3, [sp, #16]
         xs+=3;
 8002d74:	b209      	sxth	r1, r1
         ys+=3;
 8002d76:	9202      	str	r2, [sp, #8]
      if ( wnd == gui->active_window )
 8002d78:	683a      	ldr	r2, [r7, #0]
         xs+=3;
 8002d7a:	9103      	str	r1, [sp, #12]
      if ( wnd == gui->active_window )
 8002d7c:	6953      	ldr	r3, [r2, #20]
 8002d7e:	4298      	cmp	r0, r3
 8002d80:	d181      	bne.n	8002c86 <_UG_WindowDrawTitle+0x3a>
         txt.bc = wnd->title.bc;
 8002d82:	8cc5      	ldrh	r5, [r0, #38]	; 0x26
         txt.fc = wnd->title.fc;
 8002d84:	8c83      	ldrh	r3, [r0, #36]	; 0x24
 8002d86:	e780      	b.n	8002c8a <_UG_WindowDrawTitle+0x3e>
      if( ((UG_RESULT(*)(UG_S16 x1, UG_S16 y1, UG_S16 x2, UG_S16 y2, UG_COLOR c))gui->driver[DRIVER_FILL_FRAME].driver)(x1,y1,x2,y2,c) == UG_RESULT_OK ) return;
 8002d88:	9500      	str	r5, [sp, #0]
 8002d8a:	464b      	mov	r3, r9
 8002d8c:	f8d2 b054 	ldr.w	fp, [r2, #84]	; 0x54
 8002d90:	4621      	mov	r1, r4
 8002d92:	4632      	mov	r2, r6
 8002d94:	4650      	mov	r0, sl
 8002d96:	47d8      	blx	fp
 8002d98:	2800      	cmp	r0, #0
 8002d9a:	d0a9      	beq.n	8002cf0 <_UG_WindowDrawTitle+0xa4>
   for( m=y1; m<=y2; m++ )
 8002d9c:	454c      	cmp	r4, r9
 8002d9e:	dd94      	ble.n	8002cca <_UG_WindowDrawTitle+0x7e>
 8002da0:	e7a6      	b.n	8002cf0 <_UG_WindowDrawTitle+0xa4>
   return UG_RESULT_FAIL;
 8002da2:	f04f 30ff 	mov.w	r0, #4294967295
 8002da6:	4770      	bx	lr
 8002da8:	2000003c 	.word	0x2000003c

08002dac <_UG_WindowUpdate>:
{
 8002dac:	e92d 4ff0 	stmdb	sp!, {r4, r5, r6, r7, r8, r9, sl, fp, lr}
   wnd->state &= ~WND_STATE_UPDATE;
 8002db0:	7a03      	ldrb	r3, [r0, #8]
{
 8002db2:	b083      	sub	sp, #12
   xs = wnd->xs;
 8002db4:	f9b0 600e 	ldrsh.w	r6, [r0, #14]
   wnd->state &= ~WND_STATE_UPDATE;
 8002db8:	f023 0220 	bic.w	r2, r3, #32
   if ( wnd->state & WND_STATE_VISIBLE )
 8002dbc:	071d      	lsls	r5, r3, #28
   ys = wnd->ys;
 8002dbe:	f9b0 a010 	ldrsh.w	sl, [r0, #16]
   xe = wnd->xe;
 8002dc2:	f9b0 8012 	ldrsh.w	r8, [r0, #18]
   wnd->state &= ~WND_STATE_UPDATE;
 8002dc6:	7202      	strb	r2, [r0, #8]
   ye = wnd->ye;
 8002dc8:	f9b0 4014 	ldrsh.w	r4, [r0, #20]
   if ( wnd->state & WND_STATE_VISIBLE )
 8002dcc:	d55e      	bpl.n	8002e8c <_UG_WindowUpdate+0xe0>
      if ( (wnd->style & WND_STYLE_3D) && !(wnd->state & WND_STATE_REDRAW_TITLE) )
 8002dce:	7d82      	ldrb	r2, [r0, #22]
 8002dd0:	4681      	mov	r9, r0
 8002dd2:	07d1      	lsls	r1, r2, #31
 8002dd4:	d502      	bpl.n	8002ddc <_UG_WindowUpdate+0x30>
 8002dd6:	065f      	lsls	r7, r3, #25
 8002dd8:	f140 808c 	bpl.w	8002ef4 <_UG_WindowUpdate+0x148>
      if ( wnd->style & WND_STYLE_SHOW_TITLE )
 8002ddc:	0795      	lsls	r5, r2, #30
 8002dde:	d50d      	bpl.n	8002dfc <_UG_WindowUpdate+0x50>
         _UG_WindowDrawTitle( wnd );
 8002de0:	4648      	mov	r0, r9
 8002de2:	f7ff ff33 	bl	8002c4c <_UG_WindowDrawTitle>
         if ( wnd->state & WND_STATE_REDRAW_TITLE )
 8002de6:	f899 3008 	ldrb.w	r3, [r9, #8]
 8002dea:	0658      	lsls	r0, r3, #25
 8002dec:	f100 809c 	bmi.w	8002f28 <_UG_WindowUpdate+0x17c>
         ys += wnd->title.height+1;
 8002df0:	f899 302c 	ldrb.w	r3, [r9, #44]	; 0x2c
 8002df4:	3301      	adds	r3, #1
 8002df6:	449a      	add	sl, r3
 8002df8:	fa0f fa8a 	sxth.w	sl, sl
   if ( x2 < x1 )
 8002dfc:	4546      	cmp	r6, r8
      UG_FillFrame(xs,ys,xe,ye,wnd->bc);
 8002dfe:	f8b9 700c 	ldrh.w	r7, [r9, #12]
   if ( x2 < x1 )
 8002e02:	dd3d      	ble.n	8002e80 <_UG_WindowUpdate+0xd4>
   if ( y2 < y1 )
 8002e04:	45a2      	cmp	sl, r4
 8002e06:	dd37      	ble.n	8002e78 <_UG_WindowUpdate+0xcc>
   if ( gui->driver[DRIVER_FILL_FRAME].state & DRIVER_ENABLED )
 8002e08:	4d51      	ldr	r5, [pc, #324]	; (8002f50 <_UG_WindowUpdate+0x1a4>)
 8002e0a:	682a      	ldr	r2, [r5, #0]
 8002e0c:	f892 3058 	ldrb.w	r3, [r2, #88]	; 0x58
 8002e10:	0799      	lsls	r1, r3, #30
 8002e12:	d460      	bmi.n	8002ed6 <_UG_WindowUpdate+0x12a>
 8002e14:	45b0      	cmp	r8, r6
 8002e16:	dc10      	bgt.n	8002e3a <_UG_WindowUpdate+0x8e>
   if ( x2 < x1 )
 8002e18:	46c3      	mov	fp, r8
         gui->pset(n,m,c);
 8002e1a:	4658      	mov	r0, fp
 8002e1c:	f10b 0b01 	add.w	fp, fp, #1
 8002e20:	682b      	ldr	r3, [r5, #0]
 8002e22:	463a      	mov	r2, r7
 8002e24:	fa0f fb8b 	sxth.w	fp, fp
 8002e28:	4621      	mov	r1, r4
 8002e2a:	681b      	ldr	r3, [r3, #0]
 8002e2c:	4798      	blx	r3
      for( n=x1; n<=x2; n++ )
 8002e2e:	455e      	cmp	r6, fp
 8002e30:	daf3      	bge.n	8002e1a <_UG_WindowUpdate+0x6e>
 8002e32:	3401      	adds	r4, #1
 8002e34:	b224      	sxth	r4, r4
   for( m=y1; m<=y2; m++ )
 8002e36:	45a2      	cmp	sl, r4
 8002e38:	daee      	bge.n	8002e18 <_UG_WindowUpdate+0x6c>
      objcnt = wnd->objcnt;
 8002e3a:	f899 0000 	ldrb.w	r0, [r9]
      for(i=0; i<objcnt; i++)
 8002e3e:	b1c0      	cbz	r0, 8002e72 <_UG_WindowUpdate+0xc6>
 8002e40:	3801      	subs	r0, #1
 8002e42:	f8d9 4004 	ldr.w	r4, [r9, #4]
 8002e46:	2300      	movs	r3, #0
 8002e48:	b280      	uxth	r0, r0
 8002e4a:	3001      	adds	r0, #1
 8002e4c:	0140      	lsls	r0, r0, #5
 8002e4e:	e002      	b.n	8002e56 <_UG_WindowUpdate+0xaa>
 8002e50:	3320      	adds	r3, #32
 8002e52:	4298      	cmp	r0, r3
 8002e54:	d00d      	beq.n	8002e72 <_UG_WindowUpdate+0xc6>
         if ( !(obj->state & OBJ_STATE_FREE) && (obj->state & OBJ_STATE_VALID) && (obj->state & OBJ_STATE_VISIBLE) ) obj->state |= (OBJ_STATE_UPDATE | OBJ_STATE_REDRAW);
 8002e56:	5ce2      	ldrb	r2, [r4, r3]
 8002e58:	f002 0103 	and.w	r1, r2, #3
 8002e5c:	2902      	cmp	r1, #2
 8002e5e:	d1f7      	bne.n	8002e50 <_UG_WindowUpdate+0xa4>
 8002e60:	f012 0f08 	tst.w	r2, #8
 8002e64:	f042 0260 	orr.w	r2, r2, #96	; 0x60
 8002e68:	bf18      	it	ne
 8002e6a:	54e2      	strbne	r2, [r4, r3]
 8002e6c:	3320      	adds	r3, #32
      for(i=0; i<objcnt; i++)
 8002e6e:	4298      	cmp	r0, r3
 8002e70:	d1f1      	bne.n	8002e56 <_UG_WindowUpdate+0xaa>
}
 8002e72:	b003      	add	sp, #12
 8002e74:	e8bd 8ff0 	ldmia.w	sp!, {r4, r5, r6, r7, r8, r9, sl, fp, pc}
   if ( y2 < y1 )
 8002e78:	4623      	mov	r3, r4
 8002e7a:	4654      	mov	r4, sl
 8002e7c:	469a      	mov	sl, r3
 8002e7e:	e7c3      	b.n	8002e08 <_UG_WindowUpdate+0x5c>
   if ( x2 < x1 )
 8002e80:	4643      	mov	r3, r8
   if ( y2 < y1 )
 8002e82:	45a2      	cmp	sl, r4
   if ( x2 < x1 )
 8002e84:	46b0      	mov	r8, r6
 8002e86:	461e      	mov	r6, r3
   if ( y2 < y1 )
 8002e88:	dcbe      	bgt.n	8002e08 <_UG_WindowUpdate+0x5c>
 8002e8a:	e7f5      	b.n	8002e78 <_UG_WindowUpdate+0xcc>
      UG_FillFrame(wnd->xs,wnd->xs,wnd->xe,wnd->ye,gui->desktop_color);
 8002e8c:	4d30      	ldr	r5, [pc, #192]	; (8002f50 <_UG_WindowUpdate+0x1a4>)
   if ( x2 < x1 )
 8002e8e:	4546      	cmp	r6, r8
      UG_FillFrame(wnd->xs,wnd->xs,wnd->xe,wnd->ye,gui->desktop_color);
 8002e90:	682a      	ldr	r2, [r5, #0]
 8002e92:	f8b2 a046 	ldrh.w	sl, [r2, #70]	; 0x46
   if ( x2 < x1 )
 8002e96:	dc2b      	bgt.n	8002ef0 <_UG_WindowUpdate+0x144>
 8002e98:	46c1      	mov	r9, r8
 8002e9a:	46b0      	mov	r8, r6
   if ( y2 < y1 )
 8002e9c:	42a6      	cmp	r6, r4
 8002e9e:	dc02      	bgt.n	8002ea6 <_UG_WindowUpdate+0xfa>
 8002ea0:	4623      	mov	r3, r4
 8002ea2:	4634      	mov	r4, r6
 8002ea4:	461e      	mov	r6, r3
   if ( gui->driver[DRIVER_FILL_FRAME].state & DRIVER_ENABLED )
 8002ea6:	f892 3058 	ldrb.w	r3, [r2, #88]	; 0x58
 8002eaa:	079b      	lsls	r3, r3, #30
 8002eac:	d443      	bmi.n	8002f36 <_UG_WindowUpdate+0x18a>
 8002eae:	45c8      	cmp	r8, r9
 8002eb0:	dcdf      	bgt.n	8002e72 <_UG_WindowUpdate+0xc6>
   if ( x2 < x1 )
 8002eb2:	4647      	mov	r7, r8
         gui->pset(n,m,c);
 8002eb4:	4638      	mov	r0, r7
 8002eb6:	3701      	adds	r7, #1
 8002eb8:	682b      	ldr	r3, [r5, #0]
 8002eba:	4652      	mov	r2, sl
 8002ebc:	b23f      	sxth	r7, r7
 8002ebe:	4621      	mov	r1, r4
 8002ec0:	681b      	ldr	r3, [r3, #0]
 8002ec2:	4798      	blx	r3
      for( n=x1; n<=x2; n++ )
 8002ec4:	45b9      	cmp	r9, r7
 8002ec6:	daf5      	bge.n	8002eb4 <_UG_WindowUpdate+0x108>
 8002ec8:	3401      	adds	r4, #1
 8002eca:	b224      	sxth	r4, r4
   for( m=y1; m<=y2; m++ )
 8002ecc:	42a6      	cmp	r6, r4
 8002ece:	daf0      	bge.n	8002eb2 <_UG_WindowUpdate+0x106>
}
 8002ed0:	b003      	add	sp, #12
 8002ed2:	e8bd 8ff0 	ldmia.w	sp!, {r4, r5, r6, r7, r8, r9, sl, fp, pc}
      if( ((UG_RESULT(*)(UG_S16 x1, UG_S16 y1, UG_S16 x2, UG_S16 y2, UG_COLOR c))gui->driver[DRIVER_FILL_FRAME].driver)(x1,y1,x2,y2,c) == UG_RESULT_OK ) return;
 8002ed6:	9700      	str	r7, [sp, #0]
 8002ed8:	4653      	mov	r3, sl
 8002eda:	f8d2 b054 	ldr.w	fp, [r2, #84]	; 0x54
 8002ede:	4621      	mov	r1, r4
 8002ee0:	4632      	mov	r2, r6
 8002ee2:	4640      	mov	r0, r8
 8002ee4:	47d8      	blx	fp
 8002ee6:	2800      	cmp	r0, #0
 8002ee8:	d0a7      	beq.n	8002e3a <_UG_WindowUpdate+0x8e>
   for( m=y1; m<=y2; m++ )
 8002eea:	45a2      	cmp	sl, r4
 8002eec:	da92      	bge.n	8002e14 <_UG_WindowUpdate+0x68>
 8002eee:	e7a4      	b.n	8002e3a <_UG_WindowUpdate+0x8e>
   if ( x2 < x1 )
 8002ef0:	46b1      	mov	r9, r6
 8002ef2:	e7d3      	b.n	8002e9c <_UG_WindowUpdate+0xf0>
         _UG_DrawObjectFrame(xs,ys,xe,ye,(UG_COLOR*)pal_window);
 8002ef4:	4817      	ldr	r0, [pc, #92]	; (8002f54 <_UG_WindowUpdate+0x1a8>)
 8002ef6:	4642      	mov	r2, r8
 8002ef8:	4623      	mov	r3, r4
 8002efa:	4651      	mov	r1, sl
 8002efc:	9000      	str	r0, [sp, #0]
 8002efe:	4630      	mov	r0, r6
 8002f00:	f7ff fa52 	bl	80023a8 <_UG_DrawObjectFrame>
 8002f04:	f899 2016 	ldrb.w	r2, [r9, #22]
         xs+=3;
 8002f08:	3603      	adds	r6, #3
         ys+=3;
 8002f0a:	f10a 0a03 	add.w	sl, sl, #3
         xe-=3;
 8002f0e:	f1a8 0803 	sub.w	r8, r8, #3
         ye-=3;
 8002f12:	3c03      	subs	r4, #3
      if ( wnd->style & WND_STYLE_SHOW_TITLE )
 8002f14:	0795      	lsls	r5, r2, #30
         xs+=3;
 8002f16:	b236      	sxth	r6, r6
         ys+=3;
 8002f18:	fa0f fa8a 	sxth.w	sl, sl
         xe-=3;
 8002f1c:	fa0f f888 	sxth.w	r8, r8
         ye-=3;
 8002f20:	b224      	sxth	r4, r4
      if ( wnd->style & WND_STYLE_SHOW_TITLE )
 8002f22:	f57f af6b 	bpl.w	8002dfc <_UG_WindowUpdate+0x50>
 8002f26:	e75b      	b.n	8002de0 <_UG_WindowUpdate+0x34>
            wnd->state &= ~WND_STATE_REDRAW_TITLE;
 8002f28:	f023 0340 	bic.w	r3, r3, #64	; 0x40
 8002f2c:	f889 3008 	strb.w	r3, [r9, #8]
}
 8002f30:	b003      	add	sp, #12
 8002f32:	e8bd 8ff0 	ldmia.w	sp!, {r4, r5, r6, r7, r8, r9, sl, fp, pc}
      if( ((UG_RESULT(*)(UG_S16 x1, UG_S16 y1, UG_S16 x2, UG_S16 y2, UG_COLOR c))gui->driver[DRIVER_FILL_FRAME].driver)(x1,y1,x2,y2,c) == UG_RESULT_OK ) return;
 8002f36:	f8cd a000 	str.w	sl, [sp]
 8002f3a:	4633      	mov	r3, r6
 8002f3c:	6d57      	ldr	r7, [r2, #84]	; 0x54
 8002f3e:	4621      	mov	r1, r4
 8002f40:	464a      	mov	r2, r9
 8002f42:	4640      	mov	r0, r8
 8002f44:	47b8      	blx	r7
 8002f46:	2800      	cmp	r0, #0
 8002f48:	d093      	beq.n	8002e72 <_UG_WindowUpdate+0xc6>
   for( m=y1; m<=y2; m++ )
 8002f4a:	42a6      	cmp	r6, r4
 8002f4c:	daaf      	bge.n	8002eae <_UG_WindowUpdate+0x102>
 8002f4e:	e790      	b.n	8002e72 <_UG_WindowUpdate+0xc6>
 8002f50:	2000003c 	.word	0x2000003c
 8002f54:	08003b50 	.word	0x08003b50

08002f58 <UG_Update>:
{
 8002f58:	e92d 43f0 	stmdb	sp!, {r4, r5, r6, r7, r8, r9, lr}
   if ( gui->state & UG_SATUS_WAIT_FOR_UPDATE ) gui->state &= ~UG_SATUS_WAIT_FOR_UPDATE;
 8002f5c:	4c54      	ldr	r4, [pc, #336]	; (80030b0 <UG_Update+0x158>)
{
 8002f5e:	b083      	sub	sp, #12
   if ( gui->state & UG_SATUS_WAIT_FOR_UPDATE ) gui->state &= ~UG_SATUS_WAIT_FOR_UPDATE;
 8002f60:	6823      	ldr	r3, [r4, #0]
 8002f62:	f893 2048 	ldrb.w	r2, [r3, #72]	; 0x48
 8002f66:	07d1      	lsls	r1, r2, #31
 8002f68:	d503      	bpl.n	8002f72 <UG_Update+0x1a>
 8002f6a:	f022 0201 	bic.w	r2, r2, #1
 8002f6e:	f883 2048 	strb.w	r2, [r3, #72]	; 0x48
   if ( gui->next_window != gui->active_window )
 8002f72:	691e      	ldr	r6, [r3, #16]
 8002f74:	6958      	ldr	r0, [r3, #20]
      if ( gui->next_window != NULL )
 8002f76:	4286      	cmp	r6, r0
 8002f78:	f000 8082 	beq.w	8003080 <UG_Update+0x128>
 8002f7c:	2e00      	cmp	r6, #0
 8002f7e:	d07f      	beq.n	8003080 <UG_Update+0x128>
         gui->last_window = gui->active_window;
 8002f80:	6198      	str	r0, [r3, #24]
         gui->active_window = gui->next_window;
 8002f82:	615e      	str	r6, [r3, #20]
         if ((gui->last_window != NULL) && (gui->last_window->style & WND_STYLE_SHOW_TITLE) && (gui->last_window->state & WND_STATE_VISIBLE) )
 8002f84:	b110      	cbz	r0, 8002f8c <UG_Update+0x34>
 8002f86:	7d83      	ldrb	r3, [r0, #22]
 8002f88:	079f      	lsls	r7, r3, #30
 8002f8a:	d40d      	bmi.n	8002fa8 <UG_Update+0x50>
         gui->active_window->state &= ~WND_STATE_REDRAW_TITLE;
 8002f8c:	7a33      	ldrb	r3, [r6, #8]
 8002f8e:	f023 0340 	bic.w	r3, r3, #64	; 0x40
         gui->active_window->state |= WND_STATE_UPDATE | WND_STATE_VISIBLE;
 8002f92:	f043 0328 	orr.w	r3, r3, #40	; 0x28
 8002f96:	7233      	strb	r3, [r6, #8]
      if ( wnd->state & WND_STATE_UPDATE )
 8002f98:	7a33      	ldrb	r3, [r6, #8]
 8002f9a:	069c      	lsls	r4, r3, #26
 8002f9c:	d476      	bmi.n	800308c <UG_Update+0x134>
      if ( wnd->state & WND_STATE_VISIBLE )
 8002f9e:	0718      	lsls	r0, r3, #28
 8002fa0:	d414      	bmi.n	8002fcc <UG_Update+0x74>
}
 8002fa2:	b003      	add	sp, #12
 8002fa4:	e8bd 83f0 	ldmia.w	sp!, {r4, r5, r6, r7, r8, r9, pc}
         if ((gui->last_window != NULL) && (gui->last_window->style & WND_STYLE_SHOW_TITLE) && (gui->last_window->state & WND_STATE_VISIBLE) )
 8002fa8:	7a03      	ldrb	r3, [r0, #8]
 8002faa:	071d      	lsls	r5, r3, #28
 8002fac:	d5ee      	bpl.n	8002f8c <UG_Update+0x34>
            if ( (gui->last_window->xs != gui->active_window->xs) || (gui->last_window->xe != gui->active_window->xe) || (gui->last_window->ys != gui->active_window->ys) || (gui->last_window->ye != gui->active_window->ye) )
 8002fae:	f9b0 200e 	ldrsh.w	r2, [r0, #14]
 8002fb2:	f9b6 300e 	ldrsh.w	r3, [r6, #14]
 8002fb6:	429a      	cmp	r2, r3
 8002fb8:	d103      	bne.n	8002fc2 <UG_Update+0x6a>
 8002fba:	6902      	ldr	r2, [r0, #16]
 8002fbc:	6933      	ldr	r3, [r6, #16]
 8002fbe:	429a      	cmp	r2, r3
 8002fc0:	d06e      	beq.n	80030a0 <UG_Update+0x148>
               _UG_WindowDrawTitle( gui->last_window );
 8002fc2:	f7ff fe43 	bl	8002c4c <_UG_WindowDrawTitle>
 8002fc6:	6823      	ldr	r3, [r4, #0]
 8002fc8:	695e      	ldr	r6, [r3, #20]
 8002fca:	e7df      	b.n	8002f8c <UG_Update+0x34>
         _UG_ProcessTouchData( wnd );
 8002fcc:	4630      	mov	r0, r6
 8002fce:	f7ff f987 	bl	80022e0 <_UG_ProcessTouchData>
   objcnt = wnd->objcnt;
 8002fd2:	7833      	ldrb	r3, [r6, #0]
   for(i=0; i<objcnt; i++)
 8002fd4:	2b00      	cmp	r3, #0
 8002fd6:	d05e      	beq.n	8003096 <UG_Update+0x13e>
 8002fd8:	f103 38ff 	add.w	r8, r3, #4294967295
 8002fdc:	2400      	movs	r4, #0
 8002fde:	fa1f f888 	uxth.w	r8, r8
 8002fe2:	f108 0801 	add.w	r8, r8, #1
 8002fe6:	ea4f 1848 	mov.w	r8, r8, lsl #5
 8002fea:	e001      	b.n	8002ff0 <UG_Update+0x98>
 8002fec:	45a0      	cmp	r8, r4
 8002fee:	d017      	beq.n	8003020 <UG_Update+0xc8>
      obj = (UG_OBJECT*)&wnd->objlst[i];
 8002ff0:	6875      	ldr	r5, [r6, #4]
      objstate = obj->state;
 8002ff2:	5d2f      	ldrb	r7, [r5, r4]
      obj = (UG_OBJECT*)&wnd->objlst[i];
 8002ff4:	4425      	add	r5, r4
 8002ff6:	3420      	adds	r4, #32
      if ( !(objstate & OBJ_STATE_FREE) && (objstate & OBJ_STATE_VALID) )
 8002ff8:	f007 0303 	and.w	r3, r7, #3
 8002ffc:	2b02      	cmp	r3, #2
 8002ffe:	d1f5      	bne.n	8002fec <UG_Update+0x94>
         if ( objstate & OBJ_STATE_UPDATE )
 8003000:	06b9      	lsls	r1, r7, #26
      objtouch = obj->touch_state;
 8003002:	f895 9001 	ldrb.w	r9, [r5, #1]
         if ( objstate & OBJ_STATE_UPDATE )
 8003006:	d436      	bmi.n	8003076 <UG_Update+0x11e>
         if ( (objstate & OBJ_STATE_VISIBLE) && (objstate & OBJ_STATE_TOUCH_ENABLE) )
 8003008:	073a      	lsls	r2, r7, #28
 800300a:	d5ef      	bpl.n	8002fec <UG_Update+0x94>
 800300c:	063b      	lsls	r3, r7, #24
 800300e:	d5ed      	bpl.n	8002fec <UG_Update+0x94>
            if ( (objtouch & (OBJ_TOUCH_STATE_CHANGED | OBJ_TOUCH_STATE_IS_PRESSED)) )
 8003010:	f019 0f41 	tst.w	r9, #65	; 0x41
 8003014:	d0ea      	beq.n	8002fec <UG_Update+0x94>
               obj->update(wnd,obj);
 8003016:	686b      	ldr	r3, [r5, #4]
 8003018:	4629      	mov	r1, r5
 800301a:	4630      	mov	r0, r6
 800301c:	4798      	blx	r3
 800301e:	e7e5      	b.n	8002fec <UG_Update+0x94>
 8003020:	7835      	ldrb	r5, [r6, #0]
   msg.type = MSG_TYPE_OBJECT;
 8003022:	2202      	movs	r2, #2
   msg.src = NULL;
 8003024:	4f23      	ldr	r7, [pc, #140]	; (80030b4 <UG_Update+0x15c>)
 8003026:	2400      	movs	r4, #0
   msg.type = MSG_TYPE_OBJECT;
 8003028:	703a      	strb	r2, [r7, #0]
   msg.src = NULL;
 800302a:	607c      	str	r4, [r7, #4]
   for(i=0; i<objcnt; i++)
 800302c:	2d00      	cmp	r5, #0
 800302e:	d0b8      	beq.n	8002fa2 <UG_Update+0x4a>
 8003030:	3d01      	subs	r5, #1
            wnd->cb( &msg );
 8003032:	46b9      	mov	r9, r7
            obj->event = OBJ_EVENT_NONE;
 8003034:	46a0      	mov	r8, r4
 8003036:	b2ad      	uxth	r5, r5
 8003038:	3501      	adds	r5, #1
 800303a:	016d      	lsls	r5, r5, #5
 800303c:	e001      	b.n	8003042 <UG_Update+0xea>
   for(i=0; i<objcnt; i++)
 800303e:	42a5      	cmp	r5, r4
 8003040:	d0af      	beq.n	8002fa2 <UG_Update+0x4a>
      obj = (UG_OBJECT*)&wnd->objlst[i];
 8003042:	6873      	ldr	r3, [r6, #4]
 8003044:	191a      	adds	r2, r3, r4
 8003046:	9201      	str	r2, [sp, #4]
      if ( !(objstate & OBJ_STATE_FREE) && (objstate & OBJ_STATE_VALID) )
 8003048:	5d1b      	ldrb	r3, [r3, r4]
 800304a:	3420      	adds	r4, #32
 800304c:	f003 0303 	and.w	r3, r3, #3
 8003050:	2b02      	cmp	r3, #2
 8003052:	d1f4      	bne.n	800303e <UG_Update+0xe6>
         if ( obj->event != OBJ_EVENT_NONE )
 8003054:	7e93      	ldrb	r3, [r2, #26]
 8003056:	2b00      	cmp	r3, #0
 8003058:	d0f1      	beq.n	800303e <UG_Update+0xe6>
            msg.id = obj->type;
 800305a:	7e11      	ldrb	r1, [r2, #24]
            msg.src = &obj;
 800305c:	a801      	add	r0, sp, #4
            msg.sub_id = obj->id;
 800305e:	7e52      	ldrb	r2, [r2, #25]
            msg.src = &obj;
 8003060:	6078      	str	r0, [r7, #4]
            wnd->cb( &msg );
 8003062:	4648      	mov	r0, r9
            msg.event = obj->event;
 8003064:	70fb      	strb	r3, [r7, #3]
            msg.id = obj->type;
 8003066:	7079      	strb	r1, [r7, #1]
            wnd->cb( &msg );
 8003068:	6b33      	ldr	r3, [r6, #48]	; 0x30
            msg.sub_id = obj->id;
 800306a:	70ba      	strb	r2, [r7, #2]
            wnd->cb( &msg );
 800306c:	4798      	blx	r3
            obj->event = OBJ_EVENT_NONE;
 800306e:	9b01      	ldr	r3, [sp, #4]
 8003070:	f883 801a 	strb.w	r8, [r3, #26]
 8003074:	e7e3      	b.n	800303e <UG_Update+0xe6>
            obj->update(wnd,obj);
 8003076:	686b      	ldr	r3, [r5, #4]
 8003078:	4629      	mov	r1, r5
 800307a:	4630      	mov	r0, r6
 800307c:	4798      	blx	r3
 800307e:	e7c3      	b.n	8003008 <UG_Update+0xb0>
   if ( gui->active_window != NULL )
 8003080:	2800      	cmp	r0, #0
 8003082:	d08e      	beq.n	8002fa2 <UG_Update+0x4a>
   if ( gui->next_window != gui->active_window )
 8003084:	4606      	mov	r6, r0
      if ( wnd->state & WND_STATE_UPDATE )
 8003086:	7a33      	ldrb	r3, [r6, #8]
 8003088:	069c      	lsls	r4, r3, #26
 800308a:	d588      	bpl.n	8002f9e <UG_Update+0x46>
         _UG_WindowUpdate( wnd );
 800308c:	4630      	mov	r0, r6
 800308e:	f7ff fe8d 	bl	8002dac <_UG_WindowUpdate>
 8003092:	7a33      	ldrb	r3, [r6, #8]
 8003094:	e783      	b.n	8002f9e <UG_Update+0x46>
   msg.src = NULL;
 8003096:	4a07      	ldr	r2, [pc, #28]	; (80030b4 <UG_Update+0x15c>)
   msg.type = MSG_TYPE_OBJECT;
 8003098:	2102      	movs	r1, #2
   msg.src = NULL;
 800309a:	6053      	str	r3, [r2, #4]
   msg.type = MSG_TYPE_OBJECT;
 800309c:	7011      	strb	r1, [r2, #0]
 800309e:	e780      	b.n	8002fa2 <UG_Update+0x4a>
            if ( (gui->last_window->xs != gui->active_window->xs) || (gui->last_window->xe != gui->active_window->xe) || (gui->last_window->ys != gui->active_window->ys) || (gui->last_window->ye != gui->active_window->ye) )
 80030a0:	f9b0 2014 	ldrsh.w	r2, [r0, #20]
 80030a4:	f9b6 3014 	ldrsh.w	r3, [r6, #20]
 80030a8:	429a      	cmp	r2, r3
 80030aa:	d18a      	bne.n	8002fc2 <UG_Update+0x6a>
 80030ac:	e76e      	b.n	8002f8c <UG_Update+0x34>
 80030ae:	bf00      	nop
 80030b0:	2000003c 	.word	0x2000003c
 80030b4:	20000040 	.word	0x20000040

080030b8 <UG_ButtonCreate>:
{
 80030b8:	e92d 47f0 	stmdb	sp!, {r4, r5, r6, r7, r8, r9, sl, lr}
   for(i=0;i<wnd->objcnt;i++)
 80030bc:	7806      	ldrb	r6, [r0, #0]
   UG_OBJECT* obj=(UG_OBJECT*)wnd->objlst;
 80030be:	6844      	ldr	r4, [r0, #4]
{
 80030c0:	f9bd c020 	ldrsh.w	ip, [sp, #32]
 80030c4:	f9bd 8024 	ldrsh.w	r8, [sp, #36]	; 0x24
 80030c8:	f9bd 9028 	ldrsh.w	r9, [sp, #40]	; 0x28
   for(i=0;i<wnd->objcnt;i++)
 80030cc:	b1be      	cbz	r6, 80030fe <UG_ButtonCreate+0x46>
      if ( (obj->state & OBJ_STATE_FREE) && (obj->state & OBJ_STATE_VALID) )
 80030ce:	7825      	ldrb	r5, [r4, #0]
 80030d0:	f005 0703 	and.w	r7, r5, #3
 80030d4:	2f03      	cmp	r7, #3
 80030d6:	d016      	beq.n	8003106 <UG_ButtonCreate+0x4e>
 80030d8:	f106 3eff 	add.w	lr, r6, #4294967295
 80030dc:	4626      	mov	r6, r4
 80030de:	fa5f fe8e 	uxtb.w	lr, lr
 80030e2:	eb04 1e4e 	add.w	lr, r4, lr, lsl #5
 80030e6:	e006      	b.n	80030f6 <UG_ButtonCreate+0x3e>
 80030e8:	f896 5020 	ldrb.w	r5, [r6, #32]
 80030ec:	4626      	mov	r6, r4
 80030ee:	f005 0703 	and.w	r7, r5, #3
 80030f2:	2f03      	cmp	r7, #3
 80030f4:	d007      	beq.n	8003106 <UG_ButtonCreate+0x4e>
   for(i=0;i<wnd->objcnt;i++)
 80030f6:	4574      	cmp	r4, lr
 80030f8:	f104 0420 	add.w	r4, r4, #32
 80030fc:	d1f4      	bne.n	80030e8 <UG_ButtonCreate+0x30>
   if ( obj == NULL ) return UG_RESULT_FAIL;
 80030fe:	f04f 30ff 	mov.w	r0, #4294967295
 8003102:	e8bd 87f0 	ldmia.w	sp!, {r4, r5, r6, r7, r8, r9, sl, pc}
   btn->state = BTN_STATE_RELEASED;
 8003106:	2600      	movs	r6, #0
   if (gui != NULL) btn->font = &gui->font;
 8003108:	f8df a07c 	ldr.w	sl, [pc, #124]	; 8003188 <UG_ButtonCreate+0xd0>
   btn->style = BTN_STYLE_3D;
 800310c:	f04f 0e01 	mov.w	lr, #1
   btn->align = ALIGN_CENTER;
 8003110:	2712      	movs	r7, #18
   btn->state = BTN_STATE_RELEASED;
 8003112:	700e      	strb	r6, [r1, #0]
   btn->fc = wnd->fc;
 8003114:	f8d0 600a 	ldr.w	r6, [r0, #10]
   if (gui != NULL) btn->font = &gui->font;
 8003118:	f8da 0000 	ldr.w	r0, [sl]
   btn->fc = wnd->fc;
 800311c:	f8c1 6002 	str.w	r6, [r1, #2]
 8003120:	f8c1 6006 	str.w	r6, [r1, #6]
   btn->style = BTN_STYLE_3D;
 8003124:	f881 e001 	strb.w	lr, [r1, #1]
   btn->align = ALIGN_CENTER;
 8003128:	740f      	strb	r7, [r1, #16]
   if (gui != NULL) btn->font = &gui->font;
 800312a:	b100      	cbz	r0, 800312e <UG_ButtonCreate+0x76>
 800312c:	302c      	adds	r0, #44	; 0x2c
   obj->touch_state = OBJ_TOUCH_STATE_INIT;
 800312e:	2600      	movs	r6, #0
   obj->state &= ~OBJ_STATE_FREE;
 8003130:	f025 0501 	bic.w	r5, r5, #1
 8003134:	60c8      	str	r0, [r1, #12]
   obj->a_abs.xs = -1;
 8003136:	f04f 3eff 	mov.w	lr, #4294967295
   obj->a_rel.xs = xs;
 800313a:	4637      	mov	r7, r6
   obj->type = OBJ_TYPE_BUTTON;
 800313c:	f04f 0a01 	mov.w	sl, #1
   obj->state &= ~OBJ_STATE_FREE;
 8003140:	f065 0535 	orn	r5, r5, #53	; 0x35
   btn->str = "-";
 8003144:	480f      	ldr	r0, [pc, #60]	; (8003184 <UG_ButtonCreate+0xcc>)
   obj->a_rel.xs = xs;
 8003146:	f363 070f 	bfi	r7, r3, #0, #16
 800314a:	4633      	mov	r3, r6
   btn->str = "-";
 800314c:	6148      	str	r0, [r1, #20]
   return UG_RESULT_OK;
 800314e:	4630      	mov	r0, r6
   obj->a_rel.xs = xs;
 8003150:	f368 030f 	bfi	r3, r8, #0, #16
 8003154:	f36c 471f 	bfi	r7, ip, #16, #16
   obj->update = _UG_ButtonUpdate;
 8003158:	f8df c030 	ldr.w	ip, [pc, #48]	; 800318c <UG_ButtonCreate+0xd4>
   obj->a_rel.xs = xs;
 800315c:	f369 431f 	bfi	r3, r9, #16, #16
   obj->state &= ~OBJ_STATE_FREE;
 8003160:	7025      	strb	r5, [r4, #0]
   obj->id = id;
 8003162:	7662      	strb	r2, [r4, #25]
   obj->data = (void*)btn;
 8003164:	61e1      	str	r1, [r4, #28]
   obj->touch_state = OBJ_TOUCH_STATE_INIT;
 8003166:	7066      	strb	r6, [r4, #1]
   obj->event = OBJ_EVENT_NONE;
 8003168:	76a6      	strb	r6, [r4, #26]
   obj->a_rel.xs = xs;
 800316a:	6127      	str	r7, [r4, #16]
 800316c:	6163      	str	r3, [r4, #20]
   obj->update = _UG_ButtonUpdate;
 800316e:	f8c4 c004 	str.w	ip, [r4, #4]
   obj->type = OBJ_TYPE_BUTTON;
 8003172:	f884 a018 	strb.w	sl, [r4, #24]
   obj->a_abs.xs = -1;
 8003176:	f8c4 e008 	str.w	lr, [r4, #8]
 800317a:	f8c4 e00c 	str.w	lr, [r4, #12]
   return UG_RESULT_OK;
 800317e:	e8bd 87f0 	ldmia.w	sp!, {r4, r5, r6, r7, r8, r9, sl, pc}
 8003182:	bf00      	nop
 8003184:	0800331c 	.word	0x0800331c
 8003188:	2000003c 	.word	0x2000003c
 800318c:	080024e9 	.word	0x080024e9

08003190 <UG_ButtonSetBackColor>:
{
 8003190:	b430      	push	{r4, r5}
   for(i=0;i<wnd->objcnt;i++)
 8003192:	7805      	ldrb	r5, [r0, #0]
   UG_OBJECT* obj=(UG_OBJECT*)wnd->objlst;
 8003194:	6843      	ldr	r3, [r0, #4]
   for(i=0;i<wnd->objcnt;i++)
 8003196:	b1dd      	cbz	r5, 80031d0 <UG_ButtonSetBackColor+0x40>
 8003198:	3d01      	subs	r5, #1
 800319a:	b2ed      	uxtb	r5, r5
 800319c:	3501      	adds	r5, #1
 800319e:	eb03 1545 	add.w	r5, r3, r5, lsl #5
 80031a2:	e002      	b.n	80031aa <UG_ButtonSetBackColor+0x1a>
 80031a4:	3320      	adds	r3, #32
 80031a6:	42ab      	cmp	r3, r5
 80031a8:	d012      	beq.n	80031d0 <UG_ButtonSetBackColor+0x40>
      if ( !(obj->state & OBJ_STATE_FREE) && (obj->state & OBJ_STATE_VALID) )
 80031aa:	7818      	ldrb	r0, [r3, #0]
 80031ac:	f000 0403 	and.w	r4, r0, #3
 80031b0:	2c02      	cmp	r4, #2
 80031b2:	d1f7      	bne.n	80031a4 <UG_ButtonSetBackColor+0x14>
         if ( (obj->type == type) && (obj->id == id) )
 80031b4:	7e1c      	ldrb	r4, [r3, #24]
 80031b6:	2c01      	cmp	r4, #1
 80031b8:	d1f4      	bne.n	80031a4 <UG_ButtonSetBackColor+0x14>
 80031ba:	7e5c      	ldrb	r4, [r3, #25]
 80031bc:	428c      	cmp	r4, r1
 80031be:	d1f1      	bne.n	80031a4 <UG_ButtonSetBackColor+0x14>
   obj->state |= OBJ_STATE_UPDATE | OBJ_STATE_REDRAW;
 80031c0:	f040 0160 	orr.w	r1, r0, #96	; 0x60
   btn->bc = bc;
 80031c4:	69dc      	ldr	r4, [r3, #28]
   return UG_RESULT_OK;
 80031c6:	2000      	movs	r0, #0
   btn->bc = bc;
 80031c8:	80a2      	strh	r2, [r4, #4]
   obj->state |= OBJ_STATE_UPDATE | OBJ_STATE_REDRAW;
 80031ca:	7019      	strb	r1, [r3, #0]
}
 80031cc:	bc30      	pop	{r4, r5}
 80031ce:	4770      	bx	lr
   if ( obj == NULL ) return UG_RESULT_FAIL;
 80031d0:	f04f 30ff 	mov.w	r0, #4294967295
}
 80031d4:	bc30      	pop	{r4, r5}
 80031d6:	4770      	bx	lr

080031d8 <UG_ButtonSetText>:
{
 80031d8:	b430      	push	{r4, r5}
   for(i=0;i<wnd->objcnt;i++)
 80031da:	7805      	ldrb	r5, [r0, #0]
   UG_OBJECT* obj=(UG_OBJECT*)wnd->objlst;
 80031dc:	6843      	ldr	r3, [r0, #4]
   for(i=0;i<wnd->objcnt;i++)
 80031de:	b1dd      	cbz	r5, 8003218 <UG_ButtonSetText+0x40>
 80031e0:	3d01      	subs	r5, #1
 80031e2:	b2ed      	uxtb	r5, r5
 80031e4:	3501      	adds	r5, #1
 80031e6:	eb03 1545 	add.w	r5, r3, r5, lsl #5
 80031ea:	e002      	b.n	80031f2 <UG_ButtonSetText+0x1a>
 80031ec:	3320      	adds	r3, #32
 80031ee:	42ab      	cmp	r3, r5
 80031f0:	d012      	beq.n	8003218 <UG_ButtonSetText+0x40>
      if ( !(obj->state & OBJ_STATE_FREE) && (obj->state & OBJ_STATE_VALID) )
 80031f2:	7818      	ldrb	r0, [r3, #0]
 80031f4:	f000 0403 	and.w	r4, r0, #3
 80031f8:	2c02      	cmp	r4, #2
 80031fa:	d1f7      	bne.n	80031ec <UG_ButtonSetText+0x14>
         if ( (obj->type == type) && (obj->id == id) )
 80031fc:	7e1c      	ldrb	r4, [r3, #24]
 80031fe:	2c01      	cmp	r4, #1
 8003200:	d1f4      	bne.n	80031ec <UG_ButtonSetText+0x14>
 8003202:	7e5c      	ldrb	r4, [r3, #25]
 8003204:	428c      	cmp	r4, r1
 8003206:	d1f1      	bne.n	80031ec <UG_ButtonSetText+0x14>
   obj->state |= OBJ_STATE_UPDATE | OBJ_STATE_REDRAW;
 8003208:	f040 0160 	orr.w	r1, r0, #96	; 0x60
   btn->str = str;
 800320c:	69dc      	ldr	r4, [r3, #28]
   return UG_RESULT_OK;
 800320e:	2000      	movs	r0, #0
   btn->str = str;
 8003210:	6162      	str	r2, [r4, #20]
   obj->state |= OBJ_STATE_UPDATE | OBJ_STATE_REDRAW;
 8003212:	7019      	strb	r1, [r3, #0]
}
 8003214:	bc30      	pop	{r4, r5}
 8003216:	4770      	bx	lr
   if ( obj == NULL ) return UG_RESULT_FAIL;
 8003218:	f04f 30ff 	mov.w	r0, #4294967295
}
 800321c:	bc30      	pop	{r4, r5}
 800321e:	4770      	bx	lr

08003220 <UG_ButtonSetFont>:
{
 8003220:	b430      	push	{r4, r5}
   for(i=0;i<wnd->objcnt;i++)
 8003222:	7805      	ldrb	r5, [r0, #0]
   UG_OBJECT* obj=(UG_OBJECT*)wnd->objlst;
 8003224:	6843      	ldr	r3, [r0, #4]
   for(i=0;i<wnd->objcnt;i++)
 8003226:	b1dd      	cbz	r5, 8003260 <UG_ButtonSetFont+0x40>
 8003228:	3d01      	subs	r5, #1
 800322a:	b2ed      	uxtb	r5, r5
 800322c:	3501      	adds	r5, #1
 800322e:	eb03 1545 	add.w	r5, r3, r5, lsl #5
 8003232:	e002      	b.n	800323a <UG_ButtonSetFont+0x1a>
 8003234:	3320      	adds	r3, #32
 8003236:	42ab      	cmp	r3, r5
 8003238:	d012      	beq.n	8003260 <UG_ButtonSetFont+0x40>
      if ( !(obj->state & OBJ_STATE_FREE) && (obj->state & OBJ_STATE_VALID) )
 800323a:	7818      	ldrb	r0, [r3, #0]
 800323c:	f000 0403 	and.w	r4, r0, #3
 8003240:	2c02      	cmp	r4, #2
 8003242:	d1f7      	bne.n	8003234 <UG_ButtonSetFont+0x14>
         if ( (obj->type == type) && (obj->id == id) )
 8003244:	7e1c      	ldrb	r4, [r3, #24]
 8003246:	2c01      	cmp	r4, #1
 8003248:	d1f4      	bne.n	8003234 <UG_ButtonSetFont+0x14>
 800324a:	7e5c      	ldrb	r4, [r3, #25]
 800324c:	428c      	cmp	r4, r1
 800324e:	d1f1      	bne.n	8003234 <UG_ButtonSetFont+0x14>
   obj->state |= OBJ_STATE_UPDATE | OBJ_STATE_REDRAW;
 8003250:	f040 0160 	orr.w	r1, r0, #96	; 0x60
   btn->font = font;
 8003254:	69dc      	ldr	r4, [r3, #28]
   return UG_RESULT_OK;
 8003256:	2000      	movs	r0, #0
   btn->font = font;
 8003258:	60e2      	str	r2, [r4, #12]
   obj->state |= OBJ_STATE_UPDATE | OBJ_STATE_REDRAW;
 800325a:	7019      	strb	r1, [r3, #0]
}
 800325c:	bc30      	pop	{r4, r5}
 800325e:	4770      	bx	lr
   if ( obj == NULL ) return UG_RESULT_FAIL;
 8003260:	f04f 30ff 	mov.w	r0, #4294967295
}
 8003264:	bc30      	pop	{r4, r5}
 8003266:	4770      	bx	lr

08003268 <__libc_init_array>:
 8003268:	b570      	push	{r4, r5, r6, lr}
 800326a:	4e0d      	ldr	r6, [pc, #52]	; (80032a0 <__libc_init_array+0x38>)
 800326c:	4c0d      	ldr	r4, [pc, #52]	; (80032a4 <__libc_init_array+0x3c>)
 800326e:	1ba4      	subs	r4, r4, r6
 8003270:	10a4      	asrs	r4, r4, #2
 8003272:	2500      	movs	r5, #0
 8003274:	42a5      	cmp	r5, r4
 8003276:	d109      	bne.n	800328c <__libc_init_array+0x24>
 8003278:	4e0b      	ldr	r6, [pc, #44]	; (80032a8 <__libc_init_array+0x40>)
 800327a:	4c0c      	ldr	r4, [pc, #48]	; (80032ac <__libc_init_array+0x44>)
 800327c:	f000 f818 	bl	80032b0 <_init>
 8003280:	1ba4      	subs	r4, r4, r6
 8003282:	10a4      	asrs	r4, r4, #2
 8003284:	2500      	movs	r5, #0
 8003286:	42a5      	cmp	r5, r4
 8003288:	d105      	bne.n	8003296 <__libc_init_array+0x2e>
 800328a:	bd70      	pop	{r4, r5, r6, pc}
 800328c:	f856 3025 	ldr.w	r3, [r6, r5, lsl #2]
 8003290:	4798      	blx	r3
 8003292:	3501      	adds	r5, #1
 8003294:	e7ee      	b.n	8003274 <__libc_init_array+0xc>
 8003296:	f856 3025 	ldr.w	r3, [r6, r5, lsl #2]
 800329a:	4798      	blx	r3
 800329c:	3501      	adds	r5, #1
 800329e:	e7f2      	b.n	8003286 <__libc_init_array+0x1e>
 80032a0:	08003b68 	.word	0x08003b68
 80032a4:	08003b68 	.word	0x08003b68
 80032a8:	08003b68 	.word	0x08003b68
 80032ac:	08003b6c 	.word	0x08003b6c

080032b0 <_init>:
 80032b0:	b5f8      	push	{r3, r4, r5, r6, r7, lr}
 80032b2:	bf00      	nop
 80032b4:	bcf8      	pop	{r3, r4, r5, r6, r7}
 80032b6:	bc08      	pop	{r3}
 80032b8:	469e      	mov	lr, r3
 80032ba:	4770      	bx	lr

080032bc <_fini>:
 80032bc:	b5f8      	push	{r3, r4, r5, r6, r7, lr}
 80032be:	bf00      	nop
 80032c0:	bcf8      	pop	{r3, r4, r5, r6, r7}
 80032c2:	bc08      	pop	{r3}
 80032c4:	469e      	mov	lr, r3
 80032c6:	4770      	bx	lr
