
H7oscillo-v2.elf:     file format elf32-littlearm

Sections:
Idx Name          Size      VMA       LMA       File off  Algn
  0 .isr_vector   000001c8  08000000  08000000  00010000  2**0
                  CONTENTS, ALLOC, LOAD, READONLY, DATA
  1 .text         0000bd88  080001c8  080001c8  000101c8  2**3
                  CONTENTS, ALLOC, LOAD, READONLY, CODE
  2 .rodata       000221fc  0800bf50  0800bf50  0001bf50  2**3
                  CONTENTS, ALLOC, LOAD, READONLY, DATA
  3 .init_array   00000004  0802e14c  0802e14c  0003e14c  2**2
                  CONTENTS, ALLOC, LOAD, DATA
  4 .fini_array   00000004  0802e150  0802e150  0003e150  2**2
                  CONTENTS, ALLOC, LOAD, DATA
  5 .data         00000094  20000000  0802e154  00040000  2**2
                  CONTENTS, ALLOC, LOAD, DATA
  6 .bss          00003aec  20000094  0802e1e8  00040094  2**2
                  ALLOC
  7 ._user_heap_stack 00000600  20003b80  0802e1e8  00043b80  2**0
                  ALLOC
  8 .ARM.attributes 00000030  00000000  00000000  00040094  2**0
                  CONTENTS, READONLY
  9 .debug_info   000353a4  00000000  00000000  000400c4  2**0
                  CONTENTS, READONLY, DEBUGGING
 10 .debug_abbrev 00004950  00000000  00000000  00075468  2**0
                  CONTENTS, READONLY, DEBUGGING
 11 .debug_loc    000125be  00000000  00000000  00079db8  2**0
                  CONTENTS, READONLY, DEBUGGING
 12 .debug_aranges 00000c58  00000000  00000000  0008c378  2**3
                  CONTENTS, READONLY, DEBUGGING
 13 .debug_ranges 000012e0  00000000  00000000  0008cfd0  2**3
                  CONTENTS, READONLY, DEBUGGING
 14 .debug_macro  00022ef2  00000000  00000000  0008e2b0  2**0
                  CONTENTS, READONLY, DEBUGGING
 15 .debug_line   0000f276  00000000  00000000  000b11a2  2**0
                  CONTENTS, READONLY, DEBUGGING
 16 .debug_str    000c16cc  00000000  00000000  000c0418  2**0
                  CONTENTS, READONLY, DEBUGGING
 17 .comment      000000f5  00000000  00000000  00181ae4  2**0
                  CONTENTS, READONLY
 18 .debug_frame  00002c24  00000000  00000000  00181bdc  2**2
                  CONTENTS, READONLY, DEBUGGING

Disassembly of section .text:

080001c8 <__do_global_dtors_aux>:
 80001c8:	b510      	push	{r4, lr}
 80001ca:	4c05      	ldr	r4, [pc, #20]	; (80001e0 <__do_global_dtors_aux+0x18>)
 80001cc:	7823      	ldrb	r3, [r4, #0]
 80001ce:	b933      	cbnz	r3, 80001de <__do_global_dtors_aux+0x16>
 80001d0:	4b04      	ldr	r3, [pc, #16]	; (80001e4 <__do_global_dtors_aux+0x1c>)
 80001d2:	b113      	cbz	r3, 80001da <__do_global_dtors_aux+0x12>
 80001d4:	4804      	ldr	r0, [pc, #16]	; (80001e8 <__do_global_dtors_aux+0x20>)
 80001d6:	f3af 8000 	nop.w
 80001da:	2301      	movs	r3, #1
 80001dc:	7023      	strb	r3, [r4, #0]
 80001de:	bd10      	pop	{r4, pc}
 80001e0:	20000094 	.word	0x20000094
 80001e4:	00000000 	.word	0x00000000
 80001e8:	0800bf38 	.word	0x0800bf38

080001ec <frame_dummy>:
 80001ec:	b508      	push	{r3, lr}
 80001ee:	4b03      	ldr	r3, [pc, #12]	; (80001fc <frame_dummy+0x10>)
 80001f0:	b11b      	cbz	r3, 80001fa <frame_dummy+0xe>
 80001f2:	4903      	ldr	r1, [pc, #12]	; (8000200 <frame_dummy+0x14>)
 80001f4:	4803      	ldr	r0, [pc, #12]	; (8000204 <frame_dummy+0x18>)
 80001f6:	f3af 8000 	nop.w
 80001fa:	bd08      	pop	{r3, pc}
 80001fc:	00000000 	.word	0x00000000
 8000200:	20000098 	.word	0x20000098
 8000204:	0800bf38 	.word	0x0800bf38

08000208 <strlen>:
 8000208:	4603      	mov	r3, r0
 800020a:	f813 2b01 	ldrb.w	r2, [r3], #1
 800020e:	2a00      	cmp	r2, #0
 8000210:	d1fb      	bne.n	800020a <strlen+0x2>
 8000212:	1a18      	subs	r0, r3, r0
 8000214:	3801      	subs	r0, #1
 8000216:	4770      	bx	lr

08000218 <__aeabi_drsub>:
 8000218:	f081 4100 	eor.w	r1, r1, #2147483648	; 0x80000000
 800021c:	e002      	b.n	8000224 <__adddf3>
 800021e:	bf00      	nop

08000220 <__aeabi_dsub>:
 8000220:	f083 4300 	eor.w	r3, r3, #2147483648	; 0x80000000

08000224 <__adddf3>:
 8000224:	b530      	push	{r4, r5, lr}
 8000226:	ea4f 0441 	mov.w	r4, r1, lsl #1
 800022a:	ea4f 0543 	mov.w	r5, r3, lsl #1
 800022e:	ea94 0f05 	teq	r4, r5
 8000232:	bf08      	it	eq
 8000234:	ea90 0f02 	teqeq	r0, r2
 8000238:	bf1f      	itttt	ne
 800023a:	ea54 0c00 	orrsne.w	ip, r4, r0
 800023e:	ea55 0c02 	orrsne.w	ip, r5, r2
 8000242:	ea7f 5c64 	mvnsne.w	ip, r4, asr #21
 8000246:	ea7f 5c65 	mvnsne.w	ip, r5, asr #21
 800024a:	f000 80e2 	beq.w	8000412 <__adddf3+0x1ee>
 800024e:	ea4f 5454 	mov.w	r4, r4, lsr #21
 8000252:	ebd4 5555 	rsbs	r5, r4, r5, lsr #21
 8000256:	bfb8      	it	lt
 8000258:	426d      	neglt	r5, r5
 800025a:	dd0c      	ble.n	8000276 <__adddf3+0x52>
 800025c:	442c      	add	r4, r5
 800025e:	ea80 0202 	eor.w	r2, r0, r2
 8000262:	ea81 0303 	eor.w	r3, r1, r3
 8000266:	ea82 0000 	eor.w	r0, r2, r0
 800026a:	ea83 0101 	eor.w	r1, r3, r1
 800026e:	ea80 0202 	eor.w	r2, r0, r2
 8000272:	ea81 0303 	eor.w	r3, r1, r3
 8000276:	2d36      	cmp	r5, #54	; 0x36
 8000278:	bf88      	it	hi
 800027a:	bd30      	pophi	{r4, r5, pc}
 800027c:	f011 4f00 	tst.w	r1, #2147483648	; 0x80000000
 8000280:	ea4f 3101 	mov.w	r1, r1, lsl #12
 8000284:	f44f 1c80 	mov.w	ip, #1048576	; 0x100000
 8000288:	ea4c 3111 	orr.w	r1, ip, r1, lsr #12
 800028c:	d002      	beq.n	8000294 <__adddf3+0x70>
 800028e:	4240      	negs	r0, r0
 8000290:	eb61 0141 	sbc.w	r1, r1, r1, lsl #1
 8000294:	f013 4f00 	tst.w	r3, #2147483648	; 0x80000000
 8000298:	ea4f 3303 	mov.w	r3, r3, lsl #12
 800029c:	ea4c 3313 	orr.w	r3, ip, r3, lsr #12
 80002a0:	d002      	beq.n	80002a8 <__adddf3+0x84>
 80002a2:	4252      	negs	r2, r2
 80002a4:	eb63 0343 	sbc.w	r3, r3, r3, lsl #1
 80002a8:	ea94 0f05 	teq	r4, r5
 80002ac:	f000 80a7 	beq.w	80003fe <__adddf3+0x1da>
 80002b0:	f1a4 0401 	sub.w	r4, r4, #1
 80002b4:	f1d5 0e20 	rsbs	lr, r5, #32
 80002b8:	db0d      	blt.n	80002d6 <__adddf3+0xb2>
 80002ba:	fa02 fc0e 	lsl.w	ip, r2, lr
 80002be:	fa22 f205 	lsr.w	r2, r2, r5
 80002c2:	1880      	adds	r0, r0, r2
 80002c4:	f141 0100 	adc.w	r1, r1, #0
 80002c8:	fa03 f20e 	lsl.w	r2, r3, lr
 80002cc:	1880      	adds	r0, r0, r2
 80002ce:	fa43 f305 	asr.w	r3, r3, r5
 80002d2:	4159      	adcs	r1, r3
 80002d4:	e00e      	b.n	80002f4 <__adddf3+0xd0>
 80002d6:	f1a5 0520 	sub.w	r5, r5, #32
 80002da:	f10e 0e20 	add.w	lr, lr, #32
 80002de:	2a01      	cmp	r2, #1
 80002e0:	fa03 fc0e 	lsl.w	ip, r3, lr
 80002e4:	bf28      	it	cs
 80002e6:	f04c 0c02 	orrcs.w	ip, ip, #2
 80002ea:	fa43 f305 	asr.w	r3, r3, r5
 80002ee:	18c0      	adds	r0, r0, r3
 80002f0:	eb51 71e3 	adcs.w	r1, r1, r3, asr #31
 80002f4:	f001 4500 	and.w	r5, r1, #2147483648	; 0x80000000
 80002f8:	d507      	bpl.n	800030a <__adddf3+0xe6>
 80002fa:	f04f 0e00 	mov.w	lr, #0
 80002fe:	f1dc 0c00 	rsbs	ip, ip, #0
 8000302:	eb7e 0000 	sbcs.w	r0, lr, r0
 8000306:	eb6e 0101 	sbc.w	r1, lr, r1
 800030a:	f5b1 1f80 	cmp.w	r1, #1048576	; 0x100000
 800030e:	d31b      	bcc.n	8000348 <__adddf3+0x124>
 8000310:	f5b1 1f00 	cmp.w	r1, #2097152	; 0x200000
 8000314:	d30c      	bcc.n	8000330 <__adddf3+0x10c>
 8000316:	0849      	lsrs	r1, r1, #1
 8000318:	ea5f 0030 	movs.w	r0, r0, rrx
 800031c:	ea4f 0c3c 	mov.w	ip, ip, rrx
 8000320:	f104 0401 	add.w	r4, r4, #1
 8000324:	ea4f 5244 	mov.w	r2, r4, lsl #21
 8000328:	f512 0f80 	cmn.w	r2, #4194304	; 0x400000
 800032c:	f080 809a 	bcs.w	8000464 <__adddf3+0x240>
 8000330:	f1bc 4f00 	cmp.w	ip, #2147483648	; 0x80000000
 8000334:	bf08      	it	eq
 8000336:	ea5f 0c50 	movseq.w	ip, r0, lsr #1
 800033a:	f150 0000 	adcs.w	r0, r0, #0
 800033e:	eb41 5104 	adc.w	r1, r1, r4, lsl #20
 8000342:	ea41 0105 	orr.w	r1, r1, r5
 8000346:	bd30      	pop	{r4, r5, pc}
 8000348:	ea5f 0c4c 	movs.w	ip, ip, lsl #1
 800034c:	4140      	adcs	r0, r0
 800034e:	eb41 0101 	adc.w	r1, r1, r1
 8000352:	f411 1f80 	tst.w	r1, #1048576	; 0x100000
 8000356:	f1a4 0401 	sub.w	r4, r4, #1
 800035a:	d1e9      	bne.n	8000330 <__adddf3+0x10c>
 800035c:	f091 0f00 	teq	r1, #0
 8000360:	bf04      	itt	eq
 8000362:	4601      	moveq	r1, r0
 8000364:	2000      	moveq	r0, #0
 8000366:	fab1 f381 	clz	r3, r1
 800036a:	bf08      	it	eq
 800036c:	3320      	addeq	r3, #32
 800036e:	f1a3 030b 	sub.w	r3, r3, #11
 8000372:	f1b3 0220 	subs.w	r2, r3, #32
 8000376:	da0c      	bge.n	8000392 <__adddf3+0x16e>
 8000378:	320c      	adds	r2, #12
 800037a:	dd08      	ble.n	800038e <__adddf3+0x16a>
 800037c:	f102 0c14 	add.w	ip, r2, #20
 8000380:	f1c2 020c 	rsb	r2, r2, #12
 8000384:	fa01 f00c 	lsl.w	r0, r1, ip
 8000388:	fa21 f102 	lsr.w	r1, r1, r2
 800038c:	e00c      	b.n	80003a8 <__adddf3+0x184>
 800038e:	f102 0214 	add.w	r2, r2, #20
 8000392:	bfd8      	it	le
 8000394:	f1c2 0c20 	rsble	ip, r2, #32
 8000398:	fa01 f102 	lsl.w	r1, r1, r2
 800039c:	fa20 fc0c 	lsr.w	ip, r0, ip
 80003a0:	bfdc      	itt	le
 80003a2:	ea41 010c 	orrle.w	r1, r1, ip
 80003a6:	4090      	lslle	r0, r2
 80003a8:	1ae4      	subs	r4, r4, r3
 80003aa:	bfa2      	ittt	ge
 80003ac:	eb01 5104 	addge.w	r1, r1, r4, lsl #20
 80003b0:	4329      	orrge	r1, r5
 80003b2:	bd30      	popge	{r4, r5, pc}
 80003b4:	ea6f 0404 	mvn.w	r4, r4
 80003b8:	3c1f      	subs	r4, #31
 80003ba:	da1c      	bge.n	80003f6 <__adddf3+0x1d2>
 80003bc:	340c      	adds	r4, #12
 80003be:	dc0e      	bgt.n	80003de <__adddf3+0x1ba>
 80003c0:	f104 0414 	add.w	r4, r4, #20
 80003c4:	f1c4 0220 	rsb	r2, r4, #32
 80003c8:	fa20 f004 	lsr.w	r0, r0, r4
 80003cc:	fa01 f302 	lsl.w	r3, r1, r2
 80003d0:	ea40 0003 	orr.w	r0, r0, r3
 80003d4:	fa21 f304 	lsr.w	r3, r1, r4
 80003d8:	ea45 0103 	orr.w	r1, r5, r3
 80003dc:	bd30      	pop	{r4, r5, pc}
 80003de:	f1c4 040c 	rsb	r4, r4, #12
 80003e2:	f1c4 0220 	rsb	r2, r4, #32
 80003e6:	fa20 f002 	lsr.w	r0, r0, r2
 80003ea:	fa01 f304 	lsl.w	r3, r1, r4
 80003ee:	ea40 0003 	orr.w	r0, r0, r3
 80003f2:	4629      	mov	r1, r5
 80003f4:	bd30      	pop	{r4, r5, pc}
 80003f6:	fa21 f004 	lsr.w	r0, r1, r4
 80003fa:	4629      	mov	r1, r5
 80003fc:	bd30      	pop	{r4, r5, pc}
 80003fe:	f094 0f00 	teq	r4, #0
 8000402:	f483 1380 	eor.w	r3, r3, #1048576	; 0x100000
 8000406:	bf06      	itte	eq
 8000408:	f481 1180 	eoreq.w	r1, r1, #1048576	; 0x100000
 800040c:	3401      	addeq	r4, #1
 800040e:	3d01      	subne	r5, #1
 8000410:	e74e      	b.n	80002b0 <__adddf3+0x8c>
 8000412:	ea7f 5c64 	mvns.w	ip, r4, asr #21
 8000416:	bf18      	it	ne
 8000418:	ea7f 5c65 	mvnsne.w	ip, r5, asr #21
 800041c:	d029      	beq.n	8000472 <__adddf3+0x24e>
 800041e:	ea94 0f05 	teq	r4, r5
 8000422:	bf08      	it	eq
 8000424:	ea90 0f02 	teqeq	r0, r2
 8000428:	d005      	beq.n	8000436 <__adddf3+0x212>
 800042a:	ea54 0c00 	orrs.w	ip, r4, r0
 800042e:	bf04      	itt	eq
 8000430:	4619      	moveq	r1, r3
 8000432:	4610      	moveq	r0, r2
 8000434:	bd30      	pop	{r4, r5, pc}
 8000436:	ea91 0f03 	teq	r1, r3
 800043a:	bf1e      	ittt	ne
 800043c:	2100      	movne	r1, #0
 800043e:	2000      	movne	r0, #0
 8000440:	bd30      	popne	{r4, r5, pc}
 8000442:	ea5f 5c54 	movs.w	ip, r4, lsr #21
 8000446:	d105      	bne.n	8000454 <__adddf3+0x230>
 8000448:	0040      	lsls	r0, r0, #1
 800044a:	4149      	adcs	r1, r1
 800044c:	bf28      	it	cs
 800044e:	f041 4100 	orrcs.w	r1, r1, #2147483648	; 0x80000000
 8000452:	bd30      	pop	{r4, r5, pc}
 8000454:	f514 0480 	adds.w	r4, r4, #4194304	; 0x400000
 8000458:	bf3c      	itt	cc
 800045a:	f501 1180 	addcc.w	r1, r1, #1048576	; 0x100000
 800045e:	bd30      	popcc	{r4, r5, pc}
 8000460:	f001 4500 	and.w	r5, r1, #2147483648	; 0x80000000
 8000464:	f045 41fe 	orr.w	r1, r5, #2130706432	; 0x7f000000
 8000468:	f441 0170 	orr.w	r1, r1, #15728640	; 0xf00000
 800046c:	f04f 0000 	mov.w	r0, #0
 8000470:	bd30      	pop	{r4, r5, pc}
 8000472:	ea7f 5c64 	mvns.w	ip, r4, asr #21
 8000476:	bf1a      	itte	ne
 8000478:	4619      	movne	r1, r3
 800047a:	4610      	movne	r0, r2
 800047c:	ea7f 5c65 	mvnseq.w	ip, r5, asr #21
 8000480:	bf1c      	itt	ne
 8000482:	460b      	movne	r3, r1
 8000484:	4602      	movne	r2, r0
 8000486:	ea50 3401 	orrs.w	r4, r0, r1, lsl #12
 800048a:	bf06      	itte	eq
 800048c:	ea52 3503 	orrseq.w	r5, r2, r3, lsl #12
 8000490:	ea91 0f03 	teqeq	r1, r3
 8000494:	f441 2100 	orrne.w	r1, r1, #524288	; 0x80000
 8000498:	bd30      	pop	{r4, r5, pc}
 800049a:	bf00      	nop

0800049c <__aeabi_ui2d>:
 800049c:	f090 0f00 	teq	r0, #0
 80004a0:	bf04      	itt	eq
 80004a2:	2100      	moveq	r1, #0
 80004a4:	4770      	bxeq	lr
 80004a6:	b530      	push	{r4, r5, lr}
 80004a8:	f44f 6480 	mov.w	r4, #1024	; 0x400
 80004ac:	f104 0432 	add.w	r4, r4, #50	; 0x32
 80004b0:	f04f 0500 	mov.w	r5, #0
 80004b4:	f04f 0100 	mov.w	r1, #0
 80004b8:	e750      	b.n	800035c <__adddf3+0x138>
 80004ba:	bf00      	nop

080004bc <__aeabi_i2d>:
 80004bc:	f090 0f00 	teq	r0, #0
 80004c0:	bf04      	itt	eq
 80004c2:	2100      	moveq	r1, #0
 80004c4:	4770      	bxeq	lr
 80004c6:	b530      	push	{r4, r5, lr}
 80004c8:	f44f 6480 	mov.w	r4, #1024	; 0x400
 80004cc:	f104 0432 	add.w	r4, r4, #50	; 0x32
 80004d0:	f010 4500 	ands.w	r5, r0, #2147483648	; 0x80000000
 80004d4:	bf48      	it	mi
 80004d6:	4240      	negmi	r0, r0
 80004d8:	f04f 0100 	mov.w	r1, #0
 80004dc:	e73e      	b.n	800035c <__adddf3+0x138>
 80004de:	bf00      	nop

080004e0 <__aeabi_f2d>:
 80004e0:	0042      	lsls	r2, r0, #1
 80004e2:	ea4f 01e2 	mov.w	r1, r2, asr #3
 80004e6:	ea4f 0131 	mov.w	r1, r1, rrx
 80004ea:	ea4f 7002 	mov.w	r0, r2, lsl #28
 80004ee:	bf1f      	itttt	ne
 80004f0:	f012 437f 	andsne.w	r3, r2, #4278190080	; 0xff000000
 80004f4:	f093 4f7f 	teqne	r3, #4278190080	; 0xff000000
 80004f8:	f081 5160 	eorne.w	r1, r1, #939524096	; 0x38000000
 80004fc:	4770      	bxne	lr
 80004fe:	f092 0f00 	teq	r2, #0
 8000502:	bf14      	ite	ne
 8000504:	f093 4f7f 	teqne	r3, #4278190080	; 0xff000000
 8000508:	4770      	bxeq	lr
 800050a:	b530      	push	{r4, r5, lr}
 800050c:	f44f 7460 	mov.w	r4, #896	; 0x380
 8000510:	f001 4500 	and.w	r5, r1, #2147483648	; 0x80000000
 8000514:	f021 4100 	bic.w	r1, r1, #2147483648	; 0x80000000
 8000518:	e720      	b.n	800035c <__adddf3+0x138>
 800051a:	bf00      	nop

0800051c <__aeabi_ul2d>:
 800051c:	ea50 0201 	orrs.w	r2, r0, r1
 8000520:	bf08      	it	eq
 8000522:	4770      	bxeq	lr
 8000524:	b530      	push	{r4, r5, lr}
 8000526:	f04f 0500 	mov.w	r5, #0
 800052a:	e00a      	b.n	8000542 <__aeabi_l2d+0x16>

0800052c <__aeabi_l2d>:
 800052c:	ea50 0201 	orrs.w	r2, r0, r1
 8000530:	bf08      	it	eq
 8000532:	4770      	bxeq	lr
 8000534:	b530      	push	{r4, r5, lr}
 8000536:	f011 4500 	ands.w	r5, r1, #2147483648	; 0x80000000
 800053a:	d502      	bpl.n	8000542 <__aeabi_l2d+0x16>
 800053c:	4240      	negs	r0, r0
 800053e:	eb61 0141 	sbc.w	r1, r1, r1, lsl #1
 8000542:	f44f 6480 	mov.w	r4, #1024	; 0x400
 8000546:	f104 0432 	add.w	r4, r4, #50	; 0x32
 800054a:	ea5f 5c91 	movs.w	ip, r1, lsr #22
 800054e:	f43f aedc 	beq.w	800030a <__adddf3+0xe6>
 8000552:	f04f 0203 	mov.w	r2, #3
 8000556:	ea5f 0cdc 	movs.w	ip, ip, lsr #3
 800055a:	bf18      	it	ne
 800055c:	3203      	addne	r2, #3
 800055e:	ea5f 0cdc 	movs.w	ip, ip, lsr #3
 8000562:	bf18      	it	ne
 8000564:	3203      	addne	r2, #3
 8000566:	eb02 02dc 	add.w	r2, r2, ip, lsr #3
 800056a:	f1c2 0320 	rsb	r3, r2, #32
 800056e:	fa00 fc03 	lsl.w	ip, r0, r3
 8000572:	fa20 f002 	lsr.w	r0, r0, r2
 8000576:	fa01 fe03 	lsl.w	lr, r1, r3
 800057a:	ea40 000e 	orr.w	r0, r0, lr
 800057e:	fa21 f102 	lsr.w	r1, r1, r2
 8000582:	4414      	add	r4, r2
 8000584:	e6c1      	b.n	800030a <__adddf3+0xe6>
 8000586:	bf00      	nop

08000588 <__aeabi_dmul>:
 8000588:	b570      	push	{r4, r5, r6, lr}
 800058a:	f04f 0cff 	mov.w	ip, #255	; 0xff
 800058e:	f44c 6ce0 	orr.w	ip, ip, #1792	; 0x700
 8000592:	ea1c 5411 	ands.w	r4, ip, r1, lsr #20
 8000596:	bf1d      	ittte	ne
 8000598:	ea1c 5513 	andsne.w	r5, ip, r3, lsr #20
 800059c:	ea94 0f0c 	teqne	r4, ip
 80005a0:	ea95 0f0c 	teqne	r5, ip
 80005a4:	f000 f8de 	bleq	8000764 <__aeabi_dmul+0x1dc>
 80005a8:	442c      	add	r4, r5
 80005aa:	ea81 0603 	eor.w	r6, r1, r3
 80005ae:	ea21 514c 	bic.w	r1, r1, ip, lsl #21
 80005b2:	ea23 534c 	bic.w	r3, r3, ip, lsl #21
 80005b6:	ea50 3501 	orrs.w	r5, r0, r1, lsl #12
 80005ba:	bf18      	it	ne
 80005bc:	ea52 3503 	orrsne.w	r5, r2, r3, lsl #12
 80005c0:	f441 1180 	orr.w	r1, r1, #1048576	; 0x100000
 80005c4:	f443 1380 	orr.w	r3, r3, #1048576	; 0x100000
 80005c8:	d038      	beq.n	800063c <__aeabi_dmul+0xb4>
 80005ca:	fba0 ce02 	umull	ip, lr, r0, r2
 80005ce:	f04f 0500 	mov.w	r5, #0
 80005d2:	fbe1 e502 	umlal	lr, r5, r1, r2
 80005d6:	f006 4200 	and.w	r2, r6, #2147483648	; 0x80000000
 80005da:	fbe0 e503 	umlal	lr, r5, r0, r3
 80005de:	f04f 0600 	mov.w	r6, #0
 80005e2:	fbe1 5603 	umlal	r5, r6, r1, r3
 80005e6:	f09c 0f00 	teq	ip, #0
 80005ea:	bf18      	it	ne
 80005ec:	f04e 0e01 	orrne.w	lr, lr, #1
 80005f0:	f1a4 04ff 	sub.w	r4, r4, #255	; 0xff
 80005f4:	f5b6 7f00 	cmp.w	r6, #512	; 0x200
 80005f8:	f564 7440 	sbc.w	r4, r4, #768	; 0x300
 80005fc:	d204      	bcs.n	8000608 <__aeabi_dmul+0x80>
 80005fe:	ea5f 0e4e 	movs.w	lr, lr, lsl #1
 8000602:	416d      	adcs	r5, r5
 8000604:	eb46 0606 	adc.w	r6, r6, r6
 8000608:	ea42 21c6 	orr.w	r1, r2, r6, lsl #11
 800060c:	ea41 5155 	orr.w	r1, r1, r5, lsr #21
 8000610:	ea4f 20c5 	mov.w	r0, r5, lsl #11
 8000614:	ea40 505e 	orr.w	r0, r0, lr, lsr #21
 8000618:	ea4f 2ece 	mov.w	lr, lr, lsl #11
 800061c:	f1b4 0cfd 	subs.w	ip, r4, #253	; 0xfd
 8000620:	bf88      	it	hi
 8000622:	f5bc 6fe0 	cmphi.w	ip, #1792	; 0x700
 8000626:	d81e      	bhi.n	8000666 <__aeabi_dmul+0xde>
 8000628:	f1be 4f00 	cmp.w	lr, #2147483648	; 0x80000000
 800062c:	bf08      	it	eq
 800062e:	ea5f 0e50 	movseq.w	lr, r0, lsr #1
 8000632:	f150 0000 	adcs.w	r0, r0, #0
 8000636:	eb41 5104 	adc.w	r1, r1, r4, lsl #20
 800063a:	bd70      	pop	{r4, r5, r6, pc}
 800063c:	f006 4600 	and.w	r6, r6, #2147483648	; 0x80000000
 8000640:	ea46 0101 	orr.w	r1, r6, r1
 8000644:	ea40 0002 	orr.w	r0, r0, r2
 8000648:	ea81 0103 	eor.w	r1, r1, r3
 800064c:	ebb4 045c 	subs.w	r4, r4, ip, lsr #1
 8000650:	bfc2      	ittt	gt
 8000652:	ebd4 050c 	rsbsgt	r5, r4, ip
 8000656:	ea41 5104 	orrgt.w	r1, r1, r4, lsl #20
 800065a:	bd70      	popgt	{r4, r5, r6, pc}
 800065c:	f441 1180 	orr.w	r1, r1, #1048576	; 0x100000
 8000660:	f04f 0e00 	mov.w	lr, #0
 8000664:	3c01      	subs	r4, #1
 8000666:	f300 80ab 	bgt.w	80007c0 <__aeabi_dmul+0x238>
 800066a:	f114 0f36 	cmn.w	r4, #54	; 0x36
 800066e:	bfde      	ittt	le
 8000670:	2000      	movle	r0, #0
 8000672:	f001 4100 	andle.w	r1, r1, #2147483648	; 0x80000000
 8000676:	bd70      	pople	{r4, r5, r6, pc}
 8000678:	f1c4 0400 	rsb	r4, r4, #0
 800067c:	3c20      	subs	r4, #32
 800067e:	da35      	bge.n	80006ec <__aeabi_dmul+0x164>
 8000680:	340c      	adds	r4, #12
 8000682:	dc1b      	bgt.n	80006bc <__aeabi_dmul+0x134>
 8000684:	f104 0414 	add.w	r4, r4, #20
 8000688:	f1c4 0520 	rsb	r5, r4, #32
 800068c:	fa00 f305 	lsl.w	r3, r0, r5
 8000690:	fa20 f004 	lsr.w	r0, r0, r4
 8000694:	fa01 f205 	lsl.w	r2, r1, r5
 8000698:	ea40 0002 	orr.w	r0, r0, r2
 800069c:	f001 4200 	and.w	r2, r1, #2147483648	; 0x80000000
 80006a0:	f021 4100 	bic.w	r1, r1, #2147483648	; 0x80000000
 80006a4:	eb10 70d3 	adds.w	r0, r0, r3, lsr #31
 80006a8:	fa21 f604 	lsr.w	r6, r1, r4
 80006ac:	eb42 0106 	adc.w	r1, r2, r6
 80006b0:	ea5e 0e43 	orrs.w	lr, lr, r3, lsl #1
 80006b4:	bf08      	it	eq
 80006b6:	ea20 70d3 	biceq.w	r0, r0, r3, lsr #31
 80006ba:	bd70      	pop	{r4, r5, r6, pc}
 80006bc:	f1c4 040c 	rsb	r4, r4, #12
 80006c0:	f1c4 0520 	rsb	r5, r4, #32
 80006c4:	fa00 f304 	lsl.w	r3, r0, r4
 80006c8:	fa20 f005 	lsr.w	r0, r0, r5
 80006cc:	fa01 f204 	lsl.w	r2, r1, r4
 80006d0:	ea40 0002 	orr.w	r0, r0, r2
 80006d4:	f001 4100 	and.w	r1, r1, #2147483648	; 0x80000000
 80006d8:	eb10 70d3 	adds.w	r0, r0, r3, lsr #31
 80006dc:	f141 0100 	adc.w	r1, r1, #0
 80006e0:	ea5e 0e43 	orrs.w	lr, lr, r3, lsl #1
 80006e4:	bf08      	it	eq
 80006e6:	ea20 70d3 	biceq.w	r0, r0, r3, lsr #31
 80006ea:	bd70      	pop	{r4, r5, r6, pc}
 80006ec:	f1c4 0520 	rsb	r5, r4, #32
 80006f0:	fa00 f205 	lsl.w	r2, r0, r5
 80006f4:	ea4e 0e02 	orr.w	lr, lr, r2
 80006f8:	fa20 f304 	lsr.w	r3, r0, r4
 80006fc:	fa01 f205 	lsl.w	r2, r1, r5
 8000700:	ea43 0302 	orr.w	r3, r3, r2
 8000704:	fa21 f004 	lsr.w	r0, r1, r4
 8000708:	f001 4100 	and.w	r1, r1, #2147483648	; 0x80000000
 800070c:	fa21 f204 	lsr.w	r2, r1, r4
 8000710:	ea20 0002 	bic.w	r0, r0, r2
 8000714:	eb00 70d3 	add.w	r0, r0, r3, lsr #31
 8000718:	ea5e 0e43 	orrs.w	lr, lr, r3, lsl #1
 800071c:	bf08      	it	eq
 800071e:	ea20 70d3 	biceq.w	r0, r0, r3, lsr #31
 8000722:	bd70      	pop	{r4, r5, r6, pc}
 8000724:	f094 0f00 	teq	r4, #0
 8000728:	d10f      	bne.n	800074a <__aeabi_dmul+0x1c2>
 800072a:	f001 4600 	and.w	r6, r1, #2147483648	; 0x80000000
 800072e:	0040      	lsls	r0, r0, #1
 8000730:	eb41 0101 	adc.w	r1, r1, r1
 8000734:	f411 1f80 	tst.w	r1, #1048576	; 0x100000
 8000738:	bf08      	it	eq
 800073a:	3c01      	subeq	r4, #1
 800073c:	d0f7      	beq.n	800072e <__aeabi_dmul+0x1a6>
 800073e:	ea41 0106 	orr.w	r1, r1, r6
 8000742:	f095 0f00 	teq	r5, #0
 8000746:	bf18      	it	ne
 8000748:	4770      	bxne	lr
 800074a:	f003 4600 	and.w	r6, r3, #2147483648	; 0x80000000
 800074e:	0052      	lsls	r2, r2, #1
 8000750:	eb43 0303 	adc.w	r3, r3, r3
 8000754:	f413 1f80 	tst.w	r3, #1048576	; 0x100000
 8000758:	bf08      	it	eq
 800075a:	3d01      	subeq	r5, #1
 800075c:	d0f7      	beq.n	800074e <__aeabi_dmul+0x1c6>
 800075e:	ea43 0306 	orr.w	r3, r3, r6
 8000762:	4770      	bx	lr
 8000764:	ea94 0f0c 	teq	r4, ip
 8000768:	ea0c 5513 	and.w	r5, ip, r3, lsr #20
 800076c:	bf18      	it	ne
 800076e:	ea95 0f0c 	teqne	r5, ip
 8000772:	d00c      	beq.n	800078e <__aeabi_dmul+0x206>
 8000774:	ea50 0641 	orrs.w	r6, r0, r1, lsl #1
 8000778:	bf18      	it	ne
 800077a:	ea52 0643 	orrsne.w	r6, r2, r3, lsl #1
 800077e:	d1d1      	bne.n	8000724 <__aeabi_dmul+0x19c>
 8000780:	ea81 0103 	eor.w	r1, r1, r3
 8000784:	f001 4100 	and.w	r1, r1, #2147483648	; 0x80000000
 8000788:	f04f 0000 	mov.w	r0, #0
 800078c:	bd70      	pop	{r4, r5, r6, pc}
 800078e:	ea50 0641 	orrs.w	r6, r0, r1, lsl #1
 8000792:	bf06      	itte	eq
 8000794:	4610      	moveq	r0, r2
 8000796:	4619      	moveq	r1, r3
 8000798:	ea52 0643 	orrsne.w	r6, r2, r3, lsl #1
 800079c:	d019      	beq.n	80007d2 <__aeabi_dmul+0x24a>
 800079e:	ea94 0f0c 	teq	r4, ip
 80007a2:	d102      	bne.n	80007aa <__aeabi_dmul+0x222>
 80007a4:	ea50 3601 	orrs.w	r6, r0, r1, lsl #12
 80007a8:	d113      	bne.n	80007d2 <__aeabi_dmul+0x24a>
 80007aa:	ea95 0f0c 	teq	r5, ip
 80007ae:	d105      	bne.n	80007bc <__aeabi_dmul+0x234>
 80007b0:	ea52 3603 	orrs.w	r6, r2, r3, lsl #12
 80007b4:	bf1c      	itt	ne
 80007b6:	4610      	movne	r0, r2
 80007b8:	4619      	movne	r1, r3
 80007ba:	d10a      	bne.n	80007d2 <__aeabi_dmul+0x24a>
 80007bc:	ea81 0103 	eor.w	r1, r1, r3
 80007c0:	f001 4100 	and.w	r1, r1, #2147483648	; 0x80000000
 80007c4:	f041 41fe 	orr.w	r1, r1, #2130706432	; 0x7f000000
 80007c8:	f441 0170 	orr.w	r1, r1, #15728640	; 0xf00000
 80007cc:	f04f 0000 	mov.w	r0, #0
 80007d0:	bd70      	pop	{r4, r5, r6, pc}
 80007d2:	f041 41fe 	orr.w	r1, r1, #2130706432	; 0x7f000000
 80007d6:	f441 0178 	orr.w	r1, r1, #16252928	; 0xf80000
 80007da:	bd70      	pop	{r4, r5, r6, pc}

080007dc <__aeabi_ddiv>:
 80007dc:	b570      	push	{r4, r5, r6, lr}
 80007de:	f04f 0cff 	mov.w	ip, #255	; 0xff
 80007e2:	f44c 6ce0 	orr.w	ip, ip, #1792	; 0x700
 80007e6:	ea1c 5411 	ands.w	r4, ip, r1, lsr #20
 80007ea:	bf1d      	ittte	ne
 80007ec:	ea1c 5513 	andsne.w	r5, ip, r3, lsr #20
 80007f0:	ea94 0f0c 	teqne	r4, ip
 80007f4:	ea95 0f0c 	teqne	r5, ip
 80007f8:	f000 f8a7 	bleq	800094a <__aeabi_ddiv+0x16e>
 80007fc:	eba4 0405 	sub.w	r4, r4, r5
 8000800:	ea81 0e03 	eor.w	lr, r1, r3
 8000804:	ea52 3503 	orrs.w	r5, r2, r3, lsl #12
 8000808:	ea4f 3101 	mov.w	r1, r1, lsl #12
 800080c:	f000 8088 	beq.w	8000920 <__aeabi_ddiv+0x144>
 8000810:	ea4f 3303 	mov.w	r3, r3, lsl #12
 8000814:	f04f 5580 	mov.w	r5, #268435456	; 0x10000000
 8000818:	ea45 1313 	orr.w	r3, r5, r3, lsr #4
 800081c:	ea43 6312 	orr.w	r3, r3, r2, lsr #24
 8000820:	ea4f 2202 	mov.w	r2, r2, lsl #8
 8000824:	ea45 1511 	orr.w	r5, r5, r1, lsr #4
 8000828:	ea45 6510 	orr.w	r5, r5, r0, lsr #24
 800082c:	ea4f 2600 	mov.w	r6, r0, lsl #8
 8000830:	f00e 4100 	and.w	r1, lr, #2147483648	; 0x80000000
 8000834:	429d      	cmp	r5, r3
 8000836:	bf08      	it	eq
 8000838:	4296      	cmpeq	r6, r2
 800083a:	f144 04fd 	adc.w	r4, r4, #253	; 0xfd
 800083e:	f504 7440 	add.w	r4, r4, #768	; 0x300
 8000842:	d202      	bcs.n	800084a <__aeabi_ddiv+0x6e>
 8000844:	085b      	lsrs	r3, r3, #1
 8000846:	ea4f 0232 	mov.w	r2, r2, rrx
 800084a:	1ab6      	subs	r6, r6, r2
 800084c:	eb65 0503 	sbc.w	r5, r5, r3
 8000850:	085b      	lsrs	r3, r3, #1
 8000852:	ea4f 0232 	mov.w	r2, r2, rrx
 8000856:	f44f 1080 	mov.w	r0, #1048576	; 0x100000
 800085a:	f44f 2c00 	mov.w	ip, #524288	; 0x80000
 800085e:	ebb6 0e02 	subs.w	lr, r6, r2
 8000862:	eb75 0e03 	sbcs.w	lr, r5, r3
 8000866:	bf22      	ittt	cs
 8000868:	1ab6      	subcs	r6, r6, r2
 800086a:	4675      	movcs	r5, lr
 800086c:	ea40 000c 	orrcs.w	r0, r0, ip
 8000870:	085b      	lsrs	r3, r3, #1
 8000872:	ea4f 0232 	mov.w	r2, r2, rrx
 8000876:	ebb6 0e02 	subs.w	lr, r6, r2
 800087a:	eb75 0e03 	sbcs.w	lr, r5, r3
 800087e:	bf22      	ittt	cs
 8000880:	1ab6      	subcs	r6, r6, r2
 8000882:	4675      	movcs	r5, lr
 8000884:	ea40 005c 	orrcs.w	r0, r0, ip, lsr #1
 8000888:	085b      	lsrs	r3, r3, #1
 800088a:	ea4f 0232 	mov.w	r2, r2, rrx
 800088e:	ebb6 0e02 	subs.w	lr, r6, r2
 8000892:	eb75 0e03 	sbcs.w	lr, r5, r3
 8000896:	bf22      	ittt	cs
 8000898:	1ab6      	subcs	r6, r6, r2
 800089a:	4675      	movcs	r5, lr
 800089c:	ea40 009c 	orrcs.w	r0, r0, ip, lsr #2
 80008a0:	085b      	lsrs	r3, r3, #1
 80008a2:	ea4f 0232 	mov.w	r2, r2, rrx
 80008a6:	ebb6 0e02 	subs.w	lr, r6, r2
 80008aa:	eb75 0e03 	sbcs.w	lr, r5, r3
 80008ae:	bf22      	ittt	cs
 80008b0:	1ab6      	subcs	r6, r6, r2
 80008b2:	4675      	movcs	r5, lr
 80008b4:	ea40 00dc 	orrcs.w	r0, r0, ip, lsr #3
 80008b8:	ea55 0e06 	orrs.w	lr, r5, r6
 80008bc:	d018      	beq.n	80008f0 <__aeabi_ddiv+0x114>
 80008be:	ea4f 1505 	mov.w	r5, r5, lsl #4
 80008c2:	ea45 7516 	orr.w	r5, r5, r6, lsr #28
 80008c6:	ea4f 1606 	mov.w	r6, r6, lsl #4
 80008ca:	ea4f 03c3 	mov.w	r3, r3, lsl #3
 80008ce:	ea43 7352 	orr.w	r3, r3, r2, lsr #29
 80008d2:	ea4f 02c2 	mov.w	r2, r2, lsl #3
 80008d6:	ea5f 1c1c 	movs.w	ip, ip, lsr #4
 80008da:	d1c0      	bne.n	800085e <__aeabi_ddiv+0x82>
 80008dc:	f411 1f80 	tst.w	r1, #1048576	; 0x100000
 80008e0:	d10b      	bne.n	80008fa <__aeabi_ddiv+0x11e>
 80008e2:	ea41 0100 	orr.w	r1, r1, r0
 80008e6:	f04f 0000 	mov.w	r0, #0
 80008ea:	f04f 4c00 	mov.w	ip, #2147483648	; 0x80000000
 80008ee:	e7b6      	b.n	800085e <__aeabi_ddiv+0x82>
 80008f0:	f411 1f80 	tst.w	r1, #1048576	; 0x100000
 80008f4:	bf04      	itt	eq
 80008f6:	4301      	orreq	r1, r0
 80008f8:	2000      	moveq	r0, #0
 80008fa:	f1b4 0cfd 	subs.w	ip, r4, #253	; 0xfd
 80008fe:	bf88      	it	hi
 8000900:	f5bc 6fe0 	cmphi.w	ip, #1792	; 0x700
 8000904:	f63f aeaf 	bhi.w	8000666 <__aeabi_dmul+0xde>
 8000908:	ebb5 0c03 	subs.w	ip, r5, r3
 800090c:	bf04      	itt	eq
 800090e:	ebb6 0c02 	subseq.w	ip, r6, r2
 8000912:	ea5f 0c50 	movseq.w	ip, r0, lsr #1
 8000916:	f150 0000 	adcs.w	r0, r0, #0
 800091a:	eb41 5104 	adc.w	r1, r1, r4, lsl #20
 800091e:	bd70      	pop	{r4, r5, r6, pc}
 8000920:	f00e 4e00 	and.w	lr, lr, #2147483648	; 0x80000000
 8000924:	ea4e 3111 	orr.w	r1, lr, r1, lsr #12
 8000928:	eb14 045c 	adds.w	r4, r4, ip, lsr #1
 800092c:	bfc2      	ittt	gt
 800092e:	ebd4 050c 	rsbsgt	r5, r4, ip
 8000932:	ea41 5104 	orrgt.w	r1, r1, r4, lsl #20
 8000936:	bd70      	popgt	{r4, r5, r6, pc}
 8000938:	f441 1180 	orr.w	r1, r1, #1048576	; 0x100000
 800093c:	f04f 0e00 	mov.w	lr, #0
 8000940:	3c01      	subs	r4, #1
 8000942:	e690      	b.n	8000666 <__aeabi_dmul+0xde>
 8000944:	ea45 0e06 	orr.w	lr, r5, r6
 8000948:	e68d      	b.n	8000666 <__aeabi_dmul+0xde>
 800094a:	ea0c 5513 	and.w	r5, ip, r3, lsr #20
 800094e:	ea94 0f0c 	teq	r4, ip
 8000952:	bf08      	it	eq
 8000954:	ea95 0f0c 	teqeq	r5, ip
 8000958:	f43f af3b 	beq.w	80007d2 <__aeabi_dmul+0x24a>
 800095c:	ea94 0f0c 	teq	r4, ip
 8000960:	d10a      	bne.n	8000978 <__aeabi_ddiv+0x19c>
 8000962:	ea50 3401 	orrs.w	r4, r0, r1, lsl #12
 8000966:	f47f af34 	bne.w	80007d2 <__aeabi_dmul+0x24a>
 800096a:	ea95 0f0c 	teq	r5, ip
 800096e:	f47f af25 	bne.w	80007bc <__aeabi_dmul+0x234>
 8000972:	4610      	mov	r0, r2
 8000974:	4619      	mov	r1, r3
 8000976:	e72c      	b.n	80007d2 <__aeabi_dmul+0x24a>
 8000978:	ea95 0f0c 	teq	r5, ip
 800097c:	d106      	bne.n	800098c <__aeabi_ddiv+0x1b0>
 800097e:	ea52 3503 	orrs.w	r5, r2, r3, lsl #12
 8000982:	f43f aefd 	beq.w	8000780 <__aeabi_dmul+0x1f8>
 8000986:	4610      	mov	r0, r2
 8000988:	4619      	mov	r1, r3
 800098a:	e722      	b.n	80007d2 <__aeabi_dmul+0x24a>
 800098c:	ea50 0641 	orrs.w	r6, r0, r1, lsl #1
 8000990:	bf18      	it	ne
 8000992:	ea52 0643 	orrsne.w	r6, r2, r3, lsl #1
 8000996:	f47f aec5 	bne.w	8000724 <__aeabi_dmul+0x19c>
 800099a:	ea50 0441 	orrs.w	r4, r0, r1, lsl #1
 800099e:	f47f af0d 	bne.w	80007bc <__aeabi_dmul+0x234>
 80009a2:	ea52 0543 	orrs.w	r5, r2, r3, lsl #1
 80009a6:	f47f aeeb 	bne.w	8000780 <__aeabi_dmul+0x1f8>
 80009aa:	e712      	b.n	80007d2 <__aeabi_dmul+0x24a>

080009ac <__gedf2>:
 80009ac:	f04f 3cff 	mov.w	ip, #4294967295
 80009b0:	e006      	b.n	80009c0 <__cmpdf2+0x4>
 80009b2:	bf00      	nop

080009b4 <__ledf2>:
 80009b4:	f04f 0c01 	mov.w	ip, #1
 80009b8:	e002      	b.n	80009c0 <__cmpdf2+0x4>
 80009ba:	bf00      	nop

080009bc <__cmpdf2>:
 80009bc:	f04f 0c01 	mov.w	ip, #1
 80009c0:	f84d cd04 	str.w	ip, [sp, #-4]!
 80009c4:	ea4f 0c41 	mov.w	ip, r1, lsl #1
 80009c8:	ea7f 5c6c 	mvns.w	ip, ip, asr #21
 80009cc:	ea4f 0c43 	mov.w	ip, r3, lsl #1
 80009d0:	bf18      	it	ne
 80009d2:	ea7f 5c6c 	mvnsne.w	ip, ip, asr #21
 80009d6:	d01b      	beq.n	8000a10 <__cmpdf2+0x54>
 80009d8:	b001      	add	sp, #4
 80009da:	ea50 0c41 	orrs.w	ip, r0, r1, lsl #1
 80009de:	bf0c      	ite	eq
 80009e0:	ea52 0c43 	orrseq.w	ip, r2, r3, lsl #1
 80009e4:	ea91 0f03 	teqne	r1, r3
 80009e8:	bf02      	ittt	eq
 80009ea:	ea90 0f02 	teqeq	r0, r2
 80009ee:	2000      	moveq	r0, #0
 80009f0:	4770      	bxeq	lr
 80009f2:	f110 0f00 	cmn.w	r0, #0
 80009f6:	ea91 0f03 	teq	r1, r3
 80009fa:	bf58      	it	pl
 80009fc:	4299      	cmppl	r1, r3
 80009fe:	bf08      	it	eq
 8000a00:	4290      	cmpeq	r0, r2
 8000a02:	bf2c      	ite	cs
 8000a04:	17d8      	asrcs	r0, r3, #31
 8000a06:	ea6f 70e3 	mvncc.w	r0, r3, asr #31
 8000a0a:	f040 0001 	orr.w	r0, r0, #1
 8000a0e:	4770      	bx	lr
 8000a10:	ea4f 0c41 	mov.w	ip, r1, lsl #1
 8000a14:	ea7f 5c6c 	mvns.w	ip, ip, asr #21
 8000a18:	d102      	bne.n	8000a20 <__cmpdf2+0x64>
 8000a1a:	ea50 3c01 	orrs.w	ip, r0, r1, lsl #12
 8000a1e:	d107      	bne.n	8000a30 <__cmpdf2+0x74>
 8000a20:	ea4f 0c43 	mov.w	ip, r3, lsl #1
 8000a24:	ea7f 5c6c 	mvns.w	ip, ip, asr #21
 8000a28:	d1d6      	bne.n	80009d8 <__cmpdf2+0x1c>
 8000a2a:	ea52 3c03 	orrs.w	ip, r2, r3, lsl #12
 8000a2e:	d0d3      	beq.n	80009d8 <__cmpdf2+0x1c>
 8000a30:	f85d 0b04 	ldr.w	r0, [sp], #4
 8000a34:	4770      	bx	lr
 8000a36:	bf00      	nop

08000a38 <__aeabi_cdrcmple>:
 8000a38:	4684      	mov	ip, r0
 8000a3a:	4610      	mov	r0, r2
 8000a3c:	4662      	mov	r2, ip
 8000a3e:	468c      	mov	ip, r1
 8000a40:	4619      	mov	r1, r3
 8000a42:	4663      	mov	r3, ip
 8000a44:	e000      	b.n	8000a48 <__aeabi_cdcmpeq>
 8000a46:	bf00      	nop

08000a48 <__aeabi_cdcmpeq>:
 8000a48:	b501      	push	{r0, lr}
 8000a4a:	f7ff ffb7 	bl	80009bc <__cmpdf2>
 8000a4e:	2800      	cmp	r0, #0
 8000a50:	bf48      	it	mi
 8000a52:	f110 0f00 	cmnmi.w	r0, #0
 8000a56:	bd01      	pop	{r0, pc}

08000a58 <__aeabi_dcmpeq>:
 8000a58:	f84d ed08 	str.w	lr, [sp, #-8]!
 8000a5c:	f7ff fff4 	bl	8000a48 <__aeabi_cdcmpeq>
 8000a60:	bf0c      	ite	eq
 8000a62:	2001      	moveq	r0, #1
 8000a64:	2000      	movne	r0, #0
 8000a66:	f85d fb08 	ldr.w	pc, [sp], #8
 8000a6a:	bf00      	nop

08000a6c <__aeabi_dcmplt>:
 8000a6c:	f84d ed08 	str.w	lr, [sp, #-8]!
 8000a70:	f7ff ffea 	bl	8000a48 <__aeabi_cdcmpeq>
 8000a74:	bf34      	ite	cc
 8000a76:	2001      	movcc	r0, #1
 8000a78:	2000      	movcs	r0, #0
 8000a7a:	f85d fb08 	ldr.w	pc, [sp], #8
 8000a7e:	bf00      	nop

08000a80 <__aeabi_dcmple>:
 8000a80:	f84d ed08 	str.w	lr, [sp, #-8]!
 8000a84:	f7ff ffe0 	bl	8000a48 <__aeabi_cdcmpeq>
 8000a88:	bf94      	ite	ls
 8000a8a:	2001      	movls	r0, #1
 8000a8c:	2000      	movhi	r0, #0
 8000a8e:	f85d fb08 	ldr.w	pc, [sp], #8
 8000a92:	bf00      	nop

08000a94 <__aeabi_dcmpge>:
 8000a94:	f84d ed08 	str.w	lr, [sp, #-8]!
 8000a98:	f7ff ffce 	bl	8000a38 <__aeabi_cdrcmple>
 8000a9c:	bf94      	ite	ls
 8000a9e:	2001      	movls	r0, #1
 8000aa0:	2000      	movhi	r0, #0
 8000aa2:	f85d fb08 	ldr.w	pc, [sp], #8
 8000aa6:	bf00      	nop

08000aa8 <__aeabi_dcmpgt>:
 8000aa8:	f84d ed08 	str.w	lr, [sp, #-8]!
 8000aac:	f7ff ffc4 	bl	8000a38 <__aeabi_cdrcmple>
 8000ab0:	bf34      	ite	cc
 8000ab2:	2001      	movcc	r0, #1
 8000ab4:	2000      	movcs	r0, #0
 8000ab6:	f85d fb08 	ldr.w	pc, [sp], #8
 8000aba:	bf00      	nop

08000abc <__aeabi_d2iz>:
 8000abc:	ea4f 0241 	mov.w	r2, r1, lsl #1
 8000ac0:	f512 1200 	adds.w	r2, r2, #2097152	; 0x200000
 8000ac4:	d215      	bcs.n	8000af2 <__aeabi_d2iz+0x36>
 8000ac6:	d511      	bpl.n	8000aec <__aeabi_d2iz+0x30>
 8000ac8:	f46f 7378 	mvn.w	r3, #992	; 0x3e0
 8000acc:	ebb3 5262 	subs.w	r2, r3, r2, asr #21
 8000ad0:	d912      	bls.n	8000af8 <__aeabi_d2iz+0x3c>
 8000ad2:	ea4f 23c1 	mov.w	r3, r1, lsl #11
 8000ad6:	f043 4300 	orr.w	r3, r3, #2147483648	; 0x80000000
 8000ada:	ea43 5350 	orr.w	r3, r3, r0, lsr #21
 8000ade:	f011 4f00 	tst.w	r1, #2147483648	; 0x80000000
 8000ae2:	fa23 f002 	lsr.w	r0, r3, r2
 8000ae6:	bf18      	it	ne
 8000ae8:	4240      	negne	r0, r0
 8000aea:	4770      	bx	lr
 8000aec:	f04f 0000 	mov.w	r0, #0
 8000af0:	4770      	bx	lr
 8000af2:	ea50 3001 	orrs.w	r0, r0, r1, lsl #12
 8000af6:	d105      	bne.n	8000b04 <__aeabi_d2iz+0x48>
 8000af8:	f011 4000 	ands.w	r0, r1, #2147483648	; 0x80000000
 8000afc:	bf08      	it	eq
 8000afe:	f06f 4000 	mvneq.w	r0, #2147483648	; 0x80000000
 8000b02:	4770      	bx	lr
 8000b04:	f04f 0000 	mov.w	r0, #0
 8000b08:	4770      	bx	lr
 8000b0a:	bf00      	nop

08000b0c <__aeabi_d2uiz>:
 8000b0c:	004a      	lsls	r2, r1, #1
 8000b0e:	d211      	bcs.n	8000b34 <__aeabi_d2uiz+0x28>
 8000b10:	f512 1200 	adds.w	r2, r2, #2097152	; 0x200000
 8000b14:	d211      	bcs.n	8000b3a <__aeabi_d2uiz+0x2e>
 8000b16:	d50d      	bpl.n	8000b34 <__aeabi_d2uiz+0x28>
 8000b18:	f46f 7378 	mvn.w	r3, #992	; 0x3e0
 8000b1c:	ebb3 5262 	subs.w	r2, r3, r2, asr #21
 8000b20:	d40e      	bmi.n	8000b40 <__aeabi_d2uiz+0x34>
 8000b22:	ea4f 23c1 	mov.w	r3, r1, lsl #11
 8000b26:	f043 4300 	orr.w	r3, r3, #2147483648	; 0x80000000
 8000b2a:	ea43 5350 	orr.w	r3, r3, r0, lsr #21
 8000b2e:	fa23 f002 	lsr.w	r0, r3, r2
 8000b32:	4770      	bx	lr
 8000b34:	f04f 0000 	mov.w	r0, #0
 8000b38:	4770      	bx	lr
 8000b3a:	ea50 3001 	orrs.w	r0, r0, r1, lsl #12
 8000b3e:	d102      	bne.n	8000b46 <__aeabi_d2uiz+0x3a>
 8000b40:	f04f 30ff 	mov.w	r0, #4294967295
 8000b44:	4770      	bx	lr
 8000b46:	f04f 0000 	mov.w	r0, #0
 8000b4a:	4770      	bx	lr

08000b4c <__aeabi_d2f>:
 8000b4c:	ea4f 0241 	mov.w	r2, r1, lsl #1
 8000b50:	f1b2 43e0 	subs.w	r3, r2, #1879048192	; 0x70000000
 8000b54:	bf24      	itt	cs
 8000b56:	f5b3 1c00 	subscs.w	ip, r3, #2097152	; 0x200000
 8000b5a:	f1dc 5cfe 	rsbscs	ip, ip, #532676608	; 0x1fc00000
 8000b5e:	d90d      	bls.n	8000b7c <__aeabi_d2f+0x30>
 8000b60:	f001 4c00 	and.w	ip, r1, #2147483648	; 0x80000000
 8000b64:	ea4f 02c0 	mov.w	r2, r0, lsl #3
 8000b68:	ea4c 7050 	orr.w	r0, ip, r0, lsr #29
 8000b6c:	f1b2 4f00 	cmp.w	r2, #2147483648	; 0x80000000
 8000b70:	eb40 0083 	adc.w	r0, r0, r3, lsl #2
 8000b74:	bf08      	it	eq
 8000b76:	f020 0001 	biceq.w	r0, r0, #1
 8000b7a:	4770      	bx	lr
 8000b7c:	f011 4f80 	tst.w	r1, #1073741824	; 0x40000000
 8000b80:	d121      	bne.n	8000bc6 <__aeabi_d2f+0x7a>
 8000b82:	f113 7238 	adds.w	r2, r3, #48234496	; 0x2e00000
 8000b86:	bfbc      	itt	lt
 8000b88:	f001 4000 	andlt.w	r0, r1, #2147483648	; 0x80000000
 8000b8c:	4770      	bxlt	lr
 8000b8e:	f441 1180 	orr.w	r1, r1, #1048576	; 0x100000
 8000b92:	ea4f 5252 	mov.w	r2, r2, lsr #21
 8000b96:	f1c2 0218 	rsb	r2, r2, #24
 8000b9a:	f1c2 0c20 	rsb	ip, r2, #32
 8000b9e:	fa10 f30c 	lsls.w	r3, r0, ip
 8000ba2:	fa20 f002 	lsr.w	r0, r0, r2
 8000ba6:	bf18      	it	ne
 8000ba8:	f040 0001 	orrne.w	r0, r0, #1
 8000bac:	ea4f 23c1 	mov.w	r3, r1, lsl #11
 8000bb0:	ea4f 23d3 	mov.w	r3, r3, lsr #11
 8000bb4:	fa03 fc0c 	lsl.w	ip, r3, ip
 8000bb8:	ea40 000c 	orr.w	r0, r0, ip
 8000bbc:	fa23 f302 	lsr.w	r3, r3, r2
 8000bc0:	ea4f 0343 	mov.w	r3, r3, lsl #1
 8000bc4:	e7cc      	b.n	8000b60 <__aeabi_d2f+0x14>
 8000bc6:	ea7f 5362 	mvns.w	r3, r2, asr #21
 8000bca:	d107      	bne.n	8000bdc <__aeabi_d2f+0x90>
 8000bcc:	ea50 3301 	orrs.w	r3, r0, r1, lsl #12
 8000bd0:	bf1e      	ittt	ne
 8000bd2:	f04f 40fe 	movne.w	r0, #2130706432	; 0x7f000000
 8000bd6:	f440 0040 	orrne.w	r0, r0, #12582912	; 0xc00000
 8000bda:	4770      	bxne	lr
 8000bdc:	f001 4000 	and.w	r0, r1, #2147483648	; 0x80000000
 8000be0:	f040 40fe 	orr.w	r0, r0, #2130706432	; 0x7f000000
 8000be4:	f440 0000 	orr.w	r0, r0, #8388608	; 0x800000
 8000be8:	4770      	bx	lr
 8000bea:	bf00      	nop

08000bec <LL_mDelay>:
  *         will configure Systick to 1ms
  * @param  Delay specifies the delay time length, in milliseconds.
  * @retval None
  */
void LL_mDelay(uint32_t Delay)
{
 8000bec:	b082      	sub	sp, #8
  __IO uint32_t  tmp = SysTick->CTRL;  /* Clear the COUNTFLAG first */
 8000bee:	4b09      	ldr	r3, [pc, #36]	; (8000c14 <LL_mDelay+0x28>)
 8000bf0:	681b      	ldr	r3, [r3, #0]
 8000bf2:	9301      	str	r3, [sp, #4]
  /* Add this code to indicate that local variable is not used */
  ((void)tmp);
 8000bf4:	9b01      	ldr	r3, [sp, #4]

  /* Add a period to guaranty minimum wait */
  if(Delay < LL_MAX_DELAY)
 8000bf6:	f1b0 3fff 	cmp.w	r0, #4294967295
 8000bfa:	d000      	beq.n	8000bfe <LL_mDelay+0x12>
  {
    Delay++;
 8000bfc:	3001      	adds	r0, #1
  }

  while (Delay)
 8000bfe:	b130      	cbz	r0, 8000c0e <LL_mDelay+0x22>
  {
    if((SysTick->CTRL & SysTick_CTRL_COUNTFLAG_Msk) != 0U)
 8000c00:	4b04      	ldr	r3, [pc, #16]	; (8000c14 <LL_mDelay+0x28>)
 8000c02:	681b      	ldr	r3, [r3, #0]
 8000c04:	f413 3f80 	tst.w	r3, #65536	; 0x10000
 8000c08:	d0f9      	beq.n	8000bfe <LL_mDelay+0x12>
    {
      Delay--;
 8000c0a:	3801      	subs	r0, #1
 8000c0c:	e7f7      	b.n	8000bfe <LL_mDelay+0x12>
    }
  }
}
 8000c0e:	b002      	add	sp, #8
 8000c10:	4770      	bx	lr
 8000c12:	bf00      	nop
 8000c14:	e000e010 	.word	0xe000e010

08000c18 <pset>:
  * @param  y: y coordinate of the pixel
  * @param  color: color of the pixel
  * @retval None
  */
void pset(UG_S16 x, UG_S16 y, UG_COLOR color)
{
 8000c18:	b410      	push	{r4}
	__IO uint16_t (*pFrame)[LCD_WIDTH] = (uint16_t (*)[LCD_WIDTH])LCD_DRAW_BUFFER_UGUI;

	pFrame[y][x] = color;
 8000c1a:	ebc1 1101 	rsb	r1, r1, r1, lsl #4
 8000c1e:	018c      	lsls	r4, r1, #6
 8000c20:	4b03      	ldr	r3, [pc, #12]	; (8000c30 <pset+0x18>)
 8000c22:	4423      	add	r3, r4
 8000c24:	f823 2010 	strh.w	r2, [r3, r0, lsl #1]
}
 8000c28:	f85d 4b04 	ldr.w	r4, [sp], #4
 8000c2c:	4770      	bx	lr
 8000c2e:	bf00      	nop
 8000c30:	c0200000 	.word	0xc0200000

08000c34 <clearScreen>:
  * @retval None
  */
void clearScreen(void)
{
	/* wait for any ongoing transfers to complete */
	while(DMA2D->CR & 0x01);
 8000c34:	4b0d      	ldr	r3, [pc, #52]	; (8000c6c <clearScreen+0x38>)
 8000c36:	681b      	ldr	r3, [r3, #0]
 8000c38:	f013 0f01 	tst.w	r3, #1
 8000c3c:	d1fa      	bne.n	8000c34 <clearScreen>

	DMA2D->CR = 0x00030100;					/* reg-memory, transfer error intr enable */
 8000c3e:	4b0b      	ldr	r3, [pc, #44]	; (8000c6c <clearScreen+0x38>)
 8000c40:	4a0b      	ldr	r2, [pc, #44]	; (8000c70 <clearScreen+0x3c>)
 8000c42:	601a      	str	r2, [r3, #0]
	DMA2D->OCOLR = C_BLACK;					/* color */
 8000c44:	2200      	movs	r2, #0
 8000c46:	639a      	str	r2, [r3, #56]	; 0x38

	DMA2D->OMAR	= LCD_FRAME_BUFFER;			/* output addr */
 8000c48:	f04f 4140 	mov.w	r1, #3221225472	; 0xc0000000
 8000c4c:	63d9      	str	r1, [r3, #60]	; 0x3c
	DMA2D->OOR = 0; 						/* output offset */
 8000c4e:	641a      	str	r2, [r3, #64]	; 0x40
	DMA2D->OPFCCR = 0x02;					/* output format RGB565 */
 8000c50:	2202      	movs	r2, #2
 8000c52:	635a      	str	r2, [r3, #52]	; 0x34
	DMA2D->NLR = (LCD_WIDTH)<<16 |			/* frame dimensions */
 8000c54:	4a07      	ldr	r2, [pc, #28]	; (8000c74 <clearScreen+0x40>)
 8000c56:	645a      	str	r2, [r3, #68]	; 0x44
					(LCD_HEIGHT)<<0;

	DMA2D->IFCR |= 0x3F;					/* clear all flags */
 8000c58:	689a      	ldr	r2, [r3, #8]
 8000c5a:	f042 023f 	orr.w	r2, r2, #63	; 0x3f
 8000c5e:	609a      	str	r2, [r3, #8]
	DMA2D->CR |= 0x01;						/* start transfer */
 8000c60:	681a      	ldr	r2, [r3, #0]
 8000c62:	f042 0201 	orr.w	r2, r2, #1
 8000c66:	601a      	str	r2, [r3, #0]
 8000c68:	4770      	bx	lr
 8000c6a:	bf00      	nop
 8000c6c:	4002b000 	.word	0x4002b000
 8000c70:	00030100 	.word	0x00030100
 8000c74:	01e00110 	.word	0x01e00110

08000c78 <fillScreenWave>:
  * @retval None
  */
void fillScreenWave(UG_COLOR color)
{
	/* wait for any ongoing transfers to complete */
	while(DMA2D->CR & 0x01);
 8000c78:	4b0c      	ldr	r3, [pc, #48]	; (8000cac <fillScreenWave+0x34>)
 8000c7a:	681b      	ldr	r3, [r3, #0]
 8000c7c:	f013 0f01 	tst.w	r3, #1
 8000c80:	d1fa      	bne.n	8000c78 <fillScreenWave>

	DMA2D->CR = 0x00030100;					/* reg-memory, transfer error intr enable */
 8000c82:	4b0a      	ldr	r3, [pc, #40]	; (8000cac <fillScreenWave+0x34>)
 8000c84:	4a0a      	ldr	r2, [pc, #40]	; (8000cb0 <fillScreenWave+0x38>)
 8000c86:	601a      	str	r2, [r3, #0]
	DMA2D->OCOLR = color;					/* color */
 8000c88:	6398      	str	r0, [r3, #56]	; 0x38

	DMA2D->OMAR	= LCD_DRAW_BUFFER_WAVE;		/* output addr */
 8000c8a:	4a0a      	ldr	r2, [pc, #40]	; (8000cb4 <fillScreenWave+0x3c>)
 8000c8c:	63da      	str	r2, [r3, #60]	; 0x3c
	DMA2D->OOR = 0; 						/* output offset */
 8000c8e:	2200      	movs	r2, #0
 8000c90:	641a      	str	r2, [r3, #64]	; 0x40
	DMA2D->OPFCCR = 0x02;					/* output format RGB565 */
 8000c92:	2202      	movs	r2, #2
 8000c94:	635a      	str	r2, [r3, #52]	; 0x34
	DMA2D->NLR = (LCD_WIDTH)<<16 |			/* frame dimensions */
 8000c96:	4a08      	ldr	r2, [pc, #32]	; (8000cb8 <fillScreenWave+0x40>)
 8000c98:	645a      	str	r2, [r3, #68]	; 0x44
					(LCD_HEIGHT)<<0;

	DMA2D->IFCR |= 0x3F;					/* clear all flags */
 8000c9a:	689a      	ldr	r2, [r3, #8]
 8000c9c:	f042 023f 	orr.w	r2, r2, #63	; 0x3f
 8000ca0:	609a      	str	r2, [r3, #8]
	DMA2D->CR |= 0x01;						/* start transfer */
 8000ca2:	681a      	ldr	r2, [r3, #0]
 8000ca4:	f042 0201 	orr.w	r2, r2, #1
 8000ca8:	601a      	str	r2, [r3, #0]
 8000caa:	4770      	bx	lr
 8000cac:	4002b000 	.word	0x4002b000
 8000cb0:	00030100 	.word	0x00030100
 8000cb4:	c0400000 	.word	0xc0400000
 8000cb8:	01e00110 	.word	0x01e00110

08000cbc <fillFrameUGUI>:
  * @param  y2: y end
  * @param  color: color to fill the frame with
  * @retval None
  */
UG_RESULT fillFrameUGUI(UG_S16 x1, UG_S16 y1, UG_S16 x2, UG_S16 y2, UG_COLOR color)
{
 8000cbc:	b470      	push	{r4, r5, r6}
	/* wait for any ongoing transfers to complete */
	while(DMA2D->CR & 0x01);
 8000cbe:	4c1c      	ldr	r4, [pc, #112]	; (8000d30 <fillFrameUGUI+0x74>)
 8000cc0:	6824      	ldr	r4, [r4, #0]
 8000cc2:	f014 0f01 	tst.w	r4, #1
 8000cc6:	d1fa      	bne.n	8000cbe <fillFrameUGUI+0x2>

	DMA2D_error_flag = 0;					/* clear any existing error */
 8000cc8:	2500      	movs	r5, #0
 8000cca:	4c1a      	ldr	r4, [pc, #104]	; (8000d34 <fillFrameUGUI+0x78>)
 8000ccc:	7025      	strb	r5, [r4, #0]

	DMA2D->CR = 0x00030100;					/* reg-memory, transfer error intr enable */
 8000cce:	4c18      	ldr	r4, [pc, #96]	; (8000d30 <fillFrameUGUI+0x74>)
 8000cd0:	4d19      	ldr	r5, [pc, #100]	; (8000d38 <fillFrameUGUI+0x7c>)
 8000cd2:	6025      	str	r5, [r4, #0]
	DMA2D->OCOLR = color;					/* color */
 8000cd4:	f8bd 500c 	ldrh.w	r5, [sp, #12]
 8000cd8:	63a5      	str	r5, [r4, #56]	; 0x38

	DMA2D->OMAR	= LCD_DRAW_BUFFER_UGUI +
					2*(y1*LCD_WIDTH + x1);	/* output addr */
 8000cda:	ebc1 1601 	rsb	r6, r1, r1, lsl #4
 8000cde:	0175      	lsls	r5, r6, #5
 8000ce0:	4405      	add	r5, r0
	DMA2D->OMAR	= LCD_DRAW_BUFFER_UGUI +
 8000ce2:	4e16      	ldr	r6, [pc, #88]	; (8000d3c <fillFrameUGUI+0x80>)
 8000ce4:	eb06 0545 	add.w	r5, r6, r5, lsl #1
 8000ce8:	63e5      	str	r5, [r4, #60]	; 0x3c
	DMA2D->OOR = LCD_WIDTH - (x2 - x1 + 1); /* output offset */
 8000cea:	1a85      	subs	r5, r0, r2
 8000cec:	f205 15df 	addw	r5, r5, #479	; 0x1df
 8000cf0:	6425      	str	r5, [r4, #64]	; 0x40
	DMA2D->OPFCCR = 0x02;					/* output format RGB565 */
 8000cf2:	2502      	movs	r5, #2
 8000cf4:	6365      	str	r5, [r4, #52]	; 0x34
	DMA2D->NLR = (x2 - x1 + 1)<<16 |		/* frame dimensions */
 8000cf6:	1a12      	subs	r2, r2, r0
 8000cf8:	3201      	adds	r2, #1
					(y2 - y1 + 1)<<0;
 8000cfa:	1a5b      	subs	r3, r3, r1
 8000cfc:	3301      	adds	r3, #1
	DMA2D->NLR = (x2 - x1 + 1)<<16 |		/* frame dimensions */
 8000cfe:	ea43 4302 	orr.w	r3, r3, r2, lsl #16
 8000d02:	6463      	str	r3, [r4, #68]	; 0x44

	DMA2D->IFCR |= 0x3F;					/* clear all flags */
 8000d04:	68a3      	ldr	r3, [r4, #8]
 8000d06:	f043 033f 	orr.w	r3, r3, #63	; 0x3f
 8000d0a:	60a3      	str	r3, [r4, #8]
	DMA2D->CR |= 0x01;						/* start transfer */
 8000d0c:	6823      	ldr	r3, [r4, #0]
 8000d0e:	f043 0301 	orr.w	r3, r3, #1
 8000d12:	6023      	str	r3, [r4, #0]

	/* wait for the transfer to complete */
	while(DMA2D->CR & 0x01);
 8000d14:	4b06      	ldr	r3, [pc, #24]	; (8000d30 <fillFrameUGUI+0x74>)
 8000d16:	681b      	ldr	r3, [r3, #0]
 8000d18:	f013 0f01 	tst.w	r3, #1
 8000d1c:	d1fa      	bne.n	8000d14 <fillFrameUGUI+0x58>

	return (DMA2D_error_flag ? UG_RESULT_FAIL : UG_RESULT_OK);
 8000d1e:	4b05      	ldr	r3, [pc, #20]	; (8000d34 <fillFrameUGUI+0x78>)
 8000d20:	781b      	ldrb	r3, [r3, #0]
 8000d22:	b913      	cbnz	r3, 8000d2a <fillFrameUGUI+0x6e>
 8000d24:	2000      	movs	r0, #0
}
 8000d26:	bc70      	pop	{r4, r5, r6}
 8000d28:	4770      	bx	lr
	return (DMA2D_error_flag ? UG_RESULT_FAIL : UG_RESULT_OK);
 8000d2a:	f04f 30ff 	mov.w	r0, #4294967295
 8000d2e:	e7fa      	b.n	8000d26 <fillFrameUGUI+0x6a>
 8000d30:	4002b000 	.word	0x4002b000
 8000d34:	200000b2 	.word	0x200000b2
 8000d38:	00030100 	.word	0x00030100
 8000d3c:	c0200000 	.word	0xc0200000

08000d40 <drawLineUGUI>:
  * @param  y2: y end
  * @param  color: color of the line
  * @retval None
  */
UG_RESULT drawLineUGUI(UG_S16 x1, UG_S16 y1, UG_S16 x2, UG_S16 y2, UG_COLOR color)
{
 8000d40:	b470      	push	{r4, r5, r6}
	/* wait for any ongoing transfers to complete */
	while(DMA2D->CR & 0x01);
 8000d42:	4c24      	ldr	r4, [pc, #144]	; (8000dd4 <drawLineUGUI+0x94>)
 8000d44:	6824      	ldr	r4, [r4, #0]
 8000d46:	f014 0f01 	tst.w	r4, #1
 8000d4a:	d1fa      	bne.n	8000d42 <drawLineUGUI+0x2>

	DMA2D_error_flag = 0;					/* clear any existing error */
 8000d4c:	2500      	movs	r5, #0
 8000d4e:	4c22      	ldr	r4, [pc, #136]	; (8000dd8 <drawLineUGUI+0x98>)
 8000d50:	7025      	strb	r5, [r4, #0]

	DMA2D->CR = 0x00030100;					/* reg-memory, transfer error intr enable */
 8000d52:	4c20      	ldr	r4, [pc, #128]	; (8000dd4 <drawLineUGUI+0x94>)
 8000d54:	4d21      	ldr	r5, [pc, #132]	; (8000ddc <drawLineUGUI+0x9c>)
 8000d56:	6025      	str	r5, [r4, #0]
	DMA2D->OPFCCR = 0x02;					/* output format RGB565 */
 8000d58:	2502      	movs	r5, #2
 8000d5a:	6365      	str	r5, [r4, #52]	; 0x34
	DMA2D->OCOLR = color;					/* color */
 8000d5c:	f8bd 500c 	ldrh.w	r5, [sp, #12]
 8000d60:	63a5      	str	r5, [r4, #56]	; 0x38
	DMA2D->OMAR	= LCD_DRAW_BUFFER_UGUI +
					2*(y1*LCD_WIDTH + x1);	/* output addr */
 8000d62:	ebc1 1601 	rsb	r6, r1, r1, lsl #4
 8000d66:	0175      	lsls	r5, r6, #5
 8000d68:	4405      	add	r5, r0
	DMA2D->OMAR	= LCD_DRAW_BUFFER_UGUI +
 8000d6a:	4e1d      	ldr	r6, [pc, #116]	; (8000de0 <drawLineUGUI+0xa0>)
 8000d6c:	eb06 0545 	add.w	r5, r6, r5, lsl #1
 8000d70:	63e5      	str	r5, [r4, #60]	; 0x3c

	if(y1 == y2){
 8000d72:	4299      	cmp	r1, r3
 8000d74:	d01e      	beq.n	8000db4 <drawLineUGUI+0x74>
		/* horizontal line */
		DMA2D->OOR = 0; 					/* output offset */
		DMA2D->NLR = (x2 - x1 + 1)<<16 |	/* frame dimensions */
						(1)<<0;
	}
	else if(x1 == x2){
 8000d76:	4290      	cmp	r0, r2
 8000d78:	d128      	bne.n	8000dcc <drawLineUGUI+0x8c>
		/* vertical line */
		DMA2D->OOR = LCD_WIDTH - 1; 		/* output offset */
 8000d7a:	4a16      	ldr	r2, [pc, #88]	; (8000dd4 <drawLineUGUI+0x94>)
 8000d7c:	f240 10df 	movw	r0, #479	; 0x1df
 8000d80:	6410      	str	r0, [r2, #64]	; 0x40
		DMA2D->NLR = (1)<<16 |				/* frame dimensions */
						(y2 - y1 + 1)<<0;
 8000d82:	1a5b      	subs	r3, r3, r1
 8000d84:	3301      	adds	r3, #1
		DMA2D->NLR = (1)<<16 |				/* frame dimensions */
 8000d86:	f443 3380 	orr.w	r3, r3, #65536	; 0x10000
 8000d8a:	6453      	str	r3, [r2, #68]	; 0x44
	}
	else{
		return UG_RESULT_FAIL;
	}

	DMA2D->IFCR |= 0x3F;					/* clear all flags */
 8000d8c:	4b11      	ldr	r3, [pc, #68]	; (8000dd4 <drawLineUGUI+0x94>)
 8000d8e:	689a      	ldr	r2, [r3, #8]
 8000d90:	f042 023f 	orr.w	r2, r2, #63	; 0x3f
 8000d94:	609a      	str	r2, [r3, #8]
	DMA2D->CR |= 0x01;						/* start transfer */
 8000d96:	681a      	ldr	r2, [r3, #0]
 8000d98:	f042 0201 	orr.w	r2, r2, #1
 8000d9c:	601a      	str	r2, [r3, #0]

	/* wait for the transfer to complete */
	while(DMA2D->CR & 0x01);
 8000d9e:	4b0d      	ldr	r3, [pc, #52]	; (8000dd4 <drawLineUGUI+0x94>)
 8000da0:	681b      	ldr	r3, [r3, #0]
 8000da2:	f013 0f01 	tst.w	r3, #1
 8000da6:	d1fa      	bne.n	8000d9e <drawLineUGUI+0x5e>

	return (DMA2D_error_flag ? UG_RESULT_FAIL : UG_RESULT_OK);
 8000da8:	4b0b      	ldr	r3, [pc, #44]	; (8000dd8 <drawLineUGUI+0x98>)
 8000daa:	781b      	ldrb	r3, [r3, #0]
 8000dac:	b95b      	cbnz	r3, 8000dc6 <drawLineUGUI+0x86>
 8000dae:	2000      	movs	r0, #0
}
 8000db0:	bc70      	pop	{r4, r5, r6}
 8000db2:	4770      	bx	lr
		DMA2D->OOR = 0; 					/* output offset */
 8000db4:	2300      	movs	r3, #0
 8000db6:	6423      	str	r3, [r4, #64]	; 0x40
		DMA2D->NLR = (x2 - x1 + 1)<<16 |	/* frame dimensions */
 8000db8:	1a13      	subs	r3, r2, r0
 8000dba:	3301      	adds	r3, #1
 8000dbc:	041b      	lsls	r3, r3, #16
 8000dbe:	f043 0301 	orr.w	r3, r3, #1
 8000dc2:	6463      	str	r3, [r4, #68]	; 0x44
 8000dc4:	e7e2      	b.n	8000d8c <drawLineUGUI+0x4c>
	return (DMA2D_error_flag ? UG_RESULT_FAIL : UG_RESULT_OK);
 8000dc6:	f04f 30ff 	mov.w	r0, #4294967295
 8000dca:	e7f1      	b.n	8000db0 <drawLineUGUI+0x70>
		return UG_RESULT_FAIL;
 8000dcc:	f04f 30ff 	mov.w	r0, #4294967295
 8000dd0:	e7ee      	b.n	8000db0 <drawLineUGUI+0x70>
 8000dd2:	bf00      	nop
 8000dd4:	4002b000 	.word	0x4002b000
 8000dd8:	200000b2 	.word	0x200000b2
 8000ddc:	00030100 	.word	0x00030100
 8000de0:	c0200000 	.word	0xc0200000

08000de4 <updateToScreen>:
  * @retval None
  */
void updateToScreen(void)
{
	/* wait for any ongoing transfers to complete */
	while(DMA2D->CR & 0x01);
 8000de4:	4b10      	ldr	r3, [pc, #64]	; (8000e28 <updateToScreen+0x44>)
 8000de6:	681b      	ldr	r3, [r3, #0]
 8000de8:	f013 0f01 	tst.w	r3, #1
 8000dec:	d1fa      	bne.n	8000de4 <updateToScreen>

	DMA2D->CR = 0x00020100;						/* memory-memory with blending, transfer error intr enable */
 8000dee:	4b0e      	ldr	r3, [pc, #56]	; (8000e28 <updateToScreen+0x44>)
 8000df0:	4a0e      	ldr	r2, [pc, #56]	; (8000e2c <updateToScreen+0x48>)
 8000df2:	601a      	str	r2, [r3, #0]

	DMA2D->FGMAR = LCD_DRAW_BUFFER_UGUI;		/* foreground addr */
 8000df4:	4a0e      	ldr	r2, [pc, #56]	; (8000e30 <updateToScreen+0x4c>)
 8000df6:	60da      	str	r2, [r3, #12]
	DMA2D->FGPFCCR = (0x02<<0) | 				/* foreground format RGB565 */
 8000df8:	4a0e      	ldr	r2, [pc, #56]	; (8000e34 <updateToScreen+0x50>)
 8000dfa:	61da      	str	r2, [r3, #28]
					 (0x1<<16) |				/* replace original alpha */
					 (UGUI_FRAME_ALPHA<<24);	/* blending alpha */

	DMA2D->BGMAR = LCD_DRAW_BUFFER_WAVE;		/* background addr */
 8000dfc:	4a0e      	ldr	r2, [pc, #56]	; (8000e38 <updateToScreen+0x54>)
 8000dfe:	615a      	str	r2, [r3, #20]
	DMA2D->BGPFCCR = (0x02<<0) | 				/* background format RGB565 */
 8000e00:	4a0e      	ldr	r2, [pc, #56]	; (8000e3c <updateToScreen+0x58>)
 8000e02:	625a      	str	r2, [r3, #36]	; 0x24
					 (0x1<<16) |				/* replace original alpha */
					 (WAVE_FRAME_ALPHA<<24);	/* blending alpha */

	DMA2D->OMAR	= LCD_FRAME_BUFFER;				/* output addr */
 8000e04:	f04f 4240 	mov.w	r2, #3221225472	; 0xc0000000
 8000e08:	63da      	str	r2, [r3, #60]	; 0x3c
	DMA2D->OOR = 0; 							/* output offset */
 8000e0a:	2200      	movs	r2, #0
 8000e0c:	641a      	str	r2, [r3, #64]	; 0x40
	DMA2D->OPFCCR = 0x02;						/* output format RGB565 */
 8000e0e:	2202      	movs	r2, #2
 8000e10:	635a      	str	r2, [r3, #52]	; 0x34
	DMA2D->NLR = (LCD_WIDTH)<<16 |				/* frame dimensions */
 8000e12:	4a0b      	ldr	r2, [pc, #44]	; (8000e40 <updateToScreen+0x5c>)
 8000e14:	645a      	str	r2, [r3, #68]	; 0x44
					(LCD_HEIGHT)<<0;

	DMA2D->IFCR |= 0x3F;						/* clear all flags */
 8000e16:	689a      	ldr	r2, [r3, #8]
 8000e18:	f042 023f 	orr.w	r2, r2, #63	; 0x3f
 8000e1c:	609a      	str	r2, [r3, #8]
	DMA2D->CR |= 0x01;							/* start transfer */
 8000e1e:	681a      	ldr	r2, [r3, #0]
 8000e20:	f042 0201 	orr.w	r2, r2, #1
 8000e24:	601a      	str	r2, [r3, #0]
 8000e26:	4770      	bx	lr
 8000e28:	4002b000 	.word	0x4002b000
 8000e2c:	00020100 	.word	0x00020100
 8000e30:	c0200000 	.word	0xc0200000
 8000e34:	8f010002 	.word	0x8f010002
 8000e38:	c0400000 	.word	0xc0400000
 8000e3c:	ff010002 	.word	0xff010002
 8000e40:	01e00110 	.word	0x01e00110

08000e44 <I2C_ReadSingle>:
  * @param  dev_addr: slave address
  * @param  reg: register to be read from
  * @retval Read data
  */
uint8_t I2C_ReadSingle(I2C_TypeDef* bus, uint8_t dev_addr, uint8_t reg)
{
 8000e44:	b5f8      	push	{r3, r4, r5, r6, r7, lr}
 8000e46:	4604      	mov	r4, r0
 8000e48:	460e      	mov	r6, r1
 8000e4a:	4617      	mov	r7, r2
  * @retval None
  */
__STATIC_INLINE void LL_I2C_HandleTransfer(I2C_TypeDef *I2Cx, uint32_t SlaveAddr, uint32_t SlaveAddrSize,
                                           uint32_t TransferSize, uint32_t EndMode, uint32_t Request)
{
  MODIFY_REG(I2Cx->CR2, I2C_CR2_SADD | I2C_CR2_ADD10 | (I2C_CR2_RD_WRN & (uint32_t)(Request >> (31U - I2C_CR2_RD_WRN_Pos))) | I2C_CR2_START | I2C_CR2_STOP | I2C_CR2_RELOAD |
 8000e4c:	6843      	ldr	r3, [r0, #4]
 8000e4e:	f023 737f 	bic.w	r3, r3, #66846720	; 0x3fc0000
 8000e52:	f423 335f 	bic.w	r3, r3, #228352	; 0x37c00
 8000e56:	f423 737f 	bic.w	r3, r3, #1020	; 0x3fc
 8000e5a:	f023 0303 	bic.w	r3, r3, #3
 8000e5e:	4a43      	ldr	r2, [pc, #268]	; (8000f6c <I2C_ReadSingle+0x128>)
 8000e60:	430a      	orrs	r2, r1
 8000e62:	4313      	orrs	r3, r2
 8000e64:	6043      	str	r3, [r0, #4]

	/* send slave address */
	LL_I2C_HandleTransfer(bus, dev_addr, LL_I2C_ADDRSLAVE_7BIT, 1, LL_I2C_MODE_SOFTEND, LL_I2C_GENERATE_START_WRITE);

	/* wait until TXIS flag is set */
	tickstart = Get_tick();
 8000e66:	f001 fdb9 	bl	80029dc <Get_tick>
 8000e6a:	4605      	mov	r5, r0
	while(!LL_I2C_IsActiveFlag_TXIS(bus)){
 8000e6c:	e007      	b.n	8000e7e <I2C_ReadSingle+0x3a>
  return ((READ_BIT(I2Cx->ISR, I2C_ISR_NACKF) == (I2C_ISR_NACKF)) ? 1UL : 0UL);
 8000e6e:	2301      	movs	r3, #1
		/* check if slave acknowledged */
		if(LL_I2C_IsActiveFlag_NACK(bus)){
 8000e70:	2b00      	cmp	r3, #0
 8000e72:	d16b      	bne.n	8000f4c <I2C_ReadSingle+0x108>
			return 0xFF;
		}
		if(Get_tick() - tickstart > I2C_TIMEOUT){
 8000e74:	f001 fdb2 	bl	80029dc <Get_tick>
 8000e78:	1b40      	subs	r0, r0, r5
 8000e7a:	280a      	cmp	r0, #10
 8000e7c:	d869      	bhi.n	8000f52 <I2C_ReadSingle+0x10e>
  return ((READ_BIT(I2Cx->ISR, I2C_ISR_TXIS) == (I2C_ISR_TXIS)) ? 1UL : 0UL);
 8000e7e:	69a3      	ldr	r3, [r4, #24]
 8000e80:	f013 0f02 	tst.w	r3, #2
 8000e84:	d107      	bne.n	8000e96 <I2C_ReadSingle+0x52>
 8000e86:	2300      	movs	r3, #0
	while(!LL_I2C_IsActiveFlag_TXIS(bus)){
 8000e88:	b93b      	cbnz	r3, 8000e9a <I2C_ReadSingle+0x56>
  return ((READ_BIT(I2Cx->ISR, I2C_ISR_NACKF) == (I2C_ISR_NACKF)) ? 1UL : 0UL);
 8000e8a:	69a3      	ldr	r3, [r4, #24]
 8000e8c:	f013 0f10 	tst.w	r3, #16
 8000e90:	d1ed      	bne.n	8000e6e <I2C_ReadSingle+0x2a>
 8000e92:	2300      	movs	r3, #0
 8000e94:	e7ec      	b.n	8000e70 <I2C_ReadSingle+0x2c>
  return ((READ_BIT(I2Cx->ISR, I2C_ISR_TXIS) == (I2C_ISR_TXIS)) ? 1UL : 0UL);
 8000e96:	2301      	movs	r3, #1
 8000e98:	e7f6      	b.n	8000e88 <I2C_ReadSingle+0x44>
  * @param  Data Value between Min_Data=0x00 and Max_Data=0xFF
  * @retval None
  */
__STATIC_INLINE void LL_I2C_TransmitData8(I2C_TypeDef *I2Cx, uint8_t Data)
{
  WRITE_REG(I2Cx->TXDR, Data);
 8000e9a:	62a7      	str	r7, [r4, #40]	; 0x28

	/* send memory address */
	LL_I2C_TransmitData8(bus, reg);

	/* wait until TXIS flag is set */
	tickstart = Get_tick();
 8000e9c:	f001 fd9e 	bl	80029dc <Get_tick>
 8000ea0:	4605      	mov	r5, r0
	while(!LL_I2C_IsActiveFlag_TC(bus)){
 8000ea2:	e007      	b.n	8000eb4 <I2C_ReadSingle+0x70>
  return ((READ_BIT(I2Cx->ISR, I2C_ISR_NACKF) == (I2C_ISR_NACKF)) ? 1UL : 0UL);
 8000ea4:	2301      	movs	r3, #1
		/* check if slave acknowledged */
		if(LL_I2C_IsActiveFlag_NACK(bus)){
 8000ea6:	2b00      	cmp	r3, #0
 8000ea8:	d155      	bne.n	8000f56 <I2C_ReadSingle+0x112>
			return 0xFF;
		}
		if(Get_tick() - tickstart > I2C_TIMEOUT){
 8000eaa:	f001 fd97 	bl	80029dc <Get_tick>
 8000eae:	1b40      	subs	r0, r0, r5
 8000eb0:	280a      	cmp	r0, #10
 8000eb2:	d852      	bhi.n	8000f5a <I2C_ReadSingle+0x116>
  return ((READ_BIT(I2Cx->ISR, I2C_ISR_TC) == (I2C_ISR_TC)) ? 1UL : 0UL);
 8000eb4:	69a3      	ldr	r3, [r4, #24]
 8000eb6:	f013 0f40 	tst.w	r3, #64	; 0x40
 8000eba:	d107      	bne.n	8000ecc <I2C_ReadSingle+0x88>
 8000ebc:	2300      	movs	r3, #0
	while(!LL_I2C_IsActiveFlag_TC(bus)){
 8000ebe:	b93b      	cbnz	r3, 8000ed0 <I2C_ReadSingle+0x8c>
  return ((READ_BIT(I2Cx->ISR, I2C_ISR_NACKF) == (I2C_ISR_NACKF)) ? 1UL : 0UL);
 8000ec0:	69a3      	ldr	r3, [r4, #24]
 8000ec2:	f013 0f10 	tst.w	r3, #16
 8000ec6:	d1ed      	bne.n	8000ea4 <I2C_ReadSingle+0x60>
 8000ec8:	2300      	movs	r3, #0
 8000eca:	e7ec      	b.n	8000ea6 <I2C_ReadSingle+0x62>
  return ((READ_BIT(I2Cx->ISR, I2C_ISR_TC) == (I2C_ISR_TC)) ? 1UL : 0UL);
 8000ecc:	2301      	movs	r3, #1
 8000ece:	e7f6      	b.n	8000ebe <I2C_ReadSingle+0x7a>
  MODIFY_REG(I2Cx->CR2, I2C_CR2_SADD | I2C_CR2_ADD10 | (I2C_CR2_RD_WRN & (uint32_t)(Request >> (31U - I2C_CR2_RD_WRN_Pos))) | I2C_CR2_START | I2C_CR2_STOP | I2C_CR2_RELOAD |
 8000ed0:	6863      	ldr	r3, [r4, #4]
 8000ed2:	f023 737f 	bic.w	r3, r3, #66846720	; 0x3fc0000
 8000ed6:	f423 335f 	bic.w	r3, r3, #228352	; 0x37c00
 8000eda:	f423 737f 	bic.w	r3, r3, #1020	; 0x3fc
 8000ede:	f023 0303 	bic.w	r3, r3, #3
 8000ee2:	4a23      	ldr	r2, [pc, #140]	; (8000f70 <I2C_ReadSingle+0x12c>)
 8000ee4:	4332      	orrs	r2, r6
 8000ee6:	4313      	orrs	r3, r2
 8000ee8:	6063      	str	r3, [r4, #4]

	/* send slave address */
	LL_I2C_HandleTransfer(bus, dev_addr, LL_I2C_ADDRSLAVE_7BIT, 1, LL_I2C_MODE_AUTOEND, LL_I2C_GENERATE_START_READ);

	/* wait until RXNE flag is set */
	tickstart = Get_tick();
 8000eea:	f001 fd77 	bl	80029dc <Get_tick>
 8000eee:	4605      	mov	r5, r0
	while(!LL_I2C_IsActiveFlag_RXNE(bus)){
 8000ef0:	e006      	b.n	8000f00 <I2C_ReadSingle+0xbc>
  return ((READ_BIT(I2Cx->ISR, I2C_ISR_NACKF) == (I2C_ISR_NACKF)) ? 1UL : 0UL);
 8000ef2:	2301      	movs	r3, #1
		/* check if slave acknowledged */
		if(LL_I2C_IsActiveFlag_NACK(bus)){
 8000ef4:	bb9b      	cbnz	r3, 8000f5e <I2C_ReadSingle+0x11a>
			return 0xFF;
		}
		if(Get_tick() - tickstart > I2C_TIMEOUT){
 8000ef6:	f001 fd71 	bl	80029dc <Get_tick>
 8000efa:	1b40      	subs	r0, r0, r5
 8000efc:	280a      	cmp	r0, #10
 8000efe:	d830      	bhi.n	8000f62 <I2C_ReadSingle+0x11e>
  return ((READ_BIT(I2Cx->ISR, I2C_ISR_RXNE) == (I2C_ISR_RXNE)) ? 1UL : 0UL);
 8000f00:	69a3      	ldr	r3, [r4, #24]
 8000f02:	f013 0f04 	tst.w	r3, #4
 8000f06:	d107      	bne.n	8000f18 <I2C_ReadSingle+0xd4>
 8000f08:	2300      	movs	r3, #0
	while(!LL_I2C_IsActiveFlag_RXNE(bus)){
 8000f0a:	b93b      	cbnz	r3, 8000f1c <I2C_ReadSingle+0xd8>
  return ((READ_BIT(I2Cx->ISR, I2C_ISR_NACKF) == (I2C_ISR_NACKF)) ? 1UL : 0UL);
 8000f0c:	69a3      	ldr	r3, [r4, #24]
 8000f0e:	f013 0f10 	tst.w	r3, #16
 8000f12:	d1ee      	bne.n	8000ef2 <I2C_ReadSingle+0xae>
 8000f14:	2300      	movs	r3, #0
 8000f16:	e7ed      	b.n	8000ef4 <I2C_ReadSingle+0xb0>
  return ((READ_BIT(I2Cx->ISR, I2C_ISR_RXNE) == (I2C_ISR_RXNE)) ? 1UL : 0UL);
 8000f18:	2301      	movs	r3, #1
 8000f1a:	e7f6      	b.n	8000f0a <I2C_ReadSingle+0xc6>
  return (uint8_t)(READ_BIT(I2Cx->RXDR, I2C_RXDR_RXDATA));
 8000f1c:	6a65      	ldr	r5, [r4, #36]	; 0x24
 8000f1e:	b2ed      	uxtb	r5, r5
	}

	val = LL_I2C_ReceiveData8(bus);

	/* wait for the STOPF flag to be set */
	tickstart = Get_tick();
 8000f20:	f001 fd5c 	bl	80029dc <Get_tick>
 8000f24:	4606      	mov	r6, r0
	while(!LL_I2C_IsActiveFlag_STOP(bus)){
 8000f26:	e006      	b.n	8000f36 <I2C_ReadSingle+0xf2>
  return ((READ_BIT(I2Cx->ISR, I2C_ISR_STOPF) == (I2C_ISR_STOPF)) ? 1UL : 0UL);
 8000f28:	2301      	movs	r3, #1
 8000f2a:	b953      	cbnz	r3, 8000f42 <I2C_ReadSingle+0xfe>
		if(Get_tick() - tickstart > I2C_TIMEOUT){
 8000f2c:	f001 fd56 	bl	80029dc <Get_tick>
 8000f30:	1b80      	subs	r0, r0, r6
 8000f32:	280a      	cmp	r0, #10
 8000f34:	d817      	bhi.n	8000f66 <I2C_ReadSingle+0x122>
 8000f36:	69a3      	ldr	r3, [r4, #24]
 8000f38:	f013 0f20 	tst.w	r3, #32
 8000f3c:	d1f4      	bne.n	8000f28 <I2C_ReadSingle+0xe4>
 8000f3e:	2300      	movs	r3, #0
 8000f40:	e7f3      	b.n	8000f2a <I2C_ReadSingle+0xe6>
  SET_BIT(I2Cx->ICR, I2C_ICR_STOPCF);
 8000f42:	69e3      	ldr	r3, [r4, #28]
 8000f44:	f043 0320 	orr.w	r3, r3, #32
 8000f48:	61e3      	str	r3, [r4, #28]
	}

	/* clear STOPF flag */
	LL_I2C_ClearFlag_STOP(bus);

	return val;
 8000f4a:	e000      	b.n	8000f4e <I2C_ReadSingle+0x10a>
			return 0xFF;
 8000f4c:	25ff      	movs	r5, #255	; 0xff
}
 8000f4e:	4628      	mov	r0, r5
 8000f50:	bdf8      	pop	{r3, r4, r5, r6, r7, pc}
			return 0xFF;
 8000f52:	25ff      	movs	r5, #255	; 0xff
 8000f54:	e7fb      	b.n	8000f4e <I2C_ReadSingle+0x10a>
			return 0xFF;
 8000f56:	25ff      	movs	r5, #255	; 0xff
 8000f58:	e7f9      	b.n	8000f4e <I2C_ReadSingle+0x10a>
			return 0xFF;
 8000f5a:	25ff      	movs	r5, #255	; 0xff
 8000f5c:	e7f7      	b.n	8000f4e <I2C_ReadSingle+0x10a>
			return 0xFF;
 8000f5e:	25ff      	movs	r5, #255	; 0xff
 8000f60:	e7f5      	b.n	8000f4e <I2C_ReadSingle+0x10a>
			return 0xFF;
 8000f62:	25ff      	movs	r5, #255	; 0xff
 8000f64:	e7f3      	b.n	8000f4e <I2C_ReadSingle+0x10a>
			return 0xFF;
 8000f66:	25ff      	movs	r5, #255	; 0xff
 8000f68:	e7f1      	b.n	8000f4e <I2C_ReadSingle+0x10a>
 8000f6a:	bf00      	nop
 8000f6c:	80012000 	.word	0x80012000
 8000f70:	82012400 	.word	0x82012400

08000f74 <TimQE_init>:
  * @brief  Configures timer for quadrature encoder operation.
  * @param  None
  * @retval None
  */
void TimQE_init(void)
{
 8000f74:	b082      	sub	sp, #8
  * @retval None
*/
__STATIC_INLINE void LL_AHB1_GRP1_EnableClock(uint32_t Periphs)
{
  __IO uint32_t tmpreg;
  SET_BIT(RCC->AHB1ENR, Periphs);
 8000f76:	4b9d      	ldr	r3, [pc, #628]	; (80011ec <TimQE_init+0x278>)
 8000f78:	6b1a      	ldr	r2, [r3, #48]	; 0x30
 8000f7a:	f042 0204 	orr.w	r2, r2, #4
 8000f7e:	631a      	str	r2, [r3, #48]	; 0x30
  /* Delay after an RCC peripheral clock enabling */
  tmpreg = READ_BIT(RCC->AHB1ENR, Periphs);
 8000f80:	6b1b      	ldr	r3, [r3, #48]	; 0x30
 8000f82:	f003 0304 	and.w	r3, r3, #4
 8000f86:	9301      	str	r3, [sp, #4]
  (void)tmpreg;
 8000f88:	9b01      	ldr	r3, [sp, #4]
  *         @arg @ref LL_GPIO_MODE_ANALOG
  * @retval None
  */
__STATIC_INLINE void LL_GPIO_SetPinMode(GPIO_TypeDef *GPIOx, uint32_t Pin, uint32_t Mode)
{
  MODIFY_REG(GPIOx->MODER, (GPIO_MODER_MODER0 << (POSITION_VAL(Pin) * 2U)), (Mode << (POSITION_VAL(Pin) * 2U)));
 8000f8a:	4b99      	ldr	r3, [pc, #612]	; (80011f0 <TimQE_init+0x27c>)
 8000f8c:	681b      	ldr	r3, [r3, #0]
  uint32_t result;

#if ((defined (__ARM_ARCH_7M__      ) && (__ARM_ARCH_7M__      == 1)) || \
     (defined (__ARM_ARCH_7EM__     ) && (__ARM_ARCH_7EM__     == 1)) || \
     (defined (__ARM_ARCH_8M_MAIN__ ) && (__ARM_ARCH_8M_MAIN__ == 1))    )
   __ASM ("rbit %0, %1" : "=r" (result) : "r" (value) );
 8000f8e:	2240      	movs	r2, #64	; 0x40
 8000f90:	fa92 f2a2 	rbit	r2, r2
     optimisations using the logic "value was passed to __builtin_clz, so it
     is non-zero".
     ARM GCC 7.3 and possibly earlier will optimise this test away, leaving a
     single CLZ instruction.
   */
  if (value == 0U)
 8000f94:	2a00      	cmp	r2, #0
 8000f96:	f000 8108 	beq.w	80011aa <TimQE_init+0x236>
  {
    return 32U;
  }
  return __builtin_clz(value);
 8000f9a:	fab2 f282 	clz	r2, r2
 8000f9e:	0052      	lsls	r2, r2, #1
 8000fa0:	2103      	movs	r1, #3
 8000fa2:	fa01 f202 	lsl.w	r2, r1, r2
 8000fa6:	ea23 0202 	bic.w	r2, r3, r2
   __ASM ("rbit %0, %1" : "=r" (result) : "r" (value) );
 8000faa:	2340      	movs	r3, #64	; 0x40
 8000fac:	fa93 f3a3 	rbit	r3, r3
  if (value == 0U)
 8000fb0:	2b00      	cmp	r3, #0
 8000fb2:	f000 80fc 	beq.w	80011ae <TimQE_init+0x23a>
  return __builtin_clz(value);
 8000fb6:	fab3 f383 	clz	r3, r3
 8000fba:	005b      	lsls	r3, r3, #1
 8000fbc:	2102      	movs	r1, #2
 8000fbe:	fa01 f303 	lsl.w	r3, r1, r3
 8000fc2:	4313      	orrs	r3, r2
 8000fc4:	4a8a      	ldr	r2, [pc, #552]	; (80011f0 <TimQE_init+0x27c>)
 8000fc6:	6013      	str	r3, [r2, #0]
 8000fc8:	6813      	ldr	r3, [r2, #0]
   __ASM ("rbit %0, %1" : "=r" (result) : "r" (value) );
 8000fca:	2280      	movs	r2, #128	; 0x80
 8000fcc:	fa92 f2a2 	rbit	r2, r2
  if (value == 0U)
 8000fd0:	2a00      	cmp	r2, #0
 8000fd2:	f000 80ee 	beq.w	80011b2 <TimQE_init+0x23e>
  return __builtin_clz(value);
 8000fd6:	fab2 f282 	clz	r2, r2
 8000fda:	0052      	lsls	r2, r2, #1
 8000fdc:	2103      	movs	r1, #3
 8000fde:	fa01 f202 	lsl.w	r2, r1, r2
 8000fe2:	ea23 0202 	bic.w	r2, r3, r2
   __ASM ("rbit %0, %1" : "=r" (result) : "r" (value) );
 8000fe6:	2380      	movs	r3, #128	; 0x80
 8000fe8:	fa93 f3a3 	rbit	r3, r3
  if (value == 0U)
 8000fec:	2b00      	cmp	r3, #0
 8000fee:	f000 80e2 	beq.w	80011b6 <TimQE_init+0x242>
  return __builtin_clz(value);
 8000ff2:	fab3 f383 	clz	r3, r3
 8000ff6:	005b      	lsls	r3, r3, #1
 8000ff8:	2102      	movs	r1, #2
 8000ffa:	fa01 f303 	lsl.w	r3, r1, r3
 8000ffe:	4313      	orrs	r3, r2
 8001000:	4a7b      	ldr	r2, [pc, #492]	; (80011f0 <TimQE_init+0x27c>)
 8001002:	6013      	str	r3, [r2, #0]
  *         @arg @ref LL_GPIO_SPEED_FREQ_VERY_HIGH
  * @retval None
  */
__STATIC_INLINE void LL_GPIO_SetPinSpeed(GPIO_TypeDef *GPIOx, uint32_t Pin, uint32_t  Speed)
{
  MODIFY_REG(GPIOx->OSPEEDR, (GPIO_OSPEEDER_OSPEEDR0 << (POSITION_VAL(Pin) * 2U)),
 8001004:	6893      	ldr	r3, [r2, #8]
   __ASM ("rbit %0, %1" : "=r" (result) : "r" (value) );
 8001006:	2240      	movs	r2, #64	; 0x40
 8001008:	fa92 f2a2 	rbit	r2, r2
  if (value == 0U)
 800100c:	2a00      	cmp	r2, #0
 800100e:	f000 80d4 	beq.w	80011ba <TimQE_init+0x246>
  return __builtin_clz(value);
 8001012:	fab2 f282 	clz	r2, r2
 8001016:	0052      	lsls	r2, r2, #1
 8001018:	2103      	movs	r1, #3
 800101a:	fa01 f202 	lsl.w	r2, r1, r2
 800101e:	ea23 0202 	bic.w	r2, r3, r2
   __ASM ("rbit %0, %1" : "=r" (result) : "r" (value) );
 8001022:	2340      	movs	r3, #64	; 0x40
 8001024:	fa93 f3a3 	rbit	r3, r3
  if (value == 0U)
 8001028:	2b00      	cmp	r3, #0
 800102a:	f000 80c8 	beq.w	80011be <TimQE_init+0x24a>
  return __builtin_clz(value);
 800102e:	fab3 f383 	clz	r3, r3
 8001032:	005b      	lsls	r3, r3, #1
 8001034:	2102      	movs	r1, #2
 8001036:	fa01 f303 	lsl.w	r3, r1, r3
 800103a:	4313      	orrs	r3, r2
 800103c:	4a6c      	ldr	r2, [pc, #432]	; (80011f0 <TimQE_init+0x27c>)
 800103e:	6093      	str	r3, [r2, #8]
 8001040:	6893      	ldr	r3, [r2, #8]
   __ASM ("rbit %0, %1" : "=r" (result) : "r" (value) );
 8001042:	2280      	movs	r2, #128	; 0x80
 8001044:	fa92 f2a2 	rbit	r2, r2
  if (value == 0U)
 8001048:	2a00      	cmp	r2, #0
 800104a:	f000 80ba 	beq.w	80011c2 <TimQE_init+0x24e>
  return __builtin_clz(value);
 800104e:	fab2 f282 	clz	r2, r2
 8001052:	0052      	lsls	r2, r2, #1
 8001054:	2103      	movs	r1, #3
 8001056:	fa01 f202 	lsl.w	r2, r1, r2
 800105a:	ea23 0202 	bic.w	r2, r3, r2
   __ASM ("rbit %0, %1" : "=r" (result) : "r" (value) );
 800105e:	2380      	movs	r3, #128	; 0x80
 8001060:	fa93 f3a3 	rbit	r3, r3
  if (value == 0U)
 8001064:	2b00      	cmp	r3, #0
 8001066:	f000 80ae 	beq.w	80011c6 <TimQE_init+0x252>
  return __builtin_clz(value);
 800106a:	fab3 f383 	clz	r3, r3
 800106e:	005b      	lsls	r3, r3, #1
 8001070:	2102      	movs	r1, #2
 8001072:	fa01 f303 	lsl.w	r3, r1, r3
 8001076:	4313      	orrs	r3, r2
 8001078:	4a5d      	ldr	r2, [pc, #372]	; (80011f0 <TimQE_init+0x27c>)
 800107a:	6093      	str	r3, [r2, #8]
  MODIFY_REG(GPIOx->OTYPER, PinMask, (PinMask * OutputType));
 800107c:	6853      	ldr	r3, [r2, #4]
 800107e:	f023 03c0 	bic.w	r3, r3, #192	; 0xc0
 8001082:	6053      	str	r3, [r2, #4]
  *         @arg @ref LL_GPIO_PULL_DOWN
  * @retval None
  */
__STATIC_INLINE void LL_GPIO_SetPinPull(GPIO_TypeDef *GPIOx, uint32_t Pin, uint32_t Pull)
{
  MODIFY_REG(GPIOx->PUPDR, (GPIO_PUPDR_PUPDR0 << (POSITION_VAL(Pin) * 2U)), (Pull << (POSITION_VAL(Pin) * 2U)));
 8001084:	68d3      	ldr	r3, [r2, #12]
   __ASM ("rbit %0, %1" : "=r" (result) : "r" (value) );
 8001086:	2240      	movs	r2, #64	; 0x40
 8001088:	fa92 f2a2 	rbit	r2, r2
  if (value == 0U)
 800108c:	2a00      	cmp	r2, #0
 800108e:	f000 809c 	beq.w	80011ca <TimQE_init+0x256>
  return __builtin_clz(value);
 8001092:	fab2 f282 	clz	r2, r2
 8001096:	0052      	lsls	r2, r2, #1
 8001098:	2103      	movs	r1, #3
 800109a:	fa01 f202 	lsl.w	r2, r1, r2
 800109e:	ea23 0202 	bic.w	r2, r3, r2
   __ASM ("rbit %0, %1" : "=r" (result) : "r" (value) );
 80010a2:	2340      	movs	r3, #64	; 0x40
 80010a4:	fa93 f3a3 	rbit	r3, r3
  if (value == 0U)
 80010a8:	2b00      	cmp	r3, #0
 80010aa:	f000 8090 	beq.w	80011ce <TimQE_init+0x25a>
  return __builtin_clz(value);
 80010ae:	fab3 f383 	clz	r3, r3
 80010b2:	005b      	lsls	r3, r3, #1
 80010b4:	2101      	movs	r1, #1
 80010b6:	fa01 f303 	lsl.w	r3, r1, r3
 80010ba:	4313      	orrs	r3, r2
 80010bc:	4a4c      	ldr	r2, [pc, #304]	; (80011f0 <TimQE_init+0x27c>)
 80010be:	60d3      	str	r3, [r2, #12]
 80010c0:	68d3      	ldr	r3, [r2, #12]
   __ASM ("rbit %0, %1" : "=r" (result) : "r" (value) );
 80010c2:	2280      	movs	r2, #128	; 0x80
 80010c4:	fa92 f2a2 	rbit	r2, r2
  if (value == 0U)
 80010c8:	2a00      	cmp	r2, #0
 80010ca:	f000 8082 	beq.w	80011d2 <TimQE_init+0x25e>
  return __builtin_clz(value);
 80010ce:	fab2 f282 	clz	r2, r2
 80010d2:	0052      	lsls	r2, r2, #1
 80010d4:	2103      	movs	r1, #3
 80010d6:	fa01 f202 	lsl.w	r2, r1, r2
 80010da:	ea23 0202 	bic.w	r2, r3, r2
   __ASM ("rbit %0, %1" : "=r" (result) : "r" (value) );
 80010de:	2380      	movs	r3, #128	; 0x80
 80010e0:	fa93 f3a3 	rbit	r3, r3
  if (value == 0U)
 80010e4:	2b00      	cmp	r3, #0
 80010e6:	d076      	beq.n	80011d6 <TimQE_init+0x262>
  return __builtin_clz(value);
 80010e8:	fab3 f383 	clz	r3, r3
 80010ec:	005b      	lsls	r3, r3, #1
 80010ee:	2101      	movs	r1, #1
 80010f0:	fa01 f303 	lsl.w	r3, r1, r3
 80010f4:	4313      	orrs	r3, r2
 80010f6:	4a3e      	ldr	r2, [pc, #248]	; (80011f0 <TimQE_init+0x27c>)
 80010f8:	60d3      	str	r3, [r2, #12]
  *         @arg @ref LL_GPIO_AF_15
  * @retval None
  */
__STATIC_INLINE void LL_GPIO_SetAFPin_0_7(GPIO_TypeDef *GPIOx, uint32_t Pin, uint32_t Alternate)
{
  MODIFY_REG(GPIOx->AFR[0], (GPIO_AFRL_AFRL0 << (POSITION_VAL(Pin) * 4U)),
 80010fa:	6a13      	ldr	r3, [r2, #32]
   __ASM ("rbit %0, %1" : "=r" (result) : "r" (value) );
 80010fc:	2240      	movs	r2, #64	; 0x40
 80010fe:	fa92 f2a2 	rbit	r2, r2
  if (value == 0U)
 8001102:	2a00      	cmp	r2, #0
 8001104:	d069      	beq.n	80011da <TimQE_init+0x266>
  return __builtin_clz(value);
 8001106:	fab2 f282 	clz	r2, r2
 800110a:	0092      	lsls	r2, r2, #2
 800110c:	210f      	movs	r1, #15
 800110e:	fa01 f202 	lsl.w	r2, r1, r2
 8001112:	ea23 0202 	bic.w	r2, r3, r2
   __ASM ("rbit %0, %1" : "=r" (result) : "r" (value) );
 8001116:	2340      	movs	r3, #64	; 0x40
 8001118:	fa93 f3a3 	rbit	r3, r3
  if (value == 0U)
 800111c:	2b00      	cmp	r3, #0
 800111e:	d05e      	beq.n	80011de <TimQE_init+0x26a>
  return __builtin_clz(value);
 8001120:	fab3 f383 	clz	r3, r3
 8001124:	009b      	lsls	r3, r3, #2
 8001126:	2103      	movs	r1, #3
 8001128:	fa01 f303 	lsl.w	r3, r1, r3
 800112c:	4313      	orrs	r3, r2
 800112e:	4a30      	ldr	r2, [pc, #192]	; (80011f0 <TimQE_init+0x27c>)
 8001130:	6213      	str	r3, [r2, #32]
 8001132:	6a13      	ldr	r3, [r2, #32]
   __ASM ("rbit %0, %1" : "=r" (result) : "r" (value) );
 8001134:	2280      	movs	r2, #128	; 0x80
 8001136:	fa92 f2a2 	rbit	r2, r2
  if (value == 0U)
 800113a:	2a00      	cmp	r2, #0
 800113c:	d051      	beq.n	80011e2 <TimQE_init+0x26e>
  return __builtin_clz(value);
 800113e:	fab2 f282 	clz	r2, r2
 8001142:	0092      	lsls	r2, r2, #2
 8001144:	210f      	movs	r1, #15
 8001146:	fa01 f202 	lsl.w	r2, r1, r2
 800114a:	ea23 0202 	bic.w	r2, r3, r2
   __ASM ("rbit %0, %1" : "=r" (result) : "r" (value) );
 800114e:	2380      	movs	r3, #128	; 0x80
 8001150:	fa93 f3a3 	rbit	r3, r3
  if (value == 0U)
 8001154:	2b00      	cmp	r3, #0
 8001156:	d046      	beq.n	80011e6 <TimQE_init+0x272>
  return __builtin_clz(value);
 8001158:	fab3 f383 	clz	r3, r3
 800115c:	009b      	lsls	r3, r3, #2
 800115e:	2103      	movs	r1, #3
 8001160:	fa01 f303 	lsl.w	r3, r1, r3
 8001164:	4313      	orrs	r3, r2
 8001166:	4a22      	ldr	r2, [pc, #136]	; (80011f0 <TimQE_init+0x27c>)
 8001168:	6213      	str	r3, [r2, #32]
  * @retval None
*/
__STATIC_INLINE void LL_APB2_GRP1_EnableClock(uint32_t Periphs)
{
  __IO uint32_t tmpreg;
  SET_BIT(RCC->APB2ENR, Periphs);
 800116a:	4b20      	ldr	r3, [pc, #128]	; (80011ec <TimQE_init+0x278>)
 800116c:	6c5a      	ldr	r2, [r3, #68]	; 0x44
 800116e:	f042 0202 	orr.w	r2, r2, #2
 8001172:	645a      	str	r2, [r3, #68]	; 0x44
  /* Delay after an RCC peripheral clock enabling */
  tmpreg = READ_BIT(RCC->APB2ENR, Periphs);
 8001174:	6c5b      	ldr	r3, [r3, #68]	; 0x44
 8001176:	f003 0302 	and.w	r3, r3, #2
 800117a:	9300      	str	r3, [sp, #0]
  (void)tmpreg;
 800117c:	9b00      	ldr	r3, [sp, #0]
	LL_GPIO_SetAFPin_0_7(TIM_QE_INP_PORT, TIM_QE_INP1_PIN, LL_GPIO_AF_3);
	LL_GPIO_SetAFPin_0_7(TIM_QE_INP_PORT, TIM_QE_INP2_PIN, LL_GPIO_AF_3);

	/* Configure TIM_QE for encoder mode operation */
	TIM_QE_CLK_ENABLE();
	TIM_QE->CCER &= (uint32_t)~(TIM_CCER_CC1E | TIM_CCER_CC2E);		/* disable CC1 & CC2 */
 800117e:	4b1d      	ldr	r3, [pc, #116]	; (80011f4 <TimQE_init+0x280>)
 8001180:	6a1a      	ldr	r2, [r3, #32]
 8001182:	f022 0211 	bic.w	r2, r2, #17
 8001186:	621a      	str	r2, [r3, #32]
	TIM_QE->CCMR1 = 0x00000101;										/* no filter, no prescalar, direct mapping of inputs */
 8001188:	f240 1201 	movw	r2, #257	; 0x101
 800118c:	619a      	str	r2, [r3, #24]
	TIM_QE->CCER  = 0x00000002;										/* timer triggered on CC1 falling edge */
 800118e:	2202      	movs	r2, #2
 8001190:	621a      	str	r2, [r3, #32]
	TIM_QE->SMCR  = 0x00000001;										/* count up/down on CC1 edge depending on CC2 level */
 8001192:	2201      	movs	r2, #1
 8001194:	609a      	str	r2, [r3, #8]
	TIM_QE->CCER |= (uint32_t)(TIM_CCER_CC1E | TIM_CCER_CC2E);		/* enable CC1 & CC2 */
 8001196:	6a1a      	ldr	r2, [r3, #32]
 8001198:	f042 0211 	orr.w	r2, r2, #17
 800119c:	621a      	str	r2, [r3, #32]
	TIM_QE->CR1  |= 0x01;											/* start timer */
 800119e:	681a      	ldr	r2, [r3, #0]
 80011a0:	f042 0201 	orr.w	r2, r2, #1
 80011a4:	601a      	str	r2, [r3, #0]
}
 80011a6:	b002      	add	sp, #8
 80011a8:	4770      	bx	lr
    return 32U;
 80011aa:	2220      	movs	r2, #32
 80011ac:	e6f7      	b.n	8000f9e <TimQE_init+0x2a>
 80011ae:	2320      	movs	r3, #32
 80011b0:	e703      	b.n	8000fba <TimQE_init+0x46>
 80011b2:	2220      	movs	r2, #32
 80011b4:	e711      	b.n	8000fda <TimQE_init+0x66>
 80011b6:	2320      	movs	r3, #32
 80011b8:	e71d      	b.n	8000ff6 <TimQE_init+0x82>
 80011ba:	2220      	movs	r2, #32
 80011bc:	e72b      	b.n	8001016 <TimQE_init+0xa2>
 80011be:	2320      	movs	r3, #32
 80011c0:	e737      	b.n	8001032 <TimQE_init+0xbe>
 80011c2:	2220      	movs	r2, #32
 80011c4:	e745      	b.n	8001052 <TimQE_init+0xde>
 80011c6:	2320      	movs	r3, #32
 80011c8:	e751      	b.n	800106e <TimQE_init+0xfa>
 80011ca:	2220      	movs	r2, #32
 80011cc:	e763      	b.n	8001096 <TimQE_init+0x122>
 80011ce:	2320      	movs	r3, #32
 80011d0:	e76f      	b.n	80010b2 <TimQE_init+0x13e>
 80011d2:	2220      	movs	r2, #32
 80011d4:	e77d      	b.n	80010d2 <TimQE_init+0x15e>
 80011d6:	2320      	movs	r3, #32
 80011d8:	e788      	b.n	80010ec <TimQE_init+0x178>
 80011da:	2220      	movs	r2, #32
 80011dc:	e795      	b.n	800110a <TimQE_init+0x196>
 80011de:	2320      	movs	r3, #32
 80011e0:	e7a0      	b.n	8001124 <TimQE_init+0x1b0>
 80011e2:	2220      	movs	r2, #32
 80011e4:	e7ad      	b.n	8001142 <TimQE_init+0x1ce>
 80011e6:	2320      	movs	r3, #32
 80011e8:	e7b8      	b.n	800115c <TimQE_init+0x1e8>
 80011ea:	bf00      	nop
 80011ec:	40023800 	.word	0x40023800
 80011f0:	40020800 	.word	0x40020800
 80011f4:	40010400 	.word	0x40010400

080011f8 <TimADC_init>:
  * 				5. 500us/div   - 0.096MHz - 0x412
  * 				6. 1ms/div     - 0.048MHz - 0x823
  * @retval None
  */
void TimADC_init(int8_t tbase)
{
 80011f8:	b082      	sub	sp, #8
	uint32_t div;		/* timer divider value */

	switch(tbase)
 80011fa:	3801      	subs	r0, #1
 80011fc:	2805      	cmp	r0, #5
 80011fe:	d804      	bhi.n	800120a <TimADC_init+0x12>
 8001200:	e8df f000 	tbb	[pc, r0]
 8001204:	09070512 	.word	0x09070512
 8001208:	0f0c      	.short	0x0f0c
	{
		case 0: div = 0x2D;  break;
 800120a:	222d      	movs	r2, #45	; 0x2d
 800120c:	e00d      	b.n	800122a <TimADC_init+0x32>
		case 1: div = 0x34;  break;
		case 2: div = 0x68;  break;
 800120e:	2268      	movs	r2, #104	; 0x68
 8001210:	e00b      	b.n	800122a <TimADC_init+0x32>
		case 3: div = 0xD0;  break;
 8001212:	22d0      	movs	r2, #208	; 0xd0
 8001214:	e009      	b.n	800122a <TimADC_init+0x32>
		case 4: div = 0x1A1; break;
 8001216:	f240 12a1 	movw	r2, #417	; 0x1a1
 800121a:	e006      	b.n	800122a <TimADC_init+0x32>
		case 5: div = 0x412; break;
 800121c:	f240 4212 	movw	r2, #1042	; 0x412
 8001220:	e003      	b.n	800122a <TimADC_init+0x32>
		case 6: div = 0x823; break;
 8001222:	f640 0223 	movw	r2, #2083	; 0x823
 8001226:	e000      	b.n	800122a <TimADC_init+0x32>
		case 1: div = 0x34;  break;
 8001228:	2234      	movs	r2, #52	; 0x34
  SET_BIT(RCC->APB2ENR, Periphs);
 800122a:	4b0e      	ldr	r3, [pc, #56]	; (8001264 <TimADC_init+0x6c>)
 800122c:	6c59      	ldr	r1, [r3, #68]	; 0x44
 800122e:	f041 0101 	orr.w	r1, r1, #1
 8001232:	6459      	str	r1, [r3, #68]	; 0x44
  tmpreg = READ_BIT(RCC->APB2ENR, Periphs);
 8001234:	6c5b      	ldr	r3, [r3, #68]	; 0x44
 8001236:	f003 0301 	and.w	r3, r3, #1
 800123a:	9301      	str	r3, [sp, #4]
  (void)tmpreg;
 800123c:	9b01      	ldr	r3, [sp, #4]
		default: div = 0x2D; break;
	}

	TIM_ADC_CLK_ENABLE();
	TIM_ADC->CR1 &= ~(uint32_t)0x01;	/* disable timer */
 800123e:	4b0a      	ldr	r3, [pc, #40]	; (8001268 <TimADC_init+0x70>)
 8001240:	6819      	ldr	r1, [r3, #0]
 8001242:	f021 0101 	bic.w	r1, r1, #1
 8001246:	6019      	str	r1, [r3, #0]
	TIM_ADC->CR2  = 0x00200000;			/* TRGO2 generated on updates */
 8001248:	f44f 1100 	mov.w	r1, #2097152	; 0x200000
 800124c:	6059      	str	r1, [r3, #4]
	TIM_ADC->PSC  = 0x00;				/* counter_clk = timer_inp_clk/1 = 100MHz */
 800124e:	2100      	movs	r1, #0
 8001250:	6299      	str	r1, [r3, #40]	; 0x28
	TIM_ADC->ARR  = div - 1;		    /* default sampling freq = counter_clk/0x2D = 2.222MHz */
 8001252:	3a01      	subs	r2, #1
 8001254:	62da      	str	r2, [r3, #44]	; 0x2c
	TIM_ADC->CR1 |= 0x01;				/* start timer */
 8001256:	681a      	ldr	r2, [r3, #0]
 8001258:	f042 0201 	orr.w	r2, r2, #1
 800125c:	601a      	str	r2, [r3, #0]
}
 800125e:	b002      	add	sp, #8
 8001260:	4770      	bx	lr
 8001262:	bf00      	nop
 8001264:	40023800 	.word	0x40023800
 8001268:	40010000 	.word	0x40010000

0800126c <TimTS_init>:
  * @brief  Configures timer for Touch screen polling.
  * @param  None
  * @retval None
  */
void TimTS_init(void)
{
 800126c:	b082      	sub	sp, #8
  SET_BIT(RCC->APB1ENR, Periphs);
 800126e:	4b13      	ldr	r3, [pc, #76]	; (80012bc <TimTS_init+0x50>)
 8001270:	6c1a      	ldr	r2, [r3, #64]	; 0x40
 8001272:	f042 0204 	orr.w	r2, r2, #4
 8001276:	641a      	str	r2, [r3, #64]	; 0x40
  tmpreg = READ_BIT(RCC->APB1ENR, Periphs);
 8001278:	6c1b      	ldr	r3, [r3, #64]	; 0x40
 800127a:	f003 0304 	and.w	r3, r3, #4
 800127e:	9301      	str	r3, [sp, #4]
  (void)tmpreg;
 8001280:	9b01      	ldr	r3, [sp, #4]
	/* Configure TIM_TS for 20Hz frequency */
	TIM_TS_CLK_ENABLE();
	TIM_TS->CR1 &= ~(uint32_t)0x01;		/* disable timer */
 8001282:	4b0f      	ldr	r3, [pc, #60]	; (80012c0 <TimTS_init+0x54>)
 8001284:	681a      	ldr	r2, [r3, #0]
 8001286:	f022 0201 	bic.w	r2, r2, #1
 800128a:	601a      	str	r2, [r3, #0]
	TIM_TS->PSC  = 10000 - 1;			/* counter_clk = timer_inp_clk/10000 = 100MHz/10000 = 10KHz */
 800128c:	f242 720f 	movw	r2, #9999	; 0x270f
 8001290:	629a      	str	r2, [r3, #40]	; 0x28
	TIM_TS->ARR  = 500 - 1;		    	/* Touch screen polling frequency = counter_clk/500 = 20Hz */
 8001292:	f240 12f3 	movw	r2, #499	; 0x1f3
 8001296:	62da      	str	r2, [r3, #44]	; 0x2c
	TIM_TS->DIER |= 0x01;				/* Enable interrupt on counter overflow */
 8001298:	68da      	ldr	r2, [r3, #12]
 800129a:	f042 0201 	orr.w	r2, r2, #1
 800129e:	60da      	str	r2, [r3, #12]
	TIM_TS->CR1 |= 0x01;				/* start timer */
 80012a0:	681a      	ldr	r2, [r3, #0]
 80012a2:	f042 0201 	orr.w	r2, r2, #1
 80012a6:	601a      	str	r2, [r3, #0]
 */
__STATIC_INLINE void __NVIC_SetPriority(IRQn_Type IRQn, uint32_t priority)
{
  if ((int32_t)(IRQn) >= 0)
  {
    NVIC->IP[((uint32_t)IRQn)]                = (uint8_t)((priority << (8U - __NVIC_PRIO_BITS)) & (uint32_t)0xFFUL);
 80012a8:	4b06      	ldr	r3, [pc, #24]	; (80012c4 <TimTS_init+0x58>)
 80012aa:	2240      	movs	r2, #64	; 0x40
 80012ac:	f883 231e 	strb.w	r2, [r3, #798]	; 0x31e
    NVIC->ISER[(((uint32_t)IRQn) >> 5UL)] = (uint32_t)(1UL << (((uint32_t)IRQn) & 0x1FUL));
 80012b0:	f04f 4280 	mov.w	r2, #1073741824	; 0x40000000
 80012b4:	601a      	str	r2, [r3, #0]

	NVIC_SetPriority(TIM4_IRQn, 4);
	NVIC_EnableIRQ(TIM4_IRQn);
}
 80012b6:	b002      	add	sp, #8
 80012b8:	4770      	bx	lr
 80012ba:	bf00      	nop
 80012bc:	40023800 	.word	0x40023800
 80012c0:	40000800 	.word	0x40000800
 80012c4:	e000e100 	.word	0xe000e100

080012c8 <TimMeas_init>:
  * @brief  Configures timer for calculating measurements.
  * @param  None
  * @retval None
  */
void TimMeas_init(void)
{
 80012c8:	b082      	sub	sp, #8
  SET_BIT(RCC->APB1ENR, Periphs);
 80012ca:	4b13      	ldr	r3, [pc, #76]	; (8001318 <TimMeas_init+0x50>)
 80012cc:	6c1a      	ldr	r2, [r3, #64]	; 0x40
 80012ce:	f042 0202 	orr.w	r2, r2, #2
 80012d2:	641a      	str	r2, [r3, #64]	; 0x40
  tmpreg = READ_BIT(RCC->APB1ENR, Periphs);
 80012d4:	6c1b      	ldr	r3, [r3, #64]	; 0x40
 80012d6:	f003 0302 	and.w	r3, r3, #2
 80012da:	9301      	str	r3, [sp, #4]
  (void)tmpreg;
 80012dc:	9b01      	ldr	r3, [sp, #4]
	/* Configure TIM_MEAS for 20Hz frequency */
	TIM_MEAS_CLK_ENABLE();
	TIM_MEAS->CR1 &= ~(uint32_t)0x01;	/* disable timer */
 80012de:	4b0f      	ldr	r3, [pc, #60]	; (800131c <TimMeas_init+0x54>)
 80012e0:	681a      	ldr	r2, [r3, #0]
 80012e2:	f022 0201 	bic.w	r2, r2, #1
 80012e6:	601a      	str	r2, [r3, #0]
	TIM_MEAS->PSC  = 10000 - 1;			/* counter_clk = timer_inp_clk/10000 = 100MHz/10000 = 10KHz */
 80012e8:	f242 720f 	movw	r2, #9999	; 0x270f
 80012ec:	629a      	str	r2, [r3, #40]	; 0x28
	TIM_MEAS->ARR  = 2500 - 1;		    /* Touch screen polling frequency = counter_clk/2500 = 4Hz */
 80012ee:	f640 12c3 	movw	r2, #2499	; 0x9c3
 80012f2:	62da      	str	r2, [r3, #44]	; 0x2c
	TIM_MEAS->DIER |= 0x01;				/* Enable interrupt on counter overflow */
 80012f4:	68da      	ldr	r2, [r3, #12]
 80012f6:	f042 0201 	orr.w	r2, r2, #1
 80012fa:	60da      	str	r2, [r3, #12]
	TIM_MEAS->CR1 |= 0x01;				/* start timer */
 80012fc:	681a      	ldr	r2, [r3, #0]
 80012fe:	f042 0201 	orr.w	r2, r2, #1
 8001302:	601a      	str	r2, [r3, #0]
    NVIC->IP[((uint32_t)IRQn)]                = (uint8_t)((priority << (8U - __NVIC_PRIO_BITS)) & (uint32_t)0xFFUL);
 8001304:	4b06      	ldr	r3, [pc, #24]	; (8001320 <TimMeas_init+0x58>)
 8001306:	2240      	movs	r2, #64	; 0x40
 8001308:	f883 231d 	strb.w	r2, [r3, #797]	; 0x31d
    NVIC->ISER[(((uint32_t)IRQn) >> 5UL)] = (uint32_t)(1UL << (((uint32_t)IRQn) & 0x1FUL));
 800130c:	f04f 5200 	mov.w	r2, #536870912	; 0x20000000
 8001310:	601a      	str	r2, [r3, #0]

	NVIC_SetPriority(TIM3_IRQn, 4);
	NVIC_EnableIRQ(TIM3_IRQn);
}
 8001312:	b002      	add	sp, #8
 8001314:	4770      	bx	lr
 8001316:	bf00      	nop
 8001318:	40023800 	.word	0x40023800
 800131c:	40000400 	.word	0x40000400
 8001320:	e000e100 	.word	0xe000e100

08001324 <Timers_init>:
{
 8001324:	b508      	push	{r3, lr}
	TimQE_init();
 8001326:	f7ff fe25 	bl	8000f74 <TimQE_init>
	TimADC_init(tscale);
 800132a:	4b05      	ldr	r3, [pc, #20]	; (8001340 <Timers_init+0x1c>)
 800132c:	f993 0000 	ldrsb.w	r0, [r3]
 8001330:	f7ff ff62 	bl	80011f8 <TimADC_init>
	TimTS_init();
 8001334:	f7ff ff9a 	bl	800126c <TimTS_init>
	TimMeas_init();
 8001338:	f7ff ffc6 	bl	80012c8 <TimMeas_init>
 800133c:	bd08      	pop	{r3, pc}
 800133e:	bf00      	nop
 8001340:	20000009 	.word	0x20000009

08001344 <ADC_Ch1_init>:
  * @brief  Configures ADC & DMA for Ch1 of oscilloscope.
  * @param  None
  * @retval None
  */
void ADC_Ch1_init(void)
{
 8001344:	b084      	sub	sp, #16
  SET_BIT(RCC->AHB1ENR, Periphs);
 8001346:	4b3d      	ldr	r3, [pc, #244]	; (800143c <ADC_Ch1_init+0xf8>)
 8001348:	6b1a      	ldr	r2, [r3, #48]	; 0x30
 800134a:	f442 0280 	orr.w	r2, r2, #4194304	; 0x400000
 800134e:	631a      	str	r2, [r3, #48]	; 0x30
  tmpreg = READ_BIT(RCC->AHB1ENR, Periphs);
 8001350:	6b1b      	ldr	r3, [r3, #48]	; 0x30
 8001352:	f403 0380 	and.w	r3, r3, #4194304	; 0x400000
 8001356:	9301      	str	r3, [sp, #4]
  (void)tmpreg;
 8001358:	9b01      	ldr	r3, [sp, #4]
	/* Configure DMA for servicing ADC */
	CH1_ADC_DMA_CLK_ENABLE();
	CH1_ADC_DMA_STREAM->CR  &= ~(uint32_t)0x01;				/* disable stream and confirm */
 800135a:	4a39      	ldr	r2, [pc, #228]	; (8001440 <ADC_Ch1_init+0xfc>)
 800135c:	6813      	ldr	r3, [r2, #0]
 800135e:	f023 0301 	bic.w	r3, r3, #1
 8001362:	6013      	str	r3, [r2, #0]
	while(CH1_ADC_DMA_STREAM->CR & 0x01);
 8001364:	4b36      	ldr	r3, [pc, #216]	; (8001440 <ADC_Ch1_init+0xfc>)
 8001366:	681b      	ldr	r3, [r3, #0]
 8001368:	f013 0f01 	tst.w	r3, #1
 800136c:	d1fa      	bne.n	8001364 <ADC_Ch1_init+0x20>
	CH1_ADC_DMA->LIFCR      |= 0x0000003D;					/* clear stream0 flags/errors */
 800136e:	4a35      	ldr	r2, [pc, #212]	; (8001444 <ADC_Ch1_init+0x100>)
 8001370:	6893      	ldr	r3, [r2, #8]
 8001372:	f043 033d 	orr.w	r3, r3, #61	; 0x3d
 8001376:	6093      	str	r3, [r2, #8]

	CH1_ADC_DMA_STREAM->CR = CH1_ADC_DMA_CHANNEL | 			/* ch0, byte-size transfer, high priority,... */
 8001378:	4b31      	ldr	r3, [pc, #196]	; (8001440 <ADC_Ch1_init+0xfc>)
 800137a:	4a33      	ldr	r2, [pc, #204]	; (8001448 <ADC_Ch1_init+0x104>)
 800137c:	601a      	str	r2, [r3, #0]
								0x00020510;					/* mem inc, periph-to-mem, TCIE=1, 0x00020500(circular), 0x00020410(normal) */
	CH1_ADC_DMA_STREAM->NDTR = (uint32_t)ADC_BUF_SIZE;		/* transfer size */
 800137e:	f44f 62a5 	mov.w	r2, #1320	; 0x528
 8001382:	605a      	str	r2, [r3, #4]
	CH1_ADC_DMA_STREAM->PAR  = (uint32_t)&(CH1_ADC->DR);	/* source addr */
 8001384:	4a31      	ldr	r2, [pc, #196]	; (800144c <ADC_Ch1_init+0x108>)
 8001386:	609a      	str	r2, [r3, #8]
	CH1_ADC_DMA_STREAM->M0AR = (uint32_t)CH1_ADC_vals;		/* destination addr */
 8001388:	4a31      	ldr	r2, [pc, #196]	; (8001450 <ADC_Ch1_init+0x10c>)
 800138a:	60da      	str	r2, [r3, #12]
	CH1_ADC_DMA_STREAM->CR  |= 0x01;						/* enable stream */
 800138c:	681a      	ldr	r2, [r3, #0]
 800138e:	f042 0201 	orr.w	r2, r2, #1
 8001392:	601a      	str	r2, [r3, #0]
    NVIC->IP[((uint32_t)IRQn)]                = (uint8_t)((priority << (8U - __NVIC_PRIO_BITS)) & (uint32_t)0xFFUL);
 8001394:	4b2f      	ldr	r3, [pc, #188]	; (8001454 <ADC_Ch1_init+0x110>)
 8001396:	2220      	movs	r2, #32
 8001398:	f883 2338 	strb.w	r2, [r3, #824]	; 0x338
    NVIC->ISER[(((uint32_t)IRQn) >> 5UL)] = (uint32_t)(1UL << (((uint32_t)IRQn) & 0x1FUL));
 800139c:	f04f 7280 	mov.w	r2, #16777216	; 0x1000000
 80013a0:	605a      	str	r2, [r3, #4]
  SET_BIT(RCC->AHB1ENR, Periphs);
 80013a2:	4b26      	ldr	r3, [pc, #152]	; (800143c <ADC_Ch1_init+0xf8>)
 80013a4:	6b1a      	ldr	r2, [r3, #48]	; 0x30
 80013a6:	f042 0201 	orr.w	r2, r2, #1
 80013aa:	631a      	str	r2, [r3, #48]	; 0x30
  tmpreg = READ_BIT(RCC->AHB1ENR, Periphs);
 80013ac:	6b1b      	ldr	r3, [r3, #48]	; 0x30
 80013ae:	f003 0301 	and.w	r3, r3, #1
 80013b2:	9303      	str	r3, [sp, #12]
  (void)tmpreg;
 80013b4:	9b03      	ldr	r3, [sp, #12]
  MODIFY_REG(GPIOx->MODER, (GPIO_MODER_MODER0 << (POSITION_VAL(Pin) * 2U)), (Mode << (POSITION_VAL(Pin) * 2U)));
 80013b6:	4b28      	ldr	r3, [pc, #160]	; (8001458 <ADC_Ch1_init+0x114>)
 80013b8:	681a      	ldr	r2, [r3, #0]
   __ASM ("rbit %0, %1" : "=r" (result) : "r" (value) );
 80013ba:	2301      	movs	r3, #1
 80013bc:	fa93 f3a3 	rbit	r3, r3
  if (value == 0U)
 80013c0:	2b00      	cmp	r3, #0
 80013c2:	d036      	beq.n	8001432 <ADC_Ch1_init+0xee>
  return __builtin_clz(value);
 80013c4:	fab3 f383 	clz	r3, r3
 80013c8:	005b      	lsls	r3, r3, #1
 80013ca:	2103      	movs	r1, #3
 80013cc:	fa01 f303 	lsl.w	r3, r1, r3
 80013d0:	ea22 0203 	bic.w	r2, r2, r3
   __ASM ("rbit %0, %1" : "=r" (result) : "r" (value) );
 80013d4:	2301      	movs	r3, #1
 80013d6:	fa93 f3a3 	rbit	r3, r3
  if (value == 0U)
 80013da:	2b00      	cmp	r3, #0
 80013dc:	d02b      	beq.n	8001436 <ADC_Ch1_init+0xf2>
  return __builtin_clz(value);
 80013de:	fab3 f383 	clz	r3, r3
 80013e2:	005b      	lsls	r3, r3, #1
 80013e4:	2103      	movs	r1, #3
 80013e6:	fa01 f303 	lsl.w	r3, r1, r3
 80013ea:	4313      	orrs	r3, r2
 80013ec:	4a1a      	ldr	r2, [pc, #104]	; (8001458 <ADC_Ch1_init+0x114>)
 80013ee:	6013      	str	r3, [r2, #0]
  SET_BIT(RCC->APB2ENR, Periphs);
 80013f0:	4b12      	ldr	r3, [pc, #72]	; (800143c <ADC_Ch1_init+0xf8>)
 80013f2:	6c5a      	ldr	r2, [r3, #68]	; 0x44
 80013f4:	f442 7280 	orr.w	r2, r2, #256	; 0x100
 80013f8:	645a      	str	r2, [r3, #68]	; 0x44
  tmpreg = READ_BIT(RCC->APB2ENR, Periphs);
 80013fa:	6c5b      	ldr	r3, [r3, #68]	; 0x44
 80013fc:	f403 7380 	and.w	r3, r3, #256	; 0x100
 8001400:	9302      	str	r3, [sp, #8]
  (void)tmpreg;
 8001402:	9b02      	ldr	r3, [sp, #8]
	 */
	CH1_ADC_INP_GPIO_CLK_ENABLE();
	LL_GPIO_SetPinMode(CH1_ADC_INP_GPIO_PORT, CH1_ADC_INP_PIN, LL_GPIO_MODE_ANALOG);

	CH1_ADC_CLK_ENABLE();
	CH1_ADC->CR2 &= ~(uint32_t)0x01;	/* turn off ADC */
 8001404:	4b15      	ldr	r3, [pc, #84]	; (800145c <ADC_Ch1_init+0x118>)
 8001406:	689a      	ldr	r2, [r3, #8]
 8001408:	f022 0201 	bic.w	r2, r2, #1
 800140c:	609a      	str	r2, [r3, #8]

	CH1_ADC->CR1  = 0x02000000;		    /* 8-bits resolution */
 800140e:	f04f 7200 	mov.w	r2, #33554432	; 0x2000000
 8001412:	605a      	str	r2, [r3, #4]
	CH1_ADC->CR2  = 0x1A000300;			/* triggered by TIM1 TRGO2, rising edge, DMA enabled, DDS=1, EOCS=0 */
 8001414:	4a12      	ldr	r2, [pc, #72]	; (8001460 <ADC_Ch1_init+0x11c>)
 8001416:	609a      	str	r2, [r3, #8]
	CH1_ADC->SQR3 = CH1_ADC_CHANNEL;    /* set channel */
 8001418:	2200      	movs	r2, #0
 800141a:	635a      	str	r2, [r3, #52]	; 0x34
	CH1_ADC->SMPR2= LL_ADC_SAMPLINGTIME_3CYCLES << 0U;
 800141c:	611a      	str	r2, [r3, #16]
	ADC->CCR      = 0x00010000;			/* ADCCLK = APB2CLK/4 */
 800141e:	f44f 3180 	mov.w	r1, #65536	; 0x10000
 8001422:	4a10      	ldr	r2, [pc, #64]	; (8001464 <ADC_Ch1_init+0x120>)
 8001424:	6051      	str	r1, [r2, #4]

	CH1_ADC->CR2 |= 0x01;				/* turn on ADC */
 8001426:	689a      	ldr	r2, [r3, #8]
 8001428:	f042 0201 	orr.w	r2, r2, #1
 800142c:	609a      	str	r2, [r3, #8]
}
 800142e:	b004      	add	sp, #16
 8001430:	4770      	bx	lr
    return 32U;
 8001432:	2320      	movs	r3, #32
 8001434:	e7c8      	b.n	80013c8 <ADC_Ch1_init+0x84>
 8001436:	2320      	movs	r3, #32
 8001438:	e7d3      	b.n	80013e2 <ADC_Ch1_init+0x9e>
 800143a:	bf00      	nop
 800143c:	40023800 	.word	0x40023800
 8001440:	40026410 	.word	0x40026410
 8001444:	40026400 	.word	0x40026400
 8001448:	00020510 	.word	0x00020510
 800144c:	4001204c 	.word	0x4001204c
 8001450:	20000170 	.word	0x20000170
 8001454:	e000e100 	.word	0xe000e100
 8001458:	40020000 	.word	0x40020000
 800145c:	40012000 	.word	0x40012000
 8001460:	1a000300 	.word	0x1a000300
 8001464:	40012300 	.word	0x40012300

08001468 <ADC_Ch1_reinit>:
  * @param  None
  * @retval None
  */
void ADC_Ch1_reinit(void)
{
	CH1_ADC->CR2 &= ~0x01;				/* turn off ADC */
 8001468:	4b0b      	ldr	r3, [pc, #44]	; (8001498 <ADC_Ch1_reinit+0x30>)
 800146a:	689a      	ldr	r2, [r3, #8]
 800146c:	f022 0201 	bic.w	r2, r2, #1
 8001470:	609a      	str	r2, [r3, #8]

	/* Reinitialize DMA for servicing ADC */
	CH1_ADC_DMA_STREAM->CR = CH1_ADC_DMA_CHANNEL | 0x00020510;
 8001472:	4a0a      	ldr	r2, [pc, #40]	; (800149c <ADC_Ch1_reinit+0x34>)
 8001474:	490a      	ldr	r1, [pc, #40]	; (80014a0 <ADC_Ch1_reinit+0x38>)
 8001476:	6011      	str	r1, [r2, #0]
	CH1_ADC_DMA_STREAM->NDTR = (uint32_t)ADC_BUF_SIZE;		/* transfer size */
 8001478:	f44f 61a5 	mov.w	r1, #1320	; 0x528
 800147c:	6051      	str	r1, [r2, #4]
	CH1_ADC_DMA_STREAM->CR |= 0x01;							/* enable stream */
 800147e:	6811      	ldr	r1, [r2, #0]
 8001480:	f041 0101 	orr.w	r1, r1, #1
 8001484:	6011      	str	r1, [r2, #0]

	/* Reinitialize ADC */
	CH1_ADC->SR &= ~(1 << 5);			/* clear overflow bit */
 8001486:	681a      	ldr	r2, [r3, #0]
 8001488:	f022 0220 	bic.w	r2, r2, #32
 800148c:	601a      	str	r2, [r3, #0]
	CH1_ADC->CR2 |= 0x01;				/* turn on ADC */
 800148e:	689a      	ldr	r2, [r3, #8]
 8001490:	f042 0201 	orr.w	r2, r2, #1
 8001494:	609a      	str	r2, [r3, #8]
 8001496:	4770      	bx	lr
 8001498:	40012000 	.word	0x40012000
 800149c:	40026410 	.word	0x40026410
 80014a0:	00020510 	.word	0x00020510

080014a4 <ADC_Ch2_init>:
  * @brief  Configures ADC & DMA for Ch2 of oscilloscope.
  * @param  None
  * @retval None
  */
void ADC_Ch2_init(void)
{
 80014a4:	b084      	sub	sp, #16
  SET_BIT(RCC->AHB1ENR, Periphs);
 80014a6:	4b3e      	ldr	r3, [pc, #248]	; (80015a0 <ADC_Ch2_init+0xfc>)
 80014a8:	6b1a      	ldr	r2, [r3, #48]	; 0x30
 80014aa:	f442 0280 	orr.w	r2, r2, #4194304	; 0x400000
 80014ae:	631a      	str	r2, [r3, #48]	; 0x30
  tmpreg = READ_BIT(RCC->AHB1ENR, Periphs);
 80014b0:	6b1b      	ldr	r3, [r3, #48]	; 0x30
 80014b2:	f403 0380 	and.w	r3, r3, #4194304	; 0x400000
 80014b6:	9301      	str	r3, [sp, #4]
  (void)tmpreg;
 80014b8:	9b01      	ldr	r3, [sp, #4]
	/* Configure DMA for servicing ADC */
	CH2_ADC_DMA_CLK_ENABLE();
	CH2_ADC_DMA_STREAM->CR  &= ~(uint32_t)0x01;				/* disable stream and confirm */
 80014ba:	4a3a      	ldr	r2, [pc, #232]	; (80015a4 <ADC_Ch2_init+0x100>)
 80014bc:	6813      	ldr	r3, [r2, #0]
 80014be:	f023 0301 	bic.w	r3, r3, #1
 80014c2:	6013      	str	r3, [r2, #0]
	while(CH2_ADC_DMA_STREAM->CR & 0x01);
 80014c4:	4b37      	ldr	r3, [pc, #220]	; (80015a4 <ADC_Ch2_init+0x100>)
 80014c6:	681b      	ldr	r3, [r3, #0]
 80014c8:	f013 0f01 	tst.w	r3, #1
 80014cc:	d1fa      	bne.n	80014c4 <ADC_Ch2_init+0x20>
	CH2_ADC_DMA->LIFCR      |= 0x00000F40;					/* clear stream1 flags/errors */
 80014ce:	4a36      	ldr	r2, [pc, #216]	; (80015a8 <ADC_Ch2_init+0x104>)
 80014d0:	6893      	ldr	r3, [r2, #8]
 80014d2:	f443 6374 	orr.w	r3, r3, #3904	; 0xf40
 80014d6:	6093      	str	r3, [r2, #8]

	CH2_ADC_DMA_STREAM->CR = CH2_ADC_DMA_CHANNEL | 			/* ch2, byte-size transfer, high priority,... */
 80014d8:	4b32      	ldr	r3, [pc, #200]	; (80015a4 <ADC_Ch2_init+0x100>)
 80014da:	4a34      	ldr	r2, [pc, #208]	; (80015ac <ADC_Ch2_init+0x108>)
 80014dc:	601a      	str	r2, [r3, #0]
								0x00020510;					/* mem inc, periph-to-mem, TCIE=1, 0x00020500(circular), 0x00020410(normal) */
	CH2_ADC_DMA_STREAM->NDTR = (uint32_t)ADC_BUF_SIZE;		/* transfer size */
 80014de:	f44f 62a5 	mov.w	r2, #1320	; 0x528
 80014e2:	605a      	str	r2, [r3, #4]
	CH2_ADC_DMA_STREAM->PAR  = (uint32_t)&(CH2_ADC->DR);	/* source addr */
 80014e4:	4a32      	ldr	r2, [pc, #200]	; (80015b0 <ADC_Ch2_init+0x10c>)
 80014e6:	609a      	str	r2, [r3, #8]
	CH2_ADC_DMA_STREAM->M0AR = (uint32_t)CH2_ADC_vals;		/* destination addr */
 80014e8:	4a32      	ldr	r2, [pc, #200]	; (80015b4 <ADC_Ch2_init+0x110>)
 80014ea:	60da      	str	r2, [r3, #12]
	CH2_ADC_DMA_STREAM->CR  |= 0x01;						/* enable stream */
 80014ec:	681a      	ldr	r2, [r3, #0]
 80014ee:	f042 0201 	orr.w	r2, r2, #1
 80014f2:	601a      	str	r2, [r3, #0]
    NVIC->IP[((uint32_t)IRQn)]                = (uint8_t)((priority << (8U - __NVIC_PRIO_BITS)) & (uint32_t)0xFFUL);
 80014f4:	4b30      	ldr	r3, [pc, #192]	; (80015b8 <ADC_Ch2_init+0x114>)
 80014f6:	2220      	movs	r2, #32
 80014f8:	f883 2339 	strb.w	r2, [r3, #825]	; 0x339
    NVIC->ISER[(((uint32_t)IRQn) >> 5UL)] = (uint32_t)(1UL << (((uint32_t)IRQn) & 0x1FUL));
 80014fc:	f04f 7200 	mov.w	r2, #33554432	; 0x2000000
 8001500:	605a      	str	r2, [r3, #4]
  SET_BIT(RCC->AHB1ENR, Periphs);
 8001502:	4b27      	ldr	r3, [pc, #156]	; (80015a0 <ADC_Ch2_init+0xfc>)
 8001504:	6b1a      	ldr	r2, [r3, #48]	; 0x30
 8001506:	f042 0220 	orr.w	r2, r2, #32
 800150a:	631a      	str	r2, [r3, #48]	; 0x30
  tmpreg = READ_BIT(RCC->AHB1ENR, Periphs);
 800150c:	6b1b      	ldr	r3, [r3, #48]	; 0x30
 800150e:	f003 0320 	and.w	r3, r3, #32
 8001512:	9303      	str	r3, [sp, #12]
  (void)tmpreg;
 8001514:	9b03      	ldr	r3, [sp, #12]
 8001516:	4b29      	ldr	r3, [pc, #164]	; (80015bc <ADC_Ch2_init+0x118>)
 8001518:	681a      	ldr	r2, [r3, #0]
   __ASM ("rbit %0, %1" : "=r" (result) : "r" (value) );
 800151a:	f44f 6380 	mov.w	r3, #1024	; 0x400
 800151e:	fa93 f3a3 	rbit	r3, r3
  if (value == 0U)
 8001522:	2b00      	cmp	r3, #0
 8001524:	d038      	beq.n	8001598 <ADC_Ch2_init+0xf4>
  return __builtin_clz(value);
 8001526:	fab3 f383 	clz	r3, r3
 800152a:	005b      	lsls	r3, r3, #1
 800152c:	2103      	movs	r1, #3
 800152e:	fa01 f303 	lsl.w	r3, r1, r3
 8001532:	ea22 0203 	bic.w	r2, r2, r3
   __ASM ("rbit %0, %1" : "=r" (result) : "r" (value) );
 8001536:	f44f 6380 	mov.w	r3, #1024	; 0x400
 800153a:	fa93 f3a3 	rbit	r3, r3
  if (value == 0U)
 800153e:	2b00      	cmp	r3, #0
 8001540:	d02c      	beq.n	800159c <ADC_Ch2_init+0xf8>
  return __builtin_clz(value);
 8001542:	fab3 f383 	clz	r3, r3
 8001546:	005b      	lsls	r3, r3, #1
 8001548:	2103      	movs	r1, #3
 800154a:	fa01 f303 	lsl.w	r3, r1, r3
 800154e:	4313      	orrs	r3, r2
 8001550:	4a1a      	ldr	r2, [pc, #104]	; (80015bc <ADC_Ch2_init+0x118>)
 8001552:	6013      	str	r3, [r2, #0]
  SET_BIT(RCC->APB2ENR, Periphs);
 8001554:	4b12      	ldr	r3, [pc, #72]	; (80015a0 <ADC_Ch2_init+0xfc>)
 8001556:	6c5a      	ldr	r2, [r3, #68]	; 0x44
 8001558:	f442 6280 	orr.w	r2, r2, #1024	; 0x400
 800155c:	645a      	str	r2, [r3, #68]	; 0x44
  tmpreg = READ_BIT(RCC->APB2ENR, Periphs);
 800155e:	6c5b      	ldr	r3, [r3, #68]	; 0x44
 8001560:	f403 6380 	and.w	r3, r3, #1024	; 0x400
 8001564:	9302      	str	r3, [sp, #8]
  (void)tmpreg;
 8001566:	9b02      	ldr	r3, [sp, #8]
	 */
	CH2_ADC_INP_GPIO_CLK_ENABLE();
	LL_GPIO_SetPinMode(CH2_ADC_INP_GPIO_PORT, CH2_ADC_INP_PIN, LL_GPIO_MODE_ANALOG);

	CH2_ADC_CLK_ENABLE();
	CH2_ADC->CR2 &= ~(uint32_t)0x01;	/* turn off ADC */
 8001568:	4b15      	ldr	r3, [pc, #84]	; (80015c0 <ADC_Ch2_init+0x11c>)
 800156a:	689a      	ldr	r2, [r3, #8]
 800156c:	f022 0201 	bic.w	r2, r2, #1
 8001570:	609a      	str	r2, [r3, #8]

	CH2_ADC->CR1  = 0x02000000;		    /* 8-bits resolution */
 8001572:	f04f 7200 	mov.w	r2, #33554432	; 0x2000000
 8001576:	605a      	str	r2, [r3, #4]
	CH2_ADC->CR2  = 0x1A000300;			/* triggered by TIM1 TRGO2, rising edge, DMA enabled, DDS=1, EOCS=0 */
 8001578:	4a12      	ldr	r2, [pc, #72]	; (80015c4 <ADC_Ch2_init+0x120>)
 800157a:	609a      	str	r2, [r3, #8]
	CH2_ADC->SQR3 = CH2_ADC_CHANNEL;    /* set channel */
 800157c:	2208      	movs	r2, #8
 800157e:	635a      	str	r2, [r3, #52]	; 0x34
	CH2_ADC->SMPR2= LL_ADC_SAMPLINGTIME_3CYCLES << 24U;
 8001580:	2200      	movs	r2, #0
 8001582:	611a      	str	r2, [r3, #16]
	ADC->CCR      = 0x00010000;			/* ADCCLK = APB2CLK/4 */
 8001584:	f44f 3180 	mov.w	r1, #65536	; 0x10000
 8001588:	4a0f      	ldr	r2, [pc, #60]	; (80015c8 <ADC_Ch2_init+0x124>)
 800158a:	6051      	str	r1, [r2, #4]

	CH2_ADC->CR2 |= 0x01;				/* turn on ADC */
 800158c:	689a      	ldr	r2, [r3, #8]
 800158e:	f042 0201 	orr.w	r2, r2, #1
 8001592:	609a      	str	r2, [r3, #8]
}
 8001594:	b004      	add	sp, #16
 8001596:	4770      	bx	lr
    return 32U;
 8001598:	2320      	movs	r3, #32
 800159a:	e7c6      	b.n	800152a <ADC_Ch2_init+0x86>
 800159c:	2320      	movs	r3, #32
 800159e:	e7d2      	b.n	8001546 <ADC_Ch2_init+0xa2>
 80015a0:	40023800 	.word	0x40023800
 80015a4:	40026428 	.word	0x40026428
 80015a8:	40026400 	.word	0x40026400
 80015ac:	04020510 	.word	0x04020510
 80015b0:	4001224c 	.word	0x4001224c
 80015b4:	20000698 	.word	0x20000698
 80015b8:	e000e100 	.word	0xe000e100
 80015bc:	40021400 	.word	0x40021400
 80015c0:	40012200 	.word	0x40012200
 80015c4:	1a000300 	.word	0x1a000300
 80015c8:	40012300 	.word	0x40012300

080015cc <ADC_init>:
{
 80015cc:	b508      	push	{r3, lr}
	ADC_Ch1_init();
 80015ce:	f7ff feb9 	bl	8001344 <ADC_Ch1_init>
	ADC_Ch2_init();
 80015d2:	f7ff ff67 	bl	80014a4 <ADC_Ch2_init>
 80015d6:	bd08      	pop	{r3, pc}

080015d8 <ADC_Ch2_reinit>:
  * @param  None
  * @retval None
  */
void ADC_Ch2_reinit(void)
{
	CH2_ADC->CR2 &= ~0x01;				/* turn off ADC */
 80015d8:	4b0b      	ldr	r3, [pc, #44]	; (8001608 <ADC_Ch2_reinit+0x30>)
 80015da:	689a      	ldr	r2, [r3, #8]
 80015dc:	f022 0201 	bic.w	r2, r2, #1
 80015e0:	609a      	str	r2, [r3, #8]

	/* Reinitialize DMA for servicing ADC */
	CH2_ADC_DMA_STREAM->CR = CH2_ADC_DMA_CHANNEL | 0x00020510;
 80015e2:	4a0a      	ldr	r2, [pc, #40]	; (800160c <ADC_Ch2_reinit+0x34>)
 80015e4:	490a      	ldr	r1, [pc, #40]	; (8001610 <ADC_Ch2_reinit+0x38>)
 80015e6:	6011      	str	r1, [r2, #0]
	CH2_ADC_DMA_STREAM->NDTR = (uint32_t)ADC_BUF_SIZE;		/* transfer size */
 80015e8:	f44f 61a5 	mov.w	r1, #1320	; 0x528
 80015ec:	6051      	str	r1, [r2, #4]
	CH2_ADC_DMA_STREAM->CR |= 0x01;							/* enable stream */
 80015ee:	6811      	ldr	r1, [r2, #0]
 80015f0:	f041 0101 	orr.w	r1, r1, #1
 80015f4:	6011      	str	r1, [r2, #0]

	/* Reinitialize ADC */
	CH2_ADC->SR &= ~(1 << 5);			/* clear overflow bit */
 80015f6:	681a      	ldr	r2, [r3, #0]
 80015f8:	f022 0220 	bic.w	r2, r2, #32
 80015fc:	601a      	str	r2, [r3, #0]
	CH2_ADC->CR2 |= 0x01;				/* turn on ADC */
 80015fe:	689a      	ldr	r2, [r3, #8]
 8001600:	f042 0201 	orr.w	r2, r2, #1
 8001604:	609a      	str	r2, [r3, #8]
 8001606:	4770      	bx	lr
 8001608:	40012200 	.word	0x40012200
 800160c:	40026428 	.word	0x40026428
 8001610:	04020510 	.word	0x04020510

08001614 <LEDs_Buttons_init>:
  * @brief  Configures all LEDs and Buttons needed for application.
  * @param  None
  * @retval None
  */
void LEDs_Buttons_init(void)
{
 8001614:	b086      	sub	sp, #24
  SET_BIT(RCC->AHB1ENR, Periphs);
 8001616:	4ba4      	ldr	r3, [pc, #656]	; (80018a8 <LEDs_Buttons_init+0x294>)
 8001618:	6b1a      	ldr	r2, [r3, #48]	; 0x30
 800161a:	f442 7280 	orr.w	r2, r2, #256	; 0x100
 800161e:	631a      	str	r2, [r3, #48]	; 0x30
  tmpreg = READ_BIT(RCC->AHB1ENR, Periphs);
 8001620:	6b1b      	ldr	r3, [r3, #48]	; 0x30
 8001622:	f403 7380 	and.w	r3, r3, #256	; 0x100
 8001626:	9305      	str	r3, [sp, #20]
  (void)tmpreg;
 8001628:	9b05      	ldr	r3, [sp, #20]
 800162a:	4ba0      	ldr	r3, [pc, #640]	; (80018ac <LEDs_Buttons_init+0x298>)
 800162c:	681b      	ldr	r3, [r3, #0]
   __ASM ("rbit %0, %1" : "=r" (result) : "r" (value) );
 800162e:	2202      	movs	r2, #2
 8001630:	fa92 f2a2 	rbit	r2, r2
  if (value == 0U)
 8001634:	2a00      	cmp	r2, #0
 8001636:	f000 811d 	beq.w	8001874 <LEDs_Buttons_init+0x260>
  return __builtin_clz(value);
 800163a:	fab2 f282 	clz	r2, r2
 800163e:	0052      	lsls	r2, r2, #1
 8001640:	2103      	movs	r1, #3
 8001642:	fa01 f202 	lsl.w	r2, r1, r2
 8001646:	ea23 0202 	bic.w	r2, r3, r2
   __ASM ("rbit %0, %1" : "=r" (result) : "r" (value) );
 800164a:	2302      	movs	r3, #2
 800164c:	fa93 f3a3 	rbit	r3, r3
  if (value == 0U)
 8001650:	2b00      	cmp	r3, #0
 8001652:	f000 8111 	beq.w	8001878 <LEDs_Buttons_init+0x264>
  return __builtin_clz(value);
 8001656:	fab3 f383 	clz	r3, r3
 800165a:	005b      	lsls	r3, r3, #1
 800165c:	2101      	movs	r1, #1
 800165e:	fa01 f303 	lsl.w	r3, r1, r3
 8001662:	4313      	orrs	r3, r2
 8001664:	4a91      	ldr	r2, [pc, #580]	; (80018ac <LEDs_Buttons_init+0x298>)
 8001666:	6013      	str	r3, [r2, #0]
  MODIFY_REG(GPIOx->OSPEEDR, (GPIO_OSPEEDER_OSPEEDR0 << (POSITION_VAL(Pin) * 2U)),
 8001668:	6892      	ldr	r2, [r2, #8]
   __ASM ("rbit %0, %1" : "=r" (result) : "r" (value) );
 800166a:	2302      	movs	r3, #2
 800166c:	fa93 f3a3 	rbit	r3, r3
  if (value == 0U)
 8001670:	2b00      	cmp	r3, #0
 8001672:	f000 8103 	beq.w	800187c <LEDs_Buttons_init+0x268>
  return __builtin_clz(value);
 8001676:	fab3 f383 	clz	r3, r3
 800167a:	005b      	lsls	r3, r3, #1
 800167c:	2103      	movs	r1, #3
 800167e:	fa01 f303 	lsl.w	r3, r1, r3
 8001682:	ea22 0303 	bic.w	r3, r2, r3
 8001686:	4a89      	ldr	r2, [pc, #548]	; (80018ac <LEDs_Buttons_init+0x298>)
 8001688:	6093      	str	r3, [r2, #8]
  MODIFY_REG(GPIOx->OTYPER, PinMask, (PinMask * OutputType));
 800168a:	6853      	ldr	r3, [r2, #4]
 800168c:	f023 0302 	bic.w	r3, r3, #2
 8001690:	6053      	str	r3, [r2, #4]
  *         @arg @ref LL_GPIO_PIN_ALL
  * @retval None
  */
__STATIC_INLINE void LL_GPIO_ResetOutputPin(GPIO_TypeDef *GPIOx, uint32_t PinMask)
{
  WRITE_REG(GPIOx->BSRR, (PinMask << 16));
 8001692:	f44f 3300 	mov.w	r3, #131072	; 0x20000
 8001696:	6193      	str	r3, [r2, #24]
  SET_BIT(RCC->AHB1ENR, Periphs);
 8001698:	4b83      	ldr	r3, [pc, #524]	; (80018a8 <LEDs_Buttons_init+0x294>)
 800169a:	6b19      	ldr	r1, [r3, #48]	; 0x30
 800169c:	f441 7180 	orr.w	r1, r1, #256	; 0x100
 80016a0:	6319      	str	r1, [r3, #48]	; 0x30
  tmpreg = READ_BIT(RCC->AHB1ENR, Periphs);
 80016a2:	6b1b      	ldr	r3, [r3, #48]	; 0x30
 80016a4:	f403 7380 	and.w	r3, r3, #256	; 0x100
 80016a8:	9304      	str	r3, [sp, #16]
  (void)tmpreg;
 80016aa:	9b04      	ldr	r3, [sp, #16]
  MODIFY_REG(GPIOx->MODER, (GPIO_MODER_MODER0 << (POSITION_VAL(Pin) * 2U)), (Mode << (POSITION_VAL(Pin) * 2U)));
 80016ac:	6812      	ldr	r2, [r2, #0]
   __ASM ("rbit %0, %1" : "=r" (result) : "r" (value) );
 80016ae:	f44f 6300 	mov.w	r3, #2048	; 0x800
 80016b2:	fa93 f3a3 	rbit	r3, r3
  if (value == 0U)
 80016b6:	2b00      	cmp	r3, #0
 80016b8:	f000 80e2 	beq.w	8001880 <LEDs_Buttons_init+0x26c>
  return __builtin_clz(value);
 80016bc:	fab3 f383 	clz	r3, r3
 80016c0:	005b      	lsls	r3, r3, #1
 80016c2:	2103      	movs	r1, #3
 80016c4:	fa01 f303 	lsl.w	r3, r1, r3
 80016c8:	ea22 0303 	bic.w	r3, r2, r3
 80016cc:	4a77      	ldr	r2, [pc, #476]	; (80018ac <LEDs_Buttons_init+0x298>)
 80016ce:	6013      	str	r3, [r2, #0]
  MODIFY_REG(GPIOx->OSPEEDR, (GPIO_OSPEEDER_OSPEEDR0 << (POSITION_VAL(Pin) * 2U)),
 80016d0:	6893      	ldr	r3, [r2, #8]
   __ASM ("rbit %0, %1" : "=r" (result) : "r" (value) );
 80016d2:	f44f 6200 	mov.w	r2, #2048	; 0x800
 80016d6:	fa92 f2a2 	rbit	r2, r2
  if (value == 0U)
 80016da:	2a00      	cmp	r2, #0
 80016dc:	f000 80d2 	beq.w	8001884 <LEDs_Buttons_init+0x270>
  return __builtin_clz(value);
 80016e0:	fab2 f282 	clz	r2, r2
 80016e4:	0052      	lsls	r2, r2, #1
 80016e6:	2103      	movs	r1, #3
 80016e8:	fa01 f202 	lsl.w	r2, r1, r2
 80016ec:	ea23 0202 	bic.w	r2, r3, r2
   __ASM ("rbit %0, %1" : "=r" (result) : "r" (value) );
 80016f0:	f44f 6300 	mov.w	r3, #2048	; 0x800
 80016f4:	fa93 f3a3 	rbit	r3, r3
  if (value == 0U)
 80016f8:	2b00      	cmp	r3, #0
 80016fa:	f000 80c5 	beq.w	8001888 <LEDs_Buttons_init+0x274>
  return __builtin_clz(value);
 80016fe:	fab3 f383 	clz	r3, r3
 8001702:	005b      	lsls	r3, r3, #1
 8001704:	2103      	movs	r1, #3
 8001706:	fa01 f303 	lsl.w	r3, r1, r3
 800170a:	4313      	orrs	r3, r2
 800170c:	4a67      	ldr	r2, [pc, #412]	; (80018ac <LEDs_Buttons_init+0x298>)
 800170e:	6093      	str	r3, [r2, #8]
  SET_BIT(RCC->APB2ENR, Periphs);
 8001710:	4b65      	ldr	r3, [pc, #404]	; (80018a8 <LEDs_Buttons_init+0x294>)
 8001712:	6c5a      	ldr	r2, [r3, #68]	; 0x44
 8001714:	f442 4280 	orr.w	r2, r2, #16384	; 0x4000
 8001718:	645a      	str	r2, [r3, #68]	; 0x44
  tmpreg = READ_BIT(RCC->APB2ENR, Periphs);
 800171a:	6c5b      	ldr	r3, [r3, #68]	; 0x44
 800171c:	f403 4380 	and.w	r3, r3, #16384	; 0x4000
 8001720:	9303      	str	r3, [sp, #12]
  (void)tmpreg;
 8001722:	9b03      	ldr	r3, [sp, #12]
  *         @arg @ref LL_SYSCFG_EXTI_LINE15
  * @retval None
  */
__STATIC_INLINE void LL_SYSCFG_SetEXTISource(uint32_t Port, uint32_t Line)
{
  MODIFY_REG(SYSCFG->EXTICR[Line & 0xFFU], (Line >> 16U), Port << POSITION_VAL((Line >> 16U)));
 8001724:	4b62      	ldr	r3, [pc, #392]	; (80018b0 <LEDs_Buttons_init+0x29c>)
 8001726:	691a      	ldr	r2, [r3, #16]
 8001728:	f422 4270 	bic.w	r2, r2, #61440	; 0xf000
   __ASM ("rbit %0, %1" : "=r" (result) : "r" (value) );
 800172c:	f44f 4370 	mov.w	r3, #61440	; 0xf000
 8001730:	fa93 f3a3 	rbit	r3, r3
  if (value == 0U)
 8001734:	2b00      	cmp	r3, #0
 8001736:	f000 80a9 	beq.w	800188c <LEDs_Buttons_init+0x278>
  return __builtin_clz(value);
 800173a:	fab3 f383 	clz	r3, r3
 800173e:	2108      	movs	r1, #8
 8001740:	fa01 f303 	lsl.w	r3, r1, r3
 8001744:	4313      	orrs	r3, r2
 8001746:	4a5a      	ldr	r2, [pc, #360]	; (80018b0 <LEDs_Buttons_init+0x29c>)
 8001748:	6113      	str	r3, [r2, #16]
  * @note   Please check each device line mapping for EXTI Line availability
  * @retval None
  */
__STATIC_INLINE void LL_EXTI_EnableIT_0_31(uint32_t ExtiLine)
{
  SET_BIT(EXTI->IMR, ExtiLine);
 800174a:	4b5a      	ldr	r3, [pc, #360]	; (80018b4 <LEDs_Buttons_init+0x2a0>)
 800174c:	681a      	ldr	r2, [r3, #0]
 800174e:	f442 6200 	orr.w	r2, r2, #2048	; 0x800
 8001752:	601a      	str	r2, [r3, #0]
  * @note   Please check each device line mapping for EXTI Line availability
  * @retval None
  */
__STATIC_INLINE void LL_EXTI_EnableFallingTrig_0_31(uint32_t ExtiLine)
{
  SET_BIT(EXTI->FTSR, ExtiLine);
 8001754:	68da      	ldr	r2, [r3, #12]
 8001756:	f442 6200 	orr.w	r2, r2, #2048	; 0x800
 800175a:	60da      	str	r2, [r3, #12]
  * @note   Please check each device line mapping for EXTI Line availability
  * @retval None
  */
__STATIC_INLINE void LL_EXTI_ClearFlag_0_31(uint32_t ExtiLine)
{
  WRITE_REG(EXTI->PR, ExtiLine);
 800175c:	f44f 6200 	mov.w	r2, #2048	; 0x800
 8001760:	615a      	str	r2, [r3, #20]
    NVIC->IP[((uint32_t)IRQn)]                = (uint8_t)((priority << (8U - __NVIC_PRIO_BITS)) & (uint32_t)0xFFUL);
 8001762:	4b55      	ldr	r3, [pc, #340]	; (80018b8 <LEDs_Buttons_init+0x2a4>)
 8001764:	22e0      	movs	r2, #224	; 0xe0
 8001766:	f883 2328 	strb.w	r2, [r3, #808]	; 0x328
    NVIC->ISER[(((uint32_t)IRQn) >> 5UL)] = (uint32_t)(1UL << (((uint32_t)IRQn) & 0x1FUL));
 800176a:	f44f 7280 	mov.w	r2, #256	; 0x100
 800176e:	605a      	str	r2, [r3, #4]
  SET_BIT(RCC->AHB1ENR, Periphs);
 8001770:	4b4d      	ldr	r3, [pc, #308]	; (80018a8 <LEDs_Buttons_init+0x294>)
 8001772:	6b1a      	ldr	r2, [r3, #48]	; 0x30
 8001774:	f042 0240 	orr.w	r2, r2, #64	; 0x40
 8001778:	631a      	str	r2, [r3, #48]	; 0x30
  tmpreg = READ_BIT(RCC->AHB1ENR, Periphs);
 800177a:	6b1b      	ldr	r3, [r3, #48]	; 0x30
 800177c:	f003 0340 	and.w	r3, r3, #64	; 0x40
 8001780:	9302      	str	r3, [sp, #8]
  (void)tmpreg;
 8001782:	9b02      	ldr	r3, [sp, #8]
  MODIFY_REG(GPIOx->MODER, (GPIO_MODER_MODER0 << (POSITION_VAL(Pin) * 2U)), (Mode << (POSITION_VAL(Pin) * 2U)));
 8001784:	4b4d      	ldr	r3, [pc, #308]	; (80018bc <LEDs_Buttons_init+0x2a8>)
 8001786:	681a      	ldr	r2, [r3, #0]
   __ASM ("rbit %0, %1" : "=r" (result) : "r" (value) );
 8001788:	2340      	movs	r3, #64	; 0x40
 800178a:	fa93 f3a3 	rbit	r3, r3
  if (value == 0U)
 800178e:	2b00      	cmp	r3, #0
 8001790:	d07e      	beq.n	8001890 <LEDs_Buttons_init+0x27c>
  return __builtin_clz(value);
 8001792:	fab3 f383 	clz	r3, r3
 8001796:	005b      	lsls	r3, r3, #1
 8001798:	2103      	movs	r1, #3
 800179a:	fa01 f303 	lsl.w	r3, r1, r3
 800179e:	ea22 0303 	bic.w	r3, r2, r3
 80017a2:	4a46      	ldr	r2, [pc, #280]	; (80018bc <LEDs_Buttons_init+0x2a8>)
 80017a4:	6013      	str	r3, [r2, #0]
  MODIFY_REG(GPIOx->OSPEEDR, (GPIO_OSPEEDER_OSPEEDR0 << (POSITION_VAL(Pin) * 2U)),
 80017a6:	6893      	ldr	r3, [r2, #8]
   __ASM ("rbit %0, %1" : "=r" (result) : "r" (value) );
 80017a8:	2240      	movs	r2, #64	; 0x40
 80017aa:	fa92 f2a2 	rbit	r2, r2
  if (value == 0U)
 80017ae:	2a00      	cmp	r2, #0
 80017b0:	d070      	beq.n	8001894 <LEDs_Buttons_init+0x280>
  return __builtin_clz(value);
 80017b2:	fab2 f282 	clz	r2, r2
 80017b6:	0052      	lsls	r2, r2, #1
 80017b8:	2103      	movs	r1, #3
 80017ba:	fa01 f202 	lsl.w	r2, r1, r2
 80017be:	ea23 0202 	bic.w	r2, r3, r2
   __ASM ("rbit %0, %1" : "=r" (result) : "r" (value) );
 80017c2:	2340      	movs	r3, #64	; 0x40
 80017c4:	fa93 f3a3 	rbit	r3, r3
  if (value == 0U)
 80017c8:	2b00      	cmp	r3, #0
 80017ca:	d065      	beq.n	8001898 <LEDs_Buttons_init+0x284>
  return __builtin_clz(value);
 80017cc:	fab3 f383 	clz	r3, r3
 80017d0:	005b      	lsls	r3, r3, #1
 80017d2:	2103      	movs	r1, #3
 80017d4:	fa01 f303 	lsl.w	r3, r1, r3
 80017d8:	4313      	orrs	r3, r2
 80017da:	4a38      	ldr	r2, [pc, #224]	; (80018bc <LEDs_Buttons_init+0x2a8>)
 80017dc:	6093      	str	r3, [r2, #8]
  MODIFY_REG(GPIOx->PUPDR, (GPIO_PUPDR_PUPDR0 << (POSITION_VAL(Pin) * 2U)), (Pull << (POSITION_VAL(Pin) * 2U)));
 80017de:	68d3      	ldr	r3, [r2, #12]
   __ASM ("rbit %0, %1" : "=r" (result) : "r" (value) );
 80017e0:	2240      	movs	r2, #64	; 0x40
 80017e2:	fa92 f2a2 	rbit	r2, r2
  if (value == 0U)
 80017e6:	2a00      	cmp	r2, #0
 80017e8:	d058      	beq.n	800189c <LEDs_Buttons_init+0x288>
  return __builtin_clz(value);
 80017ea:	fab2 f282 	clz	r2, r2
 80017ee:	0052      	lsls	r2, r2, #1
 80017f0:	2103      	movs	r1, #3
 80017f2:	fa01 f202 	lsl.w	r2, r1, r2
 80017f6:	ea23 0202 	bic.w	r2, r3, r2
   __ASM ("rbit %0, %1" : "=r" (result) : "r" (value) );
 80017fa:	2340      	movs	r3, #64	; 0x40
 80017fc:	fa93 f3a3 	rbit	r3, r3
  if (value == 0U)
 8001800:	2b00      	cmp	r3, #0
 8001802:	d04d      	beq.n	80018a0 <LEDs_Buttons_init+0x28c>
  return __builtin_clz(value);
 8001804:	fab3 f383 	clz	r3, r3
 8001808:	005b      	lsls	r3, r3, #1
 800180a:	2101      	movs	r1, #1
 800180c:	fa01 f303 	lsl.w	r3, r1, r3
 8001810:	4313      	orrs	r3, r2
 8001812:	4a2a      	ldr	r2, [pc, #168]	; (80018bc <LEDs_Buttons_init+0x2a8>)
 8001814:	60d3      	str	r3, [r2, #12]
  SET_BIT(RCC->APB2ENR, Periphs);
 8001816:	4b24      	ldr	r3, [pc, #144]	; (80018a8 <LEDs_Buttons_init+0x294>)
 8001818:	6c5a      	ldr	r2, [r3, #68]	; 0x44
 800181a:	f442 4280 	orr.w	r2, r2, #16384	; 0x4000
 800181e:	645a      	str	r2, [r3, #68]	; 0x44
  tmpreg = READ_BIT(RCC->APB2ENR, Periphs);
 8001820:	6c5b      	ldr	r3, [r3, #68]	; 0x44
 8001822:	f403 4380 	and.w	r3, r3, #16384	; 0x4000
 8001826:	9301      	str	r3, [sp, #4]
  (void)tmpreg;
 8001828:	9b01      	ldr	r3, [sp, #4]
 800182a:	4b21      	ldr	r3, [pc, #132]	; (80018b0 <LEDs_Buttons_init+0x29c>)
 800182c:	68da      	ldr	r2, [r3, #12]
 800182e:	f422 6270 	bic.w	r2, r2, #3840	; 0xf00
   __ASM ("rbit %0, %1" : "=r" (result) : "r" (value) );
 8001832:	f44f 6370 	mov.w	r3, #3840	; 0xf00
 8001836:	fa93 f3a3 	rbit	r3, r3
  if (value == 0U)
 800183a:	b39b      	cbz	r3, 80018a4 <LEDs_Buttons_init+0x290>
  return __builtin_clz(value);
 800183c:	fab3 f383 	clz	r3, r3
 8001840:	2106      	movs	r1, #6
 8001842:	fa01 f303 	lsl.w	r3, r1, r3
 8001846:	4313      	orrs	r3, r2
 8001848:	4a19      	ldr	r2, [pc, #100]	; (80018b0 <LEDs_Buttons_init+0x29c>)
 800184a:	60d3      	str	r3, [r2, #12]
  SET_BIT(EXTI->IMR, ExtiLine);
 800184c:	4b19      	ldr	r3, [pc, #100]	; (80018b4 <LEDs_Buttons_init+0x2a0>)
 800184e:	681a      	ldr	r2, [r3, #0]
 8001850:	f042 0240 	orr.w	r2, r2, #64	; 0x40
 8001854:	601a      	str	r2, [r3, #0]
  SET_BIT(EXTI->RTSR, ExtiLine);
 8001856:	689a      	ldr	r2, [r3, #8]
 8001858:	f042 0240 	orr.w	r2, r2, #64	; 0x40
 800185c:	609a      	str	r2, [r3, #8]
  WRITE_REG(EXTI->PR, ExtiLine);
 800185e:	2240      	movs	r2, #64	; 0x40
 8001860:	615a      	str	r2, [r3, #20]
    NVIC->IP[((uint32_t)IRQn)]                = (uint8_t)((priority << (8U - __NVIC_PRIO_BITS)) & (uint32_t)0xFFUL);
 8001862:	4b15      	ldr	r3, [pc, #84]	; (80018b8 <LEDs_Buttons_init+0x2a4>)
 8001864:	22e0      	movs	r2, #224	; 0xe0
 8001866:	f883 2317 	strb.w	r2, [r3, #791]	; 0x317
    NVIC->ISER[(((uint32_t)IRQn) >> 5UL)] = (uint32_t)(1UL << (((uint32_t)IRQn) & 0x1FUL));
 800186a:	f44f 0200 	mov.w	r2, #8388608	; 0x800000
 800186e:	601a      	str	r2, [r3, #0]
	QE_PB_EXTI_LINE_ENABLE();
	QE_PB_EXTI_RISING_TRIG_ENABLE();
	LL_EXTI_ClearFlag_0_31(QE_PB_EXTI_LINE);
	NVIC_SetPriority(QE_IRQn, 14);
	NVIC_EnableIRQ(QE_IRQn);
}
 8001870:	b006      	add	sp, #24
 8001872:	4770      	bx	lr
    return 32U;
 8001874:	2220      	movs	r2, #32
 8001876:	e6e2      	b.n	800163e <LEDs_Buttons_init+0x2a>
 8001878:	2320      	movs	r3, #32
 800187a:	e6ee      	b.n	800165a <LEDs_Buttons_init+0x46>
 800187c:	2320      	movs	r3, #32
 800187e:	e6fc      	b.n	800167a <LEDs_Buttons_init+0x66>
 8001880:	2320      	movs	r3, #32
 8001882:	e71d      	b.n	80016c0 <LEDs_Buttons_init+0xac>
 8001884:	2220      	movs	r2, #32
 8001886:	e72d      	b.n	80016e4 <LEDs_Buttons_init+0xd0>
 8001888:	2320      	movs	r3, #32
 800188a:	e73a      	b.n	8001702 <LEDs_Buttons_init+0xee>
 800188c:	2320      	movs	r3, #32
 800188e:	e756      	b.n	800173e <LEDs_Buttons_init+0x12a>
 8001890:	2320      	movs	r3, #32
 8001892:	e780      	b.n	8001796 <LEDs_Buttons_init+0x182>
 8001894:	2220      	movs	r2, #32
 8001896:	e78e      	b.n	80017b6 <LEDs_Buttons_init+0x1a2>
 8001898:	2320      	movs	r3, #32
 800189a:	e799      	b.n	80017d0 <LEDs_Buttons_init+0x1bc>
 800189c:	2220      	movs	r2, #32
 800189e:	e7a6      	b.n	80017ee <LEDs_Buttons_init+0x1da>
 80018a0:	2320      	movs	r3, #32
 80018a2:	e7b1      	b.n	8001808 <LEDs_Buttons_init+0x1f4>
 80018a4:	2320      	movs	r3, #32
 80018a6:	e7cb      	b.n	8001840 <LEDs_Buttons_init+0x22c>
 80018a8:	40023800 	.word	0x40023800
 80018ac:	40022000 	.word	0x40022000
 80018b0:	40013800 	.word	0x40013800
 80018b4:	40013c00 	.word	0x40013c00
 80018b8:	e000e100 	.word	0xe000e100
 80018bc:	40021800 	.word	0x40021800

080018c0 <LTDC_init>:
  * @brief  Configures all clocks and GPIOs for LTDC and initializes it.
  * @param  None
  * @retval None
  */
void LTDC_init(void)
{
 80018c0:	b4f0      	push	{r4, r5, r6, r7}
 80018c2:	b086      	sub	sp, #24
  * @rmtoll CR           PLLSAION     LL_RCC_PLLSAI_Disable
  * @retval None
  */
__STATIC_INLINE void LL_RCC_PLLSAI_Disable(void)
{
  CLEAR_BIT(RCC->CR, RCC_CR_PLLSAION);
 80018c4:	4b98      	ldr	r3, [pc, #608]	; (8001b28 <LTDC_init+0x268>)
 80018c6:	681a      	ldr	r2, [r3, #0]
 80018c8:	f022 5280 	bic.w	r2, r2, #268435456	; 0x10000000
 80018cc:	601a      	str	r2, [r3, #0]
	/* Generate LCD_CLK = 9.6MHz */
	LL_RCC_PLLSAI_Disable();

	MODIFY_REG(RCC->PLLSAICFGR, RCC_PLLSAICFGR_PLLSAIN | RCC_PLLSAICFGR_PLLSAIR, (192U << RCC_PLLSAICFGR_PLLSAIN_Pos) | LL_RCC_PLLSAIR_DIV_5);
 80018ce:	f8d3 2088 	ldr.w	r2, [r3, #136]	; 0x88
 80018d2:	4996      	ldr	r1, [pc, #600]	; (8001b2c <LTDC_init+0x26c>)
 80018d4:	4011      	ands	r1, r2
 80018d6:	4a96      	ldr	r2, [pc, #600]	; (8001b30 <LTDC_init+0x270>)
 80018d8:	430a      	orrs	r2, r1
 80018da:	f8c3 2088 	str.w	r2, [r3, #136]	; 0x88
	MODIFY_REG(RCC->DCKCFGR1, RCC_DCKCFGR1_PLLSAIDIVR, LL_RCC_PLLSAIDIVR_DIV_4);
 80018de:	f8d3 208c 	ldr.w	r2, [r3, #140]	; 0x8c
 80018e2:	f422 3240 	bic.w	r2, r2, #196608	; 0x30000
 80018e6:	f442 3280 	orr.w	r2, r2, #65536	; 0x10000
 80018ea:	f8c3 208c 	str.w	r2, [r3, #140]	; 0x8c
  SET_BIT(RCC->CR, RCC_CR_PLLSAION);
 80018ee:	681a      	ldr	r2, [r3, #0]
 80018f0:	f042 5280 	orr.w	r2, r2, #268435456	; 0x10000000
 80018f4:	601a      	str	r2, [r3, #0]
  * @rmtoll CR           PLLSAIRDY    LL_RCC_PLLSAI_IsReady
  * @retval State of bit (1 or 0).
  */
__STATIC_INLINE uint32_t LL_RCC_PLLSAI_IsReady(void)
{
  return (READ_BIT(RCC->CR, RCC_CR_PLLSAIRDY) == (RCC_CR_PLLSAIRDY));
 80018f6:	4b8c      	ldr	r3, [pc, #560]	; (8001b28 <LTDC_init+0x268>)
 80018f8:	681b      	ldr	r3, [r3, #0]

	LL_RCC_PLLSAI_Enable();
	while(!LL_RCC_PLLSAI_IsReady()){
 80018fa:	f013 5f00 	tst.w	r3, #536870912	; 0x20000000
 80018fe:	d0fa      	beq.n	80018f6 <LTDC_init+0x36>
  SET_BIT(RCC->AHB1ENR, Periphs);
 8001900:	4b89      	ldr	r3, [pc, #548]	; (8001b28 <LTDC_init+0x268>)
 8001902:	6b1a      	ldr	r2, [r3, #48]	; 0x30
 8001904:	f042 0210 	orr.w	r2, r2, #16
 8001908:	631a      	str	r2, [r3, #48]	; 0x30
  tmpreg = READ_BIT(RCC->AHB1ENR, Periphs);
 800190a:	6b1a      	ldr	r2, [r3, #48]	; 0x30
 800190c:	f002 0210 	and.w	r2, r2, #16
 8001910:	9205      	str	r2, [sp, #20]
  (void)tmpreg;
 8001912:	9a05      	ldr	r2, [sp, #20]
	}

	/* LTDC GPIOs configuration */
	 /* GPIOE 4 */
	LL_AHB1_GRP1_EnableClock(LL_AHB1_GRP1_PERIPH_GPIOE);
	GPIOE->MODER &= ~(0x3<<8); 	GPIOE->MODER |= (0x2<<8);
 8001914:	4a87      	ldr	r2, [pc, #540]	; (8001b34 <LTDC_init+0x274>)
 8001916:	6811      	ldr	r1, [r2, #0]
 8001918:	f421 7140 	bic.w	r1, r1, #768	; 0x300
 800191c:	6011      	str	r1, [r2, #0]
 800191e:	6811      	ldr	r1, [r2, #0]
 8001920:	f441 7100 	orr.w	r1, r1, #512	; 0x200
 8001924:	6011      	str	r1, [r2, #0]
	GPIOE->OSPEEDR &= ~(0x3<<8); GPIOE->OSPEEDR |= (0x2<<8);
 8001926:	6891      	ldr	r1, [r2, #8]
 8001928:	f421 7140 	bic.w	r1, r1, #768	; 0x300
 800192c:	6091      	str	r1, [r2, #8]
 800192e:	6891      	ldr	r1, [r2, #8]
 8001930:	f441 7100 	orr.w	r1, r1, #512	; 0x200
 8001934:	6091      	str	r1, [r2, #8]
	GPIOE->AFR[0] &= ~(0xF<<16); GPIOE->AFR[0] |= (0xE<<16);
 8001936:	6a11      	ldr	r1, [r2, #32]
 8001938:	f421 2170 	bic.w	r1, r1, #983040	; 0xf0000
 800193c:	6211      	str	r1, [r2, #32]
 800193e:	6a11      	ldr	r1, [r2, #32]
 8001940:	f441 2160 	orr.w	r1, r1, #917504	; 0xe0000
 8001944:	6211      	str	r1, [r2, #32]
  SET_BIT(RCC->AHB1ENR, Periphs);
 8001946:	6b1a      	ldr	r2, [r3, #48]	; 0x30
 8001948:	f042 0240 	orr.w	r2, r2, #64	; 0x40
 800194c:	631a      	str	r2, [r3, #48]	; 0x30
  tmpreg = READ_BIT(RCC->AHB1ENR, Periphs);
 800194e:	6b1a      	ldr	r2, [r3, #48]	; 0x30
 8001950:	f002 0240 	and.w	r2, r2, #64	; 0x40
 8001954:	9204      	str	r2, [sp, #16]
  (void)tmpreg;
 8001956:	9a04      	ldr	r2, [sp, #16]

	 /* GPIOG 12 */
	LL_AHB1_GRP1_EnableClock(LL_AHB1_GRP1_PERIPH_GPIOG);
	GPIOG->MODER &= ~(0x3<<24); GPIOG->MODER |= (0x2<<24);
 8001958:	4a77      	ldr	r2, [pc, #476]	; (8001b38 <LTDC_init+0x278>)
 800195a:	6811      	ldr	r1, [r2, #0]
 800195c:	f021 7140 	bic.w	r1, r1, #50331648	; 0x3000000
 8001960:	6011      	str	r1, [r2, #0]
 8001962:	6811      	ldr	r1, [r2, #0]
 8001964:	f041 7100 	orr.w	r1, r1, #33554432	; 0x2000000
 8001968:	6011      	str	r1, [r2, #0]
	GPIOG->OSPEEDR &= ~(0x3<<24); GPIOG->OSPEEDR |= (0x2<<24);
 800196a:	6891      	ldr	r1, [r2, #8]
 800196c:	f021 7140 	bic.w	r1, r1, #50331648	; 0x3000000
 8001970:	6091      	str	r1, [r2, #8]
 8001972:	6891      	ldr	r1, [r2, #8]
 8001974:	f041 7100 	orr.w	r1, r1, #33554432	; 0x2000000
 8001978:	6091      	str	r1, [r2, #8]
	GPIOG->AFR[1] &= ~(0xF<<16); GPIOG->AFR[1] |= (0xE<<16);
 800197a:	6a51      	ldr	r1, [r2, #36]	; 0x24
 800197c:	f421 2170 	bic.w	r1, r1, #983040	; 0xf0000
 8001980:	6251      	str	r1, [r2, #36]	; 0x24
 8001982:	6a51      	ldr	r1, [r2, #36]	; 0x24
 8001984:	f441 2160 	orr.w	r1, r1, #917504	; 0xe0000
 8001988:	6251      	str	r1, [r2, #36]	; 0x24
  SET_BIT(RCC->AHB1ENR, Periphs);
 800198a:	6b1a      	ldr	r2, [r3, #48]	; 0x30
 800198c:	f442 7280 	orr.w	r2, r2, #256	; 0x100
 8001990:	631a      	str	r2, [r3, #48]	; 0x30
  tmpreg = READ_BIT(RCC->AHB1ENR, Periphs);
 8001992:	6b1a      	ldr	r2, [r3, #48]	; 0x30
 8001994:	f402 7280 	and.w	r2, r2, #256	; 0x100
 8001998:	9203      	str	r2, [sp, #12]
  (void)tmpreg;
 800199a:	9a03      	ldr	r2, [sp, #12]

	 /* GPIOI 9, 10, 13-15 */
	LL_AHB1_GRP1_EnableClock(LL_AHB1_GRP1_PERIPH_GPIOI);
	GPIOI->MODER &= ~(0x3<<18 | 0x3<<20 | 0x3<<26 | 0x3<<28 | 0x3<<30);
 800199c:	4967      	ldr	r1, [pc, #412]	; (8001b3c <LTDC_init+0x27c>)
 800199e:	680a      	ldr	r2, [r1, #0]
 80019a0:	4e67      	ldr	r6, [pc, #412]	; (8001b40 <LTDC_init+0x280>)
 80019a2:	4032      	ands	r2, r6
 80019a4:	600a      	str	r2, [r1, #0]
	GPIOI->MODER |= (0x2<<18 | 0x2<<20 | 0x2<<26 | 0x2<<28 | 0x2<<30);
 80019a6:	680c      	ldr	r4, [r1, #0]
 80019a8:	4d66      	ldr	r5, [pc, #408]	; (8001b44 <LTDC_init+0x284>)
 80019aa:	432c      	orrs	r4, r5
 80019ac:	600c      	str	r4, [r1, #0]
	GPIOI->OSPEEDR &= ~(0x3<<18 | 0x3<<20 | 0x3<<26 | 0x3<<28 | 0x3<<30);
 80019ae:	6888      	ldr	r0, [r1, #8]
 80019b0:	4030      	ands	r0, r6
 80019b2:	6088      	str	r0, [r1, #8]
	GPIOI->OSPEEDR |= (0x2<<18 | 0x2<<20 | 0x2<<26 | 0x2<<28 | 0x2<<30);
 80019b4:	688a      	ldr	r2, [r1, #8]
 80019b6:	432a      	orrs	r2, r5
 80019b8:	608a      	str	r2, [r1, #8]
	GPIOI->AFR[1] &= ~(0xF<<4 | 0xF<<8 | 0xF<<20 | 0xF<<24 | 0xF<<28);
 80019ba:	6a48      	ldr	r0, [r1, #36]	; 0x24
 80019bc:	4a62      	ldr	r2, [pc, #392]	; (8001b48 <LTDC_init+0x288>)
 80019be:	4002      	ands	r2, r0
 80019c0:	624a      	str	r2, [r1, #36]	; 0x24
	GPIOI->AFR[1] |= (0xE<<4 | 0xE<<8 | 0xE<<20 | 0xE<<24 | 0xE<<28);
 80019c2:	6a48      	ldr	r0, [r1, #36]	; 0x24
 80019c4:	4a61      	ldr	r2, [pc, #388]	; (8001b4c <LTDC_init+0x28c>)
 80019c6:	4302      	orrs	r2, r0
 80019c8:	624a      	str	r2, [r1, #36]	; 0x24
  SET_BIT(RCC->AHB1ENR, Periphs);
 80019ca:	6b1a      	ldr	r2, [r3, #48]	; 0x30
 80019cc:	f442 7200 	orr.w	r2, r2, #512	; 0x200
 80019d0:	631a      	str	r2, [r3, #48]	; 0x30
  tmpreg = READ_BIT(RCC->AHB1ENR, Periphs);
 80019d2:	6b1a      	ldr	r2, [r3, #48]	; 0x30
 80019d4:	f402 7200 	and.w	r2, r2, #512	; 0x200
 80019d8:	9202      	str	r2, [sp, #8]
  (void)tmpreg;
 80019da:	9a02      	ldr	r2, [sp, #8]

	 /* GPIOJ 0-11, 13-15 */
	LL_AHB1_GRP1_EnableClock(LL_AHB1_GRP1_PERIPH_GPIOJ);
	GPIOJ->MODER &= ~(0xFCFFFFFF); GPIOJ->MODER |= (0xA8AAAAAA);
 80019dc:	4a5c      	ldr	r2, [pc, #368]	; (8001b50 <LTDC_init+0x290>)
 80019de:	6810      	ldr	r0, [r2, #0]
 80019e0:	f000 7040 	and.w	r0, r0, #50331648	; 0x3000000
 80019e4:	6010      	str	r0, [r2, #0]
 80019e6:	6814      	ldr	r4, [r2, #0]
 80019e8:	4d5a      	ldr	r5, [pc, #360]	; (8001b54 <LTDC_init+0x294>)
 80019ea:	432c      	orrs	r4, r5
 80019ec:	6014      	str	r4, [r2, #0]
	GPIOJ->OSPEEDR &= ~(0xFCFFFFFF); GPIOJ->OSPEEDR |= (0xA8AAAAAA);
 80019ee:	6894      	ldr	r4, [r2, #8]
 80019f0:	f004 7440 	and.w	r4, r4, #50331648	; 0x3000000
 80019f4:	6094      	str	r4, [r2, #8]
 80019f6:	6890      	ldr	r0, [r2, #8]
 80019f8:	4328      	orrs	r0, r5
 80019fa:	6090      	str	r0, [r2, #8]
	GPIOJ->AFR[0] &= ~(0xFFFFFFFF); GPIOJ->AFR[0] |= (0xEEEEEEEE);
 80019fc:	6a10      	ldr	r0, [r2, #32]
 80019fe:	2000      	movs	r0, #0
 8001a00:	6210      	str	r0, [r2, #32]
 8001a02:	6a10      	ldr	r0, [r2, #32]
 8001a04:	f040 30ee 	orr.w	r0, r0, #4008636142	; 0xeeeeeeee
 8001a08:	6210      	str	r0, [r2, #32]
	GPIOJ->AFR[1] &= ~(0xFFF0FFFF); GPIOJ->AFR[1] |= (0xEEE0EEEE);
 8001a0a:	6a50      	ldr	r0, [r2, #36]	; 0x24
 8001a0c:	f400 2070 	and.w	r0, r0, #983040	; 0xf0000
 8001a10:	6250      	str	r0, [r2, #36]	; 0x24
 8001a12:	6a54      	ldr	r4, [r2, #36]	; 0x24
 8001a14:	4850      	ldr	r0, [pc, #320]	; (8001b58 <LTDC_init+0x298>)
 8001a16:	4320      	orrs	r0, r4
 8001a18:	6250      	str	r0, [r2, #36]	; 0x24
  SET_BIT(RCC->AHB1ENR, Periphs);
 8001a1a:	6b1a      	ldr	r2, [r3, #48]	; 0x30
 8001a1c:	f442 6280 	orr.w	r2, r2, #1024	; 0x400
 8001a20:	631a      	str	r2, [r3, #48]	; 0x30
  tmpreg = READ_BIT(RCC->AHB1ENR, Periphs);
 8001a22:	6b1a      	ldr	r2, [r3, #48]	; 0x30
 8001a24:	f402 6280 	and.w	r2, r2, #1024	; 0x400
 8001a28:	9201      	str	r2, [sp, #4]
  (void)tmpreg;
 8001a2a:	9a01      	ldr	r2, [sp, #4]

	/* GPIOK 0-2, 4-7 */
	LL_AHB1_GRP1_EnableClock(LL_AHB1_GRP1_PERIPH_GPIOK);
	GPIOK->MODER &= ~(0x3<<0 | 0x3<<2 | 0x3<<4 | 0x3<<8 | 0x3<<10 | 0x3<<12 | 0x3<<14);
 8001a2c:	4a4b      	ldr	r2, [pc, #300]	; (8001b5c <LTDC_init+0x29c>)
 8001a2e:	6810      	ldr	r0, [r2, #0]
 8001a30:	4f4b      	ldr	r7, [pc, #300]	; (8001b60 <LTDC_init+0x2a0>)
 8001a32:	4038      	ands	r0, r7
 8001a34:	6010      	str	r0, [r2, #0]
	GPIOK->MODER |= (0x2<<0 | 0x2<<2 | 0x2<<4 | 0x2<<8 | 0x2<<10 | 0x2<<12 | 0x2<<14);
 8001a36:	6815      	ldr	r5, [r2, #0]
 8001a38:	f64a 262a 	movw	r6, #43562	; 0xaa2a
 8001a3c:	4335      	orrs	r5, r6
 8001a3e:	6015      	str	r5, [r2, #0]
	GPIOK->OSPEEDR &= ~(0x3<<0 | 0x3<<2 | 0x3<<4 | 0x3<<8 | 0x3<<10 | 0x3<<12 | 0x3<<14);
 8001a40:	6894      	ldr	r4, [r2, #8]
 8001a42:	403c      	ands	r4, r7
 8001a44:	6094      	str	r4, [r2, #8]
	GPIOK->OSPEEDR |= (0x2<<0 | 0x2<<2 | 0x2<<4 | 0x2<<8 | 0x2<<10 | 0x2<<12 | 0x2<<14);
 8001a46:	6890      	ldr	r0, [r2, #8]
 8001a48:	4330      	orrs	r0, r6
 8001a4a:	6090      	str	r0, [r2, #8]
	GPIOK->AFR[0] &= ~(0xF<<0 | 0xF<<4 | 0xF<<8 | 0xF<<16 | 0xF<<20 | 0xF<<24 | 0xF<<28);
 8001a4c:	6a10      	ldr	r0, [r2, #32]
 8001a4e:	f400 4070 	and.w	r0, r0, #61440	; 0xf000
 8001a52:	6210      	str	r0, [r2, #32]
	GPIOK->AFR[0] |= (0xE<<0 | 0xE<<4 | 0xE<<8 | 0xE<<16 | 0xE<<20 | 0xE<<24 | 0xE<<28);
 8001a54:	6a14      	ldr	r4, [r2, #32]
 8001a56:	4843      	ldr	r0, [pc, #268]	; (8001b64 <LTDC_init+0x2a4>)
 8001a58:	4320      	orrs	r0, r4
 8001a5a:	6210      	str	r0, [r2, #32]

	/* GPIOI 12 (disp en) */
	GPIOI->MODER &= ~(0x3<<24); GPIOI->MODER |= (0x1<<24);
 8001a5c:	6808      	ldr	r0, [r1, #0]
 8001a5e:	f020 7040 	bic.w	r0, r0, #50331648	; 0x3000000
 8001a62:	6008      	str	r0, [r1, #0]
 8001a64:	6808      	ldr	r0, [r1, #0]
 8001a66:	f040 7080 	orr.w	r0, r0, #16777216	; 0x1000000
 8001a6a:	6008      	str	r0, [r1, #0]

	/* GPIOK 3 (bl ctrl) */
	GPIOK->MODER &= ~(0x3<<6); GPIOK->MODER |= (0x1<<6);
 8001a6c:	6810      	ldr	r0, [r2, #0]
 8001a6e:	f020 00c0 	bic.w	r0, r0, #192	; 0xc0
 8001a72:	6010      	str	r0, [r2, #0]
 8001a74:	6810      	ldr	r0, [r2, #0]
 8001a76:	f040 0040 	orr.w	r0, r0, #64	; 0x40
 8001a7a:	6010      	str	r0, [r2, #0]
  WRITE_REG(GPIOx->BSRR, PinMask);
 8001a7c:	f44f 5080 	mov.w	r0, #4096	; 0x1000
 8001a80:	6188      	str	r0, [r1, #24]
 8001a82:	2108      	movs	r1, #8
 8001a84:	6191      	str	r1, [r2, #24]
  SET_BIT(RCC->APB2ENR, Periphs);
 8001a86:	6c5a      	ldr	r2, [r3, #68]	; 0x44
 8001a88:	f042 6280 	orr.w	r2, r2, #67108864	; 0x4000000
 8001a8c:	645a      	str	r2, [r3, #68]	; 0x44
  tmpreg = READ_BIT(RCC->APB2ENR, Periphs);
 8001a8e:	6c5b      	ldr	r3, [r3, #68]	; 0x44
 8001a90:	f003 6380 	and.w	r3, r3, #67108864	; 0x4000000
 8001a94:	9300      	str	r3, [sp, #0]
  (void)tmpreg;
 8001a96:	9b00      	ldr	r3, [sp, #0]
	LL_GPIO_SetOutputPin(GPIOK, LL_GPIO_PIN_3);

	/* LTDC initialization */
	LL_APB2_GRP1_EnableClock(LL_APB2_GRP1_PERIPH_LTDC);

	LTDC->GCR = 0x00002220;																			/* all signals active LOW, dithering disabled */
 8001a98:	4b33      	ldr	r3, [pc, #204]	; (8001b68 <LTDC_init+0x2a8>)
 8001a9a:	f242 2220 	movw	r2, #8736	; 0x2220
 8001a9e:	619a      	str	r2, [r3, #24]
	LTDC->SSCR = (RK043FN48H_HSYNC-1)<<16 | (RK043FN48H_VSYNC-1);									/* sync pulse widths */
 8001aa0:	4a32      	ldr	r2, [pc, #200]	; (8001b6c <LTDC_init+0x2ac>)
 8001aa2:	609a      	str	r2, [r3, #8]
	LTDC->BPCR = (RK043FN48H_HSYNC + RK043FN48H_HBP - 1)<<16 | 										/* accumulated backporch */
 8001aa4:	4a32      	ldr	r2, [pc, #200]	; (8001b70 <LTDC_init+0x2b0>)
 8001aa6:	60da      	str	r2, [r3, #12]
					(RK043FN48H_VSYNC + RK043FN48H_VBP - 1);
	LTDC->AWCR = (RK043FN48H_HSYNC + RK043FN48H_HBP + RK043FN48H_WIDTH - 1)<<16 | 					/* accumulated active width */
 8001aa8:	f102 72f0 	add.w	r2, r2, #31457280	; 0x1e00000
 8001aac:	f502 7288 	add.w	r2, r2, #272	; 0x110
 8001ab0:	611a      	str	r2, [r3, #16]
					(RK043FN48H_VSYNC + RK043FN48H_VBP + RK043FN48H_HEIGHT - 1);
	LTDC->TWCR = (RK043FN48H_HSYNC + RK043FN48H_HBP + RK043FN48H_WIDTH + RK043FN48H_HFP - 1)<<16 | 	/* total width */
 8001ab2:	f502 1200 	add.w	r2, r2, #2097152	; 0x200000
 8001ab6:	3202      	adds	r2, #2
 8001ab8:	615a      	str	r2, [r3, #20]
					(RK043FN48H_VSYNC + RK043FN48H_VBP + RK043FN48H_HEIGHT + RK043FN48H_VFP - 1);
	LTDC->BCCR = (255U << 16) | (0U << 8) | (0U);		/* background color */
 8001aba:	f44f 027f 	mov.w	r2, #16711680	; 0xff0000
 8001abe:	62da      	str	r2, [r3, #44]	; 0x2c
	LTDC->ICR |= 0x0F;									/* clear all flags */
 8001ac0:	6bda      	ldr	r2, [r3, #60]	; 0x3c
 8001ac2:	f042 020f 	orr.w	r2, r2, #15
 8001ac6:	63da      	str	r2, [r3, #60]	; 0x3c
	LTDC->IER |= 0x06;									/* enable transfer and FIFO underrun interrupts */
 8001ac8:	6b5a      	ldr	r2, [r3, #52]	; 0x34
 8001aca:	f042 0206 	orr.w	r2, r2, #6
 8001ace:	635a      	str	r2, [r3, #52]	; 0x34

	/* Layer1 initialization */
	LTDC_Layer1->WHPCR = (RK043FN48H_HSYNC + RK043FN48H_HBP + RK043FN48H_WIDTH - 1)<<16 |
 8001ad0:	4a28      	ldr	r2, [pc, #160]	; (8001b74 <LTDC_init+0x2b4>)
 8001ad2:	4929      	ldr	r1, [pc, #164]	; (8001b78 <LTDC_init+0x2b8>)
 8001ad4:	6051      	str	r1, [r2, #4]
								(RK043FN48H_HSYNC + RK043FN48H_HBP);
	LTDC_Layer1->WVPCR = (RK043FN48H_VSYNC + RK043FN48H_VBP + RK043FN48H_HEIGHT - 1)<<16 |
 8001ad6:	f5a1 017a 	sub.w	r1, r1, #16384000	; 0xfa0000
 8001ada:	392a      	subs	r1, #42	; 0x2a
 8001adc:	6091      	str	r1, [r2, #8]
								(RK043FN48H_VSYNC + RK043FN48H_VBP);
	LTDC_Layer1->PFCR = 0x02;							/* RGB565 */
 8001ade:	2102      	movs	r1, #2
 8001ae0:	6111      	str	r1, [r2, #16]
	LTDC_Layer1->CACR = 0xFF;							/* constant layer alpha value */
 8001ae2:	21ff      	movs	r1, #255	; 0xff
 8001ae4:	6151      	str	r1, [r2, #20]
	LTDC_Layer1->BFCR = (0x5)<<0 | (0x4)<<8;			/* constant_alpha, 1-constant_alpha */
 8001ae6:	f240 4105 	movw	r1, #1029	; 0x405
 8001aea:	61d1      	str	r1, [r2, #28]
	LTDC_Layer1->CFBAR = LCD_FRAME_BUFFER;				/* frame buffer address */
 8001aec:	f04f 4140 	mov.w	r1, #3221225472	; 0xc0000000
 8001af0:	6291      	str	r1, [r2, #40]	; 0x28
	LTDC_Layer1->CFBLR = (2*RK043FN48H_WIDTH)<<16 | (2*RK043FN48H_WIDTH + 3)<<0;
 8001af2:	4922      	ldr	r1, [pc, #136]	; (8001b7c <LTDC_init+0x2bc>)
 8001af4:	62d1      	str	r1, [r2, #44]	; 0x2c
	LTDC_Layer1->CFBLNR = RK043FN48H_HEIGHT;
 8001af6:	f44f 7188 	mov.w	r1, #272	; 0x110
 8001afa:	6311      	str	r1, [r2, #48]	; 0x30
	LTDC_Layer1->CR |= 0x01;							/* enable layer1 */
 8001afc:	6811      	ldr	r1, [r2, #0]
 8001afe:	f041 0101 	orr.w	r1, r1, #1
 8001b02:	6011      	str	r1, [r2, #0]
	LTDC->SRCR |= 0x01;									/* immediate reload */
 8001b04:	6a5a      	ldr	r2, [r3, #36]	; 0x24
 8001b06:	f042 0201 	orr.w	r2, r2, #1
 8001b0a:	625a      	str	r2, [r3, #36]	; 0x24
	LTDC->GCR  |= 0x01;									/* enable LTDC */
 8001b0c:	699a      	ldr	r2, [r3, #24]
 8001b0e:	f042 0201 	orr.w	r2, r2, #1
 8001b12:	619a      	str	r2, [r3, #24]
    NVIC->IP[((uint32_t)IRQn)]                = (uint8_t)((priority << (8U - __NVIC_PRIO_BITS)) & (uint32_t)0xFFUL);
 8001b14:	4b1a      	ldr	r3, [pc, #104]	; (8001b80 <LTDC_init+0x2c0>)
 8001b16:	2220      	movs	r2, #32
 8001b18:	f883 2359 	strb.w	r2, [r3, #857]	; 0x359
    NVIC->ISER[(((uint32_t)IRQn) >> 5UL)] = (uint32_t)(1UL << (((uint32_t)IRQn) & 0x1FUL));
 8001b1c:	f04f 7200 	mov.w	r2, #33554432	; 0x2000000
 8001b20:	609a      	str	r2, [r3, #8]

	NVIC_SetPriority(LTDC_ER_IRQn, 2);
	NVIC_EnableIRQ(LTDC_ER_IRQn);
}
 8001b22:	b006      	add	sp, #24
 8001b24:	bcf0      	pop	{r4, r5, r6, r7}
 8001b26:	4770      	bx	lr
 8001b28:	40023800 	.word	0x40023800
 8001b2c:	8fff803f 	.word	0x8fff803f
 8001b30:	50003000 	.word	0x50003000
 8001b34:	40021000 	.word	0x40021000
 8001b38:	40021800 	.word	0x40021800
 8001b3c:	40022000 	.word	0x40022000
 8001b40:	03c3ffff 	.word	0x03c3ffff
 8001b44:	a8280000 	.word	0xa8280000
 8001b48:	000ff00f 	.word	0x000ff00f
 8001b4c:	eee00ee0 	.word	0xeee00ee0
 8001b50:	40022400 	.word	0x40022400
 8001b54:	a8aaaaaa 	.word	0xa8aaaaaa
 8001b58:	eee0eeee 	.word	0xeee0eeee
 8001b5c:	40022800 	.word	0x40022800
 8001b60:	ffff00c0 	.word	0xffff00c0
 8001b64:	eeee0eee 	.word	0xeeee0eee
 8001b68:	40016800 	.word	0x40016800
 8001b6c:	00280009 	.word	0x00280009
 8001b70:	0035000b 	.word	0x0035000b
 8001b74:	40016884 	.word	0x40016884
 8001b78:	02150036 	.word	0x02150036
 8001b7c:	03c003c3 	.word	0x03c003c3
 8001b80:	e000e100 	.word	0xe000e100

08001b84 <SDRAM_init>:
  * @brief  SDRAM config & initialization for 100MHz operation.
  * @param  None
  * @retval None
  */
void SDRAM_init(void)
{
 8001b84:	b570      	push	{r4, r5, r6, lr}
 8001b86:	b088      	sub	sp, #32
  SET_BIT(RCC->AHB3ENR, Periphs);
 8001b88:	4b8f      	ldr	r3, [pc, #572]	; (8001dc8 <SDRAM_init+0x244>)
 8001b8a:	6b9a      	ldr	r2, [r3, #56]	; 0x38
 8001b8c:	f042 0201 	orr.w	r2, r2, #1
 8001b90:	639a      	str	r2, [r3, #56]	; 0x38
  tmpreg = READ_BIT(RCC->AHB3ENR, Periphs);
 8001b92:	6b9a      	ldr	r2, [r3, #56]	; 0x38
 8001b94:	f002 0201 	and.w	r2, r2, #1
 8001b98:	9207      	str	r2, [sp, #28]
  (void)tmpreg;
 8001b9a:	9a07      	ldr	r2, [sp, #28]
  SET_BIT(RCC->AHB1ENR, Periphs);
 8001b9c:	6b1a      	ldr	r2, [r3, #48]	; 0x30
 8001b9e:	f042 0204 	orr.w	r2, r2, #4
 8001ba2:	631a      	str	r2, [r3, #48]	; 0x30
  tmpreg = READ_BIT(RCC->AHB1ENR, Periphs);
 8001ba4:	6b1a      	ldr	r2, [r3, #48]	; 0x30
 8001ba6:	f002 0204 	and.w	r2, r2, #4
 8001baa:	9206      	str	r2, [sp, #24]
  (void)tmpreg;
 8001bac:	9a06      	ldr	r2, [sp, #24]
	LL_AHB3_GRP1_EnableClock(LL_AHB3_GRP1_PERIPH_FMC);

	/* FMC GPIOs configuration */
	/* GPIOC 3 */
	LL_AHB1_GRP1_EnableClock(LL_AHB1_GRP1_PERIPH_GPIOC);
	GPIOC->MODER &= ~(0x3<<6); GPIOC->MODER |= (0x2<<6);
 8001bae:	4a87      	ldr	r2, [pc, #540]	; (8001dcc <SDRAM_init+0x248>)
 8001bb0:	6811      	ldr	r1, [r2, #0]
 8001bb2:	f021 01c0 	bic.w	r1, r1, #192	; 0xc0
 8001bb6:	6011      	str	r1, [r2, #0]
 8001bb8:	6811      	ldr	r1, [r2, #0]
 8001bba:	f041 0180 	orr.w	r1, r1, #128	; 0x80
 8001bbe:	6011      	str	r1, [r2, #0]
	GPIOC->OSPEEDR &= ~(0x3<<6); GPIOC->OSPEEDR |= (0x2<<6);
 8001bc0:	6891      	ldr	r1, [r2, #8]
 8001bc2:	f021 01c0 	bic.w	r1, r1, #192	; 0xc0
 8001bc6:	6091      	str	r1, [r2, #8]
 8001bc8:	6891      	ldr	r1, [r2, #8]
 8001bca:	f041 0180 	orr.w	r1, r1, #128	; 0x80
 8001bce:	6091      	str	r1, [r2, #8]
	GPIOC->AFR[0] &= ~(0xF<<12); GPIOC->AFR[0] |= (0xC<<12);
 8001bd0:	6a11      	ldr	r1, [r2, #32]
 8001bd2:	f421 4170 	bic.w	r1, r1, #61440	; 0xf000
 8001bd6:	6211      	str	r1, [r2, #32]
 8001bd8:	6a11      	ldr	r1, [r2, #32]
 8001bda:	f441 4140 	orr.w	r1, r1, #49152	; 0xc000
 8001bde:	6211      	str	r1, [r2, #32]
  SET_BIT(RCC->AHB1ENR, Periphs);
 8001be0:	6b1a      	ldr	r2, [r3, #48]	; 0x30
 8001be2:	f042 0208 	orr.w	r2, r2, #8
 8001be6:	631a      	str	r2, [r3, #48]	; 0x30
  tmpreg = READ_BIT(RCC->AHB1ENR, Periphs);
 8001be8:	6b1a      	ldr	r2, [r3, #48]	; 0x30
 8001bea:	f002 0208 	and.w	r2, r2, #8
 8001bee:	9205      	str	r2, [sp, #20]
  (void)tmpreg;
 8001bf0:	9a05      	ldr	r2, [sp, #20]

	/* GPIOD 0, 1, 8-10, 14, 15 */
	LL_AHB1_GRP1_EnableClock(LL_AHB1_GRP1_PERIPH_GPIOD);
	GPIOD->MODER &= ~(0x3<<0 | 0x3<<2 | 0x3<<16 | 0x3<<18 | 0x3<<20 | 0x3<<28 | 0x3<<30);
 8001bf2:	4a77      	ldr	r2, [pc, #476]	; (8001dd0 <SDRAM_init+0x24c>)
 8001bf4:	6811      	ldr	r1, [r2, #0]
 8001bf6:	4e77      	ldr	r6, [pc, #476]	; (8001dd4 <SDRAM_init+0x250>)
 8001bf8:	4031      	ands	r1, r6
 8001bfa:	6011      	str	r1, [r2, #0]
	GPIOD->MODER |= (0x2<<0 | 0x2<<2 | 0x2<<16 | 0x2<<18 | 0x2<<20 | 0x2<<28 | 0x2<<30);
 8001bfc:	6814      	ldr	r4, [r2, #0]
 8001bfe:	4d76      	ldr	r5, [pc, #472]	; (8001dd8 <SDRAM_init+0x254>)
 8001c00:	432c      	orrs	r4, r5
 8001c02:	6014      	str	r4, [r2, #0]
	GPIOD->OSPEEDR &= ~(0x3<<0 | 0x3<<2 | 0x3<<16 | 0x3<<18 | 0x3<<20 | 0x3<<28 | 0x3<<30);
 8001c04:	6890      	ldr	r0, [r2, #8]
 8001c06:	4030      	ands	r0, r6
 8001c08:	6090      	str	r0, [r2, #8]
	GPIOD->OSPEEDR |= (0x2<<0 | 0x2<<2 | 0x2<<16 | 0x2<<18 | 0x2<<20 | 0x2<<28 | 0x2<<30);
 8001c0a:	6891      	ldr	r1, [r2, #8]
 8001c0c:	4329      	orrs	r1, r5
 8001c0e:	6091      	str	r1, [r2, #8]
	GPIOD->AFR[0] &= ~(0xF<<0 | 0xF<<4);
 8001c10:	6a11      	ldr	r1, [r2, #32]
 8001c12:	f021 01ff 	bic.w	r1, r1, #255	; 0xff
 8001c16:	6211      	str	r1, [r2, #32]
	GPIOD->AFR[0] |= (0xC<<0 | 0xC<<4);
 8001c18:	6a11      	ldr	r1, [r2, #32]
 8001c1a:	f041 01cc 	orr.w	r1, r1, #204	; 0xcc
 8001c1e:	6211      	str	r1, [r2, #32]
	GPIOD->AFR[1] &= ~(0xF<<0 | 0xF<<4 | 0xF<<8 | 0xF<<24 | 0xF<<28);
 8001c20:	6a50      	ldr	r0, [r2, #36]	; 0x24
 8001c22:	496e      	ldr	r1, [pc, #440]	; (8001ddc <SDRAM_init+0x258>)
 8001c24:	4001      	ands	r1, r0
 8001c26:	6251      	str	r1, [r2, #36]	; 0x24
	GPIOD->AFR[1] |= (0xC<<0 | 0xC<<4 | 0xC<<8 | 0xC<<24 | 0xC<<28);
 8001c28:	6a50      	ldr	r0, [r2, #36]	; 0x24
 8001c2a:	496d      	ldr	r1, [pc, #436]	; (8001de0 <SDRAM_init+0x25c>)
 8001c2c:	4301      	orrs	r1, r0
 8001c2e:	6251      	str	r1, [r2, #36]	; 0x24
  SET_BIT(RCC->AHB1ENR, Periphs);
 8001c30:	6b1a      	ldr	r2, [r3, #48]	; 0x30
 8001c32:	f042 0210 	orr.w	r2, r2, #16
 8001c36:	631a      	str	r2, [r3, #48]	; 0x30
  tmpreg = READ_BIT(RCC->AHB1ENR, Periphs);
 8001c38:	6b1a      	ldr	r2, [r3, #48]	; 0x30
 8001c3a:	f002 0210 	and.w	r2, r2, #16
 8001c3e:	9204      	str	r2, [sp, #16]
  (void)tmpreg;
 8001c40:	9a04      	ldr	r2, [sp, #16]

	/* GPIOE 0, 1, 7-15 */
	LL_AHB1_GRP1_EnableClock(LL_AHB1_GRP1_PERIPH_GPIOE);
	GPIOE->MODER &= ~(0xFFFFC00F); GPIOE->MODER |= (0xAAAA800A);
 8001c42:	4a68      	ldr	r2, [pc, #416]	; (8001de4 <SDRAM_init+0x260>)
 8001c44:	6811      	ldr	r1, [r2, #0]
 8001c46:	f643 76f0 	movw	r6, #16368	; 0x3ff0
 8001c4a:	4031      	ands	r1, r6
 8001c4c:	6011      	str	r1, [r2, #0]
 8001c4e:	6814      	ldr	r4, [r2, #0]
 8001c50:	f105 6528 	add.w	r5, r5, #176160768	; 0xa800000
 8001c54:	f505 4500 	add.w	r5, r5, #32768	; 0x8000
 8001c58:	432c      	orrs	r4, r5
 8001c5a:	6014      	str	r4, [r2, #0]
	GPIOE->OSPEEDR &= ~(0xFFFFC00F); GPIOE->OSPEEDR |= (0xAAAA800A);
 8001c5c:	6890      	ldr	r0, [r2, #8]
 8001c5e:	4030      	ands	r0, r6
 8001c60:	6090      	str	r0, [r2, #8]
 8001c62:	6891      	ldr	r1, [r2, #8]
 8001c64:	4329      	orrs	r1, r5
 8001c66:	6091      	str	r1, [r2, #8]
	GPIOE->AFR[0] &= ~(0xF00000FF); GPIOE->AFR[0] |= (0xC00000CC);
 8001c68:	6a10      	ldr	r0, [r2, #32]
 8001c6a:	495f      	ldr	r1, [pc, #380]	; (8001de8 <SDRAM_init+0x264>)
 8001c6c:	4001      	ands	r1, r0
 8001c6e:	6211      	str	r1, [r2, #32]
 8001c70:	6a10      	ldr	r0, [r2, #32]
 8001c72:	495e      	ldr	r1, [pc, #376]	; (8001dec <SDRAM_init+0x268>)
 8001c74:	4301      	orrs	r1, r0
 8001c76:	6211      	str	r1, [r2, #32]
	GPIOE->AFR[1] &= ~(0xFFFFFFFF); GPIOE->AFR[1] |= (0xCCCCCCCC);
 8001c78:	6a51      	ldr	r1, [r2, #36]	; 0x24
 8001c7a:	2100      	movs	r1, #0
 8001c7c:	6251      	str	r1, [r2, #36]	; 0x24
 8001c7e:	6a51      	ldr	r1, [r2, #36]	; 0x24
 8001c80:	f041 31cc 	orr.w	r1, r1, #3435973836	; 0xcccccccc
 8001c84:	6251      	str	r1, [r2, #36]	; 0x24
  SET_BIT(RCC->AHB1ENR, Periphs);
 8001c86:	6b1a      	ldr	r2, [r3, #48]	; 0x30
 8001c88:	f042 0220 	orr.w	r2, r2, #32
 8001c8c:	631a      	str	r2, [r3, #48]	; 0x30
  tmpreg = READ_BIT(RCC->AHB1ENR, Periphs);
 8001c8e:	6b1a      	ldr	r2, [r3, #48]	; 0x30
 8001c90:	f002 0220 	and.w	r2, r2, #32
 8001c94:	9203      	str	r2, [sp, #12]
  (void)tmpreg;
 8001c96:	9a03      	ldr	r2, [sp, #12]

	/* GPIOF 0-5, 11-15 */
	LL_AHB1_GRP1_EnableClock(LL_AHB1_GRP1_PERIPH_GPIOF);
	GPIOF->MODER &= ~(0xFFC00FFF); GPIOF->MODER |= (0xAA800AAA);
 8001c98:	4a55      	ldr	r2, [pc, #340]	; (8001df0 <SDRAM_init+0x26c>)
 8001c9a:	6811      	ldr	r1, [r2, #0]
 8001c9c:	4e55      	ldr	r6, [pc, #340]	; (8001df4 <SDRAM_init+0x270>)
 8001c9e:	4031      	ands	r1, r6
 8001ca0:	6011      	str	r1, [r2, #0]
 8001ca2:	6814      	ldr	r4, [r2, #0]
 8001ca4:	4d54      	ldr	r5, [pc, #336]	; (8001df8 <SDRAM_init+0x274>)
 8001ca6:	432c      	orrs	r4, r5
 8001ca8:	6014      	str	r4, [r2, #0]
	GPIOF->OSPEEDR &= ~(0xFFC00FFF); GPIOF->OSPEEDR |= (0xAA800AAA);
 8001caa:	6890      	ldr	r0, [r2, #8]
 8001cac:	4030      	ands	r0, r6
 8001cae:	6090      	str	r0, [r2, #8]
 8001cb0:	6891      	ldr	r1, [r2, #8]
 8001cb2:	4329      	orrs	r1, r5
 8001cb4:	6091      	str	r1, [r2, #8]
	GPIOF->AFR[0] &= ~(0x00FFFFFF); GPIOF->AFR[0] |= (0x00CCCCCC);
 8001cb6:	6a11      	ldr	r1, [r2, #32]
 8001cb8:	f001 417f 	and.w	r1, r1, #4278190080	; 0xff000000
 8001cbc:	6211      	str	r1, [r2, #32]
 8001cbe:	6a10      	ldr	r0, [r2, #32]
 8001cc0:	494e      	ldr	r1, [pc, #312]	; (8001dfc <SDRAM_init+0x278>)
 8001cc2:	4301      	orrs	r1, r0
 8001cc4:	6211      	str	r1, [r2, #32]
	GPIOF->AFR[1] &= ~(0xFFFFF000); GPIOF->AFR[1] |= (0xCCCCC000);
 8001cc6:	6a51      	ldr	r1, [r2, #36]	; 0x24
 8001cc8:	f3c1 010b 	ubfx	r1, r1, #0, #12
 8001ccc:	6251      	str	r1, [r2, #36]	; 0x24
 8001cce:	6a50      	ldr	r0, [r2, #36]	; 0x24
 8001cd0:	494b      	ldr	r1, [pc, #300]	; (8001e00 <SDRAM_init+0x27c>)
 8001cd2:	4301      	orrs	r1, r0
 8001cd4:	6251      	str	r1, [r2, #36]	; 0x24
  SET_BIT(RCC->AHB1ENR, Periphs);
 8001cd6:	6b1a      	ldr	r2, [r3, #48]	; 0x30
 8001cd8:	f042 0240 	orr.w	r2, r2, #64	; 0x40
 8001cdc:	631a      	str	r2, [r3, #48]	; 0x30
  tmpreg = READ_BIT(RCC->AHB1ENR, Periphs);
 8001cde:	6b1a      	ldr	r2, [r3, #48]	; 0x30
 8001ce0:	f002 0240 	and.w	r2, r2, #64	; 0x40
 8001ce4:	9202      	str	r2, [sp, #8]
  (void)tmpreg;
 8001ce6:	9a02      	ldr	r2, [sp, #8]

	/* GPIOG 0, 1, 4, 5, 8, 15 */
	LL_AHB1_GRP1_EnableClock(LL_AHB1_GRP1_PERIPH_GPIOG);
	GPIOG->MODER &= ~(0x3<<0 | 0x3<<2 | 0x3<<8 | 0x3<<10 | 0x3<<16 | 0x3<<30);
 8001ce8:	4a46      	ldr	r2, [pc, #280]	; (8001e04 <SDRAM_init+0x280>)
 8001cea:	6811      	ldr	r1, [r2, #0]
 8001cec:	4e46      	ldr	r6, [pc, #280]	; (8001e08 <SDRAM_init+0x284>)
 8001cee:	4031      	ands	r1, r6
 8001cf0:	6011      	str	r1, [r2, #0]
	GPIOG->MODER |= (0x2<<0 | 0x2<<2 | 0x2<<8 | 0x2<<10 | 0x2<<16 | 0x2<<30);
 8001cf2:	6814      	ldr	r4, [r2, #0]
 8001cf4:	4d45      	ldr	r5, [pc, #276]	; (8001e0c <SDRAM_init+0x288>)
 8001cf6:	432c      	orrs	r4, r5
 8001cf8:	6014      	str	r4, [r2, #0]
	GPIOG->OSPEEDR &= ~(0x3<<0 | 0x3<<2 | 0x3<<8 | 0x3<<10 | 0x3<<16 | 0x3<<30);
 8001cfa:	6890      	ldr	r0, [r2, #8]
 8001cfc:	4030      	ands	r0, r6
 8001cfe:	6090      	str	r0, [r2, #8]
	GPIOG->OSPEEDR |= (0x2<<0 | 0x2<<2 | 0x2<<8 | 0x2<<10 | 0x2<<16 | 0x2<<30);
 8001d00:	6891      	ldr	r1, [r2, #8]
 8001d02:	4329      	orrs	r1, r5
 8001d04:	6091      	str	r1, [r2, #8]
	GPIOG->AFR[0] &= ~(0xF<<0 | 0xF<<4 | 0xF<<16 | 0xF<<20);
 8001d06:	6a11      	ldr	r1, [r2, #32]
 8001d08:	f001 21ff 	and.w	r1, r1, #4278255360	; 0xff00ff00
 8001d0c:	6211      	str	r1, [r2, #32]
	GPIOG->AFR[0] |= (0xC<<0 | 0xC<<4 | 0xC<<16 | 0xC<<20);
 8001d0e:	6a11      	ldr	r1, [r2, #32]
 8001d10:	f041 11cc 	orr.w	r1, r1, #13369548	; 0xcc00cc
 8001d14:	6211      	str	r1, [r2, #32]
	GPIOG->AFR[1] &= ~(0xF<<0 | 0xF<<28);
 8001d16:	6a50      	ldr	r0, [r2, #36]	; 0x24
 8001d18:	493d      	ldr	r1, [pc, #244]	; (8001e10 <SDRAM_init+0x28c>)
 8001d1a:	4001      	ands	r1, r0
 8001d1c:	6251      	str	r1, [r2, #36]	; 0x24
	GPIOG->AFR[1] |= (0xC<<0 | 0xC<<28);
 8001d1e:	6a50      	ldr	r0, [r2, #36]	; 0x24
 8001d20:	493c      	ldr	r1, [pc, #240]	; (8001e14 <SDRAM_init+0x290>)
 8001d22:	4301      	orrs	r1, r0
 8001d24:	6251      	str	r1, [r2, #36]	; 0x24
  SET_BIT(RCC->AHB1ENR, Periphs);
 8001d26:	6b1a      	ldr	r2, [r3, #48]	; 0x30
 8001d28:	f042 0280 	orr.w	r2, r2, #128	; 0x80
 8001d2c:	631a      	str	r2, [r3, #48]	; 0x30
  tmpreg = READ_BIT(RCC->AHB1ENR, Periphs);
 8001d2e:	6b1b      	ldr	r3, [r3, #48]	; 0x30
 8001d30:	f003 0380 	and.w	r3, r3, #128	; 0x80
 8001d34:	9301      	str	r3, [sp, #4]
  (void)tmpreg;
 8001d36:	9b01      	ldr	r3, [sp, #4]

	/* GPIOH 3, 5 */
	LL_AHB1_GRP1_EnableClock(LL_AHB1_GRP1_PERIPH_GPIOH);
	GPIOH->MODER &= ~(0x3<<6 | 0x03<<10); GPIOH->MODER |= (0x2<<6 | 0x02<<10);
 8001d38:	4b37      	ldr	r3, [pc, #220]	; (8001e18 <SDRAM_init+0x294>)
 8001d3a:	681a      	ldr	r2, [r3, #0]
 8001d3c:	f422 624c 	bic.w	r2, r2, #3264	; 0xcc0
 8001d40:	601a      	str	r2, [r3, #0]
 8001d42:	681a      	ldr	r2, [r3, #0]
 8001d44:	f442 6208 	orr.w	r2, r2, #2176	; 0x880
 8001d48:	601a      	str	r2, [r3, #0]
	GPIOH->OSPEEDR &= ~(0x3<<6 | 0x03<<10); GPIOH->OSPEEDR |= (0x2<<6 | 0x02<<10);
 8001d4a:	689a      	ldr	r2, [r3, #8]
 8001d4c:	f422 624c 	bic.w	r2, r2, #3264	; 0xcc0
 8001d50:	609a      	str	r2, [r3, #8]
 8001d52:	689a      	ldr	r2, [r3, #8]
 8001d54:	f442 6208 	orr.w	r2, r2, #2176	; 0x880
 8001d58:	609a      	str	r2, [r3, #8]
	GPIOH->AFR[0] &= ~(0xF<<12 | 0xF<<20); GPIOH->AFR[0] |= (0xC<<12 | 0xC<<20);
 8001d5a:	6a19      	ldr	r1, [r3, #32]
 8001d5c:	4a2f      	ldr	r2, [pc, #188]	; (8001e1c <SDRAM_init+0x298>)
 8001d5e:	400a      	ands	r2, r1
 8001d60:	621a      	str	r2, [r3, #32]
 8001d62:	6a19      	ldr	r1, [r3, #32]
 8001d64:	4a2e      	ldr	r2, [pc, #184]	; (8001e20 <SDRAM_init+0x29c>)
 8001d66:	430a      	orrs	r2, r1
 8001d68:	621a      	str	r2, [r3, #32]

	/* Bank 1 configuration */
	FMC_Bank5_6->SDCR[0] = (0x00)<<13 	|	/* RPIPE = 0 */
 8001d6a:	4b2e      	ldr	r3, [pc, #184]	; (8001e24 <SDRAM_init+0x2a0>)
 8001d6c:	f641 1254 	movw	r2, #6484	; 0x1954
 8001d70:	601a      	str	r2, [r3, #0]
						   (0x01)<<6	|	/* device has 4 internal banks */
						   (0x01)<<4	|	/* 16-bit data bus */
						   (0x01)<<2	|	/* 12 row addr bits */
						   (0x00)<<0;		/* 8 col addr bits */

	FMC_Bank5_6->SDTR[0] = (0x01)<<24	|	/* Row-to-col delay = 2 */
 8001d72:	4a2d      	ldr	r2, [pc, #180]	; (8001e28 <SDRAM_init+0x2a4>)
 8001d74:	609a      	str	r2, [r3, #8]
						   (0x06)<<4	|	/* Exit self-refresh delay = 7 */
						   (0x01)<<0;		/* Load-to-active delay = 2 */

	/* SDRAM device initialization */
	/* Clock Configuration Enable */
	FMC_Bank5_6->SDCMR =   (0x00)<<9	|
 8001d76:	2211      	movs	r2, #17
 8001d78:	611a      	str	r2, [r3, #16]
						   (0x00)<<5	|
						   (0x01)<<4	|	/* cmd target Bank1 */
						   (0x00)<<3	|
						   (0x01)<<0;		/* cmd mode */
	while(FMC_Bank5_6->SDSR & 0x20);		/* wait for cmd to complete */
 8001d7a:	4b2a      	ldr	r3, [pc, #168]	; (8001e24 <SDRAM_init+0x2a0>)
 8001d7c:	699b      	ldr	r3, [r3, #24]
 8001d7e:	f013 0f20 	tst.w	r3, #32
 8001d82:	d1fa      	bne.n	8001d7a <SDRAM_init+0x1f6>
	LL_mDelay(1);							/* wait atleast 100us */
 8001d84:	2001      	movs	r0, #1
 8001d86:	f7fe ff31 	bl	8000bec <LL_mDelay>

	/* Precharge all banks */
	FMC_Bank5_6->SDCMR =   (0x00)<<9	|
 8001d8a:	2212      	movs	r2, #18
 8001d8c:	4b25      	ldr	r3, [pc, #148]	; (8001e24 <SDRAM_init+0x2a0>)
 8001d8e:	611a      	str	r2, [r3, #16]
						   (0x00)<<5	|
						   (0x01)<<4	|	/* cmd target Bank1 */
						   (0x00)<<3	|
						   (0x02)<<0;		/* cmd mode */
	while(FMC_Bank5_6->SDSR & 0x20);		/* wait for cmd to complete */
 8001d90:	4b24      	ldr	r3, [pc, #144]	; (8001e24 <SDRAM_init+0x2a0>)
 8001d92:	699b      	ldr	r3, [r3, #24]
 8001d94:	f013 0f20 	tst.w	r3, #32
 8001d98:	d1fa      	bne.n	8001d90 <SDRAM_init+0x20c>

	/* Set no. of Auto-refresh cycles */
	FMC_Bank5_6->SDCMR =   (0x00)<<9	|
 8001d9a:	22f3      	movs	r2, #243	; 0xf3
 8001d9c:	4b21      	ldr	r3, [pc, #132]	; (8001e24 <SDRAM_init+0x2a0>)
 8001d9e:	611a      	str	r2, [r3, #16]
						   (0x07)<<5	|	/* no. of auto-refresh (8 cycles) */
						   (0x01)<<4	|	/* cmd target Bank1 */
						   (0x00)<<3	|
						   (0x03)<<0;		/* cmd mode */
	while(FMC_Bank5_6->SDSR & 0x20);		/* wait for cmd to complete */
 8001da0:	4b20      	ldr	r3, [pc, #128]	; (8001e24 <SDRAM_init+0x2a0>)
 8001da2:	699b      	ldr	r3, [r3, #24]
 8001da4:	f013 0f20 	tst.w	r3, #32
 8001da8:	d1fa      	bne.n	8001da0 <SDRAM_init+0x21c>

	/* Load mode register */
	FMC_Bank5_6->SDCMR =   (0x220)<<9	|	/* mode reg definition */
 8001daa:	4a20      	ldr	r2, [pc, #128]	; (8001e2c <SDRAM_init+0x2a8>)
 8001dac:	4b1d      	ldr	r3, [pc, #116]	; (8001e24 <SDRAM_init+0x2a0>)
 8001dae:	611a      	str	r2, [r3, #16]
						   (0x00)<<5	|
						   (0x01)<<4	|	/* cmd target Bank1 */
						   (0x00)<<3	|
						   (0x04)<<0;		/* cmd mode */
	while(FMC_Bank5_6->SDSR & 0x20);		/* wait for cmd to complete */
 8001db0:	4b1c      	ldr	r3, [pc, #112]	; (8001e24 <SDRAM_init+0x2a0>)
 8001db2:	699b      	ldr	r3, [r3, #24]
 8001db4:	f013 0f20 	tst.w	r3, #32
 8001db8:	d1fa      	bne.n	8001db0 <SDRAM_init+0x22c>

	/* Set refresh rate */
	FMC_Bank5_6->SDRTR =   (0x0603)<<1;
 8001dba:	f640 4206 	movw	r2, #3078	; 0xc06
 8001dbe:	4b19      	ldr	r3, [pc, #100]	; (8001e24 <SDRAM_init+0x2a0>)
 8001dc0:	615a      	str	r2, [r3, #20]
}
 8001dc2:	b008      	add	sp, #32
 8001dc4:	bd70      	pop	{r4, r5, r6, pc}
 8001dc6:	bf00      	nop
 8001dc8:	40023800 	.word	0x40023800
 8001dcc:	40020800 	.word	0x40020800
 8001dd0:	40020c00 	.word	0x40020c00
 8001dd4:	0fc0fff0 	.word	0x0fc0fff0
 8001dd8:	a02a000a 	.word	0xa02a000a
 8001ddc:	00fff000 	.word	0x00fff000
 8001de0:	cc000ccc 	.word	0xcc000ccc
 8001de4:	40021000 	.word	0x40021000
 8001de8:	0fffff00 	.word	0x0fffff00
 8001dec:	c00000cc 	.word	0xc00000cc
 8001df0:	40021400 	.word	0x40021400
 8001df4:	003ff000 	.word	0x003ff000
 8001df8:	aa800aaa 	.word	0xaa800aaa
 8001dfc:	00cccccc 	.word	0x00cccccc
 8001e00:	ccccc000 	.word	0xccccc000
 8001e04:	40021800 	.word	0x40021800
 8001e08:	3ffcf0f0 	.word	0x3ffcf0f0
 8001e0c:	80020a0a 	.word	0x80020a0a
 8001e10:	0ffffff0 	.word	0x0ffffff0
 8001e14:	c000000c 	.word	0xc000000c
 8001e18:	40021c00 	.word	0x40021c00
 8001e1c:	ff0f0fff 	.word	0xff0f0fff
 8001e20:	00c0c000 	.word	0x00c0c000
 8001e24:	a0000140 	.word	0xa0000140
 8001e28:	01116361 	.word	0x01116361
 8001e2c:	00044014 	.word	0x00044014

08001e30 <DMA2D_init>:
  * @brief  DMA2D initialization.
  * @param  None
  * @retval None
  */
void DMA2D_init(void)
{
 8001e30:	b082      	sub	sp, #8
  SET_BIT(RCC->AHB1ENR, Periphs);
 8001e32:	4b22      	ldr	r3, [pc, #136]	; (8001ebc <DMA2D_init+0x8c>)
 8001e34:	6b1a      	ldr	r2, [r3, #48]	; 0x30
 8001e36:	f442 0200 	orr.w	r2, r2, #8388608	; 0x800000
 8001e3a:	631a      	str	r2, [r3, #48]	; 0x30
  tmpreg = READ_BIT(RCC->AHB1ENR, Periphs);
 8001e3c:	6b1b      	ldr	r3, [r3, #48]	; 0x30
 8001e3e:	f403 0300 	and.w	r3, r3, #8388608	; 0x800000
 8001e42:	9301      	str	r3, [sp, #4]
  (void)tmpreg;
 8001e44:	9b01      	ldr	r3, [sp, #4]
	LL_AHB1_GRP1_EnableClock(LL_AHB1_GRP1_PERIPH_DMA2D);

	/* wait for any ongoing transfers to complete */
	while(DMA2D->CR & 0x01);
 8001e46:	4b1e      	ldr	r3, [pc, #120]	; (8001ec0 <DMA2D_init+0x90>)
 8001e48:	681b      	ldr	r3, [r3, #0]
 8001e4a:	f013 0f01 	tst.w	r3, #1
 8001e4e:	d1fa      	bne.n	8001e46 <DMA2D_init+0x16>

	DMA2D->CR = 0x00030100;					/* reg-memory, transfer error intr enable */
 8001e50:	4b1b      	ldr	r3, [pc, #108]	; (8001ec0 <DMA2D_init+0x90>)
 8001e52:	4a1c      	ldr	r2, [pc, #112]	; (8001ec4 <DMA2D_init+0x94>)
 8001e54:	601a      	str	r2, [r3, #0]
	DMA2D->OCOLR = C_BLACK;					/* fill uGUI draw buffer with black */
 8001e56:	2200      	movs	r2, #0
 8001e58:	639a      	str	r2, [r3, #56]	; 0x38

	DMA2D->OMAR	= LCD_DRAW_BUFFER_UGUI;		/* output addr */
 8001e5a:	4a1b      	ldr	r2, [pc, #108]	; (8001ec8 <DMA2D_init+0x98>)
 8001e5c:	63da      	str	r2, [r3, #60]	; 0x3c
	DMA2D->OPFCCR = 0x02;					/* output format RGB565 */
 8001e5e:	2202      	movs	r2, #2
 8001e60:	635a      	str	r2, [r3, #52]	; 0x34
	DMA2D->NLR = (RK043FN48H_WIDTH)<<16 |	/* frame dimensions */
 8001e62:	4a1a      	ldr	r2, [pc, #104]	; (8001ecc <DMA2D_init+0x9c>)
 8001e64:	645a      	str	r2, [r3, #68]	; 0x44
					(RK043FN48H_HEIGHT)<<0;

	DMA2D->IFCR |= 0x3F;					/* clear all flags */
 8001e66:	689a      	ldr	r2, [r3, #8]
 8001e68:	f042 023f 	orr.w	r2, r2, #63	; 0x3f
 8001e6c:	609a      	str	r2, [r3, #8]
	DMA2D->CR |= 0x01;						/* start transfer */
 8001e6e:	681a      	ldr	r2, [r3, #0]
 8001e70:	f042 0201 	orr.w	r2, r2, #1
 8001e74:	601a      	str	r2, [r3, #0]

	/* wait for the transfer to complete */
	while(DMA2D->CR & 0x01);
 8001e76:	4b12      	ldr	r3, [pc, #72]	; (8001ec0 <DMA2D_init+0x90>)
 8001e78:	681b      	ldr	r3, [r3, #0]
 8001e7a:	f013 0f01 	tst.w	r3, #1
 8001e7e:	d1fa      	bne.n	8001e76 <DMA2D_init+0x46>

	DMA2D->CR = 0x00030100;					/* reg-memory, transfer error intr enable */
 8001e80:	4b0f      	ldr	r3, [pc, #60]	; (8001ec0 <DMA2D_init+0x90>)
 8001e82:	4a10      	ldr	r2, [pc, #64]	; (8001ec4 <DMA2D_init+0x94>)
 8001e84:	601a      	str	r2, [r3, #0]
	DMA2D->OCOLR = C_BLACK;					/* fill Wave draw buffer with black */
 8001e86:	2200      	movs	r2, #0
 8001e88:	639a      	str	r2, [r3, #56]	; 0x38

	DMA2D->OMAR	= LCD_DRAW_BUFFER_WAVE;		/* output addr */
 8001e8a:	f1a2 527f 	sub.w	r2, r2, #1069547520	; 0x3fc00000
 8001e8e:	63da      	str	r2, [r3, #60]	; 0x3c
	DMA2D->OPFCCR = 0x02;					/* output format RGB565 */
 8001e90:	2202      	movs	r2, #2
 8001e92:	635a      	str	r2, [r3, #52]	; 0x34
	DMA2D->NLR = (RK043FN48H_WIDTH)<<16 |	/* frame dimensions */
 8001e94:	4a0d      	ldr	r2, [pc, #52]	; (8001ecc <DMA2D_init+0x9c>)
 8001e96:	645a      	str	r2, [r3, #68]	; 0x44
					(RK043FN48H_HEIGHT)<<0;

	DMA2D->IFCR |= 0x3F;					/* clear all flags */
 8001e98:	689a      	ldr	r2, [r3, #8]
 8001e9a:	f042 023f 	orr.w	r2, r2, #63	; 0x3f
 8001e9e:	609a      	str	r2, [r3, #8]
	DMA2D->CR |= 0x01;						/* start transfer */
 8001ea0:	681a      	ldr	r2, [r3, #0]
 8001ea2:	f042 0201 	orr.w	r2, r2, #1
 8001ea6:	601a      	str	r2, [r3, #0]
    NVIC->IP[((uint32_t)IRQn)]                = (uint8_t)((priority << (8U - __NVIC_PRIO_BITS)) & (uint32_t)0xFFUL);
 8001ea8:	4b09      	ldr	r3, [pc, #36]	; (8001ed0 <DMA2D_init+0xa0>)
 8001eaa:	2220      	movs	r2, #32
 8001eac:	f883 235a 	strb.w	r2, [r3, #858]	; 0x35a
    NVIC->ISER[(((uint32_t)IRQn) >> 5UL)] = (uint32_t)(1UL << (((uint32_t)IRQn) & 0x1FUL));
 8001eb0:	f04f 6280 	mov.w	r2, #67108864	; 0x4000000
 8001eb4:	609a      	str	r2, [r3, #8]

	NVIC_SetPriority(DMA2D_IRQn, 2);
	NVIC_EnableIRQ(DMA2D_IRQn);
}
 8001eb6:	b002      	add	sp, #8
 8001eb8:	4770      	bx	lr
 8001eba:	bf00      	nop
 8001ebc:	40023800 	.word	0x40023800
 8001ec0:	4002b000 	.word	0x4002b000
 8001ec4:	00030100 	.word	0x00030100
 8001ec8:	c0200000 	.word	0xc0200000
 8001ecc:	01e00110 	.word	0x01e00110
 8001ed0:	e000e100 	.word	0xe000e100

08001ed4 <I2C_TS_init>:
  * @brief  Touch screen I2C initialization.
  * @param  None
  * @retval None
  */
void I2C_TS_init(void)
{
 8001ed4:	b082      	sub	sp, #8
  SET_BIT(RCC->AHB1ENR, Periphs);
 8001ed6:	4b7c      	ldr	r3, [pc, #496]	; (80020c8 <I2C_TS_init+0x1f4>)
 8001ed8:	6b1a      	ldr	r2, [r3, #48]	; 0x30
 8001eda:	f042 0280 	orr.w	r2, r2, #128	; 0x80
 8001ede:	631a      	str	r2, [r3, #48]	; 0x30
  tmpreg = READ_BIT(RCC->AHB1ENR, Periphs);
 8001ee0:	6b1b      	ldr	r3, [r3, #48]	; 0x30
 8001ee2:	f003 0380 	and.w	r3, r3, #128	; 0x80
 8001ee6:	9301      	str	r3, [sp, #4]
  (void)tmpreg;
 8001ee8:	9b01      	ldr	r3, [sp, #4]
  MODIFY_REG(GPIOx->MODER, (GPIO_MODER_MODER0 << (POSITION_VAL(Pin) * 2U)), (Mode << (POSITION_VAL(Pin) * 2U)));
 8001eea:	4b78      	ldr	r3, [pc, #480]	; (80020cc <I2C_TS_init+0x1f8>)
 8001eec:	681b      	ldr	r3, [r3, #0]
   __ASM ("rbit %0, %1" : "=r" (result) : "r" (value) );
 8001eee:	2280      	movs	r2, #128	; 0x80
 8001ef0:	fa92 f2a2 	rbit	r2, r2
  if (value == 0U)
 8001ef4:	2a00      	cmp	r2, #0
 8001ef6:	f000 80cf 	beq.w	8002098 <I2C_TS_init+0x1c4>
  return __builtin_clz(value);
 8001efa:	fab2 f282 	clz	r2, r2
 8001efe:	0052      	lsls	r2, r2, #1
 8001f00:	2103      	movs	r1, #3
 8001f02:	fa01 f202 	lsl.w	r2, r1, r2
 8001f06:	ea23 0202 	bic.w	r2, r3, r2
   __ASM ("rbit %0, %1" : "=r" (result) : "r" (value) );
 8001f0a:	2380      	movs	r3, #128	; 0x80
 8001f0c:	fa93 f3a3 	rbit	r3, r3
  if (value == 0U)
 8001f10:	2b00      	cmp	r3, #0
 8001f12:	f000 80c3 	beq.w	800209c <I2C_TS_init+0x1c8>
  return __builtin_clz(value);
 8001f16:	fab3 f383 	clz	r3, r3
 8001f1a:	005b      	lsls	r3, r3, #1
 8001f1c:	2102      	movs	r1, #2
 8001f1e:	fa01 f303 	lsl.w	r3, r1, r3
 8001f22:	4313      	orrs	r3, r2
 8001f24:	4a69      	ldr	r2, [pc, #420]	; (80020cc <I2C_TS_init+0x1f8>)
 8001f26:	6013      	str	r3, [r2, #0]
 8001f28:	6813      	ldr	r3, [r2, #0]
   __ASM ("rbit %0, %1" : "=r" (result) : "r" (value) );
 8001f2a:	f44f 7280 	mov.w	r2, #256	; 0x100
 8001f2e:	fa92 f2a2 	rbit	r2, r2
  if (value == 0U)
 8001f32:	2a00      	cmp	r2, #0
 8001f34:	f000 80b4 	beq.w	80020a0 <I2C_TS_init+0x1cc>
  return __builtin_clz(value);
 8001f38:	fab2 f282 	clz	r2, r2
 8001f3c:	0052      	lsls	r2, r2, #1
 8001f3e:	2103      	movs	r1, #3
 8001f40:	fa01 f202 	lsl.w	r2, r1, r2
 8001f44:	ea23 0202 	bic.w	r2, r3, r2
   __ASM ("rbit %0, %1" : "=r" (result) : "r" (value) );
 8001f48:	f44f 7380 	mov.w	r3, #256	; 0x100
 8001f4c:	fa93 f3a3 	rbit	r3, r3
  if (value == 0U)
 8001f50:	2b00      	cmp	r3, #0
 8001f52:	f000 80a7 	beq.w	80020a4 <I2C_TS_init+0x1d0>
  return __builtin_clz(value);
 8001f56:	fab3 f383 	clz	r3, r3
 8001f5a:	005b      	lsls	r3, r3, #1
 8001f5c:	2102      	movs	r1, #2
 8001f5e:	fa01 f303 	lsl.w	r3, r1, r3
 8001f62:	4313      	orrs	r3, r2
 8001f64:	4a59      	ldr	r2, [pc, #356]	; (80020cc <I2C_TS_init+0x1f8>)
 8001f66:	6013      	str	r3, [r2, #0]
  MODIFY_REG(GPIOx->OSPEEDR, (GPIO_OSPEEDER_OSPEEDR0 << (POSITION_VAL(Pin) * 2U)),
 8001f68:	6893      	ldr	r3, [r2, #8]
   __ASM ("rbit %0, %1" : "=r" (result) : "r" (value) );
 8001f6a:	2280      	movs	r2, #128	; 0x80
 8001f6c:	fa92 f2a2 	rbit	r2, r2
  if (value == 0U)
 8001f70:	2a00      	cmp	r2, #0
 8001f72:	f000 8099 	beq.w	80020a8 <I2C_TS_init+0x1d4>
  return __builtin_clz(value);
 8001f76:	fab2 f282 	clz	r2, r2
 8001f7a:	0052      	lsls	r2, r2, #1
 8001f7c:	2103      	movs	r1, #3
 8001f7e:	fa01 f202 	lsl.w	r2, r1, r2
 8001f82:	ea23 0202 	bic.w	r2, r3, r2
   __ASM ("rbit %0, %1" : "=r" (result) : "r" (value) );
 8001f86:	2380      	movs	r3, #128	; 0x80
 8001f88:	fa93 f3a3 	rbit	r3, r3
  if (value == 0U)
 8001f8c:	2b00      	cmp	r3, #0
 8001f8e:	f000 808d 	beq.w	80020ac <I2C_TS_init+0x1d8>
  return __builtin_clz(value);
 8001f92:	fab3 f383 	clz	r3, r3
 8001f96:	005b      	lsls	r3, r3, #1
 8001f98:	2102      	movs	r1, #2
 8001f9a:	fa01 f303 	lsl.w	r3, r1, r3
 8001f9e:	4313      	orrs	r3, r2
 8001fa0:	4a4a      	ldr	r2, [pc, #296]	; (80020cc <I2C_TS_init+0x1f8>)
 8001fa2:	6093      	str	r3, [r2, #8]
 8001fa4:	6893      	ldr	r3, [r2, #8]
   __ASM ("rbit %0, %1" : "=r" (result) : "r" (value) );
 8001fa6:	f44f 7280 	mov.w	r2, #256	; 0x100
 8001faa:	fa92 f2a2 	rbit	r2, r2
  if (value == 0U)
 8001fae:	2a00      	cmp	r2, #0
 8001fb0:	d07e      	beq.n	80020b0 <I2C_TS_init+0x1dc>
  return __builtin_clz(value);
 8001fb2:	fab2 f282 	clz	r2, r2
 8001fb6:	0052      	lsls	r2, r2, #1
 8001fb8:	2103      	movs	r1, #3
 8001fba:	fa01 f202 	lsl.w	r2, r1, r2
 8001fbe:	ea23 0202 	bic.w	r2, r3, r2
   __ASM ("rbit %0, %1" : "=r" (result) : "r" (value) );
 8001fc2:	f44f 7380 	mov.w	r3, #256	; 0x100
 8001fc6:	fa93 f3a3 	rbit	r3, r3
  if (value == 0U)
 8001fca:	2b00      	cmp	r3, #0
 8001fcc:	d072      	beq.n	80020b4 <I2C_TS_init+0x1e0>
  return __builtin_clz(value);
 8001fce:	fab3 f383 	clz	r3, r3
 8001fd2:	005b      	lsls	r3, r3, #1
 8001fd4:	2102      	movs	r1, #2
 8001fd6:	fa01 f303 	lsl.w	r3, r1, r3
 8001fda:	4313      	orrs	r3, r2
 8001fdc:	4a3b      	ldr	r2, [pc, #236]	; (80020cc <I2C_TS_init+0x1f8>)
 8001fde:	6093      	str	r3, [r2, #8]
  MODIFY_REG(GPIOx->OTYPER, PinMask, (PinMask * OutputType));
 8001fe0:	6853      	ldr	r3, [r2, #4]
 8001fe2:	f443 73c0 	orr.w	r3, r3, #384	; 0x180
 8001fe6:	6053      	str	r3, [r2, #4]
  MODIFY_REG(GPIOx->AFR[0], (GPIO_AFRL_AFRL0 << (POSITION_VAL(Pin) * 4U)),
 8001fe8:	6a13      	ldr	r3, [r2, #32]
   __ASM ("rbit %0, %1" : "=r" (result) : "r" (value) );
 8001fea:	2280      	movs	r2, #128	; 0x80
 8001fec:	fa92 f2a2 	rbit	r2, r2
  if (value == 0U)
 8001ff0:	2a00      	cmp	r2, #0
 8001ff2:	d061      	beq.n	80020b8 <I2C_TS_init+0x1e4>
  return __builtin_clz(value);
 8001ff4:	fab2 f282 	clz	r2, r2
 8001ff8:	0092      	lsls	r2, r2, #2
 8001ffa:	210f      	movs	r1, #15
 8001ffc:	fa01 f202 	lsl.w	r2, r1, r2
 8002000:	ea23 0202 	bic.w	r2, r3, r2
   __ASM ("rbit %0, %1" : "=r" (result) : "r" (value) );
 8002004:	2380      	movs	r3, #128	; 0x80
 8002006:	fa93 f3a3 	rbit	r3, r3
  if (value == 0U)
 800200a:	2b00      	cmp	r3, #0
 800200c:	d056      	beq.n	80020bc <I2C_TS_init+0x1e8>
  return __builtin_clz(value);
 800200e:	fab3 f383 	clz	r3, r3
 8002012:	009b      	lsls	r3, r3, #2
 8002014:	2104      	movs	r1, #4
 8002016:	fa01 f303 	lsl.w	r3, r1, r3
 800201a:	4313      	orrs	r3, r2
 800201c:	4a2b      	ldr	r2, [pc, #172]	; (80020cc <I2C_TS_init+0x1f8>)
 800201e:	6213      	str	r3, [r2, #32]
  MODIFY_REG(GPIOx->AFR[1], (GPIO_AFRH_AFRH0 << (POSITION_VAL(Pin >> 8U) * 4U)),
 8002020:	6a53      	ldr	r3, [r2, #36]	; 0x24
   __ASM ("rbit %0, %1" : "=r" (result) : "r" (value) );
 8002022:	2201      	movs	r2, #1
 8002024:	fa92 f2a2 	rbit	r2, r2
  if (value == 0U)
 8002028:	2a00      	cmp	r2, #0
 800202a:	d049      	beq.n	80020c0 <I2C_TS_init+0x1ec>
  return __builtin_clz(value);
 800202c:	fab2 f282 	clz	r2, r2
 8002030:	0092      	lsls	r2, r2, #2
 8002032:	210f      	movs	r1, #15
 8002034:	fa01 f202 	lsl.w	r2, r1, r2
 8002038:	ea23 0202 	bic.w	r2, r3, r2
   __ASM ("rbit %0, %1" : "=r" (result) : "r" (value) );
 800203c:	2301      	movs	r3, #1
 800203e:	fa93 f3a3 	rbit	r3, r3
  if (value == 0U)
 8002042:	2b00      	cmp	r3, #0
 8002044:	d03e      	beq.n	80020c4 <I2C_TS_init+0x1f0>
  return __builtin_clz(value);
 8002046:	fab3 f383 	clz	r3, r3
 800204a:	009b      	lsls	r3, r3, #2
 800204c:	2104      	movs	r1, #4
 800204e:	fa01 f303 	lsl.w	r3, r1, r3
 8002052:	4313      	orrs	r3, r2
 8002054:	4a1d      	ldr	r2, [pc, #116]	; (80020cc <I2C_TS_init+0x1f8>)
 8002056:	6253      	str	r3, [r2, #36]	; 0x24
  SET_BIT(RCC->APB1ENR, Periphs);
 8002058:	4b1b      	ldr	r3, [pc, #108]	; (80020c8 <I2C_TS_init+0x1f4>)
 800205a:	6c1a      	ldr	r2, [r3, #64]	; 0x40
 800205c:	f442 0200 	orr.w	r2, r2, #8388608	; 0x800000
 8002060:	641a      	str	r2, [r3, #64]	; 0x40
  tmpreg = READ_BIT(RCC->APB1ENR, Periphs);
 8002062:	6c1a      	ldr	r2, [r3, #64]	; 0x40
 8002064:	f402 0200 	and.w	r2, r2, #8388608	; 0x800000
 8002068:	9200      	str	r2, [sp, #0]
  (void)tmpreg;
 800206a:	9a00      	ldr	r2, [sp, #0]
  SET_BIT(RCC->APB1RSTR, Periphs);
 800206c:	6a1a      	ldr	r2, [r3, #32]
 800206e:	f442 0200 	orr.w	r2, r2, #8388608	; 0x800000
 8002072:	621a      	str	r2, [r3, #32]
  CLEAR_BIT(RCC->APB1RSTR, Periphs);
 8002074:	6a1a      	ldr	r2, [r3, #32]
 8002076:	f422 0200 	bic.w	r2, r2, #8388608	; 0x800000
 800207a:	621a      	str	r2, [r3, #32]

	TS_I2Cx_CLK_ENABLE();
	TS_I2Cx_FORCE_RESET();
	TS_I2Cx_RELEASE_RESET();

	TS_I2Cx->TIMINGR = I2Cx_TIMING;
 800207c:	f5a3 33ee 	sub.w	r3, r3, #121856	; 0x1dc00
 8002080:	4a13      	ldr	r2, [pc, #76]	; (80020d0 <I2C_TS_init+0x1fc>)
 8002082:	611a      	str	r2, [r3, #16]
	TS_I2Cx->CR2 	|= LL_I2C_MODE_AUTOEND;
 8002084:	685a      	ldr	r2, [r3, #4]
 8002086:	f042 7200 	orr.w	r2, r2, #33554432	; 0x2000000
 800208a:	605a      	str	r2, [r3, #4]
	TS_I2Cx->CR1 	|= I2C_CR1_PE;			 /* Enable I2C */
 800208c:	681a      	ldr	r2, [r3, #0]
 800208e:	f042 0201 	orr.w	r2, r2, #1
 8002092:	601a      	str	r2, [r3, #0]
}
 8002094:	b002      	add	sp, #8
 8002096:	4770      	bx	lr
    return 32U;
 8002098:	2220      	movs	r2, #32
 800209a:	e730      	b.n	8001efe <I2C_TS_init+0x2a>
 800209c:	2320      	movs	r3, #32
 800209e:	e73c      	b.n	8001f1a <I2C_TS_init+0x46>
 80020a0:	2220      	movs	r2, #32
 80020a2:	e74b      	b.n	8001f3c <I2C_TS_init+0x68>
 80020a4:	2320      	movs	r3, #32
 80020a6:	e758      	b.n	8001f5a <I2C_TS_init+0x86>
 80020a8:	2220      	movs	r2, #32
 80020aa:	e766      	b.n	8001f7a <I2C_TS_init+0xa6>
 80020ac:	2320      	movs	r3, #32
 80020ae:	e772      	b.n	8001f96 <I2C_TS_init+0xc2>
 80020b0:	2220      	movs	r2, #32
 80020b2:	e780      	b.n	8001fb6 <I2C_TS_init+0xe2>
 80020b4:	2320      	movs	r3, #32
 80020b6:	e78c      	b.n	8001fd2 <I2C_TS_init+0xfe>
 80020b8:	2220      	movs	r2, #32
 80020ba:	e79d      	b.n	8001ff8 <I2C_TS_init+0x124>
 80020bc:	2320      	movs	r3, #32
 80020be:	e7a8      	b.n	8002012 <I2C_TS_init+0x13e>
 80020c0:	2220      	movs	r2, #32
 80020c2:	e7b5      	b.n	8002030 <I2C_TS_init+0x15c>
 80020c4:	2320      	movs	r3, #32
 80020c6:	e7c0      	b.n	800204a <I2C_TS_init+0x176>
 80020c8:	40023800 	.word	0x40023800
 80020cc:	40021c00 	.word	0x40021c00
 80020d0:	40912732 	.word	0x40912732

080020d4 <SystemClock_Config>:
  *            Flash Latency(WS)              = 6
  * @param  None
  * @retval None
  */
void SystemClock_Config(void)
{
 80020d4:	b082      	sub	sp, #8
  SET_BIT(RCC->CR, RCC_CR_HSEON);
 80020d6:	4a39      	ldr	r2, [pc, #228]	; (80021bc <SystemClock_Config+0xe8>)
 80020d8:	6813      	ldr	r3, [r2, #0]
 80020da:	f443 3380 	orr.w	r3, r3, #65536	; 0x10000
 80020de:	6013      	str	r3, [r2, #0]
  return (READ_BIT(RCC->CR, RCC_CR_HSERDY) == (RCC_CR_HSERDY));
 80020e0:	4b36      	ldr	r3, [pc, #216]	; (80021bc <SystemClock_Config+0xe8>)
 80020e2:	681b      	ldr	r3, [r3, #0]
  /* Enable HSE */
  LL_RCC_HSE_Enable();
  while(LL_RCC_HSE_IsReady() != 1){
 80020e4:	f413 3f00 	tst.w	r3, #131072	; 0x20000
 80020e8:	d0fa      	beq.n	80020e0 <SystemClock_Config+0xc>
  MODIFY_REG(RCC->PLLCFGR, RCC_PLLCFGR_PLLSRC | RCC_PLLCFGR_PLLM | RCC_PLLCFGR_PLLN | RCC_PLLCFGR_PLLP,
 80020ea:	4b34      	ldr	r3, [pc, #208]	; (80021bc <SystemClock_Config+0xe8>)
 80020ec:	685a      	ldr	r2, [r3, #4]
 80020ee:	4934      	ldr	r1, [pc, #208]	; (80021c0 <SystemClock_Config+0xec>)
 80020f0:	4011      	ands	r1, r2
 80020f2:	4a34      	ldr	r2, [pc, #208]	; (80021c4 <SystemClock_Config+0xf0>)
 80020f4:	430a      	orrs	r2, r1
 80020f6:	605a      	str	r2, [r3, #4]
  SET_BIT(RCC->CR, RCC_CR_PLLON);
 80020f8:	681a      	ldr	r2, [r3, #0]
 80020fa:	f042 7280 	orr.w	r2, r2, #16777216	; 0x1000000
 80020fe:	601a      	str	r2, [r3, #0]
  return (READ_BIT(RCC->CR, RCC_CR_PLLRDY) == (RCC_CR_PLLRDY));
 8002100:	4b2e      	ldr	r3, [pc, #184]	; (80021bc <SystemClock_Config+0xe8>)
 8002102:	681b      	ldr	r3, [r3, #0]
  }

  /* Main PLL configuration and activation */
  LL_RCC_PLL_ConfigDomain_SYS(LL_RCC_PLLSOURCE_HSE, LL_RCC_PLLM_DIV_25, 400, LL_RCC_PLLP_DIV_2);
  LL_RCC_PLL_Enable();
  while(LL_RCC_PLL_IsReady() != 1){
 8002104:	f013 7f00 	tst.w	r3, #33554432	; 0x2000000
 8002108:	d0fa      	beq.n	8002100 <SystemClock_Config+0x2c>
  SET_BIT(RCC->APB1ENR, Periphs);
 800210a:	4b2c      	ldr	r3, [pc, #176]	; (80021bc <SystemClock_Config+0xe8>)
 800210c:	6c1a      	ldr	r2, [r3, #64]	; 0x40
 800210e:	f042 5280 	orr.w	r2, r2, #268435456	; 0x10000000
 8002112:	641a      	str	r2, [r3, #64]	; 0x40
  tmpreg = READ_BIT(RCC->APB1ENR, Periphs);
 8002114:	6c1b      	ldr	r3, [r3, #64]	; 0x40
 8002116:	f003 5380 	and.w	r3, r3, #268435456	; 0x10000000
 800211a:	9301      	str	r3, [sp, #4]
  (void)tmpreg;
 800211c:	9b01      	ldr	r3, [sp, #4]
  * @rmtoll CR1    ODEN       LL_PWR_EnableOverDriveMode
  * @retval None
  */
__STATIC_INLINE void LL_PWR_EnableOverDriveMode(void)
{
  SET_BIT(PWR->CR1, PWR_CR1_ODEN);
 800211e:	4a2a      	ldr	r2, [pc, #168]	; (80021c8 <SystemClock_Config+0xf4>)
 8002120:	6813      	ldr	r3, [r2, #0]
 8002122:	f443 3380 	orr.w	r3, r3, #65536	; 0x10000
 8002126:	6013      	str	r3, [r2, #0]
  * @rmtoll CSR1   ODRDY       LL_PWR_IsActiveFlag_OD
  * @retval State of bit (1 or 0).
  */
__STATIC_INLINE uint32_t LL_PWR_IsActiveFlag_OD(void)
{
  return (READ_BIT(PWR->CSR1, PWR_CSR1_ODRDY) == (PWR_CSR1_ODRDY));
 8002128:	4b27      	ldr	r3, [pc, #156]	; (80021c8 <SystemClock_Config+0xf4>)
 800212a:	685b      	ldr	r3, [r3, #4]
  /* Enable PWR clock */
  LL_APB1_GRP1_EnableClock(LL_APB1_GRP1_PERIPH_PWR);

  /* Activation OverDrive Mode */
  LL_PWR_EnableOverDriveMode();
  while(LL_PWR_IsActiveFlag_OD() != 1){
 800212c:	f413 3f80 	tst.w	r3, #65536	; 0x10000
 8002130:	d0fa      	beq.n	8002128 <SystemClock_Config+0x54>
  SET_BIT(PWR->CR1, PWR_CR1_ODSWEN);
 8002132:	4a25      	ldr	r2, [pc, #148]	; (80021c8 <SystemClock_Config+0xf4>)
 8002134:	6813      	ldr	r3, [r2, #0]
 8002136:	f443 3300 	orr.w	r3, r3, #131072	; 0x20000
 800213a:	6013      	str	r3, [r2, #0]
  * @rmtoll CSR1   ODSWRDY       LL_PWR_IsActiveFlag_ODSW
  * @retval State of bit (1 or 0).
  */
__STATIC_INLINE uint32_t LL_PWR_IsActiveFlag_ODSW(void)
{
  return (READ_BIT(PWR->CSR1, PWR_CSR1_ODSWRDY) == (PWR_CSR1_ODSWRDY));
 800213c:	4b22      	ldr	r3, [pc, #136]	; (80021c8 <SystemClock_Config+0xf4>)
 800213e:	685b      	ldr	r3, [r3, #4]
  }

  /* Activation OverDrive Switching */
  LL_PWR_EnableOverDriveSwitching();
  while(LL_PWR_IsActiveFlag_ODSW() != 1){
 8002140:	f413 3f00 	tst.w	r3, #131072	; 0x20000
 8002144:	d0fa      	beq.n	800213c <SystemClock_Config+0x68>
  *         @arg @ref LL_FLASH_LATENCY_15
  * @retval None
  */
__STATIC_INLINE void LL_FLASH_SetLatency(uint32_t Latency)
{
  MODIFY_REG(FLASH->ACR, FLASH_ACR_LATENCY, Latency);
 8002146:	4a21      	ldr	r2, [pc, #132]	; (80021cc <SystemClock_Config+0xf8>)
 8002148:	6813      	ldr	r3, [r2, #0]
 800214a:	f023 030f 	bic.w	r3, r3, #15
 800214e:	f043 0306 	orr.w	r3, r3, #6
 8002152:	6013      	str	r3, [r2, #0]
  *         @arg @ref LL_FLASH_LATENCY_14
  *         @arg @ref LL_FLASH_LATENCY_15
  */
__STATIC_INLINE uint32_t LL_FLASH_GetLatency(void)
{
  return (uint32_t)(READ_BIT(FLASH->ACR, FLASH_ACR_LATENCY));
 8002154:	4b1d      	ldr	r3, [pc, #116]	; (80021cc <SystemClock_Config+0xf8>)
 8002156:	681b      	ldr	r3, [r3, #0]
 8002158:	f003 030f 	and.w	r3, r3, #15

  /* Set FLASH latency */
  LL_FLASH_SetLatency(LL_FLASH_LATENCY_6);

  /* Check if the new latency value has taken effect */
  while(LL_FLASH_GetLatency() != LL_FLASH_LATENCY_6){
 800215c:	2b06      	cmp	r3, #6
 800215e:	d1f9      	bne.n	8002154 <SystemClock_Config+0x80>
  MODIFY_REG(RCC->CFGR, RCC_CFGR_HPRE, Prescaler);
 8002160:	4a16      	ldr	r2, [pc, #88]	; (80021bc <SystemClock_Config+0xe8>)
 8002162:	6893      	ldr	r3, [r2, #8]
 8002164:	f023 03f0 	bic.w	r3, r3, #240	; 0xf0
 8002168:	6093      	str	r3, [r2, #8]
  MODIFY_REG(RCC->CFGR, RCC_CFGR_SW, Source);
 800216a:	6893      	ldr	r3, [r2, #8]
 800216c:	f023 0303 	bic.w	r3, r3, #3
 8002170:	f043 0302 	orr.w	r3, r3, #2
 8002174:	6093      	str	r3, [r2, #8]
  return (uint32_t)(READ_BIT(RCC->CFGR, RCC_CFGR_SWS));
 8002176:	4b11      	ldr	r3, [pc, #68]	; (80021bc <SystemClock_Config+0xe8>)
 8002178:	689b      	ldr	r3, [r3, #8]
 800217a:	f003 030c 	and.w	r3, r3, #12
  }

  /* Sysclk activation on the main PLL */
  LL_RCC_SetAHBPrescaler(LL_RCC_SYSCLK_DIV_1);
  LL_RCC_SetSysClkSource(LL_RCC_SYS_CLKSOURCE_PLL);
  while(LL_RCC_GetSysClkSource() != LL_RCC_SYS_CLKSOURCE_STATUS_PLL){
 800217e:	2b08      	cmp	r3, #8
 8002180:	d1f9      	bne.n	8002176 <SystemClock_Config+0xa2>
  MODIFY_REG(RCC->CFGR, RCC_CFGR_PPRE1, Prescaler);
 8002182:	4a0e      	ldr	r2, [pc, #56]	; (80021bc <SystemClock_Config+0xe8>)
 8002184:	6893      	ldr	r3, [r2, #8]
 8002186:	f423 53e0 	bic.w	r3, r3, #7168	; 0x1c00
 800218a:	f443 53a0 	orr.w	r3, r3, #5120	; 0x1400
 800218e:	6093      	str	r3, [r2, #8]
  MODIFY_REG(RCC->CFGR, RCC_CFGR_PPRE2, Prescaler);
 8002190:	6893      	ldr	r3, [r2, #8]
 8002192:	f423 4360 	bic.w	r3, r3, #57344	; 0xe000
 8002196:	f443 4300 	orr.w	r3, r3, #32768	; 0x8000
 800219a:	6093      	str	r3, [r2, #8]
  if ((ticks - 1UL) > SysTick_LOAD_RELOAD_Msk)
  {
    return (1UL);                                                   /* Reload value impossible */
  }

  SysTick->LOAD  = (uint32_t)(ticks - 1UL);                         /* set reload register */
 800219c:	4b0c      	ldr	r3, [pc, #48]	; (80021d0 <SystemClock_Config+0xfc>)
 800219e:	4a0d      	ldr	r2, [pc, #52]	; (80021d4 <SystemClock_Config+0x100>)
 80021a0:	605a      	str	r2, [r3, #4]
    SCB->SHPR[(((uint32_t)IRQn) & 0xFUL)-4UL] = (uint8_t)((priority << (8U - __NVIC_PRIO_BITS)) & (uint32_t)0xFFUL);
 80021a2:	21f0      	movs	r1, #240	; 0xf0
 80021a4:	4a0c      	ldr	r2, [pc, #48]	; (80021d8 <SystemClock_Config+0x104>)
 80021a6:	f882 1023 	strb.w	r1, [r2, #35]	; 0x23
  NVIC_SetPriority (SysTick_IRQn, (1UL << __NVIC_PRIO_BITS) - 1UL); /* set Priority for Systick Interrupt */
  SysTick->VAL   = 0UL;                                             /* Load the SysTick Counter Value */
 80021aa:	2200      	movs	r2, #0
 80021ac:	609a      	str	r2, [r3, #8]
  SysTick->CTRL  = SysTick_CTRL_CLKSOURCE_Msk |
 80021ae:	2207      	movs	r2, #7
 80021b0:	601a      	str	r2, [r3, #0]

  /* Set systick to 1ms */
  SysTick_Config(200000000 / 1000);

  /* Update CMSIS variable (which can be updated also through SystemCoreClockUpdate function) */
  SystemCoreClock = 200000000;
 80021b2:	4a0a      	ldr	r2, [pc, #40]	; (80021dc <SystemClock_Config+0x108>)
 80021b4:	4b0a      	ldr	r3, [pc, #40]	; (80021e0 <SystemClock_Config+0x10c>)
 80021b6:	601a      	str	r2, [r3, #0]
}
 80021b8:	b002      	add	sp, #8
 80021ba:	4770      	bx	lr
 80021bc:	40023800 	.word	0x40023800
 80021c0:	ffbc8000 	.word	0xffbc8000
 80021c4:	00406419 	.word	0x00406419
 80021c8:	40007000 	.word	0x40007000
 80021cc:	40023c00 	.word	0x40023c00
 80021d0:	e000e010 	.word	0xe000e010
 80021d4:	00030d3f 	.word	0x00030d3f
 80021d8:	e000ed00 	.word	0xe000ed00
 80021dc:	0bebc200 	.word	0x0bebc200
 80021e0:	2000000c 	.word	0x2000000c

080021e4 <CPU_CACHE_Enable>:
  \details Turns on I-Cache
  */
__STATIC_FORCEINLINE void SCB_EnableICache (void)
{
  #if defined (__ICACHE_PRESENT) && (__ICACHE_PRESENT == 1U)
    if (SCB->CCR & SCB_CCR_IC_Msk) return;  /* return if ICache is already enabled */
 80021e4:	4b24      	ldr	r3, [pc, #144]	; (8002278 <CPU_CACHE_Enable+0x94>)
 80021e6:	695b      	ldr	r3, [r3, #20]
 80021e8:	f413 3f00 	tst.w	r3, #131072	; 0x20000
 80021ec:	d113      	bne.n	8002216 <CPU_CACHE_Enable+0x32>
  __ASM volatile ("dsb 0xF":::"memory");
 80021ee:	f3bf 8f4f 	dsb	sy
  __ASM volatile ("isb 0xF":::"memory");
 80021f2:	f3bf 8f6f 	isb	sy

    __DSB();
    __ISB();
    SCB->ICIALLU = 0UL;                     /* invalidate I-Cache */
 80021f6:	4b20      	ldr	r3, [pc, #128]	; (8002278 <CPU_CACHE_Enable+0x94>)
 80021f8:	2200      	movs	r2, #0
 80021fa:	f8c3 2250 	str.w	r2, [r3, #592]	; 0x250
  __ASM volatile ("dsb 0xF":::"memory");
 80021fe:	f3bf 8f4f 	dsb	sy
  __ASM volatile ("isb 0xF":::"memory");
 8002202:	f3bf 8f6f 	isb	sy
    __DSB();
    __ISB();
    SCB->CCR |=  (uint32_t)SCB_CCR_IC_Msk;  /* enable I-Cache */
 8002206:	695a      	ldr	r2, [r3, #20]
 8002208:	f442 3200 	orr.w	r2, r2, #131072	; 0x20000
 800220c:	615a      	str	r2, [r3, #20]
  __ASM volatile ("dsb 0xF":::"memory");
 800220e:	f3bf 8f4f 	dsb	sy
  __ASM volatile ("isb 0xF":::"memory");
 8002212:	f3bf 8f6f 	isb	sy
  #if defined (__DCACHE_PRESENT) && (__DCACHE_PRESENT == 1U)
    uint32_t ccsidr;
    uint32_t sets;
    uint32_t ways;

    if (SCB->CCR & SCB_CCR_DC_Msk) return;  /* return if DCache is already enabled */
 8002216:	4b18      	ldr	r3, [pc, #96]	; (8002278 <CPU_CACHE_Enable+0x94>)
 8002218:	695b      	ldr	r3, [r3, #20]
 800221a:	f413 3f80 	tst.w	r3, #65536	; 0x10000
 800221e:	d12a      	bne.n	8002276 <CPU_CACHE_Enable+0x92>
  * @brief  CPU L1-Cache enable.
  * @param  None
  * @retval None
  */
void CPU_CACHE_Enable(void)
{
 8002220:	b410      	push	{r4}

    SCB->CSSELR = 0U;                       /* select Level 1 data cache */
 8002222:	4b15      	ldr	r3, [pc, #84]	; (8002278 <CPU_CACHE_Enable+0x94>)
 8002224:	2200      	movs	r2, #0
 8002226:	f8c3 2084 	str.w	r2, [r3, #132]	; 0x84
  __ASM volatile ("dsb 0xF":::"memory");
 800222a:	f3bf 8f4f 	dsb	sy
    __DSB();

    ccsidr = SCB->CCSIDR;
 800222e:	f8d3 4080 	ldr.w	r4, [r3, #128]	; 0x80

                                            /* invalidate D-Cache */
    sets = (uint32_t)(CCSIDR_SETS(ccsidr));
 8002232:	f3c4 304e 	ubfx	r0, r4, #13, #15
 8002236:	e00f      	b.n	8002258 <CPU_CACHE_Enable+0x74>
        SCB->DCISW = (((sets << SCB_DCISW_SET_Pos) & SCB_DCISW_SET_Msk) |
                      ((ways << SCB_DCISW_WAY_Pos) & SCB_DCISW_WAY_Msk)  );
        #if defined ( __CC_ARM )
          __schedule_barrier();
        #endif
      } while (ways-- != 0U);
 8002238:	461a      	mov	r2, r3
        SCB->DCISW = (((sets << SCB_DCISW_SET_Pos) & SCB_DCISW_SET_Msk) |
 800223a:	f643 73e0 	movw	r3, #16352	; 0x3fe0
 800223e:	ea03 1340 	and.w	r3, r3, r0, lsl #5
 8002242:	ea43 7382 	orr.w	r3, r3, r2, lsl #30
 8002246:	490c      	ldr	r1, [pc, #48]	; (8002278 <CPU_CACHE_Enable+0x94>)
 8002248:	f8c1 3260 	str.w	r3, [r1, #608]	; 0x260
      } while (ways-- != 0U);
 800224c:	1e53      	subs	r3, r2, #1
 800224e:	2a00      	cmp	r2, #0
 8002250:	d1f2      	bne.n	8002238 <CPU_CACHE_Enable+0x54>
    } while(sets-- != 0U);
 8002252:	1e43      	subs	r3, r0, #1
 8002254:	b118      	cbz	r0, 800225e <CPU_CACHE_Enable+0x7a>
 8002256:	4618      	mov	r0, r3
      ways = (uint32_t)(CCSIDR_WAYS(ccsidr));
 8002258:	f3c4 02c9 	ubfx	r2, r4, #3, #10
 800225c:	e7ed      	b.n	800223a <CPU_CACHE_Enable+0x56>
 800225e:	f3bf 8f4f 	dsb	sy
    __DSB();

    SCB->CCR |=  (uint32_t)SCB_CCR_DC_Msk;  /* enable D-Cache */
 8002262:	694b      	ldr	r3, [r1, #20]
 8002264:	f443 3380 	orr.w	r3, r3, #65536	; 0x10000
 8002268:	614b      	str	r3, [r1, #20]
 800226a:	f3bf 8f4f 	dsb	sy
  __ASM volatile ("isb 0xF":::"memory");
 800226e:	f3bf 8f6f 	isb	sy
  /* Enable I-Cache */
  SCB_EnableICache();

  /* Enable D-Cache */
  SCB_EnableDCache();
}
 8002272:	f85d 4b04 	ldr.w	r4, [sp], #4
 8002276:	4770      	bx	lr
 8002278:	e000ed00 	.word	0xe000ed00

0800227c <main>:
  * @brief  Main program
  * @param  None
  * @retval None
  */
int main(void)
{
 800227c:	e92d 4ff8 	stmdb	sp!, {r3, r4, r5, r6, r7, r8, r9, sl, fp, lr}
	int32_t trigPt = -1, waveIdxStart = 0, dispIdxStart = 0, lenResampledSig = -1;
	uint8_t origtscale = 0, oldtscale = 0;
	int32_t	i, j, temp;

	/* Enable the CPU Cache */
	CPU_CACHE_Enable();
 8002280:	f7ff ffb0 	bl	80021e4 <CPU_CACHE_Enable>
	/* Configure the system clock to 200 MHz */
	SystemClock_Config();
 8002284:	f7ff ff26 	bl	80020d4 <SystemClock_Config>

	/* Initialize peripherals */
	SDRAM_init();
 8002288:	f7ff fc7c 	bl	8001b84 <SDRAM_init>
	LTDC_init();
 800228c:	f7ff fb18 	bl	80018c0 <LTDC_init>
	DMA2D_init();
 8002290:	f7ff fdce 	bl	8001e30 <DMA2D_init>
	Timers_init();
 8002294:	f7ff f846 	bl	8001324 <Timers_init>
	LEDs_Buttons_init();
 8002298:	f7ff f9bc 	bl	8001614 <LEDs_Buttons_init>
	I2C_TS_init();
 800229c:	f7ff fe1a 	bl	8001ed4 <I2C_TS_init>

	/* clear the screen */
	clearScreen();
 80022a0:	f7fe fcc8 	bl	8000c34 <clearScreen>

	/* Init GUI */
	UG_Init(&gui, (void(*)(UG_S16,UG_S16,UG_COLOR))pset, LCD_WIDTH, LCD_HEIGHT);
 80022a4:	f44f 7388 	mov.w	r3, #272	; 0x110
 80022a8:	f44f 72f0 	mov.w	r2, #480	; 0x1e0
 80022ac:	4985      	ldr	r1, [pc, #532]	; (80024c4 <main+0x248>)
 80022ae:	4886      	ldr	r0, [pc, #536]	; (80024c8 <main+0x24c>)
 80022b0:	f001 ffe8 	bl	8004284 <UG_Init>

	/* Hardware-accelerated graphics functions */
	UG_DriverRegister(DRIVER_FILL_FRAME, (void*)fillFrameUGUI);
 80022b4:	4985      	ldr	r1, [pc, #532]	; (80024cc <main+0x250>)
 80022b6:	2001      	movs	r0, #1
 80022b8:	f002 fd36 	bl	8004d28 <UG_DriverRegister>
	UG_DriverEnable(DRIVER_FILL_FRAME);
 80022bc:	2001      	movs	r0, #1
 80022be:	f002 fd41 	bl	8004d44 <UG_DriverEnable>
	UG_DriverRegister(DRIVER_DRAW_LINE, (void*)drawLineUGUI);
 80022c2:	4983      	ldr	r1, [pc, #524]	; (80024d0 <main+0x254>)
 80022c4:	2000      	movs	r0, #0
 80022c6:	f002 fd2f 	bl	8004d28 <UG_DriverRegister>
	UG_DriverEnable(DRIVER_DRAW_LINE);
 80022ca:	2000      	movs	r0, #0
 80022cc:	f002 fd3a 	bl	8004d44 <UG_DriverEnable>

	/* clear uGUI layer */
	UG_FillScreen(C_BLACK);
 80022d0:	2000      	movs	r0, #0
 80022d2:	f002 f84f 	bl	8004374 <UG_FillScreen>

	/* Create windows and other GUI elements */
	initUI();
 80022d6:	f003 fbd5 	bl	8005a84 <initUI>

	/* Display initial field values */
	initFields();
 80022da:	f005 fdfb 	bl	8007ed4 <initFields>

	/* Initialize measurement module */
	measure_init();
 80022de:	f000 fc73 	bl	8002bc8 <measure_init>

	/* Initialize and start data capture */
	ADC_init();
 80022e2:	f7ff f973 	bl	80015cc <ADC_init>
	uint8_t origtscale = 0, oldtscale = 0;
 80022e6:	f04f 0900 	mov.w	r9, #0
 80022ea:	46ca      	mov	sl, r9
	int32_t trigPt = -1, waveIdxStart = 0, dispIdxStart = 0, lenResampledSig = -1;
 80022ec:	f04f 38ff 	mov.w	r8, #4294967295
 80022f0:	464d      	mov	r5, r9
 80022f2:	464c      	mov	r4, r9
	uint32_t QE_Count = 0, QE_Count_prev = 1;
 80022f4:	2601      	movs	r6, #1
 80022f6:	e156      	b.n	80025a6 <main+0x32a>

			trigPt = processTriggers();

			/* trigger condition not met */
			if(trigPt == -1){
				UG_TextboxSetBackColor(&window_1, TXB_ID_6, RUNSTOP_ICON_COLOR_TRGWT);
 80022f8:	f64a 5255 	movw	r2, #44373	; 0xad55
 80022fc:	2106      	movs	r1, #6
 80022fe:	4875      	ldr	r0, [pc, #468]	; (80024d4 <main+0x258>)
 8002300:	f003 fa52 	bl	80057a8 <UG_TextboxSetBackColor>
 8002304:	e163      	b.n	80025ce <main+0x352>
			}

			/* Draw waveforms */
			if((trigmodeVals[trigmode] == TRIGMODE_AUTO && runstopVals[runstop] != RUNSTOP_STOP) ||
					(trigmodeVals[trigmode] == TRIGMODE_SNGL && trigPt != -1 && runstopVals[runstop] != RUNSTOP_STOP) ||
 8002306:	f1bb 3fff 	cmp.w	fp, #4294967295
 800230a:	f000 816a 	beq.w	80025e2 <main+0x366>
			if((trigmodeVals[trigmode] == TRIGMODE_AUTO && runstopVals[runstop] != RUNSTOP_STOP) ||
 800230e:	4b72      	ldr	r3, [pc, #456]	; (80024d8 <main+0x25c>)
 8002310:	781b      	ldrb	r3, [r3, #0]
 8002312:	4a72      	ldr	r2, [pc, #456]	; (80024dc <main+0x260>)
 8002314:	5cd3      	ldrb	r3, [r2, r3]
					(trigmodeVals[trigmode] == TRIGMODE_SNGL && trigPt != -1 && runstopVals[runstop] != RUNSTOP_STOP) ||
 8002316:	2b01      	cmp	r3, #1
 8002318:	f000 810b 	beq.w	8002532 <main+0x2b6>
					(trigmodeVals[trigmode] == TRIGMODE_NORM && trigPt != -1 && runstopVals[runstop] != RUNSTOP_STOP))
			{
				origtscale = tscale;		/* store the original time scale of waveform */
 800231c:	4b70      	ldr	r3, [pc, #448]	; (80024e0 <main+0x264>)
 800231e:	f893 a000 	ldrb.w	sl, [r3]

				/* clear the wave draw buffer */
				fillScreenWave(C_BLACK);
 8002322:	2000      	movs	r0, #0
 8002324:	f7fe fca8 	bl	8000c78 <fillScreenWave>
				while(DMA2D->CR & 0x01);
 8002328:	4b6e      	ldr	r3, [pc, #440]	; (80024e4 <main+0x268>)
 800232a:	681b      	ldr	r3, [r3, #0]
 800232c:	f013 0f01 	tst.w	r3, #1
 8002330:	d1fa      	bne.n	8002328 <main+0xac>

				if(trigPt < ADC_PRETRIGBUF_SIZE){
 8002332:	f5bb 7fd2 	cmp.w	fp, #420	; 0x1a4
 8002336:	da1b      	bge.n	8002370 <main+0xf4>
					waveIdxStart = (trigmodeVals[trigmode] == TRIGMODE_AUTO && trigPt == -1) ? 0 : max(0, trigPt - toff);	/* display-waveform sample index start */
 8002338:	4b6b      	ldr	r3, [pc, #428]	; (80024e8 <main+0x26c>)
 800233a:	781b      	ldrb	r3, [r3, #0]
 800233c:	4a6b      	ldr	r2, [pc, #428]	; (80024ec <main+0x270>)
 800233e:	5cd3      	ldrb	r3, [r2, r3]
 8002340:	b913      	cbnz	r3, 8002348 <main+0xcc>
 8002342:	f1bb 3fff 	cmp.w	fp, #4294967295
 8002346:	d011      	beq.n	800236c <main+0xf0>
 8002348:	4a69      	ldr	r2, [pc, #420]	; (80024f0 <main+0x274>)
 800234a:	8814      	ldrh	r4, [r2, #0]
 800234c:	ebab 0404 	sub.w	r4, fp, r4
 8002350:	ea24 74e4 	bic.w	r4, r4, r4, asr #31
					dispIdxStart = (trigmodeVals[trigmode] == TRIGMODE_AUTO && trigPt == -1) ? 0 : max(0, toff - trigPt);	/* display offset to start drawing the waveform */
 8002354:	b913      	cbnz	r3, 800235c <main+0xe0>
 8002356:	f1bb 3fff 	cmp.w	fp, #4294967295
 800235a:	d02a      	beq.n	80023b2 <main+0x136>
 800235c:	4b64      	ldr	r3, [pc, #400]	; (80024f0 <main+0x274>)
 800235e:	881d      	ldrh	r5, [r3, #0]
 8002360:	eba5 050b 	sub.w	r5, r5, fp
 8002364:	ea25 75e5 	bic.w	r5, r5, r5, asr #31
				else{
					waveIdxStart = (trigmodeVals[trigmode] == TRIGMODE_AUTO && trigPt == -1) ? ADC_PRETRIGBUF_SIZE + ADC_TRIGBUF_SIZE - TOFF_LIMIT : trigPt - toff;
					dispIdxStart = 0;
				}

				for(j = 0; j < LCD_WIDTH - waveIdxStart; j++){
 8002368:	2200      	movs	r2, #0
 800236a:	e04c      	b.n	8002406 <main+0x18a>
					waveIdxStart = (trigmodeVals[trigmode] == TRIGMODE_AUTO && trigPt == -1) ? 0 : max(0, trigPt - toff);	/* display-waveform sample index start */
 800236c:	2400      	movs	r4, #0
 800236e:	e7f1      	b.n	8002354 <main+0xd8>
				else if(trigPt >= ADC_PRETRIGBUF_SIZE && trigPt < ADC_PRETRIGBUF_SIZE + ADC_TRIGBUF_SIZE){
 8002370:	f5ab 73d2 	sub.w	r3, fp, #420	; 0x1a4
 8002374:	f5b3 7ff0 	cmp.w	r3, #480	; 0x1e0
 8002378:	d20d      	bcs.n	8002396 <main+0x11a>
					waveIdxStart = (trigmodeVals[trigmode] == TRIGMODE_AUTO && trigPt == -1) ? ADC_PRETRIGBUF_SIZE : trigPt - toff;
 800237a:	4b5b      	ldr	r3, [pc, #364]	; (80024e8 <main+0x26c>)
 800237c:	781b      	ldrb	r3, [r3, #0]
 800237e:	4a5b      	ldr	r2, [pc, #364]	; (80024ec <main+0x270>)
 8002380:	5cd3      	ldrb	r3, [r2, r3]
 8002382:	b913      	cbnz	r3, 800238a <main+0x10e>
 8002384:	f1bb 3fff 	cmp.w	fp, #4294967295
 8002388:	d015      	beq.n	80023b6 <main+0x13a>
 800238a:	4b59      	ldr	r3, [pc, #356]	; (80024f0 <main+0x274>)
 800238c:	881c      	ldrh	r4, [r3, #0]
 800238e:	ebab 0404 	sub.w	r4, fp, r4
					dispIdxStart = 0;
 8002392:	2500      	movs	r5, #0
					waveIdxStart = (trigmodeVals[trigmode] == TRIGMODE_AUTO && trigPt == -1) ? ADC_PRETRIGBUF_SIZE : trigPt - toff;
 8002394:	e7e8      	b.n	8002368 <main+0xec>
					waveIdxStart = (trigmodeVals[trigmode] == TRIGMODE_AUTO && trigPt == -1) ? ADC_PRETRIGBUF_SIZE + ADC_TRIGBUF_SIZE - TOFF_LIMIT : trigPt - toff;
 8002396:	4b54      	ldr	r3, [pc, #336]	; (80024e8 <main+0x26c>)
 8002398:	781b      	ldrb	r3, [r3, #0]
 800239a:	4a54      	ldr	r2, [pc, #336]	; (80024ec <main+0x270>)
 800239c:	5cd3      	ldrb	r3, [r2, r3]
 800239e:	b913      	cbnz	r3, 80023a6 <main+0x12a>
 80023a0:	f1bb 3fff 	cmp.w	fp, #4294967295
 80023a4:	d00b      	beq.n	80023be <main+0x142>
 80023a6:	4b52      	ldr	r3, [pc, #328]	; (80024f0 <main+0x274>)
 80023a8:	881c      	ldrh	r4, [r3, #0]
 80023aa:	ebab 0404 	sub.w	r4, fp, r4
					dispIdxStart = 0;
 80023ae:	2500      	movs	r5, #0
					waveIdxStart = (trigmodeVals[trigmode] == TRIGMODE_AUTO && trigPt == -1) ? ADC_PRETRIGBUF_SIZE + ADC_TRIGBUF_SIZE - TOFF_LIMIT : trigPt - toff;
 80023b0:	e7da      	b.n	8002368 <main+0xec>
					dispIdxStart = (trigmodeVals[trigmode] == TRIGMODE_AUTO && trigPt == -1) ? 0 : max(0, toff - trigPt);	/* display offset to start drawing the waveform */
 80023b2:	2500      	movs	r5, #0
 80023b4:	e7d8      	b.n	8002368 <main+0xec>
					dispIdxStart = 0;
 80023b6:	2500      	movs	r5, #0
					waveIdxStart = (trigmodeVals[trigmode] == TRIGMODE_AUTO && trigPt == -1) ? ADC_PRETRIGBUF_SIZE : trigPt - toff;
 80023b8:	f44f 74d2 	mov.w	r4, #420	; 0x1a4
 80023bc:	e7d4      	b.n	8002368 <main+0xec>
					dispIdxStart = 0;
 80023be:	2500      	movs	r5, #0
					waveIdxStart = (trigmodeVals[trigmode] == TRIGMODE_AUTO && trigPt == -1) ? ADC_PRETRIGBUF_SIZE + ADC_TRIGBUF_SIZE - TOFF_LIMIT : trigPt - toff;
 80023c0:	f44f 7452 	mov.w	r4, #840	; 0x348
 80023c4:	e7d0      	b.n	8002368 <main+0xec>
					temp = (float32_t)(voff1 + CH1_ADC_vals[waveIdxStart+j])/vscaleVals[vscale1];
					if(chDispMode == CHDISPMODE_SPLIT){
						if(temp > CHDISPMODE_SPLIT_SIGMAX)	temp = CHDISPMODE_SPLIT_SIGMAX;
					}
					else{
						if(temp > CHDISPMODE_MERGE_SIGMAX)	temp = CHDISPMODE_MERGE_SIGMAX;
 80023c6:	2bef      	cmp	r3, #239	; 0xef
 80023c8:	dd40      	ble.n	800244c <main+0x1d0>
 80023ca:	23ef      	movs	r3, #239	; 0xef
 80023cc:	e03e      	b.n	800244c <main+0x1d0>
						if(temp > CHDISPMODE_SPLIT_SIGMAX)	temp = CHDISPMODE_SPLIT_SIGMAX;
 80023ce:	2377      	movs	r3, #119	; 0x77
 80023d0:	e03c      	b.n	800244c <main+0x1d0>
					}
					if(temp < 0)  temp = 0;
 80023d2:	2300      	movs	r3, #0
 80023d4:	e03c      	b.n	8002450 <main+0x1d4>
					if(chDispMode == CHDISPMODE_SPLIT)
						i = CHDISPMODE_SPLIT_CH1BOT - temp;
					else
						i = CHDISPMODE_MERGE_CHBOT - temp;
 80023d6:	f1c3 03fe 	rsb	r3, r3, #254	; 0xfe
 80023da:	e03d      	b.n	8002458 <main+0x1dc>
						temp = (float32_t)(voff2 + CH2_ADC_vals[waveIdxStart+j])/vscaleVals[vscale2];
						if(chDispMode == CHDISPMODE_SPLIT){
							if(temp > CHDISPMODE_SPLIT_SIGMAX)	temp = CHDISPMODE_SPLIT_SIGMAX;
						}
						else{
							if(temp > CHDISPMODE_MERGE_SIGMAX)	temp = CHDISPMODE_MERGE_SIGMAX;
 80023dc:	2bef      	cmp	r3, #239	; 0xef
 80023de:	dc6a      	bgt.n	80024b6 <main+0x23a>
						}
						if(temp < 0)  temp = 0;
 80023e0:	2b00      	cmp	r3, #0
 80023e2:	db6a      	blt.n	80024ba <main+0x23e>
						if(chDispMode == CHDISPMODE_SPLIT)
 80023e4:	2f00      	cmp	r7, #0
 80023e6:	d16a      	bne.n	80024be <main+0x242>
							i = CHDISPMODE_SPLIT_CH2BOT - temp;
 80023e8:	f1c3 03fe 	rsb	r3, r3, #254	; 0xfe
						else
							i = CHDISPMODE_MERGE_CHBOT - temp;
						if(dispIdxStart+j < LCD_WIDTH)
 80023ec:	f5b1 7ff0 	cmp.w	r1, #480	; 0x1e0
 80023f0:	da08      	bge.n	8002404 <main+0x188>
							pFrame[i][dispIdxStart+j] = CH2_COLOR;
 80023f2:	ebc3 1303 	rsb	r3, r3, r3, lsl #4
 80023f6:	0198      	lsls	r0, r3, #6
 80023f8:	f1a0 507f 	sub.w	r0, r0, #1069547520	; 0x3fc00000
 80023fc:	f240 73ff 	movw	r3, #2047	; 0x7ff
 8002400:	f820 3011 	strh.w	r3, [r0, r1, lsl #1]
				for(j = 0; j < LCD_WIDTH - waveIdxStart; j++){
 8002404:	3201      	adds	r2, #1
 8002406:	f5c4 73f0 	rsb	r3, r4, #480	; 0x1e0
 800240a:	429a      	cmp	r2, r3
 800240c:	f280 8082 	bge.w	8002514 <main+0x298>
					temp = (float32_t)(voff1 + CH1_ADC_vals[waveIdxStart+j])/vscaleVals[vscale1];
 8002410:	18a0      	adds	r0, r4, r2
 8002412:	4b38      	ldr	r3, [pc, #224]	; (80024f4 <main+0x278>)
 8002414:	5c1b      	ldrb	r3, [r3, r0]
 8002416:	4938      	ldr	r1, [pc, #224]	; (80024f8 <main+0x27c>)
 8002418:	f9b1 1000 	ldrsh.w	r1, [r1]
 800241c:	440b      	add	r3, r1
 800241e:	ee07 3a90 	vmov	s15, r3
 8002422:	eeb8 7ae7 	vcvt.f32.s32	s14, s15
 8002426:	4b35      	ldr	r3, [pc, #212]	; (80024fc <main+0x280>)
 8002428:	7819      	ldrb	r1, [r3, #0]
 800242a:	4b35      	ldr	r3, [pc, #212]	; (8002500 <main+0x284>)
 800242c:	eb03 0381 	add.w	r3, r3, r1, lsl #2
 8002430:	edd3 6a00 	vldr	s13, [r3]
 8002434:	eec7 7a26 	vdiv.f32	s15, s14, s13
 8002438:	eefd 7ae7 	vcvt.s32.f32	s15, s15
 800243c:	ee17 3a90 	vmov	r3, s15
					if(chDispMode == CHDISPMODE_SPLIT){
 8002440:	4930      	ldr	r1, [pc, #192]	; (8002504 <main+0x288>)
 8002442:	7809      	ldrb	r1, [r1, #0]
 8002444:	2900      	cmp	r1, #0
 8002446:	d1be      	bne.n	80023c6 <main+0x14a>
						if(temp > CHDISPMODE_SPLIT_SIGMAX)	temp = CHDISPMODE_SPLIT_SIGMAX;
 8002448:	2b77      	cmp	r3, #119	; 0x77
 800244a:	dcc0      	bgt.n	80023ce <main+0x152>
					if(temp < 0)  temp = 0;
 800244c:	2b00      	cmp	r3, #0
 800244e:	dbc0      	blt.n	80023d2 <main+0x156>
					if(chDispMode == CHDISPMODE_SPLIT)
 8002450:	2900      	cmp	r1, #0
 8002452:	d1c0      	bne.n	80023d6 <main+0x15a>
						i = CHDISPMODE_SPLIT_CH1BOT - temp;
 8002454:	f1c3 0386 	rsb	r3, r3, #134	; 0x86
					if(dispIdxStart+j < LCD_WIDTH)
 8002458:	18a9      	adds	r1, r5, r2
 800245a:	f5b1 7ff0 	cmp.w	r1, #480	; 0x1e0
 800245e:	da09      	bge.n	8002474 <main+0x1f8>
						pFrame[i][dispIdxStart+j] = CH1_COLOR;
 8002460:	ebc3 1303 	rsb	r3, r3, r3, lsl #4
 8002464:	ea4f 1e83 	mov.w	lr, r3, lsl #6
 8002468:	f1ae 5e7f 	sub.w	lr, lr, #1069547520	; 0x3fc00000
 800246c:	f44f 63fc 	mov.w	r3, #2016	; 0x7e0
 8002470:	f82e 3011 	strh.w	r3, [lr, r1, lsl #1]
					if(chDispMode != CHDISPMODE_SNGL){
 8002474:	4b23      	ldr	r3, [pc, #140]	; (8002504 <main+0x288>)
 8002476:	781f      	ldrb	r7, [r3, #0]
 8002478:	2f02      	cmp	r7, #2
 800247a:	d0c3      	beq.n	8002404 <main+0x188>
						temp = (float32_t)(voff2 + CH2_ADC_vals[waveIdxStart+j])/vscaleVals[vscale2];
 800247c:	4b22      	ldr	r3, [pc, #136]	; (8002508 <main+0x28c>)
 800247e:	5c1b      	ldrb	r3, [r3, r0]
 8002480:	4822      	ldr	r0, [pc, #136]	; (800250c <main+0x290>)
 8002482:	f9b0 0000 	ldrsh.w	r0, [r0]
 8002486:	4403      	add	r3, r0
 8002488:	ee07 3a90 	vmov	s15, r3
 800248c:	eeb8 7ae7 	vcvt.f32.s32	s14, s15
 8002490:	4b1f      	ldr	r3, [pc, #124]	; (8002510 <main+0x294>)
 8002492:	7818      	ldrb	r0, [r3, #0]
 8002494:	4b1a      	ldr	r3, [pc, #104]	; (8002500 <main+0x284>)
 8002496:	eb03 0380 	add.w	r3, r3, r0, lsl #2
 800249a:	edd3 6a00 	vldr	s13, [r3]
 800249e:	eec7 7a26 	vdiv.f32	s15, s14, s13
 80024a2:	eefd 7ae7 	vcvt.s32.f32	s15, s15
 80024a6:	ee17 3a90 	vmov	r3, s15
						if(chDispMode == CHDISPMODE_SPLIT){
 80024aa:	2f00      	cmp	r7, #0
 80024ac:	d196      	bne.n	80023dc <main+0x160>
							if(temp > CHDISPMODE_SPLIT_SIGMAX)	temp = CHDISPMODE_SPLIT_SIGMAX;
 80024ae:	2b77      	cmp	r3, #119	; 0x77
 80024b0:	dd96      	ble.n	80023e0 <main+0x164>
 80024b2:	2377      	movs	r3, #119	; 0x77
 80024b4:	e794      	b.n	80023e0 <main+0x164>
							if(temp > CHDISPMODE_MERGE_SIGMAX)	temp = CHDISPMODE_MERGE_SIGMAX;
 80024b6:	23ef      	movs	r3, #239	; 0xef
 80024b8:	e792      	b.n	80023e0 <main+0x164>
						if(temp < 0)  temp = 0;
 80024ba:	2300      	movs	r3, #0
 80024bc:	e792      	b.n	80023e4 <main+0x168>
							i = CHDISPMODE_MERGE_CHBOT - temp;
 80024be:	f1c3 03fe 	rsb	r3, r3, #254	; 0xfe
 80024c2:	e793      	b.n	80023ec <main+0x170>
 80024c4:	08000c19 	.word	0x08000c19
 80024c8:	200037d8 	.word	0x200037d8
 80024cc:	08000cbd 	.word	0x08000cbd
 80024d0:	08000d41 	.word	0x08000d41
 80024d4:	20003750 	.word	0x20003750
 80024d8:	200000be 	.word	0x200000be
 80024dc:	0800bf5c 	.word	0x0800bf5c
 80024e0:	20000009 	.word	0x20000009
 80024e4:	4002b000 	.word	0x4002b000
 80024e8:	200000c1 	.word	0x200000c1
 80024ec:	0800bf8c 	.word	0x0800bf8c
 80024f0:	20000000 	.word	0x20000000
 80024f4:	20000170 	.word	0x20000170
 80024f8:	200000c4 	.word	0x200000c4
 80024fc:	2000000a 	.word	0x2000000a
 8002500:	0800c008 	.word	0x0800c008
 8002504:	200000bc 	.word	0x200000bc
 8002508:	20000698 	.word	0x20000698
 800250c:	200000c8 	.word	0x200000c8
 8002510:	2000000b 	.word	0x2000000b
					}
				}

				/* go to STOP mode after a single mode trigger event */
				if(trigmodeVals[trigmode] == TRIGMODE_SNGL){
 8002514:	4bab      	ldr	r3, [pc, #684]	; (80027c4 <main+0x548>)
 8002516:	781b      	ldrb	r3, [r3, #0]
 8002518:	4aab      	ldr	r2, [pc, #684]	; (80027c8 <main+0x54c>)
 800251a:	5cd3      	ldrb	r3, [r2, r3]
 800251c:	2b01      	cmp	r3, #1
 800251e:	d067      	beq.n	80025f0 <main+0x374>
					trigPt = -1;
					goToField(FLD_RUNSTOP);
					changeFieldValue(0);	/* STOP */
				}
				else if(trigPt != -1){
 8002520:	f1bb 3fff 	cmp.w	fp, #4294967295
 8002524:	d005      	beq.n	8002532 <main+0x2b6>
					UG_TextboxSetBackColor(&window_1, TXB_ID_6, RUNSTOP_ICON_COLOR_RUN);
 8002526:	f649 6266 	movw	r2, #40550	; 0x9e66
 800252a:	2106      	movs	r1, #6
 800252c:	48a7      	ldr	r0, [pc, #668]	; (80027cc <main+0x550>)
 800252e:	f003 f93b 	bl	80057a8 <UG_TextboxSetBackColor>
				}
			}

			/* capture next waveform frame */
			if((trigmodeVals[trigmode] != TRIGMODE_SNGL || trigPt == -1) && runstopVals[runstop] != RUNSTOP_STOP){
 8002532:	4ba4      	ldr	r3, [pc, #656]	; (80027c4 <main+0x548>)
 8002534:	781b      	ldrb	r3, [r3, #0]
 8002536:	4aa4      	ldr	r2, [pc, #656]	; (80027c8 <main+0x54c>)
 8002538:	5cd3      	ldrb	r3, [r2, r3]
 800253a:	2b01      	cmp	r3, #1
 800253c:	d061      	beq.n	8002602 <main+0x386>
 800253e:	4ba4      	ldr	r3, [pc, #656]	; (80027d0 <main+0x554>)
 8002540:	781b      	ldrb	r3, [r3, #0]
 8002542:	4aa4      	ldr	r2, [pc, #656]	; (80027d4 <main+0x558>)
 8002544:	5cd3      	ldrb	r3, [r2, r3]
 8002546:	2b01      	cmp	r3, #1
 8002548:	d003      	beq.n	8002552 <main+0x2d6>
				ADC_Ch1_reinit();
 800254a:	f7fe ff8d 	bl	8001468 <ADC_Ch1_reinit>
				ADC_Ch2_reinit();
 800254e:	f7ff f843 	bl	80015d8 <ADC_Ch2_reinit>
			}
		}

		/* zoom-in/out the captured waveform (termed static mode) */
		if(runstopVals[runstop] == RUNSTOP_STOP){
 8002552:	4b9f      	ldr	r3, [pc, #636]	; (80027d0 <main+0x554>)
 8002554:	781b      	ldrb	r3, [r3, #0]
 8002556:	4a9f      	ldr	r2, [pc, #636]	; (80027d4 <main+0x558>)
 8002558:	5cd3      	ldrb	r3, [r2, r3]
 800255a:	2b01      	cmp	r3, #1
 800255c:	d055      	beq.n	800260a <main+0x38e>
				}
			}
		}

		/* Read touch and display windows */
		if(TS_read_pending){
 800255e:	4b9e      	ldr	r3, [pc, #632]	; (80027d8 <main+0x55c>)
 8002560:	781b      	ldrb	r3, [r3, #0]
 8002562:	2b00      	cmp	r3, #0
 8002564:	f040 81ec 	bne.w	8002940 <main+0x6c4>

			TS_read_pending = 0;
		}

		/* Calculate and display the selected measurements */
		if(measPending){
 8002568:	4b9c      	ldr	r3, [pc, #624]	; (80027dc <main+0x560>)
 800256a:	781b      	ldrb	r3, [r3, #0]
 800256c:	2b00      	cmp	r3, #0
 800256e:	f040 8205 	bne.w	800297c <main+0x700>
			DisplayMeasurements();
			measPending = 0;
		}

		/* Interrupt from quadrature encoder push button switch */
		if(QE_PB_interrupt){
 8002572:	4b9b      	ldr	r3, [pc, #620]	; (80027e0 <main+0x564>)
 8002574:	781b      	ldrb	r3, [r3, #0]
 8002576:	2b00      	cmp	r3, #0
 8002578:	f040 8206 	bne.w	8002988 <main+0x70c>
			switchNextField();				/* Switch to the next field in the menubars */
			QE_PB_interrupt = 0;
		}

		/* Check quadrature encoder state */
		QE_Count = (TIM_QE->CNT & 0xFFFFU) >> 1U;
 800257c:	4b99      	ldr	r3, [pc, #612]	; (80027e4 <main+0x568>)
 800257e:	6a5f      	ldr	r7, [r3, #36]	; 0x24
 8002580:	f3c7 074e 	ubfx	r7, r7, #1, #15
		if(QE_Count != QE_Count_prev){
 8002584:	42be      	cmp	r6, r7
 8002586:	d005      	beq.n	8002594 <main+0x318>
			QE_direc = (TIM_QE->CR1 & 0x10) >> 4;	/* check rotation direction */
 8002588:	6818      	ldr	r0, [r3, #0]

			changeFieldValue(QE_direc);
 800258a:	f3c0 1000 	ubfx	r0, r0, #4, #1
 800258e:	f004 fd8f 	bl	80070b0 <changeFieldValue>

			QE_Count_prev = QE_Count;
 8002592:	463e      	mov	r6, r7
		}

		UG_Update();
 8002594:	f002 ffea 	bl	800556c <UG_Update>

		/* Update screen */
		updateToScreen();
 8002598:	f7fe fc24 	bl	8000de4 <updateToScreen>
		while(DMA2D->CR & 0x01);
 800259c:	4b92      	ldr	r3, [pc, #584]	; (80027e8 <main+0x56c>)
 800259e:	681b      	ldr	r3, [r3, #0]
 80025a0:	f013 0f01 	tst.w	r3, #1
 80025a4:	d1fa      	bne.n	800259c <main+0x320>
		if(CH1_acq_comp && CH2_acq_comp){
 80025a6:	4b91      	ldr	r3, [pc, #580]	; (80027ec <main+0x570>)
 80025a8:	781b      	ldrb	r3, [r3, #0]
 80025aa:	2b00      	cmp	r3, #0
 80025ac:	d0d1      	beq.n	8002552 <main+0x2d6>
 80025ae:	4b90      	ldr	r3, [pc, #576]	; (80027f0 <main+0x574>)
 80025b0:	781b      	ldrb	r3, [r3, #0]
 80025b2:	2b00      	cmp	r3, #0
 80025b4:	d0cd      	beq.n	8002552 <main+0x2d6>
			CH1_acq_comp = CH2_acq_comp = 0;
 80025b6:	2300      	movs	r3, #0
 80025b8:	4a8d      	ldr	r2, [pc, #564]	; (80027f0 <main+0x574>)
 80025ba:	7013      	strb	r3, [r2, #0]
 80025bc:	4a8b      	ldr	r2, [pc, #556]	; (80027ec <main+0x570>)
 80025be:	7013      	strb	r3, [r2, #0]
			trigPt = processTriggers();
 80025c0:	f001 f920 	bl	8003804 <processTriggers>
 80025c4:	4683      	mov	fp, r0
			if(trigPt == -1){
 80025c6:	f1b0 3fff 	cmp.w	r0, #4294967295
 80025ca:	f43f ae95 	beq.w	80022f8 <main+0x7c>
			if((trigmodeVals[trigmode] == TRIGMODE_AUTO && runstopVals[runstop] != RUNSTOP_STOP) ||
 80025ce:	4b7d      	ldr	r3, [pc, #500]	; (80027c4 <main+0x548>)
 80025d0:	781b      	ldrb	r3, [r3, #0]
 80025d2:	4a7d      	ldr	r2, [pc, #500]	; (80027c8 <main+0x54c>)
 80025d4:	5cd3      	ldrb	r3, [r2, r3]
 80025d6:	2b00      	cmp	r3, #0
 80025d8:	f43f ae99 	beq.w	800230e <main+0x92>
 80025dc:	2b01      	cmp	r3, #1
 80025de:	f43f ae92 	beq.w	8002306 <main+0x8a>
					(trigmodeVals[trigmode] == TRIGMODE_SNGL && trigPt != -1 && runstopVals[runstop] != RUNSTOP_STOP) ||
 80025e2:	2b02      	cmp	r3, #2
 80025e4:	d1a5      	bne.n	8002532 <main+0x2b6>
					(trigmodeVals[trigmode] == TRIGMODE_NORM && trigPt != -1 && runstopVals[runstop] != RUNSTOP_STOP))
 80025e6:	f1bb 3fff 	cmp.w	fp, #4294967295
 80025ea:	f47f ae90 	bne.w	800230e <main+0x92>
 80025ee:	e7a0      	b.n	8002532 <main+0x2b6>
					goToField(FLD_RUNSTOP);
 80025f0:	2008      	movs	r0, #8
 80025f2:	f004 fd31 	bl	8007058 <goToField>
					changeFieldValue(0);	/* STOP */
 80025f6:	2000      	movs	r0, #0
 80025f8:	f004 fd5a 	bl	80070b0 <changeFieldValue>
					trigPt = -1;
 80025fc:	f04f 3bff 	mov.w	fp, #4294967295
 8002600:	e797      	b.n	8002532 <main+0x2b6>
			if((trigmodeVals[trigmode] != TRIGMODE_SNGL || trigPt == -1) && runstopVals[runstop] != RUNSTOP_STOP){
 8002602:	f1bb 3fff 	cmp.w	fp, #4294967295
 8002606:	d1a4      	bne.n	8002552 <main+0x2d6>
 8002608:	e799      	b.n	800253e <main+0x2c2>
			if(!staticMode){
 800260a:	4b7a      	ldr	r3, [pc, #488]	; (80027f4 <main+0x578>)
 800260c:	781b      	ldrb	r3, [r3, #0]
 800260e:	2b00      	cmp	r3, #0
 8002610:	d14d      	bne.n	80026ae <main+0x432>
				if(TS_DetectNumTouches() > 0){
 8002612:	f000 fdff 	bl	8003214 <TS_DetectNumTouches>
 8002616:	b9f0      	cbnz	r0, 8002656 <main+0x3da>
			if(staticMode){
 8002618:	4b76      	ldr	r3, [pc, #472]	; (80027f4 <main+0x578>)
 800261a:	781b      	ldrb	r3, [r3, #0]
 800261c:	2b00      	cmp	r3, #0
 800261e:	d09e      	beq.n	800255e <main+0x2e2>
				if(tscale != oldtscale){
 8002620:	4b75      	ldr	r3, [pc, #468]	; (80027f8 <main+0x57c>)
 8002622:	781b      	ldrb	r3, [r3, #0]
 8002624:	4599      	cmp	r9, r3
 8002626:	d07c      	beq.n	8002722 <main+0x4a6>
					lenResampledSig = resampleChannels(waveIdxStart, LCD_WIDTH - abs(dispIdxStart - waveIdxStart), origtscale, tscale);
 8002628:	1b29      	subs	r1, r5, r4
 800262a:	2900      	cmp	r1, #0
 800262c:	bfb8      	it	lt
 800262e:	4249      	neglt	r1, r1
 8002630:	4652      	mov	r2, sl
 8002632:	f5c1 71f0 	rsb	r1, r1, #480	; 0x1e0
 8002636:	4620      	mov	r0, r4
 8002638:	f001 f9bc 	bl	80039b4 <resampleChannels>
 800263c:	4680      	mov	r8, r0
					if(lenResampledSig == -1){
 800263e:	f1b0 3fff 	cmp.w	r0, #4294967295
 8002642:	d05d      	beq.n	8002700 <main+0x484>
						oldtscale = tscale;
 8002644:	4b6c      	ldr	r3, [pc, #432]	; (80027f8 <main+0x57c>)
 8002646:	f893 9000 	ldrb.w	r9, [r3]
						toffStm = toff;
 800264a:	4b6c      	ldr	r3, [pc, #432]	; (80027fc <main+0x580>)
 800264c:	881a      	ldrh	r2, [r3, #0]
 800264e:	4b6c      	ldr	r3, [pc, #432]	; (8002800 <main+0x584>)
 8002650:	601a      	str	r2, [r3, #0]
						redrawWf = 1;		/* redraw the waveforms */
 8002652:	2301      	movs	r3, #1
 8002654:	e077      	b.n	8002746 <main+0x4ca>
					TS_GetXY(&TS_Y, &TS_X);
 8002656:	4f6b      	ldr	r7, [pc, #428]	; (8002804 <main+0x588>)
 8002658:	4639      	mov	r1, r7
 800265a:	486b      	ldr	r0, [pc, #428]	; (8002808 <main+0x58c>)
 800265c:	f000 fde2 	bl	8003224 <TS_GetXY>
					if(100 < TS_X && TS_X < 380 && 50 < TS_Y && TS_Y < 220){
 8002660:	883b      	ldrh	r3, [r7, #0]
 8002662:	3b65      	subs	r3, #101	; 0x65
 8002664:	b29b      	uxth	r3, r3
 8002666:	f5b3 7f8b 	cmp.w	r3, #278	; 0x116
 800266a:	d8d5      	bhi.n	8002618 <main+0x39c>
 800266c:	4b66      	ldr	r3, [pc, #408]	; (8002808 <main+0x58c>)
 800266e:	881b      	ldrh	r3, [r3, #0]
 8002670:	2b32      	cmp	r3, #50	; 0x32
 8002672:	d9d1      	bls.n	8002618 <main+0x39c>
 8002674:	2bdb      	cmp	r3, #219	; 0xdb
 8002676:	d8cf      	bhi.n	8002618 <main+0x39c>
						staticMode = 1;
 8002678:	2201      	movs	r2, #1
 800267a:	4b5e      	ldr	r3, [pc, #376]	; (80027f4 <main+0x578>)
 800267c:	701a      	strb	r2, [r3, #0]
						toffStm = toff;
 800267e:	4b5f      	ldr	r3, [pc, #380]	; (80027fc <main+0x580>)
 8002680:	881a      	ldrh	r2, [r3, #0]
 8002682:	4b5f      	ldr	r3, [pc, #380]	; (8002800 <main+0x584>)
 8002684:	601a      	str	r2, [r3, #0]
						drawRedBorder();					/* to indicate static mode */
 8002686:	f005 fef7 	bl	8008478 <drawRedBorder>
						lenResampledSig = resampleChannels(waveIdxStart, LCD_WIDTH - abs(dispIdxStart - waveIdxStart), origtscale, origtscale);
 800268a:	1b29      	subs	r1, r5, r4
 800268c:	2900      	cmp	r1, #0
 800268e:	bfb8      	it	lt
 8002690:	4249      	neglt	r1, r1
 8002692:	4653      	mov	r3, sl
 8002694:	4652      	mov	r2, sl
 8002696:	f5c1 71f0 	rsb	r1, r1, #480	; 0x1e0
 800269a:	4620      	mov	r0, r4
 800269c:	f001 f98a 	bl	80039b4 <resampleChannels>
 80026a0:	4680      	mov	r8, r0
						while(TS_DetectNumTouches() > 0);	/* wait for touch to be removed */
 80026a2:	f000 fdb7 	bl	8003214 <TS_DetectNumTouches>
 80026a6:	2800      	cmp	r0, #0
 80026a8:	d1fb      	bne.n	80026a2 <main+0x426>
						oldtscale = origtscale;
 80026aa:	46d1      	mov	r9, sl
 80026ac:	e7b4      	b.n	8002618 <main+0x39c>
				if(TS_DetectNumTouches() > 0){
 80026ae:	f000 fdb1 	bl	8003214 <TS_DetectNumTouches>
 80026b2:	2800      	cmp	r0, #0
 80026b4:	d0b0      	beq.n	8002618 <main+0x39c>
					TS_GetXY(&TS_Y, &TS_X);
 80026b6:	4f53      	ldr	r7, [pc, #332]	; (8002804 <main+0x588>)
 80026b8:	4639      	mov	r1, r7
 80026ba:	4853      	ldr	r0, [pc, #332]	; (8002808 <main+0x58c>)
 80026bc:	f000 fdb2 	bl	8003224 <TS_GetXY>
					if(100 < TS_X && TS_X < 380 && 50 < TS_Y && TS_Y < 220){
 80026c0:	883b      	ldrh	r3, [r7, #0]
 80026c2:	3b65      	subs	r3, #101	; 0x65
 80026c4:	b29b      	uxth	r3, r3
 80026c6:	f5b3 7f8b 	cmp.w	r3, #278	; 0x116
 80026ca:	d8a5      	bhi.n	8002618 <main+0x39c>
 80026cc:	4b4e      	ldr	r3, [pc, #312]	; (8002808 <main+0x58c>)
 80026ce:	881b      	ldrh	r3, [r3, #0]
 80026d0:	2b32      	cmp	r3, #50	; 0x32
 80026d2:	d9a1      	bls.n	8002618 <main+0x39c>
 80026d4:	2bdb      	cmp	r3, #219	; 0xdb
 80026d6:	d89f      	bhi.n	8002618 <main+0x39c>
						staticMode = 0;
 80026d8:	2200      	movs	r2, #0
 80026da:	4b46      	ldr	r3, [pc, #280]	; (80027f4 <main+0x578>)
 80026dc:	701a      	strb	r2, [r3, #0]
						clearRedBorder();
 80026de:	f005 ff14 	bl	800850a <clearRedBorder>
						drawGrid();
 80026e2:	f003 f9c9 	bl	8005a78 <drawGrid>
						dispToff();		/* re-display toff in case it was changed out of limits in static mode */
 80026e6:	f005 fb93 	bl	8007e10 <dispToff>
						goToField(FLD_RUNSTOP);
 80026ea:	2008      	movs	r0, #8
 80026ec:	f004 fcb4 	bl	8007058 <goToField>
						changeFieldValue(1);	/* RUN */
 80026f0:	2001      	movs	r0, #1
 80026f2:	f004 fcdd 	bl	80070b0 <changeFieldValue>
						while(TS_DetectNumTouches() > 0);
 80026f6:	f000 fd8d 	bl	8003214 <TS_DetectNumTouches>
 80026fa:	2800      	cmp	r0, #0
 80026fc:	d1fb      	bne.n	80026f6 <main+0x47a>
 80026fe:	e78b      	b.n	8002618 <main+0x39c>
						goToField(FLD_TSCALE);
 8002700:	2003      	movs	r0, #3
 8002702:	f004 fca9 	bl	8007058 <goToField>
						if(tscale > oldtscale)
 8002706:	4b3c      	ldr	r3, [pc, #240]	; (80027f8 <main+0x57c>)
 8002708:	781b      	ldrb	r3, [r3, #0]
 800270a:	4599      	cmp	r9, r3
 800270c:	d204      	bcs.n	8002718 <main+0x49c>
							changeFieldValue(1);
 800270e:	2001      	movs	r0, #1
 8002710:	f004 fcce 	bl	80070b0 <changeFieldValue>
			int32_t redrawWf = 0;
 8002714:	2300      	movs	r3, #0
 8002716:	e016      	b.n	8002746 <main+0x4ca>
							changeFieldValue(0);
 8002718:	2000      	movs	r0, #0
 800271a:	f004 fcc9 	bl	80070b0 <changeFieldValue>
			int32_t redrawWf = 0;
 800271e:	2300      	movs	r3, #0
 8002720:	e011      	b.n	8002746 <main+0x4ca>
				else if(vscale1Changed || vscale2Changed || voff1Changed
 8002722:	4b3a      	ldr	r3, [pc, #232]	; (800280c <main+0x590>)
 8002724:	781b      	ldrb	r3, [r3, #0]
 8002726:	b95b      	cbnz	r3, 8002740 <main+0x4c4>
 8002728:	4b39      	ldr	r3, [pc, #228]	; (8002810 <main+0x594>)
 800272a:	781b      	ldrb	r3, [r3, #0]
 800272c:	b943      	cbnz	r3, 8002740 <main+0x4c4>
 800272e:	4b39      	ldr	r3, [pc, #228]	; (8002814 <main+0x598>)
 8002730:	781b      	ldrb	r3, [r3, #0]
 8002732:	b92b      	cbnz	r3, 8002740 <main+0x4c4>
						|| voff2Changed || toffChanged){
 8002734:	4b38      	ldr	r3, [pc, #224]	; (8002818 <main+0x59c>)
 8002736:	781b      	ldrb	r3, [r3, #0]
 8002738:	b913      	cbnz	r3, 8002740 <main+0x4c4>
 800273a:	4b38      	ldr	r3, [pc, #224]	; (800281c <main+0x5a0>)
 800273c:	781b      	ldrb	r3, [r3, #0]
 800273e:	b393      	cbz	r3, 80027a6 <main+0x52a>
					drawRedBorder();	/* since it would have got erased due to moving cursors */
 8002740:	f005 fe9a 	bl	8008478 <drawRedBorder>
					redrawWf = 1;
 8002744:	2301      	movs	r3, #1
				if(redrawWf){
 8002746:	2b00      	cmp	r3, #0
 8002748:	f43f af09 	beq.w	800255e <main+0x2e2>
					trigPtStm = chkTrigResampSig(lenResampledSig);
 800274c:	4640      	mov	r0, r8
 800274e:	f001 f8cf 	bl	80038f0 <chkTrigResampSig>
					waveIdxStartStm = max(0, min(trigPtStm - toffStm, lenResampledSig - 1));
 8002752:	f108 31ff 	add.w	r1, r8, #4294967295
 8002756:	4b2a      	ldr	r3, [pc, #168]	; (8002800 <main+0x584>)
 8002758:	681b      	ldr	r3, [r3, #0]
 800275a:	1ac2      	subs	r2, r0, r3
 800275c:	460f      	mov	r7, r1
 800275e:	4291      	cmp	r1, r2
 8002760:	bfa8      	it	ge
 8002762:	4617      	movge	r7, r2
 8002764:	ea27 77e7 	bic.w	r7, r7, r7, asr #31
					dispIdxStartStm = max(0, min(toffStm - trigPtStm, LCD_WIDTH - 1));
 8002768:	4298      	cmp	r0, r3
 800276a:	d004      	beq.n	8002776 <main+0x4fa>
 800276c:	eba3 0e00 	sub.w	lr, r3, r0
 8002770:	f1be 0f00 	cmp.w	lr, #0
 8002774:	dd19      	ble.n	80027aa <main+0x52e>
 8002776:	eba3 0b00 	sub.w	fp, r3, r0
 800277a:	f240 1edf 	movw	lr, #479	; 0x1df
 800277e:	45f3      	cmp	fp, lr
 8002780:	bfa8      	it	ge
 8002782:	46f3      	movge	fp, lr
					if(trigPtStm - toffStm > lenResampledSig - 1)
 8002784:	4291      	cmp	r1, r2
 8002786:	da13      	bge.n	80027b0 <main+0x534>
						toffStm = trigPtStm - lenResampledSig + 1;
 8002788:	eba0 0308 	sub.w	r3, r0, r8
 800278c:	3301      	adds	r3, #1
 800278e:	4a1c      	ldr	r2, [pc, #112]	; (8002800 <main+0x584>)
 8002790:	6013      	str	r3, [r2, #0]
					fillScreenWave(C_BLACK);
 8002792:	2000      	movs	r0, #0
 8002794:	f7fe fa70 	bl	8000c78 <fillScreenWave>
					while(DMA2D->CR & 0x01);
 8002798:	4b13      	ldr	r3, [pc, #76]	; (80027e8 <main+0x56c>)
 800279a:	681b      	ldr	r3, [r3, #0]
 800279c:	f013 0f01 	tst.w	r3, #1
 80027a0:	d1fa      	bne.n	8002798 <main+0x51c>
 80027a2:	2200      	movs	r2, #0
 80027a4:	e05d      	b.n	8002862 <main+0x5e6>
			int32_t redrawWf = 0;
 80027a6:	2300      	movs	r3, #0
 80027a8:	e7cd      	b.n	8002746 <main+0x4ca>
					dispIdxStartStm = max(0, min(toffStm - trigPtStm, LCD_WIDTH - 1));
 80027aa:	f04f 0b00 	mov.w	fp, #0
 80027ae:	e7e9      	b.n	8002784 <main+0x508>
					else if(toffStm - trigPtStm > LCD_WIDTH - 1)
 80027b0:	1a1b      	subs	r3, r3, r0
 80027b2:	f5b3 7ff0 	cmp.w	r3, #480	; 0x1e0
 80027b6:	dbec      	blt.n	8002792 <main+0x516>
						toffStm = trigPtStm + LCD_WIDTH - 1;
 80027b8:	f200 10df 	addw	r0, r0, #479	; 0x1df
 80027bc:	4b10      	ldr	r3, [pc, #64]	; (8002800 <main+0x584>)
 80027be:	6018      	str	r0, [r3, #0]
 80027c0:	e7e7      	b.n	8002792 <main+0x516>
 80027c2:	bf00      	nop
 80027c4:	200000c1 	.word	0x200000c1
 80027c8:	0800bf8c 	.word	0x0800bf8c
 80027cc:	20003750 	.word	0x20003750
 80027d0:	200000be 	.word	0x200000be
 80027d4:	0800bf5c 	.word	0x0800bf5c
 80027d8:	200000fc 	.word	0x200000fc
 80027dc:	200000bd 	.word	0x200000bd
 80027e0:	200000b4 	.word	0x200000b4
 80027e4:	40010400 	.word	0x40010400
 80027e8:	4002b000 	.word	0x4002b000
 80027ec:	200000b0 	.word	0x200000b0
 80027f0:	200000b1 	.word	0x200000b1
 80027f4:	200000bf 	.word	0x200000bf
 80027f8:	20000009 	.word	0x20000009
 80027fc:	20000000 	.word	0x20000000
 8002800:	20000004 	.word	0x20000004
 8002804:	20000bce 	.word	0x20000bce
 8002808:	20000bd0 	.word	0x20000bd0
 800280c:	200000cb 	.word	0x200000cb
 8002810:	200000cc 	.word	0x200000cc
 8002814:	200000c6 	.word	0x200000c6
 8002818:	200000ca 	.word	0x200000ca
 800281c:	200000c0 	.word	0x200000c0
							if(temp > CHDISPMODE_MERGE_SIGMAX)	temp = CHDISPMODE_MERGE_SIGMAX;
 8002820:	2bef      	cmp	r3, #239	; 0xef
 8002822:	dd41      	ble.n	80028a8 <main+0x62c>
 8002824:	23ef      	movs	r3, #239	; 0xef
 8002826:	e03f      	b.n	80028a8 <main+0x62c>
							if(temp > CHDISPMODE_SPLIT_SIGMAX)	temp = CHDISPMODE_SPLIT_SIGMAX;
 8002828:	2377      	movs	r3, #119	; 0x77
 800282a:	e03d      	b.n	80028a8 <main+0x62c>
						if(temp < 0)  temp = 0;
 800282c:	2300      	movs	r3, #0
 800282e:	e03d      	b.n	80028ac <main+0x630>
							i = CHDISPMODE_MERGE_CHBOT - temp;
 8002830:	f1c3 03fe 	rsb	r3, r3, #254	; 0xfe
 8002834:	e03e      	b.n	80028b4 <main+0x638>
								if(temp > CHDISPMODE_MERGE_SIGMAX)	temp = CHDISPMODE_MERGE_SIGMAX;
 8002836:	2bef      	cmp	r3, #239	; 0xef
 8002838:	dc6f      	bgt.n	800291a <main+0x69e>
							if(temp < 0)  temp = 0;
 800283a:	2b00      	cmp	r3, #0
 800283c:	db6f      	blt.n	800291e <main+0x6a2>
							if(chDispMode == CHDISPMODE_SPLIT)
 800283e:	f1be 0f00 	cmp.w	lr, #0
 8002842:	d16e      	bne.n	8002922 <main+0x6a6>
								i = CHDISPMODE_SPLIT_CH2BOT - temp;
 8002844:	f1c3 03fe 	rsb	r3, r3, #254	; 0xfe
							if(dispIdxStartStm+j < LCD_WIDTH)
 8002848:	f5b1 7ff0 	cmp.w	r1, #480	; 0x1e0
 800284c:	da08      	bge.n	8002860 <main+0x5e4>
								pFrame[i][dispIdxStartStm+j] = CH2_COLOR;
 800284e:	ebc3 1303 	rsb	r3, r3, r3, lsl #4
 8002852:	0198      	lsls	r0, r3, #6
 8002854:	f1a0 507f 	sub.w	r0, r0, #1069547520	; 0x3fc00000
 8002858:	f240 73ff 	movw	r3, #2047	; 0x7ff
 800285c:	f820 3011 	strh.w	r3, [r0, r1, lsl #1]
					for(j = 0; j < LCD_WIDTH && waveIdxStartStm+j < lenResampledSig; j++){
 8002860:	3201      	adds	r2, #1
 8002862:	f5b2 7ff0 	cmp.w	r2, #480	; 0x1e0
 8002866:	da5f      	bge.n	8002928 <main+0x6ac>
 8002868:	19d0      	adds	r0, r2, r7
 800286a:	4580      	cmp	r8, r0
 800286c:	dd5c      	ble.n	8002928 <main+0x6ac>
						temp = (float32_t)(voff1 + CH1_ResampledVals[waveIdxStartStm+j])/vscaleVals[vscale1];
 800286e:	4b49      	ldr	r3, [pc, #292]	; (8002994 <main+0x718>)
 8002870:	5c19      	ldrb	r1, [r3, r0]
 8002872:	4b49      	ldr	r3, [pc, #292]	; (8002998 <main+0x71c>)
 8002874:	f9b3 3000 	ldrsh.w	r3, [r3]
 8002878:	440b      	add	r3, r1
 800287a:	ee07 3a90 	vmov	s15, r3
 800287e:	eeb8 7ae7 	vcvt.f32.s32	s14, s15
 8002882:	4b46      	ldr	r3, [pc, #280]	; (800299c <main+0x720>)
 8002884:	7819      	ldrb	r1, [r3, #0]
 8002886:	4b46      	ldr	r3, [pc, #280]	; (80029a0 <main+0x724>)
 8002888:	eb03 0381 	add.w	r3, r3, r1, lsl #2
 800288c:	edd3 6a00 	vldr	s13, [r3]
 8002890:	eec7 7a26 	vdiv.f32	s15, s14, s13
 8002894:	eefd 7ae7 	vcvt.s32.f32	s15, s15
 8002898:	ee17 3a90 	vmov	r3, s15
						if(chDispMode == CHDISPMODE_SPLIT){
 800289c:	4941      	ldr	r1, [pc, #260]	; (80029a4 <main+0x728>)
 800289e:	7809      	ldrb	r1, [r1, #0]
 80028a0:	2900      	cmp	r1, #0
 80028a2:	d1bd      	bne.n	8002820 <main+0x5a4>
							if(temp > CHDISPMODE_SPLIT_SIGMAX)	temp = CHDISPMODE_SPLIT_SIGMAX;
 80028a4:	2b77      	cmp	r3, #119	; 0x77
 80028a6:	dcbf      	bgt.n	8002828 <main+0x5ac>
						if(temp < 0)  temp = 0;
 80028a8:	2b00      	cmp	r3, #0
 80028aa:	dbbf      	blt.n	800282c <main+0x5b0>
						if(chDispMode == CHDISPMODE_SPLIT)
 80028ac:	2900      	cmp	r1, #0
 80028ae:	d1bf      	bne.n	8002830 <main+0x5b4>
							i = CHDISPMODE_SPLIT_CH1BOT - temp;
 80028b0:	f1c3 0386 	rsb	r3, r3, #134	; 0x86
						if(dispIdxStartStm+j < LCD_WIDTH)
 80028b4:	eb02 010b 	add.w	r1, r2, fp
 80028b8:	f5b1 7ff0 	cmp.w	r1, #480	; 0x1e0
 80028bc:	da09      	bge.n	80028d2 <main+0x656>
							pFrame[i][dispIdxStartStm+j] = CH1_COLOR;
 80028be:	ebc3 1303 	rsb	r3, r3, r3, lsl #4
 80028c2:	ea4f 1e83 	mov.w	lr, r3, lsl #6
 80028c6:	f1ae 5e7f 	sub.w	lr, lr, #1069547520	; 0x3fc00000
 80028ca:	f44f 63fc 	mov.w	r3, #2016	; 0x7e0
 80028ce:	f82e 3011 	strh.w	r3, [lr, r1, lsl #1]
						if(chDispMode != CHDISPMODE_SNGL){
 80028d2:	4b34      	ldr	r3, [pc, #208]	; (80029a4 <main+0x728>)
 80028d4:	f893 e000 	ldrb.w	lr, [r3]
 80028d8:	f1be 0f02 	cmp.w	lr, #2
 80028dc:	d0c0      	beq.n	8002860 <main+0x5e4>
							temp = (float32_t)(voff2 + CH2_ResampledVals[waveIdxStartStm+j])/vscaleVals[vscale2];
 80028de:	4b32      	ldr	r3, [pc, #200]	; (80029a8 <main+0x72c>)
 80028e0:	5c18      	ldrb	r0, [r3, r0]
 80028e2:	4b32      	ldr	r3, [pc, #200]	; (80029ac <main+0x730>)
 80028e4:	f9b3 3000 	ldrsh.w	r3, [r3]
 80028e8:	4403      	add	r3, r0
 80028ea:	ee07 3a90 	vmov	s15, r3
 80028ee:	eeb8 7ae7 	vcvt.f32.s32	s14, s15
 80028f2:	4b2f      	ldr	r3, [pc, #188]	; (80029b0 <main+0x734>)
 80028f4:	7818      	ldrb	r0, [r3, #0]
 80028f6:	4b2a      	ldr	r3, [pc, #168]	; (80029a0 <main+0x724>)
 80028f8:	eb03 0380 	add.w	r3, r3, r0, lsl #2
 80028fc:	edd3 6a00 	vldr	s13, [r3]
 8002900:	eec7 7a26 	vdiv.f32	s15, s14, s13
 8002904:	eefd 7ae7 	vcvt.s32.f32	s15, s15
 8002908:	ee17 3a90 	vmov	r3, s15
							if(chDispMode == CHDISPMODE_SPLIT){
 800290c:	f1be 0f00 	cmp.w	lr, #0
 8002910:	d191      	bne.n	8002836 <main+0x5ba>
								if(temp > CHDISPMODE_SPLIT_SIGMAX)	temp = CHDISPMODE_SPLIT_SIGMAX;
 8002912:	2b77      	cmp	r3, #119	; 0x77
 8002914:	dd91      	ble.n	800283a <main+0x5be>
 8002916:	2377      	movs	r3, #119	; 0x77
 8002918:	e78f      	b.n	800283a <main+0x5be>
								if(temp > CHDISPMODE_MERGE_SIGMAX)	temp = CHDISPMODE_MERGE_SIGMAX;
 800291a:	23ef      	movs	r3, #239	; 0xef
 800291c:	e78d      	b.n	800283a <main+0x5be>
							if(temp < 0)  temp = 0;
 800291e:	2300      	movs	r3, #0
 8002920:	e78d      	b.n	800283e <main+0x5c2>
								i = CHDISPMODE_MERGE_CHBOT - temp;
 8002922:	f1c3 03fe 	rsb	r3, r3, #254	; 0xfe
 8002926:	e78f      	b.n	8002848 <main+0x5cc>
					vscale1Changed = vscale2Changed = voff1Changed = voff2Changed = toffChanged = 0;
 8002928:	2300      	movs	r3, #0
 800292a:	4a22      	ldr	r2, [pc, #136]	; (80029b4 <main+0x738>)
 800292c:	7013      	strb	r3, [r2, #0]
 800292e:	4a22      	ldr	r2, [pc, #136]	; (80029b8 <main+0x73c>)
 8002930:	7013      	strb	r3, [r2, #0]
 8002932:	4a22      	ldr	r2, [pc, #136]	; (80029bc <main+0x740>)
 8002934:	7013      	strb	r3, [r2, #0]
 8002936:	4a22      	ldr	r2, [pc, #136]	; (80029c0 <main+0x744>)
 8002938:	7013      	strb	r3, [r2, #0]
 800293a:	4a22      	ldr	r2, [pc, #136]	; (80029c4 <main+0x748>)
 800293c:	7013      	strb	r3, [r2, #0]
 800293e:	e60e      	b.n	800255e <main+0x2e2>
			if(TS_DetectNumTouches() > 0){
 8002940:	f000 fc68 	bl	8003214 <TS_DetectNumTouches>
 8002944:	b198      	cbz	r0, 800296e <main+0x6f2>
				TS_GetXY(&TS_Y, &TS_X);		/* X & Y coords are swapped and passed, since TS physical orientation is reverse */
 8002946:	4f20      	ldr	r7, [pc, #128]	; (80029c8 <main+0x74c>)
 8002948:	f8df b08c 	ldr.w	fp, [pc, #140]	; 80029d8 <main+0x75c>
 800294c:	4639      	mov	r1, r7
 800294e:	4658      	mov	r0, fp
 8002950:	f000 fc68 	bl	8003224 <TS_GetXY>
				UG_TouchUpdate(TS_X, TS_Y, TOUCH_STATE_PRESSED);
 8002954:	2201      	movs	r2, #1
 8002956:	f9bb 1000 	ldrsh.w	r1, [fp]
 800295a:	f9b7 0000 	ldrsh.w	r0, [r7]
 800295e:	f002 fa07 	bl	8004d70 <UG_TouchUpdate>
			switchNextWindow();
 8002962:	f004 f8c9 	bl	8006af8 <switchNextWindow>
			TS_read_pending = 0;
 8002966:	2200      	movs	r2, #0
 8002968:	4b18      	ldr	r3, [pc, #96]	; (80029cc <main+0x750>)
 800296a:	701a      	strb	r2, [r3, #0]
 800296c:	e5fc      	b.n	8002568 <main+0x2ec>
				UG_TouchUpdate(-1, -1, TOUCH_STATE_RELEASED);
 800296e:	2200      	movs	r2, #0
 8002970:	f04f 31ff 	mov.w	r1, #4294967295
 8002974:	4608      	mov	r0, r1
 8002976:	f002 f9fb 	bl	8004d70 <UG_TouchUpdate>
 800297a:	e7f2      	b.n	8002962 <main+0x6e6>
			DisplayMeasurements();
 800297c:	f004 f91c 	bl	8006bb8 <DisplayMeasurements>
			measPending = 0;
 8002980:	2200      	movs	r2, #0
 8002982:	4b13      	ldr	r3, [pc, #76]	; (80029d0 <main+0x754>)
 8002984:	701a      	strb	r2, [r3, #0]
 8002986:	e5f4      	b.n	8002572 <main+0x2f6>
			switchNextField();				/* Switch to the next field in the menubars */
 8002988:	f004 fb76 	bl	8007078 <switchNextField>
			QE_PB_interrupt = 0;
 800298c:	2200      	movs	r2, #0
 800298e:	4b11      	ldr	r3, [pc, #68]	; (80029d4 <main+0x758>)
 8002990:	701a      	strb	r2, [r3, #0]
 8002992:	e5f3      	b.n	800257c <main+0x300>
 8002994:	20001e94 	.word	0x20001e94
 8002998:	200000c4 	.word	0x200000c4
 800299c:	2000000a 	.word	0x2000000a
 80029a0:	0800c008 	.word	0x0800c008
 80029a4:	200000bc 	.word	0x200000bc
 80029a8:	20000bd4 	.word	0x20000bd4
 80029ac:	200000c8 	.word	0x200000c8
 80029b0:	2000000b 	.word	0x2000000b
 80029b4:	200000c0 	.word	0x200000c0
 80029b8:	200000ca 	.word	0x200000ca
 80029bc:	200000c6 	.word	0x200000c6
 80029c0:	200000cc 	.word	0x200000cc
 80029c4:	200000cb 	.word	0x200000cb
 80029c8:	20000bce 	.word	0x20000bce
 80029cc:	200000fc 	.word	0x200000fc
 80029d0:	200000bd 	.word	0x200000bd
 80029d4:	200000b4 	.word	0x200000b4
 80029d8:	20000bd0 	.word	0x20000bd0

080029dc <Get_tick>:
  * @param  None
  * @retval tick value
  */
__INLINE uint32_t Get_tick(void)
{
	return (uint32_t)Tick_1ms;
 80029dc:	4b01      	ldr	r3, [pc, #4]	; (80029e4 <Get_tick+0x8>)
 80029de:	6818      	ldr	r0, [r3, #0]
}
 80029e0:	4770      	bx	lr
 80029e2:	bf00      	nop
 80029e4:	200000b8 	.word	0x200000b8

080029e8 <czt>:
* @param  N: no. of elements in x
* @param  M: no. of output transform points. Should be such that N+M-1 is a power of 2.
* @retval None
*/
static void czt(uint8_t x[], float32_t oup[], float32_t f1, float32_t f2, uint32_t N, uint32_t M)
{
 80029e8:	e92d 4ff0 	stmdb	sp!, {r4, r5, r6, r7, r8, r9, sl, fp, lr}
 80029ec:	ed2d 8b04 	vpush	{d8-d9}
 80029f0:	b083      	sub	sp, #12
 80029f2:	af00      	add	r7, sp, #0
 80029f4:	4681      	mov	r9, r0
 80029f6:	6079      	str	r1, [r7, #4]
 80029f8:	4692      	mov	sl, r2
 80029fa:	4698      	mov	r8, r3
	uint32_t L, i;
	float32_t theta0;			/* A = exp(j*theta0) */
	float32_t c1, s1, c2, s2;

	L = N + M - 1;
 80029fc:	eb02 0b03 	add.w	fp, r2, r3
 8002a00:	f10b 3bff 	add.w	fp, fp, #4294967295
	theta0 = 2.0f*PI*f1;
 8002a04:	ed9f 9a6d 	vldr	s18, [pc, #436]	; 8002bbc <czt+0x1d4>
 8002a08:	ee20 9a09 	vmul.f32	s18, s0, s18

	float32_t yY[2*L], vV[2*L];
 8002a0c:	ea4f 03cb 	mov.w	r3, fp, lsl #3
 8002a10:	3308      	adds	r3, #8
 8002a12:	ebad 0d03 	sub.w	sp, sp, r3
 8002a16:	466e      	mov	r6, sp
 8002a18:	ebad 0d03 	sub.w	sp, sp, r3
 8002a1c:	466d      	mov	r5, sp

	/* yn = A^-n * W^(n^2/2) * xn */
	for(i = 0; i < N; i++){
 8002a1e:	2400      	movs	r4, #0
 8002a20:	e03d      	b.n	8002a9e <czt+0xb6>
		c1 = arm_cos_f32(-(float32_t)i*theta0);
 8002a22:	ee07 4a90 	vmov	s15, r4
 8002a26:	eef8 8a67 	vcvt.f32.u32	s17, s15
 8002a2a:	ee68 8ac9 	vnmul.f32	s17, s17, s18
 8002a2e:	eeb0 0a68 	vmov.f32	s0, s17
 8002a32:	f007 f99d 	bl	8009d70 <arm_cos_f32>
 8002a36:	eeb0 8a40 	vmov.f32	s16, s0
		s1 = arm_sin_f32(-(float32_t)i*theta0);
 8002a3a:	eeb0 0a68 	vmov.f32	s0, s17
 8002a3e:	f007 f951 	bl	8009ce4 <arm_sin_f32>
		c2 = chrp[2*i];
 8002a42:	0063      	lsls	r3, r4, #1
 8002a44:	495e      	ldr	r1, [pc, #376]	; (8002bc0 <czt+0x1d8>)
 8002a46:	00e2      	lsls	r2, r4, #3
 8002a48:	1888      	adds	r0, r1, r2
 8002a4a:	edd0 6a00 	vldr	s13, [r0]
		s2 = chrp[2*i+1];
 8002a4e:	3301      	adds	r3, #1
 8002a50:	009b      	lsls	r3, r3, #2
 8002a52:	4419      	add	r1, r3
 8002a54:	ed91 6a00 	vldr	s12, [r1]
		yY[2*i] = (c1*c2 - s1*s2) * (float32_t)x[i];		/* real */
 8002a58:	ee68 7a26 	vmul.f32	s15, s16, s13
 8002a5c:	ee20 7a06 	vmul.f32	s14, s0, s12
 8002a60:	ee37 7ac7 	vsub.f32	s14, s15, s14
 8002a64:	f819 1004 	ldrb.w	r1, [r9, r4]
 8002a68:	ee07 1a90 	vmov	s15, r1
 8002a6c:	eef8 7a67 	vcvt.f32.u32	s15, s15
 8002a70:	ee67 7a27 	vmul.f32	s15, s14, s15
 8002a74:	4432      	add	r2, r6
 8002a76:	edc2 7a00 	vstr	s15, [r2]
		yY[2*i+1] = (c1*s2 + c2*s1) * (float32_t)x[i];		/* imaginary */
 8002a7a:	ee28 8a06 	vmul.f32	s16, s16, s12
 8002a7e:	ee20 0a26 	vmul.f32	s0, s0, s13
 8002a82:	ee38 0a00 	vadd.f32	s0, s16, s0
 8002a86:	f819 2004 	ldrb.w	r2, [r9, r4]
 8002a8a:	ee08 2a10 	vmov	s16, r2
 8002a8e:	eeb8 8a48 	vcvt.f32.u32	s16, s16
 8002a92:	ee20 8a08 	vmul.f32	s16, s0, s16
 8002a96:	4433      	add	r3, r6
 8002a98:	ed83 8a00 	vstr	s16, [r3]
	for(i = 0; i < N; i++){
 8002a9c:	3401      	adds	r4, #1
 8002a9e:	4554      	cmp	r4, sl
 8002aa0:	d3bf      	bcc.n	8002a22 <czt+0x3a>
 8002aa2:	e00b      	b.n	8002abc <czt+0xd4>
	}
	for(i = N; i < L; i++){
		yY[2*i] = 0;
 8002aa4:	ea4f 034a 	mov.w	r3, sl, lsl #1
 8002aa8:	eb06 01ca 	add.w	r1, r6, sl, lsl #3
 8002aac:	2200      	movs	r2, #0
 8002aae:	600a      	str	r2, [r1, #0]
		yY[2*i+1] = 0;
 8002ab0:	3301      	adds	r3, #1
 8002ab2:	eb06 0383 	add.w	r3, r6, r3, lsl #2
 8002ab6:	601a      	str	r2, [r3, #0]
	for(i = N; i < L; i++){
 8002ab8:	f10a 0a01 	add.w	sl, sl, #1
 8002abc:	45da      	cmp	sl, fp
 8002abe:	d3f1      	bcc.n	8002aa4 <czt+0xbc>
	}

	/* FFT(yY) */
	arm_cfft_f32(&S_cfft_1024, yY, 0, 1);
 8002ac0:	2301      	movs	r3, #1
 8002ac2:	2200      	movs	r2, #0
 8002ac4:	4631      	mov	r1, r6
 8002ac6:	483f      	ldr	r0, [pc, #252]	; (8002bc4 <czt+0x1dc>)
 8002ac8:	f006 faf2 	bl	80090b0 <arm_cfft_f32>

	/* vn = W^(-n^2/2) for 0<=n<=M-1 */
	for(i = 0; i < M; i++){
 8002acc:	2200      	movs	r2, #0
 8002ace:	e011      	b.n	8002af4 <czt+0x10c>
		vV[2*i] = chrp[2*i];
 8002ad0:	0053      	lsls	r3, r2, #1
 8002ad2:	493b      	ldr	r1, [pc, #236]	; (8002bc0 <czt+0x1d8>)
 8002ad4:	00d0      	lsls	r0, r2, #3
 8002ad6:	180c      	adds	r4, r1, r0
 8002ad8:	6824      	ldr	r4, [r4, #0]
 8002ada:	4428      	add	r0, r5
 8002adc:	6004      	str	r4, [r0, #0]
		vV[2*i+1] = -chrp[2*i+1];
 8002ade:	3301      	adds	r3, #1
 8002ae0:	009b      	lsls	r3, r3, #2
 8002ae2:	4419      	add	r1, r3
 8002ae4:	edd1 7a00 	vldr	s15, [r1]
 8002ae8:	eef1 7a67 	vneg.f32	s15, s15
 8002aec:	442b      	add	r3, r5
 8002aee:	edc3 7a00 	vstr	s15, [r3]
	for(i = 0; i < M; i++){
 8002af2:	3201      	adds	r2, #1
 8002af4:	4542      	cmp	r2, r8
 8002af6:	d3eb      	bcc.n	8002ad0 <czt+0xe8>
 8002af8:	4643      	mov	r3, r8
 8002afa:	e012      	b.n	8002b22 <czt+0x13a>
	}
	/* vn = W^(-(L-n)^2/2) for M<=n<=L-1 */
	for(i = M; i < L; i++){
		vV[2*i] = vV[2*(L-i)];		/* exploit symmetry to reuse values from 0 to M-1 */
 8002afc:	005a      	lsls	r2, r3, #1
 8002afe:	ebab 0003 	sub.w	r0, fp, r3
 8002b02:	0041      	lsls	r1, r0, #1
 8002b04:	eb05 00c0 	add.w	r0, r5, r0, lsl #3
 8002b08:	6804      	ldr	r4, [r0, #0]
 8002b0a:	eb05 00c3 	add.w	r0, r5, r3, lsl #3
 8002b0e:	6004      	str	r4, [r0, #0]
		vV[2*i+1] = vV[2*(L-i)+1];
 8002b10:	3201      	adds	r2, #1
 8002b12:	3101      	adds	r1, #1
 8002b14:	eb05 0181 	add.w	r1, r5, r1, lsl #2
 8002b18:	6809      	ldr	r1, [r1, #0]
 8002b1a:	eb05 0282 	add.w	r2, r5, r2, lsl #2
 8002b1e:	6011      	str	r1, [r2, #0]
	for(i = M; i < L; i++){
 8002b20:	3301      	adds	r3, #1
 8002b22:	455b      	cmp	r3, fp
 8002b24:	d3ea      	bcc.n	8002afc <czt+0x114>
	}

	/* FFT(vV) */
	arm_cfft_f32(&S_cfft_1024, vV, 0, 1);
 8002b26:	4c27      	ldr	r4, [pc, #156]	; (8002bc4 <czt+0x1dc>)
 8002b28:	2301      	movs	r3, #1
 8002b2a:	2200      	movs	r2, #0
 8002b2c:	4629      	mov	r1, r5
 8002b2e:	4620      	mov	r0, r4
 8002b30:	f006 fabe 	bl	80090b0 <arm_cfft_f32>

	/* FFT(yY)*FFT(vV) */
	arm_cmplx_mult_cmplx_f32(yY, vV, yY, L);
 8002b34:	465b      	mov	r3, fp
 8002b36:	4632      	mov	r2, r6
 8002b38:	4629      	mov	r1, r5
 8002b3a:	4630      	mov	r0, r6
 8002b3c:	f006 ff98 	bl	8009a70 <arm_cmplx_mult_cmplx_f32>

	/* gn = IFFT[FFT(yY)*FFT(vV)] */
	arm_cfft_f32(&S_cfft_1024, yY, 1, 1);
 8002b40:	2301      	movs	r3, #1
 8002b42:	461a      	mov	r2, r3
 8002b44:	4631      	mov	r1, r6
 8002b46:	4620      	mov	r0, r4
 8002b48:	f006 fab2 	bl	80090b0 <arm_cfft_f32>

	/* oup[n] = W^(n^2/2)*gn */
	for(i = 0; i < M; i++){
 8002b4c:	2100      	movs	r1, #0
 8002b4e:	e027      	b.n	8002ba0 <czt+0x1b8>
		c1 = chrp[2*i];
 8002b50:	004b      	lsls	r3, r1, #1
 8002b52:	481b      	ldr	r0, [pc, #108]	; (8002bc0 <czt+0x1d8>)
 8002b54:	00ca      	lsls	r2, r1, #3
 8002b56:	1884      	adds	r4, r0, r2
 8002b58:	edd4 7a00 	vldr	s15, [r4]
		s1 = chrp[2*i+1];
 8002b5c:	3301      	adds	r3, #1
 8002b5e:	009b      	lsls	r3, r3, #2
 8002b60:	4418      	add	r0, r3
 8002b62:	edd0 6a00 	vldr	s13, [r0]
		vV[2*i] = c1*yY[2*i] - s1*yY[2*i+1];
 8002b66:	18b0      	adds	r0, r6, r2
 8002b68:	ed90 7a00 	vldr	s14, [r0]
 8002b6c:	ee27 7a87 	vmul.f32	s14, s15, s14
 8002b70:	18f4      	adds	r4, r6, r3
 8002b72:	ed94 6a00 	vldr	s12, [r4]
 8002b76:	ee26 6a86 	vmul.f32	s12, s13, s12
 8002b7a:	ee37 7a46 	vsub.f32	s14, s14, s12
 8002b7e:	442a      	add	r2, r5
 8002b80:	ed82 7a00 	vstr	s14, [r2]
		vV[2*i+1] = c1*yY[2*i+1] + s1*yY[2*i];
 8002b84:	ed94 7a00 	vldr	s14, [r4]
 8002b88:	ee67 7a87 	vmul.f32	s15, s15, s14
 8002b8c:	ed90 7a00 	vldr	s14, [r0]
 8002b90:	ee66 6a87 	vmul.f32	s13, s13, s14
 8002b94:	ee77 7aa6 	vadd.f32	s15, s15, s13
 8002b98:	442b      	add	r3, r5
 8002b9a:	edc3 7a00 	vstr	s15, [r3]
	for(i = 0; i < M; i++){
 8002b9e:	3101      	adds	r1, #1
 8002ba0:	4541      	cmp	r1, r8
 8002ba2:	d3d5      	bcc.n	8002b50 <czt+0x168>
	}

	arm_cmplx_mag_squared_f32(vV, oup, M);
 8002ba4:	4642      	mov	r2, r8
 8002ba6:	6879      	ldr	r1, [r7, #4]
 8002ba8:	4628      	mov	r0, r5
 8002baa:	f007 f82b 	bl	8009c04 <arm_cmplx_mag_squared_f32>

	return;
}
 8002bae:	370c      	adds	r7, #12
 8002bb0:	46bd      	mov	sp, r7
 8002bb2:	ecbd 8b04 	vpop	{d8-d9}
 8002bb6:	e8bd 8ff0 	ldmia.w	sp!, {r4, r5, r6, r7, r8, r9, sl, fp, pc}
 8002bba:	bf00      	nop
 8002bbc:	40c90fdb 	.word	0x40c90fdb
 8002bc0:	0800c028 	.word	0x0800c028
 8002bc4:	200000d0 	.word	0x200000d0

08002bc8 <measure_init>:
{
 8002bc8:	b508      	push	{r3, lr}
	arm_rfft_fast_init_f32(&S_rfft_512, 512);
 8002bca:	f44f 7100 	mov.w	r1, #512	; 0x200
 8002bce:	4804      	ldr	r0, [pc, #16]	; (8002be0 <measure_init+0x18>)
 8002bd0:	f005 fe38 	bl	8008844 <arm_rfft_fast_init_f32>
	arm_cfft_init_f32(&S_cfft_1024, 1024);
 8002bd4:	f44f 6180 	mov.w	r1, #1024	; 0x400
 8002bd8:	4802      	ldr	r0, [pc, #8]	; (8002be4 <measure_init+0x1c>)
 8002bda:	f005 fd4b 	bl	8008674 <arm_cfft_init_f32>
 8002bde:	bd08      	pop	{r3, pc}
 8002be0:	200000e0 	.word	0x200000e0
 8002be4:	200000d0 	.word	0x200000d0

08002be8 <calcFreq>:
{
 8002be8:	b510      	push	{r4, lr}
 8002bea:	ed2d 8b02 	vpush	{d8}
 8002bee:	f5ad 5d93 	sub.w	sp, sp, #4704	; 0x1260
 8002bf2:	b084      	sub	sp, #16
	for(i = 0; i < ADC_TRIGBUF_SIZE; i++)
 8002bf4:	2200      	movs	r2, #0
 8002bf6:	e00e      	b.n	8002c16 <calcFreq+0x2e>
		inp[i] = xcpy[i] = x[i];		/* backup x into xcpy, since x may get modified with new ADC values */
 8002bf8:	5c83      	ldrb	r3, [r0, r2]
 8002bfa:	b2db      	uxtb	r3, r3
 8002bfc:	a903      	add	r1, sp, #12
 8002bfe:	548b      	strb	r3, [r1, r2]
 8002c00:	f50d 6127 	add.w	r1, sp, #2672	; 0xa70
 8002c04:	eb01 0182 	add.w	r1, r1, r2, lsl #2
 8002c08:	ee07 3a90 	vmov	s15, r3
 8002c0c:	eef8 7a67 	vcvt.f32.u32	s15, s15
 8002c10:	edc1 7a00 	vstr	s15, [r1]
	for(i = 0; i < ADC_TRIGBUF_SIZE; i++)
 8002c14:	3201      	adds	r2, #1
 8002c16:	f5b2 7ff0 	cmp.w	r2, #480	; 0x1e0
 8002c1a:	d3ed      	bcc.n	8002bf8 <calcFreq+0x10>
 8002c1c:	f44f 73f0 	mov.w	r3, #480	; 0x1e0
 8002c20:	e006      	b.n	8002c30 <calcFreq+0x48>
		inp[i] = 0;
 8002c22:	f50d 6227 	add.w	r2, sp, #2672	; 0xa70
 8002c26:	eb02 0283 	add.w	r2, r2, r3, lsl #2
 8002c2a:	2100      	movs	r1, #0
 8002c2c:	6011      	str	r1, [r2, #0]
	for(i = ADC_TRIGBUF_SIZE; i < 512; i++)
 8002c2e:	3301      	adds	r3, #1
 8002c30:	f5b3 7f00 	cmp.w	r3, #512	; 0x200
 8002c34:	d3f5      	bcc.n	8002c22 <calcFreq+0x3a>
	arm_rfft_fast_f32(&S_rfft_512, inp, oup, 0);
 8002c36:	f50d 6427 	add.w	r4, sp, #2672	; 0xa70
 8002c3a:	2300      	movs	r3, #0
 8002c3c:	aa7b      	add	r2, sp, #492	; 0x1ec
 8002c3e:	4621      	mov	r1, r4
 8002c40:	4852      	ldr	r0, [pc, #328]	; (8002d8c <calcFreq+0x1a4>)
 8002c42:	f005 feed 	bl	8008a20 <arm_rfft_fast_f32>
	arm_cmplx_mag_squared_f32(oup, inp, 256);	/* reuse inp array */
 8002c46:	f44f 7280 	mov.w	r2, #256	; 0x100
 8002c4a:	4621      	mov	r1, r4
 8002c4c:	a87b      	add	r0, sp, #492	; 0x1ec
 8002c4e:	f006 ffd9 	bl	8009c04 <arm_cmplx_mag_squared_f32>
	inp[0] = 0;
 8002c52:	2300      	movs	r3, #0
 8002c54:	6023      	str	r3, [r4, #0]
	arm_max_f32(inp, 256, &maxmag, &maxidx);
 8002c56:	ab01      	add	r3, sp, #4
 8002c58:	aa02      	add	r2, sp, #8
 8002c5a:	f44f 7180 	mov.w	r1, #256	; 0x100
 8002c5e:	4620      	mov	r0, r4
 8002c60:	f005 fc9e 	bl	80085a0 <arm_max_f32>
	if(maxmag == 0){
 8002c64:	eddd 7a02 	vldr	s15, [sp, #8]
 8002c68:	eef5 7a40 	vcmp.f32	s15, #0.0
 8002c6c:	eef1 fa10 	vmrs	APSR_nzcv, fpscr
 8002c70:	f000 8088 	beq.w	8002d84 <calcFreq+0x19c>
		if(maxidx == 255){
 8002c74:	4b46      	ldr	r3, [pc, #280]	; (8002d90 <calcFreq+0x1a8>)
 8002c76:	f241 2270 	movw	r2, #4720	; 0x1270
 8002c7a:	446a      	add	r2, sp
 8002c7c:	58d2      	ldr	r2, [r2, r3]
 8002c7e:	2aff      	cmp	r2, #255	; 0xff
 8002c80:	d03f      	beq.n	8002d02 <calcFreq+0x11a>
		else if(maxidx == 0){
 8002c82:	2a00      	cmp	r2, #0
 8002c84:	d14d      	bne.n	8002d22 <calcFreq+0x13a>
			f1 = (float32_t)maxidx/512.0;
 8002c86:	ee07 2a90 	vmov	s15, r2
 8002c8a:	eeb8 8a67 	vcvt.f32.u32	s16, s15
 8002c8e:	eddf 7a41 	vldr	s15, [pc, #260]	; 8002d94 <calcFreq+0x1ac>
 8002c92:	ee28 8a27 	vmul.f32	s16, s16, s15
			f2 = (float32_t)(maxidx + 1)/512.0;
 8002c96:	1c53      	adds	r3, r2, #1
 8002c98:	ee08 3a90 	vmov	s17, r3
 8002c9c:	eef8 8a68 	vcvt.f32.u32	s17, s17
 8002ca0:	ee68 8aa7 	vmul.f32	s17, s17, s15
		czt(xcpy, oup, f1, f2, ADC_TRIGBUF_SIZE, 545);
 8002ca4:	f240 2321 	movw	r3, #545	; 0x221
 8002ca8:	f44f 72f0 	mov.w	r2, #480	; 0x1e0
 8002cac:	eef0 0a68 	vmov.f32	s1, s17
 8002cb0:	eeb0 0a48 	vmov.f32	s0, s16
 8002cb4:	a97b      	add	r1, sp, #492	; 0x1ec
 8002cb6:	a803      	add	r0, sp, #12
 8002cb8:	f7ff fe96 	bl	80029e8 <czt>
		arm_max_f32(oup, 545, &maxmag, &maxidx);
 8002cbc:	4c34      	ldr	r4, [pc, #208]	; (8002d90 <calcFreq+0x1a8>)
 8002cbe:	f241 2370 	movw	r3, #4720	; 0x1270
 8002cc2:	446b      	add	r3, sp
 8002cc4:	4423      	add	r3, r4
 8002cc6:	aa02      	add	r2, sp, #8
 8002cc8:	f240 2121 	movw	r1, #545	; 0x221
 8002ccc:	a87b      	add	r0, sp, #492	; 0x1ec
 8002cce:	f005 fc67 	bl	80085a0 <arm_max_f32>
		return f1 + maxidx*(f2 - f1)/545.0f;
 8002cd2:	ee78 8ac8 	vsub.f32	s17, s17, s16
 8002cd6:	f241 2370 	movw	r3, #4720	; 0x1270
 8002cda:	446b      	add	r3, sp
 8002cdc:	591b      	ldr	r3, [r3, r4]
 8002cde:	ee07 3a90 	vmov	s15, r3
 8002ce2:	eef8 7a67 	vcvt.f32.u32	s15, s15
 8002ce6:	ee67 8aa8 	vmul.f32	s17, s15, s17
 8002cea:	eddf 7a2b 	vldr	s15, [pc, #172]	; 8002d98 <calcFreq+0x1b0>
 8002cee:	ee88 0aa7 	vdiv.f32	s0, s17, s15
 8002cf2:	ee38 0a00 	vadd.f32	s0, s16, s0
}
 8002cf6:	f50d 5d93 	add.w	sp, sp, #4704	; 0x1260
 8002cfa:	b004      	add	sp, #16
 8002cfc:	ecbd 8b02 	vpop	{d8}
 8002d00:	bd10      	pop	{r4, pc}
			f1 = (float32_t)(maxidx - 1)/512.0;
 8002d02:	1e53      	subs	r3, r2, #1
 8002d04:	ee08 3a10 	vmov	s16, r3
 8002d08:	eeb8 8a48 	vcvt.f32.u32	s16, s16
 8002d0c:	eddf 8a21 	vldr	s17, [pc, #132]	; 8002d94 <calcFreq+0x1ac>
 8002d10:	ee28 8a28 	vmul.f32	s16, s16, s17
			f2 = (float32_t)maxidx/512.0;
 8002d14:	ee07 2a90 	vmov	s15, r2
 8002d18:	eef8 7a67 	vcvt.f32.u32	s15, s15
 8002d1c:	ee67 8aa8 	vmul.f32	s17, s15, s17
 8002d20:	e7c0      	b.n	8002ca4 <calcFreq+0xbc>
		else if(inp[maxidx-1] > inp[maxidx+1]){
 8002d22:	1e50      	subs	r0, r2, #1
 8002d24:	f50d 6327 	add.w	r3, sp, #2672	; 0xa70
 8002d28:	eb03 0380 	add.w	r3, r3, r0, lsl #2
 8002d2c:	ed93 7a00 	vldr	s14, [r3]
 8002d30:	1c53      	adds	r3, r2, #1
 8002d32:	f50d 6127 	add.w	r1, sp, #2672	; 0xa70
 8002d36:	eb01 0183 	add.w	r1, r1, r3, lsl #2
 8002d3a:	edd1 7a00 	vldr	s15, [r1]
 8002d3e:	eeb4 7ae7 	vcmpe.f32	s14, s15
 8002d42:	eef1 fa10 	vmrs	APSR_nzcv, fpscr
 8002d46:	dd0e      	ble.n	8002d66 <calcFreq+0x17e>
			f1 = (float32_t)(maxidx - 1)/512.0;
 8002d48:	ee07 0a90 	vmov	s15, r0
 8002d4c:	eeb8 8a67 	vcvt.f32.u32	s16, s15
 8002d50:	eddf 8a10 	vldr	s17, [pc, #64]	; 8002d94 <calcFreq+0x1ac>
 8002d54:	ee28 8a28 	vmul.f32	s16, s16, s17
			f2 = (float32_t)maxidx/512.0;
 8002d58:	ee07 2a90 	vmov	s15, r2
 8002d5c:	eef8 7a67 	vcvt.f32.u32	s15, s15
 8002d60:	ee67 8aa8 	vmul.f32	s17, s15, s17
 8002d64:	e79e      	b.n	8002ca4 <calcFreq+0xbc>
			f1 = (float32_t)maxidx/512.0;
 8002d66:	ee07 2a90 	vmov	s15, r2
 8002d6a:	eeb8 8a67 	vcvt.f32.u32	s16, s15
 8002d6e:	eddf 7a09 	vldr	s15, [pc, #36]	; 8002d94 <calcFreq+0x1ac>
 8002d72:	ee28 8a27 	vmul.f32	s16, s16, s15
			f2 = (float32_t)(maxidx + 1)/512.0;
 8002d76:	ee07 3a10 	vmov	s14, r3
 8002d7a:	eef8 8a47 	vcvt.f32.u32	s17, s14
 8002d7e:	ee68 8aa7 	vmul.f32	s17, s17, s15
 8002d82:	e78f      	b.n	8002ca4 <calcFreq+0xbc>
		return 0;
 8002d84:	ed9f 0a05 	vldr	s0, [pc, #20]	; 8002d9c <calcFreq+0x1b4>
 8002d88:	e7b5      	b.n	8002cf6 <calcFreq+0x10e>
 8002d8a:	bf00      	nop
 8002d8c:	200000e0 	.word	0x200000e0
 8002d90:	ffffed94 	.word	0xffffed94
 8002d94:	3b000000 	.word	0x3b000000
 8002d98:	44084000 	.word	0x44084000
 8002d9c:	00000000 	.word	0x00000000

08002da0 <calcDuty>:
{
 8002da0:	b510      	push	{r4, lr}
 8002da2:	b082      	sub	sp, #8
 8002da4:	4604      	mov	r4, r0
	f = calcFreq(x);
 8002da6:	f7ff ff1f 	bl	8002be8 <calcFreq>
	temp = ceil(1/f);						/* number of sample points in one cycle of the waveform */
 8002daa:	eef7 7a00 	vmov.f32	s15, #112	; 0x3f800000  1.0
 8002dae:	ee87 7a80 	vdiv.f32	s14, s15, s0
 8002db2:	ee17 0a10 	vmov	r0, s14
 8002db6:	f7fd fb93 	bl	80004e0 <__aeabi_f2d>
 8002dba:	ec41 0b10 	vmov	d0, r0, r1
 8002dbe:	f008 febf 	bl	800bb40 <ceil>
 8002dc2:	ec51 0b10 	vmov	r0, r1, d0
 8002dc6:	f7fd fec1 	bl	8000b4c <__aeabi_d2f>
 8002dca:	ee07 0a10 	vmov	s14, r0
	cnt = (float32_t)ADC_TRIGBUF_SIZE/temp;		/* number of integral cycles in the input frame */
 8002dce:	eddf 6a2a 	vldr	s13, [pc, #168]	; 8002e78 <calcDuty+0xd8>
 8002dd2:	eec6 7a87 	vdiv.f32	s15, s13, s14
 8002dd6:	eefc 7ae7 	vcvt.u32.f32	s15, s15
	N = round(temp*cnt);					/* number of points for duty cycle calculation */
 8002dda:	eef8 7a67 	vcvt.f32.u32	s15, s15
 8002dde:	ee67 7a87 	vmul.f32	s15, s15, s14
 8002de2:	ee17 0a90 	vmov	r0, s15
 8002de6:	f7fd fb7b 	bl	80004e0 <__aeabi_f2d>
 8002dea:	ec41 0b10 	vmov	d0, r0, r1
 8002dee:	f008 ffaf 	bl	800bd50 <round>
 8002df2:	ec51 0b10 	vmov	r0, r1, d0
 8002df6:	f7fd fe89 	bl	8000b0c <__aeabi_d2uiz>
	if(N > ADC_TRIGBUF_SIZE)
 8002dfa:	f5b0 7ff0 	cmp.w	r0, #480	; 0x1e0
 8002dfe:	d901      	bls.n	8002e04 <calcDuty+0x64>
		N = ADC_TRIGBUF_SIZE;
 8002e00:	f44f 70f0 	mov.w	r0, #480	; 0x1e0
	f = 0;
 8002e04:	ed9f 7a1d 	vldr	s14, [pc, #116]	; 8002e7c <calcDuty+0xdc>
	for(i = 0; i < N; i++){
 8002e08:	2200      	movs	r2, #0
 8002e0a:	e008      	b.n	8002e1e <calcDuty+0x7e>
		f += x[i];
 8002e0c:	5ca3      	ldrb	r3, [r4, r2]
 8002e0e:	b2db      	uxtb	r3, r3
 8002e10:	ee07 3a90 	vmov	s15, r3
 8002e14:	eef8 7ae7 	vcvt.f32.s32	s15, s15
 8002e18:	ee37 7a27 	vadd.f32	s14, s14, s15
	for(i = 0; i < N; i++){
 8002e1c:	3201      	adds	r2, #1
 8002e1e:	4290      	cmp	r0, r2
 8002e20:	d8f4      	bhi.n	8002e0c <calcDuty+0x6c>
	f /= N;
 8002e22:	ee07 0a90 	vmov	s15, r0
 8002e26:	eeb8 6a67 	vcvt.f32.u32	s12, s15
 8002e2a:	eec7 6a06 	vdiv.f32	s13, s14, s12
	for(i = 0; i < N; i++){
 8002e2e:	2200      	movs	r2, #0
	cnt = 0;
 8002e30:	4611      	mov	r1, r2
	for(i = 0; i < N; i++){
 8002e32:	e000      	b.n	8002e36 <calcDuty+0x96>
 8002e34:	3201      	adds	r2, #1
 8002e36:	4290      	cmp	r0, r2
 8002e38:	d90c      	bls.n	8002e54 <calcDuty+0xb4>
		if(x[i] > f)
 8002e3a:	5ca3      	ldrb	r3, [r4, r2]
 8002e3c:	b2db      	uxtb	r3, r3
 8002e3e:	ee07 3a90 	vmov	s15, r3
 8002e42:	eef8 7ae7 	vcvt.f32.s32	s15, s15
 8002e46:	eef4 6ae7 	vcmpe.f32	s13, s15
 8002e4a:	eef1 fa10 	vmrs	APSR_nzcv, fpscr
 8002e4e:	d5f1      	bpl.n	8002e34 <calcDuty+0x94>
			cnt++;
 8002e50:	3101      	adds	r1, #1
 8002e52:	e7ef      	b.n	8002e34 <calcDuty+0x94>
	return (float32_t)cnt*100.0f/(float32_t)N;;
 8002e54:	ee07 1a90 	vmov	s15, r1
 8002e58:	eef8 7a67 	vcvt.f32.u32	s15, s15
 8002e5c:	ed9f 7a08 	vldr	s14, [pc, #32]	; 8002e80 <calcDuty+0xe0>
 8002e60:	ee67 7a87 	vmul.f32	s15, s15, s14
 8002e64:	ee87 7a86 	vdiv.f32	s14, s15, s12
 8002e68:	eefc 7ac7 	vcvt.u32.f32	s15, s14
 8002e6c:	edcd 7a01 	vstr	s15, [sp, #4]
}
 8002e70:	f89d 0004 	ldrb.w	r0, [sp, #4]
 8002e74:	b002      	add	sp, #8
 8002e76:	bd10      	pop	{r4, pc}
 8002e78:	43f00000 	.word	0x43f00000
 8002e7c:	00000000 	.word	0x00000000
 8002e80:	42c80000 	.word	0x42c80000

08002e84 <calcVrms>:
{
 8002e84:	b500      	push	{lr}
 8002e86:	b083      	sub	sp, #12
	temp = 0;
 8002e88:	eddf 6a17 	vldr	s13, [pc, #92]	; 8002ee8 <calcVrms+0x64>
	for(i = 0; i < ADC_TRIGBUF_SIZE; i++)
 8002e8c:	2200      	movs	r2, #0
 8002e8e:	e010      	b.n	8002eb2 <calcVrms+0x2e>
		temp += (float32_t)x[i]*(float32_t)x[i];
 8002e90:	5c83      	ldrb	r3, [r0, r2]
 8002e92:	b2db      	uxtb	r3, r3
 8002e94:	ee07 3a90 	vmov	s15, r3
 8002e98:	eeb8 7a67 	vcvt.f32.u32	s14, s15
 8002e9c:	5c83      	ldrb	r3, [r0, r2]
 8002e9e:	b2db      	uxtb	r3, r3
 8002ea0:	ee07 3a90 	vmov	s15, r3
 8002ea4:	eef8 7a67 	vcvt.f32.u32	s15, s15
 8002ea8:	ee67 7a27 	vmul.f32	s15, s14, s15
 8002eac:	ee76 6aa7 	vadd.f32	s13, s13, s15
	for(i = 0; i < ADC_TRIGBUF_SIZE; i++)
 8002eb0:	3201      	adds	r2, #1
 8002eb2:	f5b2 7ff0 	cmp.w	r2, #480	; 0x1e0
 8002eb6:	d3eb      	bcc.n	8002e90 <calcVrms+0xc>
	temp /= (float32_t)ADC_TRIGBUF_SIZE;
 8002eb8:	eddf 7a0c 	vldr	s15, [pc, #48]	; 8002eec <calcVrms+0x68>
 8002ebc:	ee86 0aa7 	vdiv.f32	s0, s13, s15
 */
__STATIC_FORCEINLINE arm_status arm_sqrt_f32(
  float32_t in,
  float32_t * pOut)
  {
    if (in >= 0.0f)
 8002ec0:	eeb5 0ac0 	vcmpe.f32	s0, #0.0
 8002ec4:	eef1 fa10 	vmrs	APSR_nzcv, fpscr
 8002ec8:	db0a      	blt.n	8002ee0 <calcVrms+0x5c>
  #else
      *pOut = sqrtf(in);
  #endif

#else
      *pOut = sqrtf(in);
 8002eca:	f008 ff87 	bl	800bddc <sqrtf>
	return out;
 8002ece:	eefc 7ac0 	vcvt.u32.f32	s15, s0
 8002ed2:	edcd 7a01 	vstr	s15, [sp, #4]
}
 8002ed6:	f89d 0004 	ldrb.w	r0, [sp, #4]
 8002eda:	b003      	add	sp, #12
 8002edc:	f85d fb04 	ldr.w	pc, [sp], #4

      return (ARM_MATH_SUCCESS);
    }
    else
    {
      *pOut = 0.0f;
 8002ee0:	ed9f 0a01 	vldr	s0, [pc, #4]	; 8002ee8 <calcVrms+0x64>
 8002ee4:	e7f3      	b.n	8002ece <calcVrms+0x4a>
 8002ee6:	bf00      	nop
 8002ee8:	00000000 	.word	0x00000000
 8002eec:	43f00000 	.word	0x43f00000

08002ef0 <calcVmax>:
	vmax = 0;
 8002ef0:	2100      	movs	r1, #0
	for(i = 0; i < ADC_TRIGBUF_SIZE; i++)
 8002ef2:	460b      	mov	r3, r1
 8002ef4:	e000      	b.n	8002ef8 <calcVmax+0x8>
 8002ef6:	3301      	adds	r3, #1
 8002ef8:	f5b3 7ff0 	cmp.w	r3, #480	; 0x1e0
 8002efc:	d206      	bcs.n	8002f0c <calcVmax+0x1c>
		if(x[i] > vmax)
 8002efe:	5cc2      	ldrb	r2, [r0, r3]
 8002f00:	b2d2      	uxtb	r2, r2
 8002f02:	4291      	cmp	r1, r2
 8002f04:	d2f7      	bcs.n	8002ef6 <calcVmax+0x6>
			vmax = x[i];
 8002f06:	5cc1      	ldrb	r1, [r0, r3]
 8002f08:	b2c9      	uxtb	r1, r1
 8002f0a:	e7f4      	b.n	8002ef6 <calcVmax+0x6>
}
 8002f0c:	4608      	mov	r0, r1
 8002f0e:	4770      	bx	lr

08002f10 <calcVmin>:
	vmin = 255;
 8002f10:	21ff      	movs	r1, #255	; 0xff
	for(i = 0; i < ADC_TRIGBUF_SIZE; i++)
 8002f12:	2300      	movs	r3, #0
 8002f14:	e000      	b.n	8002f18 <calcVmin+0x8>
 8002f16:	3301      	adds	r3, #1
 8002f18:	f5b3 7ff0 	cmp.w	r3, #480	; 0x1e0
 8002f1c:	d206      	bcs.n	8002f2c <calcVmin+0x1c>
		if(x[i] < vmin)
 8002f1e:	5cc2      	ldrb	r2, [r0, r3]
 8002f20:	b2d2      	uxtb	r2, r2
 8002f22:	4291      	cmp	r1, r2
 8002f24:	d9f7      	bls.n	8002f16 <calcVmin+0x6>
			vmin = x[i];
 8002f26:	5cc1      	ldrb	r1, [r0, r3]
 8002f28:	b2c9      	uxtb	r1, r1
 8002f2a:	e7f4      	b.n	8002f16 <calcVmin+0x6>
}
 8002f2c:	4608      	mov	r0, r1
 8002f2e:	4770      	bx	lr

08002f30 <calcVpp>:
{
 8002f30:	b538      	push	{r3, r4, r5, lr}
 8002f32:	4605      	mov	r5, r0
	vmax = calcVmax(x);
 8002f34:	f7ff ffdc 	bl	8002ef0 <calcVmax>
 8002f38:	4604      	mov	r4, r0
	vmin = calcVmin(x);
 8002f3a:	4628      	mov	r0, r5
 8002f3c:	f7ff ffe8 	bl	8002f10 <calcVmin>
	return (vmax - vmin);
 8002f40:	1a20      	subs	r0, r4, r0
}
 8002f42:	b2c0      	uxtb	r0, r0
 8002f44:	bd38      	pop	{r3, r4, r5, pc}
	...

08002f48 <calcVavg>:
	vavg = 0;
 8002f48:	2200      	movs	r2, #0
	for(i = 0; i < ADC_TRIGBUF_SIZE; i++)
 8002f4a:	4613      	mov	r3, r2
 8002f4c:	e002      	b.n	8002f54 <calcVavg+0xc>
		vavg += x[i];
 8002f4e:	5cc1      	ldrb	r1, [r0, r3]
 8002f50:	440a      	add	r2, r1
	for(i = 0; i < ADC_TRIGBUF_SIZE; i++)
 8002f52:	3301      	adds	r3, #1
 8002f54:	f5b3 7ff0 	cmp.w	r3, #480	; 0x1e0
 8002f58:	d3f9      	bcc.n	8002f4e <calcVavg+0x6>
	vavg /= ADC_TRIGBUF_SIZE;
 8002f5a:	4b03      	ldr	r3, [pc, #12]	; (8002f68 <calcVavg+0x20>)
 8002f5c:	fba3 3202 	umull	r3, r2, r3, r2
}
 8002f60:	f3c2 2007 	ubfx	r0, r2, #8, #8
 8002f64:	4770      	bx	lr
 8002f66:	bf00      	nop
 8002f68:	88888889 	.word	0x88888889

08002f6c <calcMeasure>:
{
 8002f6c:	b508      	push	{r3, lr}
	if(channel == CHANNEL1)
 8002f6e:	2801      	cmp	r0, #1
 8002f70:	d011      	beq.n	8002f96 <calcMeasure+0x2a>
		x = (__IO uint8_t *)CH2_ADC_vals + ADC_PRETRIGBUF_SIZE;
 8002f72:	4820      	ldr	r0, [pc, #128]	; (8002ff4 <calcMeasure+0x88>)
	if(param == MEAS_FREQ)
 8002f74:	2901      	cmp	r1, #1
 8002f76:	d010      	beq.n	8002f9a <calcMeasure+0x2e>
	else if(param == MEAS_DUTY)
 8002f78:	2902      	cmp	r1, #2
 8002f7a:	d011      	beq.n	8002fa0 <calcMeasure+0x34>
	else if(param == MEAS_VRMS)
 8002f7c:	2903      	cmp	r1, #3
 8002f7e:	d016      	beq.n	8002fae <calcMeasure+0x42>
	else if(param == MEAS_VMAX)
 8002f80:	2904      	cmp	r1, #4
 8002f82:	d01b      	beq.n	8002fbc <calcMeasure+0x50>
	else if(param == MEAS_VMIN)
 8002f84:	2905      	cmp	r1, #5
 8002f86:	d020      	beq.n	8002fca <calcMeasure+0x5e>
	else if(param == MEAS_VPP)
 8002f88:	2906      	cmp	r1, #6
 8002f8a:	d025      	beq.n	8002fd8 <calcMeasure+0x6c>
	else if(param == MEAS_VAVG)
 8002f8c:	2907      	cmp	r1, #7
 8002f8e:	d02a      	beq.n	8002fe6 <calcMeasure+0x7a>
		return 0;
 8002f90:	ed9f 0a19 	vldr	s0, [pc, #100]	; 8002ff8 <calcMeasure+0x8c>
}
 8002f94:	bd08      	pop	{r3, pc}
		x = (__IO uint8_t *)CH1_ADC_vals + ADC_PRETRIGBUF_SIZE;
 8002f96:	4819      	ldr	r0, [pc, #100]	; (8002ffc <calcMeasure+0x90>)
 8002f98:	e7ec      	b.n	8002f74 <calcMeasure+0x8>
		return calcFreq(x);
 8002f9a:	f7ff fe25 	bl	8002be8 <calcFreq>
 8002f9e:	bd08      	pop	{r3, pc}
		return calcDuty(x);
 8002fa0:	f7ff fefe 	bl	8002da0 <calcDuty>
 8002fa4:	ee07 0a90 	vmov	s15, r0
 8002fa8:	eeb8 0a67 	vcvt.f32.u32	s0, s15
 8002fac:	bd08      	pop	{r3, pc}
		return calcVrms(x);
 8002fae:	f7ff ff69 	bl	8002e84 <calcVrms>
 8002fb2:	ee07 0a90 	vmov	s15, r0
 8002fb6:	eeb8 0a67 	vcvt.f32.u32	s0, s15
 8002fba:	bd08      	pop	{r3, pc}
		return calcVmax(x);
 8002fbc:	f7ff ff98 	bl	8002ef0 <calcVmax>
 8002fc0:	ee07 0a90 	vmov	s15, r0
 8002fc4:	eeb8 0a67 	vcvt.f32.u32	s0, s15
 8002fc8:	bd08      	pop	{r3, pc}
		return calcVmin(x);
 8002fca:	f7ff ffa1 	bl	8002f10 <calcVmin>
 8002fce:	ee07 0a90 	vmov	s15, r0
 8002fd2:	eeb8 0a67 	vcvt.f32.u32	s0, s15
 8002fd6:	bd08      	pop	{r3, pc}
		return calcVpp(x);
 8002fd8:	f7ff ffaa 	bl	8002f30 <calcVpp>
 8002fdc:	ee07 0a90 	vmov	s15, r0
 8002fe0:	eeb8 0a67 	vcvt.f32.u32	s0, s15
 8002fe4:	bd08      	pop	{r3, pc}
		return calcVavg(x);
 8002fe6:	f7ff ffaf 	bl	8002f48 <calcVavg>
 8002fea:	ee07 0a90 	vmov	s15, r0
 8002fee:	eeb8 0a67 	vcvt.f32.u32	s0, s15
 8002ff2:	bd08      	pop	{r3, pc}
 8002ff4:	2000083c 	.word	0x2000083c
 8002ff8:	00000000 	.word	0x00000000
 8002ffc:	20000314 	.word	0x20000314

08003000 <Reset_Handler>:

    .section  .text.Reset_Handler
  .weak  Reset_Handler
  .type  Reset_Handler, %function
Reset_Handler:  
  ldr   sp, =_estack      /* set stack pointer */
 8003000:	f8df d034 	ldr.w	sp, [pc, #52]	; 8003038 <LoopFillZerobss+0x14>

/* Copy the data segment initializers from flash to SRAM */  
  movs  r1, #0
 8003004:	2100      	movs	r1, #0
  b  LoopCopyDataInit
 8003006:	e003      	b.n	8003010 <LoopCopyDataInit>

08003008 <CopyDataInit>:

CopyDataInit:
  ldr  r3, =_sidata
 8003008:	4b0c      	ldr	r3, [pc, #48]	; (800303c <LoopFillZerobss+0x18>)
  ldr  r3, [r3, r1]
 800300a:	585b      	ldr	r3, [r3, r1]
  str  r3, [r0, r1]
 800300c:	5043      	str	r3, [r0, r1]
  adds  r1, r1, #4
 800300e:	3104      	adds	r1, #4

08003010 <LoopCopyDataInit>:
    
LoopCopyDataInit:
  ldr  r0, =_sdata
 8003010:	480b      	ldr	r0, [pc, #44]	; (8003040 <LoopFillZerobss+0x1c>)
  ldr  r3, =_edata
 8003012:	4b0c      	ldr	r3, [pc, #48]	; (8003044 <LoopFillZerobss+0x20>)
  adds  r2, r0, r1
 8003014:	1842      	adds	r2, r0, r1
  cmp  r2, r3
 8003016:	429a      	cmp	r2, r3
  bcc  CopyDataInit
 8003018:	d3f6      	bcc.n	8003008 <CopyDataInit>
  ldr  r2, =_sbss
 800301a:	4a0b      	ldr	r2, [pc, #44]	; (8003048 <LoopFillZerobss+0x24>)
  b  LoopFillZerobss
 800301c:	e002      	b.n	8003024 <LoopFillZerobss>

0800301e <FillZerobss>:
/* Zero fill the bss segment. */  
FillZerobss:
  movs  r3, #0
 800301e:	2300      	movs	r3, #0
  str  r3, [r2], #4
 8003020:	f842 3b04 	str.w	r3, [r2], #4

08003024 <LoopFillZerobss>:
    
LoopFillZerobss:
  ldr  r3, = _ebss
 8003024:	4b09      	ldr	r3, [pc, #36]	; (800304c <LoopFillZerobss+0x28>)
  cmp  r2, r3
 8003026:	429a      	cmp	r2, r3
  bcc  FillZerobss
 8003028:	d3f9      	bcc.n	800301e <FillZerobss>

/* Call the clock system initialization function.*/
  bl  SystemInit   
 800302a:	f000 f8c1 	bl	80031b0 <SystemInit>
/* Call static constructors */
    bl __libc_init_array
 800302e:	f007 f9d5 	bl	800a3dc <__libc_init_array>
/* Call the application's entry point.*/
  bl  main
 8003032:	f7ff f923 	bl	800227c <main>
  bx  lr    
 8003036:	4770      	bx	lr
  ldr   sp, =_estack      /* set stack pointer */
 8003038:	20050000 	.word	0x20050000
  ldr  r3, =_sidata
 800303c:	0802e154 	.word	0x0802e154
  ldr  r0, =_sdata
 8003040:	20000000 	.word	0x20000000
  ldr  r3, =_edata
 8003044:	20000094 	.word	0x20000094
  ldr  r2, =_sbss
 8003048:	20000094 	.word	0x20000094
  ldr  r3, = _ebss
 800304c:	20003b80 	.word	0x20003b80

08003050 <ADC_IRQHandler>:
 * @retval None       
*/
    .section  .text.Default_Handler,"ax",%progbits
Default_Handler:
Infinite_Loop:
  b  Infinite_Loop
 8003050:	e7fe      	b.n	8003050 <ADC_IRQHandler>

08003052 <NMI_Handler>:
  * @brief   This function handles NMI exception.
  * @param  None
  * @retval None
  */
void NMI_Handler(void)
{
 8003052:	4770      	bx	lr

08003054 <HardFault_Handler>:
  * @brief  This function handles Hard Fault exception.
  * @param  None
  * @retval None
  */
void HardFault_Handler(void)
{
 8003054:	e7fe      	b.n	8003054 <HardFault_Handler>

08003056 <MemManage_Handler>:
  * @brief  This function handles Memory Manage exception.
  * @param  None
  * @retval None
  */
void MemManage_Handler(void)
{
 8003056:	e7fe      	b.n	8003056 <MemManage_Handler>

08003058 <BusFault_Handler>:
  * @brief  This function handles Bus Fault exception.
  * @param  None
  * @retval None
  */
void BusFault_Handler(void)
{
 8003058:	e7fe      	b.n	8003058 <BusFault_Handler>

0800305a <UsageFault_Handler>:
  * @brief  This function handles Usage Fault exception.
  * @param  None
  * @retval None
  */
void UsageFault_Handler(void)
{
 800305a:	e7fe      	b.n	800305a <UsageFault_Handler>

0800305c <SVC_Handler>:
  * @brief  This function handles SVCall exception.
  * @param  None
  * @retval None
  */
void SVC_Handler(void)
{
 800305c:	4770      	bx	lr

0800305e <DebugMon_Handler>:
  * @brief  This function handles Debug Monitor exception.
  * @param  None
  * @retval None
  */
void DebugMon_Handler(void)
{
 800305e:	4770      	bx	lr

08003060 <PendSV_Handler>:
  * @brief  This function handles PendSVC exception.
  * @param  None
  * @retval None
  */
void PendSV_Handler(void)
{
 8003060:	4770      	bx	lr
	...

08003064 <SysTick_Handler>:
  * @param  None
  * @retval None
  */
void SysTick_Handler(void)
{
	Tick_1ms++;
 8003064:	4a02      	ldr	r2, [pc, #8]	; (8003070 <SysTick_Handler+0xc>)
 8003066:	6813      	ldr	r3, [r2, #0]
 8003068:	3301      	adds	r3, #1
 800306a:	6013      	str	r3, [r2, #0]
 800306c:	4770      	bx	lr
 800306e:	bf00      	nop
 8003070:	200000b8 	.word	0x200000b8

08003074 <EXTI9_5_IRQHandler>:
  * @brief  This function handles Quadrature encoder module push-button event.
  * @param  None
  * @retval None
  */
void QE_IRQHandler(void)
{
 8003074:	b508      	push	{r3, lr}
 8003076:	2240      	movs	r2, #64	; 0x40
 8003078:	4b07      	ldr	r3, [pc, #28]	; (8003098 <EXTI9_5_IRQHandler+0x24>)
 800307a:	615a      	str	r2, [r3, #20]
	static uint32_t prev_time = 0;
	uint32_t curr_time;

	LL_EXTI_ClearFlag_0_31(QE_PB_EXTI_LINE);

	curr_time = Get_tick();
 800307c:	f7ff fcae 	bl	80029dc <Get_tick>
	if(curr_time - prev_time > QE_PB_DEBOUNCE_TIMEOUT) {
 8003080:	4b06      	ldr	r3, [pc, #24]	; (800309c <EXTI9_5_IRQHandler+0x28>)
 8003082:	681b      	ldr	r3, [r3, #0]
 8003084:	1ac3      	subs	r3, r0, r3
 8003086:	f5b3 7ffa 	cmp.w	r3, #500	; 0x1f4
 800308a:	d904      	bls.n	8003096 <EXTI9_5_IRQHandler+0x22>
		QE_PB_interrupt = 1;
 800308c:	2201      	movs	r2, #1
 800308e:	4b04      	ldr	r3, [pc, #16]	; (80030a0 <EXTI9_5_IRQHandler+0x2c>)
 8003090:	701a      	strb	r2, [r3, #0]
		prev_time = curr_time;
 8003092:	4b02      	ldr	r3, [pc, #8]	; (800309c <EXTI9_5_IRQHandler+0x28>)
 8003094:	6018      	str	r0, [r3, #0]
 8003096:	bd08      	pop	{r3, pc}
 8003098:	40013c00 	.word	0x40013c00
 800309c:	200000f8 	.word	0x200000f8
 80030a0:	200000b4 	.word	0x200000b4

080030a4 <EXTI15_10_IRQHandler>:
 80030a4:	f44f 6200 	mov.w	r2, #2048	; 0x800
 80030a8:	4b03      	ldr	r3, [pc, #12]	; (80030b8 <EXTI15_10_IRQHandler+0x14>)
 80030aa:	615a      	str	r2, [r3, #20]
  *         @arg @ref LL_GPIO_PIN_ALL
  * @retval None
  */
__STATIC_INLINE void LL_GPIO_TogglePin(GPIO_TypeDef *GPIOx, uint32_t PinMask)
{
  WRITE_REG(GPIOx->ODR, READ_REG(GPIOx->ODR) ^ PinMask);
 80030ac:	4a03      	ldr	r2, [pc, #12]	; (80030bc <EXTI15_10_IRQHandler+0x18>)
 80030ae:	6953      	ldr	r3, [r2, #20]
 80030b0:	f083 0302 	eor.w	r3, r3, #2
 80030b4:	6153      	str	r3, [r2, #20]
 80030b6:	4770      	bx	lr
 80030b8:	40013c00 	.word	0x40013c00
 80030bc:	40022000 	.word	0x40022000

080030c0 <DMA2_Stream0_IRQHandler>:
  * @param  None
  * @retval None
  */
void CH1_ADC_DMA_IRQHandler(void)
{
	CH1_ADC_DMA_STREAM->CR &= ~0x01;		/* disable stream and confirm */
 80030c0:	4a0a      	ldr	r2, [pc, #40]	; (80030ec <DMA2_Stream0_IRQHandler+0x2c>)
 80030c2:	6813      	ldr	r3, [r2, #0]
 80030c4:	f023 0301 	bic.w	r3, r3, #1
 80030c8:	6013      	str	r3, [r2, #0]
	while(CH1_ADC_DMA_STREAM->CR & 0x01);
 80030ca:	4b08      	ldr	r3, [pc, #32]	; (80030ec <DMA2_Stream0_IRQHandler+0x2c>)
 80030cc:	681b      	ldr	r3, [r3, #0]
 80030ce:	f013 0f01 	tst.w	r3, #1
 80030d2:	d1fa      	bne.n	80030ca <DMA2_Stream0_IRQHandler+0xa>

	CH1_acq_comp = (CH1_ADC_DMA->LISR & (1 << 5)) != 0;
 80030d4:	4b06      	ldr	r3, [pc, #24]	; (80030f0 <DMA2_Stream0_IRQHandler+0x30>)
 80030d6:	681a      	ldr	r2, [r3, #0]
 80030d8:	f3c2 1240 	ubfx	r2, r2, #5, #1
 80030dc:	4905      	ldr	r1, [pc, #20]	; (80030f4 <DMA2_Stream0_IRQHandler+0x34>)
 80030de:	700a      	strb	r2, [r1, #0]
	CH1_ADC_DMA->LIFCR      |= 0x0000003D;	/* clear flags/errors */
 80030e0:	689a      	ldr	r2, [r3, #8]
 80030e2:	f042 023d 	orr.w	r2, r2, #61	; 0x3d
 80030e6:	609a      	str	r2, [r3, #8]
 80030e8:	4770      	bx	lr
 80030ea:	bf00      	nop
 80030ec:	40026410 	.word	0x40026410
 80030f0:	40026400 	.word	0x40026400
 80030f4:	200000b0 	.word	0x200000b0

080030f8 <DMA2_Stream1_IRQHandler>:
  * @param  None
  * @retval None
  */
void CH2_ADC_DMA_IRQHandler(void)
{
	CH2_ADC_DMA_STREAM->CR &= ~0x01;		/* disable stream and confirm */
 80030f8:	4a0a      	ldr	r2, [pc, #40]	; (8003124 <DMA2_Stream1_IRQHandler+0x2c>)
 80030fa:	6813      	ldr	r3, [r2, #0]
 80030fc:	f023 0301 	bic.w	r3, r3, #1
 8003100:	6013      	str	r3, [r2, #0]
	while(CH2_ADC_DMA_STREAM->CR & 0x01);
 8003102:	4b08      	ldr	r3, [pc, #32]	; (8003124 <DMA2_Stream1_IRQHandler+0x2c>)
 8003104:	681b      	ldr	r3, [r3, #0]
 8003106:	f013 0f01 	tst.w	r3, #1
 800310a:	d1fa      	bne.n	8003102 <DMA2_Stream1_IRQHandler+0xa>

	CH2_acq_comp = (CH2_ADC_DMA->LISR & (1 << 11)) != 0;
 800310c:	4b06      	ldr	r3, [pc, #24]	; (8003128 <DMA2_Stream1_IRQHandler+0x30>)
 800310e:	681a      	ldr	r2, [r3, #0]
 8003110:	f3c2 22c0 	ubfx	r2, r2, #11, #1
 8003114:	4905      	ldr	r1, [pc, #20]	; (800312c <DMA2_Stream1_IRQHandler+0x34>)
 8003116:	700a      	strb	r2, [r1, #0]
	CH2_ADC_DMA->LIFCR      |= 0x00000F40;	/* clear flags/errors */
 8003118:	689a      	ldr	r2, [r3, #8]
 800311a:	f442 6274 	orr.w	r2, r2, #3904	; 0xf40
 800311e:	609a      	str	r2, [r3, #8]
 8003120:	4770      	bx	lr
 8003122:	bf00      	nop
 8003124:	40026428 	.word	0x40026428
 8003128:	40026400 	.word	0x40026400
 800312c:	200000b1 	.word	0x200000b1

08003130 <LTDC_ER_IRQHandler>:
  * @param  None
  * @retval None
  */
void LTDC_ER_IRQHandler(void)
{
	LTDC->IER &= ~0x06;			/* disable transfer and FIFO underrun interrupts */
 8003130:	4b06      	ldr	r3, [pc, #24]	; (800314c <LTDC_ER_IRQHandler+0x1c>)
 8003132:	6b5a      	ldr	r2, [r3, #52]	; 0x34
 8003134:	f022 0206 	bic.w	r2, r2, #6
 8003138:	635a      	str	r2, [r3, #52]	; 0x34
	LTDC->ICR |= 0x0F;			/* clear all flags */
 800313a:	6bda      	ldr	r2, [r3, #60]	; 0x3c
 800313c:	f042 020f 	orr.w	r2, r2, #15
 8003140:	63da      	str	r2, [r3, #60]	; 0x3c

	LTDC_error_flag = 1;
 8003142:	2201      	movs	r2, #1
 8003144:	4b02      	ldr	r3, [pc, #8]	; (8003150 <LTDC_ER_IRQHandler+0x20>)
 8003146:	701a      	strb	r2, [r3, #0]
 8003148:	4770      	bx	lr
 800314a:	bf00      	nop
 800314c:	40016800 	.word	0x40016800
 8003150:	200000b3 	.word	0x200000b3

08003154 <DMA2D_IRQHandler>:
  * @param  None
  * @retval None
  */
void DMA2D_IRQHandler(void)
{
	DMA2D->CR &= ~0x0100;		/* disable transfer interrupts */
 8003154:	4b06      	ldr	r3, [pc, #24]	; (8003170 <DMA2D_IRQHandler+0x1c>)
 8003156:	681a      	ldr	r2, [r3, #0]
 8003158:	f422 7280 	bic.w	r2, r2, #256	; 0x100
 800315c:	601a      	str	r2, [r3, #0]
	DMA2D->IFCR |= 0x3F;		/* clear all flags */
 800315e:	689a      	ldr	r2, [r3, #8]
 8003160:	f042 023f 	orr.w	r2, r2, #63	; 0x3f
 8003164:	609a      	str	r2, [r3, #8]

	DMA2D_error_flag = 1;
 8003166:	2201      	movs	r2, #1
 8003168:	4b02      	ldr	r3, [pc, #8]	; (8003174 <DMA2D_IRQHandler+0x20>)
 800316a:	701a      	strb	r2, [r3, #0]
 800316c:	4770      	bx	lr
 800316e:	bf00      	nop
 8003170:	4002b000 	.word	0x4002b000
 8003174:	200000b2 	.word	0x200000b2

08003178 <TIM4_IRQHandler>:
  * @param  None
  * @retval None
  */
void TIM4_IRQHandler(void)
{
	TS_read_pending = 1;
 8003178:	2201      	movs	r2, #1
 800317a:	4b04      	ldr	r3, [pc, #16]	; (800318c <TIM4_IRQHandler+0x14>)
 800317c:	701a      	strb	r2, [r3, #0]
	TIM_TS->SR &= ~0x01;
 800317e:	4a04      	ldr	r2, [pc, #16]	; (8003190 <TIM4_IRQHandler+0x18>)
 8003180:	6913      	ldr	r3, [r2, #16]
 8003182:	f023 0301 	bic.w	r3, r3, #1
 8003186:	6113      	str	r3, [r2, #16]
 8003188:	4770      	bx	lr
 800318a:	bf00      	nop
 800318c:	200000fc 	.word	0x200000fc
 8003190:	40000800 	.word	0x40000800

08003194 <TIM3_IRQHandler>:
  * @param  None
  * @retval None
  */
void TIM3_IRQHandler(void)
{
	measPending = 1;
 8003194:	2201      	movs	r2, #1
 8003196:	4b04      	ldr	r3, [pc, #16]	; (80031a8 <TIM3_IRQHandler+0x14>)
 8003198:	701a      	strb	r2, [r3, #0]
	TIM_MEAS->SR &= ~0x01;
 800319a:	4a04      	ldr	r2, [pc, #16]	; (80031ac <TIM3_IRQHandler+0x18>)
 800319c:	6913      	ldr	r3, [r2, #16]
 800319e:	f023 0301 	bic.w	r3, r3, #1
 80031a2:	6113      	str	r3, [r2, #16]
 80031a4:	4770      	bx	lr
 80031a6:	bf00      	nop
 80031a8:	200000bd 	.word	0x200000bd
 80031ac:	40000400 	.word	0x40000400

080031b0 <SystemInit>:
  *         SystemFrequency variable.
  * @param  None
  * @retval None
  */
void SystemInit(void)
{
 80031b0:	b410      	push	{r4}
  /* FPU settings ------------------------------------------------------------*/
  #if (__FPU_PRESENT == 1) && (__FPU_USED == 1)
    SCB->CPACR |= ((3UL << 10*2)|(3UL << 11*2));  /* set CP10 and CP11 Full Access */
 80031b2:	4a0f      	ldr	r2, [pc, #60]	; (80031f0 <SystemInit+0x40>)
 80031b4:	f8d2 3088 	ldr.w	r3, [r2, #136]	; 0x88
 80031b8:	f443 0370 	orr.w	r3, r3, #15728640	; 0xf00000
 80031bc:	f8c2 3088 	str.w	r3, [r2, #136]	; 0x88
  #endif
  /* Reset the RCC clock configuration to the default reset state ------------*/
  /* Set HSION bit */
  RCC->CR |= (uint32_t)0x00000001;
 80031c0:	4b0c      	ldr	r3, [pc, #48]	; (80031f4 <SystemInit+0x44>)
 80031c2:	6819      	ldr	r1, [r3, #0]
 80031c4:	f041 0101 	orr.w	r1, r1, #1
 80031c8:	6019      	str	r1, [r3, #0]

  /* Reset CFGR register */
  RCC->CFGR = 0x00000000;
 80031ca:	2000      	movs	r0, #0
 80031cc:	6098      	str	r0, [r3, #8]

  /* Reset HSEON, CSSON and PLLON bits */
  RCC->CR &= (uint32_t)0xFEF6FFFF;
 80031ce:	681c      	ldr	r4, [r3, #0]
 80031d0:	4909      	ldr	r1, [pc, #36]	; (80031f8 <SystemInit+0x48>)
 80031d2:	4021      	ands	r1, r4
 80031d4:	6019      	str	r1, [r3, #0]

  /* Reset PLLCFGR register */
  RCC->PLLCFGR = 0x24003010;
 80031d6:	4909      	ldr	r1, [pc, #36]	; (80031fc <SystemInit+0x4c>)
 80031d8:	6059      	str	r1, [r3, #4]

  /* Reset HSEBYP bit */
  RCC->CR &= (uint32_t)0xFFFBFFFF;
 80031da:	6819      	ldr	r1, [r3, #0]
 80031dc:	f421 2180 	bic.w	r1, r1, #262144	; 0x40000
 80031e0:	6019      	str	r1, [r3, #0]

  /* Disable all interrupts */
  RCC->CIR = 0x00000000;
 80031e2:	60d8      	str	r0, [r3, #12]

  /* Configure the Vector Table location add offset address ------------------*/
#ifdef VECT_TAB_SRAM
  SCB->VTOR = RAMDTCM_BASE | VECT_TAB_OFFSET; /* Vector Table Relocation in Internal SRAM */
#else
  SCB->VTOR = FLASH_BASE | VECT_TAB_OFFSET; /* Vector Table Relocation in Internal FLASH */
 80031e4:	f04f 6300 	mov.w	r3, #134217728	; 0x8000000
 80031e8:	6093      	str	r3, [r2, #8]
#endif
}
 80031ea:	f85d 4b04 	ldr.w	r4, [sp], #4
 80031ee:	4770      	bx	lr
 80031f0:	e000ed00 	.word	0xe000ed00
 80031f4:	40023800 	.word	0x40023800
 80031f8:	fef6ffff 	.word	0xfef6ffff
 80031fc:	24003010 	.word	0x24003010

08003200 <TS_ReadSingle>:
  * @brief  Read a single touch screen register.
  * @param  register to be read from
  * @retval Read data
  */
uint8_t TS_ReadSingle(uint8_t reg)
{
 8003200:	b508      	push	{r3, lr}
	return I2C_ReadSingle(TS_I2Cx, TS_I2C_ADDRESS, reg);
 8003202:	4602      	mov	r2, r0
 8003204:	2170      	movs	r1, #112	; 0x70
 8003206:	4802      	ldr	r0, [pc, #8]	; (8003210 <TS_ReadSingle+0x10>)
 8003208:	f7fd fe1c 	bl	8000e44 <I2C_ReadSingle>
}
 800320c:	bd08      	pop	{r3, pc}
 800320e:	bf00      	nop
 8003210:	40005c00 	.word	0x40005c00

08003214 <TS_DetectNumTouches>:
{
 8003214:	b508      	push	{r3, lr}
	nTouches = TS_ReadSingle(FT5336_TD_STAT_REG);
 8003216:	2002      	movs	r0, #2
 8003218:	f7ff fff2 	bl	8003200 <TS_ReadSingle>
	if(nTouches > TS_MAX_NB_TOUCH){
 800321c:	2805      	cmp	r0, #5
 800321e:	d900      	bls.n	8003222 <TS_DetectNumTouches+0xe>
		nTouches = 0;
 8003220:	2000      	movs	r0, #0
}
 8003222:	bd08      	pop	{r3, pc}

08003224 <TS_GetXY>:
{
 8003224:	b570      	push	{r4, r5, r6, lr}
 8003226:	4606      	mov	r6, r0
 8003228:	460d      	mov	r5, r1
	*X = ((TS_ReadSingle(FT5336_P1_XH_REG) & 0x0F) << 8) | TS_ReadSingle(FT5336_P1_XL_REG);
 800322a:	2003      	movs	r0, #3
 800322c:	f7ff ffe8 	bl	8003200 <TS_ReadSingle>
 8003230:	0200      	lsls	r0, r0, #8
 8003232:	f400 6470 	and.w	r4, r0, #3840	; 0xf00
 8003236:	2004      	movs	r0, #4
 8003238:	f7ff ffe2 	bl	8003200 <TS_ReadSingle>
 800323c:	b200      	sxth	r0, r0
 800323e:	4304      	orrs	r4, r0
 8003240:	8034      	strh	r4, [r6, #0]
	*Y = ((TS_ReadSingle(FT5336_P1_YH_REG) & 0x0F) << 8) | TS_ReadSingle(FT5336_P1_YL_REG);
 8003242:	2005      	movs	r0, #5
 8003244:	f7ff ffdc 	bl	8003200 <TS_ReadSingle>
 8003248:	0200      	lsls	r0, r0, #8
 800324a:	f400 6470 	and.w	r4, r0, #3840	; 0xf00
 800324e:	2006      	movs	r0, #6
 8003250:	f7ff ffd6 	bl	8003200 <TS_ReadSingle>
 8003254:	b200      	sxth	r0, r0
 8003256:	4304      	orrs	r4, r0
 8003258:	802c      	strh	r4, [r5, #0]
 800325a:	bd70      	pop	{r4, r5, r6, pc}

0800325c <calcFilters>:
  * @param  filt1ptr: Pointer to the second resultant filter
  * @param  filt1ptr: Pointer to the third resultant filter
  * @retval Number of filters needed
  */
static int32_t calcFilters(uint8_t origSR, uint8_t newSR, Filter* filt1ptr, Filter* filt2ptr, Filter* filt3ptr)
{
 800325c:	e92d 4ff0 	stmdb	sp!, {r4, r5, r6, r7, r8, r9, sl, fp, lr}
 8003260:	b08d      	sub	sp, #52	; 0x34
 8003262:	4615      	mov	r5, r2
	Filter filt1, filt2, filt3;		/* upto 3 interpolation/decimation filters are used to achieve the desired sample rate conversion ratio */
	uint8_t nFilters;

	/* Interpolation cases */
	if(origSR == 6 && newSR == 5){
 8003264:	2806      	cmp	r0, #6
 8003266:	bf14      	ite	ne
 8003268:	f04f 0e00 	movne.w	lr, #0
 800326c:	f04f 0e01 	moveq.w	lr, #1
 8003270:	2905      	cmp	r1, #5
 8003272:	bf14      	ite	ne
 8003274:	2200      	movne	r2, #0
 8003276:	2201      	moveq	r2, #1
 8003278:	ea1e 0f02 	tst.w	lr, r2
 800327c:	d01c      	beq.n	80032b8 <calcFilters+0x5c>
		nFilters = 1;
		filt1.type = FILTERTYPE_INT;
 800327e:	2601      	movs	r6, #1
 8003280:	f88d 6024 	strb.w	r6, [sp, #36]	; 0x24
		filt1.factor = 2;
 8003284:	2202      	movs	r2, #2
 8003286:	f88d 2025 	strb.w	r2, [sp, #37]	; 0x25
		filt1.coeffs = (float32_t *)firlp2;
 800328a:	4ab8      	ldr	r2, [pc, #736]	; (800356c <calcFilters+0x310>)
 800328c:	920a      	str	r2, [sp, #40]	; 0x28
		filt1.ntaps = firlp2Len;
 800328e:	2266      	movs	r2, #102	; 0x66
 8003290:	920b      	str	r2, [sp, #44]	; 0x2c
	/* given sample rate conversion not supported */
	else{
		return -1;
	}

	*filt1ptr = filt1;
 8003292:	aa0c      	add	r2, sp, #48	; 0x30
 8003294:	e912 0007 	ldmdb	r2, {r0, r1, r2}
 8003298:	e885 0007 	stmia.w	r5, {r0, r1, r2}
	*filt2ptr = filt2;
 800329c:	aa06      	add	r2, sp, #24
 800329e:	ca07      	ldmia	r2, {r0, r1, r2}
 80032a0:	e883 0007 	stmia.w	r3, {r0, r1, r2}
	*filt3ptr = filt3;
 80032a4:	ab03      	add	r3, sp, #12
 80032a6:	e893 0007 	ldmia.w	r3, {r0, r1, r2}
 80032aa:	9b16      	ldr	r3, [sp, #88]	; 0x58
 80032ac:	e883 0007 	stmia.w	r3, {r0, r1, r2}

	return nFilters;
 80032b0:	4630      	mov	r0, r6
}
 80032b2:	b00d      	add	sp, #52	; 0x34
 80032b4:	e8bd 8ff0 	ldmia.w	sp!, {r4, r5, r6, r7, r8, r9, sl, fp, pc}
	else if(origSR == 6 && newSR == 4){
 80032b8:	2904      	cmp	r1, #4
 80032ba:	bf14      	ite	ne
 80032bc:	2600      	movne	r6, #0
 80032be:	2601      	moveq	r6, #1
 80032c0:	ea1e 0f06 	tst.w	lr, r6
 80032c4:	d00a      	beq.n	80032dc <calcFilters+0x80>
		filt1.type = FILTERTYPE_INT;
 80032c6:	2601      	movs	r6, #1
 80032c8:	f88d 6024 	strb.w	r6, [sp, #36]	; 0x24
		filt1.factor = 5;
 80032cc:	2205      	movs	r2, #5
 80032ce:	f88d 2025 	strb.w	r2, [sp, #37]	; 0x25
		filt1.coeffs = (float32_t *)firlp5;
 80032d2:	4aa7      	ldr	r2, [pc, #668]	; (8003570 <calcFilters+0x314>)
 80032d4:	920a      	str	r2, [sp, #40]	; 0x28
		filt1.ntaps = firlp5Len;
 80032d6:	2269      	movs	r2, #105	; 0x69
 80032d8:	920b      	str	r2, [sp, #44]	; 0x2c
 80032da:	e7da      	b.n	8003292 <calcFilters+0x36>
	else if(origSR == 6 && newSR == 3){
 80032dc:	2903      	cmp	r1, #3
 80032de:	bf14      	ite	ne
 80032e0:	2700      	movne	r7, #0
 80032e2:	2701      	moveq	r7, #1
 80032e4:	ea1e 0f07 	tst.w	lr, r7
 80032e8:	d00a      	beq.n	8003300 <calcFilters+0xa4>
		filt1.type = FILTERTYPE_INT;
 80032ea:	2601      	movs	r6, #1
 80032ec:	f88d 6024 	strb.w	r6, [sp, #36]	; 0x24
		filt1.factor = 10;
 80032f0:	220a      	movs	r2, #10
 80032f2:	f88d 2025 	strb.w	r2, [sp, #37]	; 0x25
		filt1.coeffs = (float32_t *)firlp10;
 80032f6:	4a9f      	ldr	r2, [pc, #636]	; (8003574 <calcFilters+0x318>)
 80032f8:	920a      	str	r2, [sp, #40]	; 0x28
		filt1.ntaps = firlp10Len;
 80032fa:	226e      	movs	r2, #110	; 0x6e
 80032fc:	920b      	str	r2, [sp, #44]	; 0x2c
 80032fe:	e7c8      	b.n	8003292 <calcFilters+0x36>
	else if(origSR == 5 && newSR == 4){
 8003300:	2805      	cmp	r0, #5
 8003302:	bf14      	ite	ne
 8003304:	f04f 0e00 	movne.w	lr, #0
 8003308:	f04f 0e01 	moveq.w	lr, #1
 800330c:	ea16 0f0e 	tst.w	r6, lr
 8003310:	d014      	beq.n	800333c <calcFilters+0xe0>
		filt1.type = FILTERTYPE_DEC;
 8003312:	2200      	movs	r2, #0
 8003314:	f88d 2024 	strb.w	r2, [sp, #36]	; 0x24
		filt1.factor = 2;
 8003318:	2602      	movs	r6, #2
 800331a:	f88d 6025 	strb.w	r6, [sp, #37]	; 0x25
		filt1.coeffs = (float32_t *)firlp2;
 800331e:	4a93      	ldr	r2, [pc, #588]	; (800356c <calcFilters+0x310>)
 8003320:	920a      	str	r2, [sp, #40]	; 0x28
		filt1.ntaps = firlp2Len;
 8003322:	2266      	movs	r2, #102	; 0x66
 8003324:	920b      	str	r2, [sp, #44]	; 0x2c
		filt2.type = FILTERTYPE_INT;
 8003326:	2201      	movs	r2, #1
 8003328:	f88d 2018 	strb.w	r2, [sp, #24]
		filt2.factor = 5;
 800332c:	2205      	movs	r2, #5
 800332e:	f88d 2019 	strb.w	r2, [sp, #25]
		filt2.coeffs = (float32_t *)firlp5;
 8003332:	4a8f      	ldr	r2, [pc, #572]	; (8003570 <calcFilters+0x314>)
 8003334:	9207      	str	r2, [sp, #28]
		filt2.ntaps = firlp5Len;
 8003336:	2269      	movs	r2, #105	; 0x69
 8003338:	9208      	str	r2, [sp, #32]
 800333a:	e7aa      	b.n	8003292 <calcFilters+0x36>
	else if(origSR == 5 && newSR == 3){
 800333c:	ea17 0f0e 	tst.w	r7, lr
 8003340:	d00a      	beq.n	8003358 <calcFilters+0xfc>
		filt1.type = FILTERTYPE_INT;
 8003342:	2601      	movs	r6, #1
 8003344:	f88d 6024 	strb.w	r6, [sp, #36]	; 0x24
		filt1.factor = 5;
 8003348:	2205      	movs	r2, #5
 800334a:	f88d 2025 	strb.w	r2, [sp, #37]	; 0x25
		filt1.coeffs = (float32_t *)firlp5;
 800334e:	4a88      	ldr	r2, [pc, #544]	; (8003570 <calcFilters+0x314>)
 8003350:	920a      	str	r2, [sp, #40]	; 0x28
		filt1.ntaps = firlp5Len;
 8003352:	2269      	movs	r2, #105	; 0x69
 8003354:	920b      	str	r2, [sp, #44]	; 0x2c
 8003356:	e79c      	b.n	8003292 <calcFilters+0x36>
	else if(origSR == 5 && newSR == 2){
 8003358:	2902      	cmp	r1, #2
 800335a:	bf14      	ite	ne
 800335c:	f04f 0c00 	movne.w	ip, #0
 8003360:	f04f 0c01 	moveq.w	ip, #1
 8003364:	ea1e 0f0c 	tst.w	lr, ip
 8003368:	d00a      	beq.n	8003380 <calcFilters+0x124>
		filt1.type = FILTERTYPE_INT;
 800336a:	2601      	movs	r6, #1
 800336c:	f88d 6024 	strb.w	r6, [sp, #36]	; 0x24
		filt1.factor = 10;
 8003370:	220a      	movs	r2, #10
 8003372:	f88d 2025 	strb.w	r2, [sp, #37]	; 0x25
		filt1.coeffs = (float32_t *)firlp10;
 8003376:	4a7f      	ldr	r2, [pc, #508]	; (8003574 <calcFilters+0x318>)
 8003378:	920a      	str	r2, [sp, #40]	; 0x28
		filt1.ntaps = firlp10Len;
 800337a:	226e      	movs	r2, #110	; 0x6e
 800337c:	920b      	str	r2, [sp, #44]	; 0x2c
 800337e:	e788      	b.n	8003292 <calcFilters+0x36>
	else if(origSR == 4 && newSR == 3){
 8003380:	2804      	cmp	r0, #4
 8003382:	bf14      	ite	ne
 8003384:	f04f 0800 	movne.w	r8, #0
 8003388:	f04f 0801 	moveq.w	r8, #1
 800338c:	ea17 0f08 	tst.w	r7, r8
 8003390:	d00a      	beq.n	80033a8 <calcFilters+0x14c>
		filt1.type = FILTERTYPE_INT;
 8003392:	2601      	movs	r6, #1
 8003394:	f88d 6024 	strb.w	r6, [sp, #36]	; 0x24
		filt1.factor = 2;
 8003398:	2202      	movs	r2, #2
 800339a:	f88d 2025 	strb.w	r2, [sp, #37]	; 0x25
		filt1.coeffs = (float32_t *)firlp2;
 800339e:	4a73      	ldr	r2, [pc, #460]	; (800356c <calcFilters+0x310>)
 80033a0:	920a      	str	r2, [sp, #40]	; 0x28
		filt1.ntaps = firlp2Len;
 80033a2:	2266      	movs	r2, #102	; 0x66
 80033a4:	920b      	str	r2, [sp, #44]	; 0x2c
 80033a6:	e774      	b.n	8003292 <calcFilters+0x36>
	else if(origSR == 4 && newSR == 2){
 80033a8:	ea1c 0f08 	tst.w	ip, r8
 80033ac:	d00a      	beq.n	80033c4 <calcFilters+0x168>
		filt1.type = FILTERTYPE_INT;
 80033ae:	2601      	movs	r6, #1
 80033b0:	f88d 6024 	strb.w	r6, [sp, #36]	; 0x24
		filt1.factor = 4;
 80033b4:	2204      	movs	r2, #4
 80033b6:	f88d 2025 	strb.w	r2, [sp, #37]	; 0x25
		filt1.coeffs = (float32_t *)firlp4;
 80033ba:	4a6f      	ldr	r2, [pc, #444]	; (8003578 <calcFilters+0x31c>)
 80033bc:	920a      	str	r2, [sp, #40]	; 0x28
		filt1.ntaps = firlp4Len;
 80033be:	2268      	movs	r2, #104	; 0x68
 80033c0:	920b      	str	r2, [sp, #44]	; 0x2c
 80033c2:	e766      	b.n	8003292 <calcFilters+0x36>
	else if(origSR == 4 && newSR == 1){
 80033c4:	2901      	cmp	r1, #1
 80033c6:	bf14      	ite	ne
 80033c8:	f04f 0a00 	movne.w	sl, #0
 80033cc:	f04f 0a01 	moveq.w	sl, #1
 80033d0:	ea18 0f0a 	tst.w	r8, sl
 80033d4:	d00a      	beq.n	80033ec <calcFilters+0x190>
		filt1.type = FILTERTYPE_INT;
 80033d6:	2601      	movs	r6, #1
 80033d8:	f88d 6024 	strb.w	r6, [sp, #36]	; 0x24
		filt1.factor = 8;
 80033dc:	2208      	movs	r2, #8
 80033de:	f88d 2025 	strb.w	r2, [sp, #37]	; 0x25
		filt1.coeffs = (float32_t *)firlp8;
 80033e2:	4a66      	ldr	r2, [pc, #408]	; (800357c <calcFilters+0x320>)
 80033e4:	920a      	str	r2, [sp, #40]	; 0x28
		filt1.ntaps = firlp8Len;
 80033e6:	2268      	movs	r2, #104	; 0x68
 80033e8:	920b      	str	r2, [sp, #44]	; 0x2c
 80033ea:	e752      	b.n	8003292 <calcFilters+0x36>
	else if(origSR == 4 && newSR == 0){
 80033ec:	fab1 f981 	clz	r9, r1
 80033f0:	ea4f 1959 	mov.w	r9, r9, lsr #5
 80033f4:	ea18 0f09 	tst.w	r8, r9
 80033f8:	d01e      	beq.n	8003438 <calcFilters+0x1dc>
		filt1.type = FILTERTYPE_DEC;
 80033fa:	2200      	movs	r2, #0
 80033fc:	f88d 2024 	strb.w	r2, [sp, #36]	; 0x24
		filt1.factor = 5;
 8003400:	2205      	movs	r2, #5
 8003402:	f88d 2025 	strb.w	r2, [sp, #37]	; 0x25
		filt1.coeffs = (float32_t *)firlp5;
 8003406:	4a5a      	ldr	r2, [pc, #360]	; (8003570 <calcFilters+0x314>)
 8003408:	920a      	str	r2, [sp, #40]	; 0x28
		filt1.ntaps = firlp5Len;
 800340a:	2269      	movs	r2, #105	; 0x69
 800340c:	920b      	str	r2, [sp, #44]	; 0x2c
		filt2.type = FILTERTYPE_INT;
 800340e:	2201      	movs	r2, #1
 8003410:	f88d 2018 	strb.w	r2, [sp, #24]
		filt2.factor = 2;
 8003414:	2102      	movs	r1, #2
 8003416:	f88d 1019 	strb.w	r1, [sp, #25]
		filt2.coeffs = (float32_t *)firlp2;
 800341a:	4954      	ldr	r1, [pc, #336]	; (800356c <calcFilters+0x310>)
 800341c:	9107      	str	r1, [sp, #28]
		filt2.ntaps = firlp2Len;
 800341e:	2166      	movs	r1, #102	; 0x66
 8003420:	9108      	str	r1, [sp, #32]
		filt3.type = FILTERTYPE_INT;
 8003422:	f88d 200c 	strb.w	r2, [sp, #12]
		filt3.factor = 23;
 8003426:	2217      	movs	r2, #23
 8003428:	f88d 200d 	strb.w	r2, [sp, #13]
		filt3.coeffs = (float32_t *)firlp23;
 800342c:	4a54      	ldr	r2, [pc, #336]	; (8003580 <calcFilters+0x324>)
 800342e:	9204      	str	r2, [sp, #16]
		filt3.ntaps = firlp23Len;
 8003430:	22fd      	movs	r2, #253	; 0xfd
 8003432:	9205      	str	r2, [sp, #20]
		nFilters = 3;
 8003434:	2603      	movs	r6, #3
 8003436:	e72c      	b.n	8003292 <calcFilters+0x36>
	else if(origSR == 3 && newSR == 2){
 8003438:	2803      	cmp	r0, #3
 800343a:	bf14      	ite	ne
 800343c:	f04f 0b00 	movne.w	fp, #0
 8003440:	f04f 0b01 	moveq.w	fp, #1
 8003444:	ea1c 0f0b 	tst.w	ip, fp
 8003448:	d00a      	beq.n	8003460 <calcFilters+0x204>
		filt1.type = FILTERTYPE_INT;
 800344a:	2601      	movs	r6, #1
 800344c:	f88d 6024 	strb.w	r6, [sp, #36]	; 0x24
		filt1.factor = 2;
 8003450:	2202      	movs	r2, #2
 8003452:	f88d 2025 	strb.w	r2, [sp, #37]	; 0x25
		filt1.coeffs = (float32_t *)firlp2;
 8003456:	4a45      	ldr	r2, [pc, #276]	; (800356c <calcFilters+0x310>)
 8003458:	920a      	str	r2, [sp, #40]	; 0x28
		filt1.ntaps = firlp2Len;
 800345a:	2266      	movs	r2, #102	; 0x66
 800345c:	920b      	str	r2, [sp, #44]	; 0x2c
 800345e:	e718      	b.n	8003292 <calcFilters+0x36>
	else if(origSR == 3 && newSR == 1){
 8003460:	ea1a 0f0b 	tst.w	sl, fp
 8003464:	d00a      	beq.n	800347c <calcFilters+0x220>
		filt1.type = FILTERTYPE_INT;
 8003466:	2601      	movs	r6, #1
 8003468:	f88d 6024 	strb.w	r6, [sp, #36]	; 0x24
		filt1.factor = 4;
 800346c:	2204      	movs	r2, #4
 800346e:	f88d 2025 	strb.w	r2, [sp, #37]	; 0x25
		filt1.coeffs = (float32_t *)firlp4;
 8003472:	4a41      	ldr	r2, [pc, #260]	; (8003578 <calcFilters+0x31c>)
 8003474:	920a      	str	r2, [sp, #40]	; 0x28
		filt1.ntaps = firlp4Len;
 8003476:	2268      	movs	r2, #104	; 0x68
 8003478:	920b      	str	r2, [sp, #44]	; 0x2c
 800347a:	e70a      	b.n	8003292 <calcFilters+0x36>
	else if(origSR == 3 && newSR == 0){
 800347c:	ea19 0f0b 	tst.w	r9, fp
 8003480:	d015      	beq.n	80034ae <calcFilters+0x252>
		filt1.type = FILTERTYPE_DEC;
 8003482:	2200      	movs	r2, #0
 8003484:	f88d 2024 	strb.w	r2, [sp, #36]	; 0x24
		filt1.factor = 5;
 8003488:	2205      	movs	r2, #5
 800348a:	f88d 2025 	strb.w	r2, [sp, #37]	; 0x25
		filt1.coeffs = (float32_t *)firlp5;
 800348e:	4a38      	ldr	r2, [pc, #224]	; (8003570 <calcFilters+0x314>)
 8003490:	920a      	str	r2, [sp, #40]	; 0x28
		filt1.ntaps = firlp5Len;
 8003492:	2269      	movs	r2, #105	; 0x69
 8003494:	920b      	str	r2, [sp, #44]	; 0x2c
		filt2.type = FILTERTYPE_INT;
 8003496:	2201      	movs	r2, #1
 8003498:	f88d 2018 	strb.w	r2, [sp, #24]
		filt2.factor = 23;
 800349c:	2217      	movs	r2, #23
 800349e:	f88d 2019 	strb.w	r2, [sp, #25]
		filt2.coeffs = (float32_t *)firlp23;
 80034a2:	4a37      	ldr	r2, [pc, #220]	; (8003580 <calcFilters+0x324>)
 80034a4:	9207      	str	r2, [sp, #28]
		filt2.ntaps = firlp23Len;
 80034a6:	22fd      	movs	r2, #253	; 0xfd
 80034a8:	9208      	str	r2, [sp, #32]
		nFilters = 2;
 80034aa:	2602      	movs	r6, #2
 80034ac:	e6f1      	b.n	8003292 <calcFilters+0x36>
	else if(origSR == 2 && newSR == 1){
 80034ae:	2802      	cmp	r0, #2
 80034b0:	bf14      	ite	ne
 80034b2:	2400      	movne	r4, #0
 80034b4:	2401      	moveq	r4, #1
 80034b6:	9400      	str	r4, [sp, #0]
 80034b8:	ea1a 0f04 	tst.w	sl, r4
 80034bc:	d00a      	beq.n	80034d4 <calcFilters+0x278>
		filt1.type = FILTERTYPE_INT;
 80034be:	2601      	movs	r6, #1
 80034c0:	f88d 6024 	strb.w	r6, [sp, #36]	; 0x24
		filt1.factor = 2;
 80034c4:	2202      	movs	r2, #2
 80034c6:	f88d 2025 	strb.w	r2, [sp, #37]	; 0x25
		filt1.coeffs = (float32_t *)firlp2;
 80034ca:	4a28      	ldr	r2, [pc, #160]	; (800356c <calcFilters+0x310>)
 80034cc:	920a      	str	r2, [sp, #40]	; 0x28
		filt1.ntaps = firlp2Len;
 80034ce:	2266      	movs	r2, #102	; 0x66
 80034d0:	920b      	str	r2, [sp, #44]	; 0x2c
 80034d2:	e6de      	b.n	8003292 <calcFilters+0x36>
	else if(origSR == 2 && newSR == 0){
 80034d4:	9c00      	ldr	r4, [sp, #0]
 80034d6:	ea19 0f04 	tst.w	r9, r4
 80034da:	d015      	beq.n	8003508 <calcFilters+0x2ac>
		filt1.type = FILTERTYPE_DEC;
 80034dc:	2200      	movs	r2, #0
 80034de:	f88d 2024 	strb.w	r2, [sp, #36]	; 0x24
		filt1.factor = 10;
 80034e2:	220a      	movs	r2, #10
 80034e4:	f88d 2025 	strb.w	r2, [sp, #37]	; 0x25
		filt1.coeffs = (float32_t *)firlp10;
 80034e8:	4a22      	ldr	r2, [pc, #136]	; (8003574 <calcFilters+0x318>)
 80034ea:	920a      	str	r2, [sp, #40]	; 0x28
		filt1.ntaps = firlp10Len;
 80034ec:	226e      	movs	r2, #110	; 0x6e
 80034ee:	920b      	str	r2, [sp, #44]	; 0x2c
		filt2.type = FILTERTYPE_INT;
 80034f0:	2201      	movs	r2, #1
 80034f2:	f88d 2018 	strb.w	r2, [sp, #24]
		filt2.factor = 23;
 80034f6:	2217      	movs	r2, #23
 80034f8:	f88d 2019 	strb.w	r2, [sp, #25]
		filt2.coeffs = (float32_t *)firlp23;
 80034fc:	4a20      	ldr	r2, [pc, #128]	; (8003580 <calcFilters+0x324>)
 80034fe:	9207      	str	r2, [sp, #28]
		filt2.ntaps = firlp23Len;
 8003500:	22fd      	movs	r2, #253	; 0xfd
 8003502:	9208      	str	r2, [sp, #32]
		nFilters = 2;
 8003504:	2602      	movs	r6, #2
 8003506:	e6c4      	b.n	8003292 <calcFilters+0x36>
	else if(origSR == 1 && newSR == 0){
 8003508:	2801      	cmp	r0, #1
 800350a:	bf14      	ite	ne
 800350c:	2400      	movne	r4, #0
 800350e:	2401      	moveq	r4, #1
 8003510:	9401      	str	r4, [sp, #4]
 8003512:	ea19 0f04 	tst.w	r9, r4
 8003516:	d015      	beq.n	8003544 <calcFilters+0x2e8>
		filt1.type = FILTERTYPE_DEC;
 8003518:	2200      	movs	r2, #0
 800351a:	f88d 2024 	strb.w	r2, [sp, #36]	; 0x24
		filt1.factor = 5;
 800351e:	2205      	movs	r2, #5
 8003520:	f88d 2025 	strb.w	r2, [sp, #37]	; 0x25
		filt1.coeffs = (float32_t *)firlp5;
 8003524:	4a12      	ldr	r2, [pc, #72]	; (8003570 <calcFilters+0x314>)
 8003526:	920a      	str	r2, [sp, #40]	; 0x28
		filt1.ntaps = firlp5Len;
 8003528:	2269      	movs	r2, #105	; 0x69
 800352a:	920b      	str	r2, [sp, #44]	; 0x2c
		filt2.type = FILTERTYPE_INT;
 800352c:	2201      	movs	r2, #1
 800352e:	f88d 2018 	strb.w	r2, [sp, #24]
		filt2.factor = 6;
 8003532:	2206      	movs	r2, #6
 8003534:	f88d 2019 	strb.w	r2, [sp, #25]
		filt2.coeffs = (float32_t *)firlp6;
 8003538:	4a12      	ldr	r2, [pc, #72]	; (8003584 <calcFilters+0x328>)
 800353a:	9207      	str	r2, [sp, #28]
		filt2.ntaps = firlp6Len;
 800353c:	2266      	movs	r2, #102	; 0x66
 800353e:	9208      	str	r2, [sp, #32]
		nFilters = 2;
 8003540:	2602      	movs	r6, #2
 8003542:	e6a6      	b.n	8003292 <calcFilters+0x36>
	else if(origSR == 5 && newSR == 6){
 8003544:	2906      	cmp	r1, #6
 8003546:	bf14      	ite	ne
 8003548:	2100      	movne	r1, #0
 800354a:	2101      	moveq	r1, #1
 800354c:	ea1e 0f01 	tst.w	lr, r1
 8003550:	d01a      	beq.n	8003588 <calcFilters+0x32c>
		filt1.type = FILTERTYPE_DEC;
 8003552:	2200      	movs	r2, #0
 8003554:	f88d 2024 	strb.w	r2, [sp, #36]	; 0x24
		filt1.factor = 2;
 8003558:	2202      	movs	r2, #2
 800355a:	f88d 2025 	strb.w	r2, [sp, #37]	; 0x25
		filt1.coeffs = (float32_t *)firlp2;
 800355e:	4a03      	ldr	r2, [pc, #12]	; (800356c <calcFilters+0x310>)
 8003560:	920a      	str	r2, [sp, #40]	; 0x28
		filt1.ntaps = firlp2Len;
 8003562:	2266      	movs	r2, #102	; 0x66
 8003564:	920b      	str	r2, [sp, #44]	; 0x2c
		nFilters = 1;
 8003566:	2601      	movs	r6, #1
 8003568:	e693      	b.n	8003292 <calcFilters+0x36>
 800356a:	bf00      	nop
 800356c:	0800d310 	.word	0x0800d310
 8003570:	0800da3c 	.word	0x0800da3c
 8003574:	0800d158 	.word	0x0800d158
 8003578:	0800d89c 	.word	0x0800d89c
 800357c:	0800dd78 	.word	0x0800dd78
 8003580:	0800d4a8 	.word	0x0800d4a8
 8003584:	0800dbe0 	.word	0x0800dbe0
	else if(origSR == 4 && newSR == 6){
 8003588:	ea18 0f01 	tst.w	r8, r1
 800358c:	d00b      	beq.n	80035a6 <calcFilters+0x34a>
		filt1.type = FILTERTYPE_DEC;
 800358e:	2200      	movs	r2, #0
 8003590:	f88d 2024 	strb.w	r2, [sp, #36]	; 0x24
		filt1.factor = 5;
 8003594:	2205      	movs	r2, #5
 8003596:	f88d 2025 	strb.w	r2, [sp, #37]	; 0x25
		filt1.coeffs = (float32_t *)firlp5;
 800359a:	4a8b      	ldr	r2, [pc, #556]	; (80037c8 <calcFilters+0x56c>)
 800359c:	920a      	str	r2, [sp, #40]	; 0x28
		filt1.ntaps = firlp5Len;
 800359e:	2269      	movs	r2, #105	; 0x69
 80035a0:	920b      	str	r2, [sp, #44]	; 0x2c
		nFilters = 1;
 80035a2:	2601      	movs	r6, #1
 80035a4:	e675      	b.n	8003292 <calcFilters+0x36>
	else if(origSR == 3 && newSR == 6){
 80035a6:	ea1b 0f01 	tst.w	fp, r1
 80035aa:	d00b      	beq.n	80035c4 <calcFilters+0x368>
		filt1.type = FILTERTYPE_DEC;
 80035ac:	2200      	movs	r2, #0
 80035ae:	f88d 2024 	strb.w	r2, [sp, #36]	; 0x24
		filt1.factor = 10;
 80035b2:	220a      	movs	r2, #10
 80035b4:	f88d 2025 	strb.w	r2, [sp, #37]	; 0x25
		filt1.coeffs = (float32_t *)firlp10;
 80035b8:	4a84      	ldr	r2, [pc, #528]	; (80037cc <calcFilters+0x570>)
 80035ba:	920a      	str	r2, [sp, #40]	; 0x28
		filt1.ntaps = firlp10Len;
 80035bc:	226e      	movs	r2, #110	; 0x6e
 80035be:	920b      	str	r2, [sp, #44]	; 0x2c
		nFilters = 1;
 80035c0:	2601      	movs	r6, #1
 80035c2:	e666      	b.n	8003292 <calcFilters+0x36>
	else if(origSR == 4 && newSR == 5){
 80035c4:	ea12 0f08 	tst.w	r2, r8
 80035c8:	d014      	beq.n	80035f4 <calcFilters+0x398>
		filt1.type = FILTERTYPE_DEC;
 80035ca:	2200      	movs	r2, #0
 80035cc:	f88d 2024 	strb.w	r2, [sp, #36]	; 0x24
		filt1.factor = 5;
 80035d0:	2205      	movs	r2, #5
 80035d2:	f88d 2025 	strb.w	r2, [sp, #37]	; 0x25
		filt1.coeffs = (float32_t *)firlp5;
 80035d6:	4a7c      	ldr	r2, [pc, #496]	; (80037c8 <calcFilters+0x56c>)
 80035d8:	920a      	str	r2, [sp, #40]	; 0x28
		filt1.ntaps = firlp5Len;
 80035da:	2269      	movs	r2, #105	; 0x69
 80035dc:	920b      	str	r2, [sp, #44]	; 0x2c
		filt2.type = FILTERTYPE_INT;
 80035de:	2201      	movs	r2, #1
 80035e0:	f88d 2018 	strb.w	r2, [sp, #24]
		filt2.factor = 2;
 80035e4:	2602      	movs	r6, #2
 80035e6:	f88d 6019 	strb.w	r6, [sp, #25]
		filt2.coeffs = (float32_t *)firlp2;
 80035ea:	4a79      	ldr	r2, [pc, #484]	; (80037d0 <calcFilters+0x574>)
 80035ec:	9207      	str	r2, [sp, #28]
		filt2.ntaps = firlp2Len;
 80035ee:	2266      	movs	r2, #102	; 0x66
 80035f0:	9208      	str	r2, [sp, #32]
 80035f2:	e64e      	b.n	8003292 <calcFilters+0x36>
	else if(origSR == 3 && newSR == 5){
 80035f4:	ea12 0f0b 	tst.w	r2, fp
 80035f8:	d00b      	beq.n	8003612 <calcFilters+0x3b6>
		filt1.type = FILTERTYPE_DEC;
 80035fa:	2200      	movs	r2, #0
 80035fc:	f88d 2024 	strb.w	r2, [sp, #36]	; 0x24
		filt1.factor = 5;
 8003600:	2205      	movs	r2, #5
 8003602:	f88d 2025 	strb.w	r2, [sp, #37]	; 0x25
		filt1.coeffs = (float32_t *)firlp5;
 8003606:	4a70      	ldr	r2, [pc, #448]	; (80037c8 <calcFilters+0x56c>)
 8003608:	920a      	str	r2, [sp, #40]	; 0x28
		filt1.ntaps = firlp5Len;
 800360a:	2269      	movs	r2, #105	; 0x69
 800360c:	920b      	str	r2, [sp, #44]	; 0x2c
		nFilters = 1;
 800360e:	2601      	movs	r6, #1
 8003610:	e63f      	b.n	8003292 <calcFilters+0x36>
	else if(origSR == 2 && newSR == 5){
 8003612:	9900      	ldr	r1, [sp, #0]
 8003614:	420a      	tst	r2, r1
 8003616:	d00b      	beq.n	8003630 <calcFilters+0x3d4>
		filt1.type = FILTERTYPE_DEC;
 8003618:	2200      	movs	r2, #0
 800361a:	f88d 2024 	strb.w	r2, [sp, #36]	; 0x24
		filt1.factor = 10;
 800361e:	220a      	movs	r2, #10
 8003620:	f88d 2025 	strb.w	r2, [sp, #37]	; 0x25
		filt1.coeffs = (float32_t *)firlp10;
 8003624:	4a69      	ldr	r2, [pc, #420]	; (80037cc <calcFilters+0x570>)
 8003626:	920a      	str	r2, [sp, #40]	; 0x28
		filt1.ntaps = firlp10Len;
 8003628:	226e      	movs	r2, #110	; 0x6e
 800362a:	920b      	str	r2, [sp, #44]	; 0x2c
		nFilters = 1;
 800362c:	2601      	movs	r6, #1
 800362e:	e630      	b.n	8003292 <calcFilters+0x36>
	else if(origSR == 3 && newSR == 4){
 8003630:	ea16 0f0b 	tst.w	r6, fp
 8003634:	d00b      	beq.n	800364e <calcFilters+0x3f2>
		filt1.type = FILTERTYPE_DEC;
 8003636:	2200      	movs	r2, #0
 8003638:	f88d 2024 	strb.w	r2, [sp, #36]	; 0x24
		filt1.factor = 2;
 800363c:	2202      	movs	r2, #2
 800363e:	f88d 2025 	strb.w	r2, [sp, #37]	; 0x25
		filt1.coeffs = (float32_t *)firlp2;
 8003642:	4a63      	ldr	r2, [pc, #396]	; (80037d0 <calcFilters+0x574>)
 8003644:	920a      	str	r2, [sp, #40]	; 0x28
		filt1.ntaps = firlp2Len;
 8003646:	2266      	movs	r2, #102	; 0x66
 8003648:	920b      	str	r2, [sp, #44]	; 0x2c
		nFilters = 1;
 800364a:	2601      	movs	r6, #1
 800364c:	e621      	b.n	8003292 <calcFilters+0x36>
	else if(origSR == 2 && newSR == 4){
 800364e:	9a00      	ldr	r2, [sp, #0]
 8003650:	4216      	tst	r6, r2
 8003652:	d00b      	beq.n	800366c <calcFilters+0x410>
		filt1.type = FILTERTYPE_DEC;
 8003654:	2200      	movs	r2, #0
 8003656:	f88d 2024 	strb.w	r2, [sp, #36]	; 0x24
		filt1.factor = 4;
 800365a:	2204      	movs	r2, #4
 800365c:	f88d 2025 	strb.w	r2, [sp, #37]	; 0x25
		filt1.coeffs = (float32_t *)firlp4;
 8003660:	4a5c      	ldr	r2, [pc, #368]	; (80037d4 <calcFilters+0x578>)
 8003662:	920a      	str	r2, [sp, #40]	; 0x28
		filt1.ntaps = firlp4Len;
 8003664:	2268      	movs	r2, #104	; 0x68
 8003666:	920b      	str	r2, [sp, #44]	; 0x2c
		nFilters = 1;
 8003668:	2601      	movs	r6, #1
 800366a:	e612      	b.n	8003292 <calcFilters+0x36>
	else if(origSR == 1 && newSR == 4){
 800366c:	9a01      	ldr	r2, [sp, #4]
 800366e:	4216      	tst	r6, r2
 8003670:	d00b      	beq.n	800368a <calcFilters+0x42e>
		filt1.type = FILTERTYPE_DEC;
 8003672:	2200      	movs	r2, #0
 8003674:	f88d 2024 	strb.w	r2, [sp, #36]	; 0x24
		filt1.factor = 8;
 8003678:	2208      	movs	r2, #8
 800367a:	f88d 2025 	strb.w	r2, [sp, #37]	; 0x25
		filt1.coeffs = (float32_t *)firlp8;
 800367e:	4a56      	ldr	r2, [pc, #344]	; (80037d8 <calcFilters+0x57c>)
 8003680:	920a      	str	r2, [sp, #40]	; 0x28
		filt1.ntaps = firlp8Len;
 8003682:	2268      	movs	r2, #104	; 0x68
 8003684:	920b      	str	r2, [sp, #44]	; 0x2c
		nFilters = 1;
 8003686:	2601      	movs	r6, #1
 8003688:	e603      	b.n	8003292 <calcFilters+0x36>
	else if(origSR == 0 && newSR == 4){
 800368a:	fab0 f080 	clz	r0, r0
 800368e:	0940      	lsrs	r0, r0, #5
 8003690:	4206      	tst	r6, r0
 8003692:	d01e      	beq.n	80036d2 <calcFilters+0x476>
		filt1.type = FILTERTYPE_DEC;
 8003694:	2200      	movs	r2, #0
 8003696:	f88d 2024 	strb.w	r2, [sp, #36]	; 0x24
		filt1.factor = 23;
 800369a:	2117      	movs	r1, #23
 800369c:	f88d 1025 	strb.w	r1, [sp, #37]	; 0x25
		filt1.coeffs = (float32_t *)firlp23;
 80036a0:	494e      	ldr	r1, [pc, #312]	; (80037dc <calcFilters+0x580>)
 80036a2:	910a      	str	r1, [sp, #40]	; 0x28
		filt1.ntaps = firlp23Len;
 80036a4:	21fd      	movs	r1, #253	; 0xfd
 80036a6:	910b      	str	r1, [sp, #44]	; 0x2c
		filt2.type = FILTERTYPE_DEC;
 80036a8:	f88d 2018 	strb.w	r2, [sp, #24]
		filt2.factor = 2;
 80036ac:	2202      	movs	r2, #2
 80036ae:	f88d 2019 	strb.w	r2, [sp, #25]
		filt2.coeffs = (float32_t *)firlp2;
 80036b2:	4a47      	ldr	r2, [pc, #284]	; (80037d0 <calcFilters+0x574>)
 80036b4:	9207      	str	r2, [sp, #28]
		filt2.ntaps = firlp2Len;
 80036b6:	2266      	movs	r2, #102	; 0x66
 80036b8:	9208      	str	r2, [sp, #32]
		filt3.type = FILTERTYPE_INT;
 80036ba:	2201      	movs	r2, #1
 80036bc:	f88d 200c 	strb.w	r2, [sp, #12]
		filt3.factor = 5;
 80036c0:	2205      	movs	r2, #5
 80036c2:	f88d 200d 	strb.w	r2, [sp, #13]
		filt3.coeffs = (float32_t *)firlp5;
 80036c6:	4a40      	ldr	r2, [pc, #256]	; (80037c8 <calcFilters+0x56c>)
 80036c8:	9204      	str	r2, [sp, #16]
		filt3.ntaps = firlp5Len;
 80036ca:	2269      	movs	r2, #105	; 0x69
 80036cc:	9205      	str	r2, [sp, #20]
		nFilters = 3;
 80036ce:	2603      	movs	r6, #3
 80036d0:	e5df      	b.n	8003292 <calcFilters+0x36>
	else if(origSR == 2 && newSR == 3){
 80036d2:	9a00      	ldr	r2, [sp, #0]
 80036d4:	4217      	tst	r7, r2
 80036d6:	d00b      	beq.n	80036f0 <calcFilters+0x494>
		filt1.type = FILTERTYPE_DEC;
 80036d8:	2200      	movs	r2, #0
 80036da:	f88d 2024 	strb.w	r2, [sp, #36]	; 0x24
		filt1.factor = 2;
 80036de:	2202      	movs	r2, #2
 80036e0:	f88d 2025 	strb.w	r2, [sp, #37]	; 0x25
		filt1.coeffs = (float32_t *)firlp2;
 80036e4:	4a3a      	ldr	r2, [pc, #232]	; (80037d0 <calcFilters+0x574>)
 80036e6:	920a      	str	r2, [sp, #40]	; 0x28
		filt1.ntaps = firlp2Len;
 80036e8:	2266      	movs	r2, #102	; 0x66
 80036ea:	920b      	str	r2, [sp, #44]	; 0x2c
		nFilters = 1;
 80036ec:	2601      	movs	r6, #1
 80036ee:	e5d0      	b.n	8003292 <calcFilters+0x36>
	else if(origSR == 1 && newSR == 3){
 80036f0:	9a01      	ldr	r2, [sp, #4]
 80036f2:	4217      	tst	r7, r2
 80036f4:	d00b      	beq.n	800370e <calcFilters+0x4b2>
		filt1.type = FILTERTYPE_DEC;
 80036f6:	2200      	movs	r2, #0
 80036f8:	f88d 2024 	strb.w	r2, [sp, #36]	; 0x24
		filt1.factor = 4;
 80036fc:	2204      	movs	r2, #4
 80036fe:	f88d 2025 	strb.w	r2, [sp, #37]	; 0x25
		filt1.coeffs = (float32_t *)firlp4;
 8003702:	4a34      	ldr	r2, [pc, #208]	; (80037d4 <calcFilters+0x578>)
 8003704:	920a      	str	r2, [sp, #40]	; 0x28
		filt1.ntaps = firlp4Len;
 8003706:	2268      	movs	r2, #104	; 0x68
 8003708:	920b      	str	r2, [sp, #44]	; 0x2c
		nFilters = 1;
 800370a:	2601      	movs	r6, #1
 800370c:	e5c1      	b.n	8003292 <calcFilters+0x36>
	else if(origSR == 0 && newSR == 3){
 800370e:	4207      	tst	r7, r0
 8003710:	d015      	beq.n	800373e <calcFilters+0x4e2>
		filt1.type = FILTERTYPE_DEC;
 8003712:	2200      	movs	r2, #0
 8003714:	f88d 2024 	strb.w	r2, [sp, #36]	; 0x24
		filt1.factor = 23;
 8003718:	2217      	movs	r2, #23
 800371a:	f88d 2025 	strb.w	r2, [sp, #37]	; 0x25
		filt1.coeffs = (float32_t *)firlp23;
 800371e:	4a2f      	ldr	r2, [pc, #188]	; (80037dc <calcFilters+0x580>)
 8003720:	920a      	str	r2, [sp, #40]	; 0x28
		filt1.ntaps = firlp23Len;
 8003722:	22fd      	movs	r2, #253	; 0xfd
 8003724:	920b      	str	r2, [sp, #44]	; 0x2c
		filt2.type = FILTERTYPE_INT;
 8003726:	2201      	movs	r2, #1
 8003728:	f88d 2018 	strb.w	r2, [sp, #24]
		filt2.factor = 5;
 800372c:	2205      	movs	r2, #5
 800372e:	f88d 2019 	strb.w	r2, [sp, #25]
		filt2.coeffs = (float32_t *)firlp5;
 8003732:	4a25      	ldr	r2, [pc, #148]	; (80037c8 <calcFilters+0x56c>)
 8003734:	9207      	str	r2, [sp, #28]
		filt2.ntaps = firlp5Len;
 8003736:	2269      	movs	r2, #105	; 0x69
 8003738:	9208      	str	r2, [sp, #32]
		nFilters = 2;
 800373a:	2602      	movs	r6, #2
 800373c:	e5a9      	b.n	8003292 <calcFilters+0x36>
	else if(origSR == 1 && newSR == 2){
 800373e:	9a01      	ldr	r2, [sp, #4]
 8003740:	ea1c 0f02 	tst.w	ip, r2
 8003744:	d00b      	beq.n	800375e <calcFilters+0x502>
		filt1.type = FILTERTYPE_DEC;
 8003746:	2200      	movs	r2, #0
 8003748:	f88d 2024 	strb.w	r2, [sp, #36]	; 0x24
		filt1.factor = 2;
 800374c:	2202      	movs	r2, #2
 800374e:	f88d 2025 	strb.w	r2, [sp, #37]	; 0x25
		filt1.coeffs = (float32_t *)firlp2;
 8003752:	4a1f      	ldr	r2, [pc, #124]	; (80037d0 <calcFilters+0x574>)
 8003754:	920a      	str	r2, [sp, #40]	; 0x28
		filt1.ntaps = firlp2Len;
 8003756:	2266      	movs	r2, #102	; 0x66
 8003758:	920b      	str	r2, [sp, #44]	; 0x2c
		nFilters = 1;
 800375a:	2601      	movs	r6, #1
 800375c:	e599      	b.n	8003292 <calcFilters+0x36>
	else if(origSR == 0 && newSR == 2){
 800375e:	ea1c 0f00 	tst.w	ip, r0
 8003762:	d015      	beq.n	8003790 <calcFilters+0x534>
		filt1.type = FILTERTYPE_DEC;
 8003764:	2200      	movs	r2, #0
 8003766:	f88d 2024 	strb.w	r2, [sp, #36]	; 0x24
		filt1.factor = 23;
 800376a:	2217      	movs	r2, #23
 800376c:	f88d 2025 	strb.w	r2, [sp, #37]	; 0x25
		filt1.coeffs = (float32_t *)firlp23;
 8003770:	4a1a      	ldr	r2, [pc, #104]	; (80037dc <calcFilters+0x580>)
 8003772:	920a      	str	r2, [sp, #40]	; 0x28
		filt1.ntaps = firlp23Len;
 8003774:	22fd      	movs	r2, #253	; 0xfd
 8003776:	920b      	str	r2, [sp, #44]	; 0x2c
		filt2.type = FILTERTYPE_INT;
 8003778:	2201      	movs	r2, #1
 800377a:	f88d 2018 	strb.w	r2, [sp, #24]
		filt2.factor = 10;
 800377e:	220a      	movs	r2, #10
 8003780:	f88d 2019 	strb.w	r2, [sp, #25]
		filt2.coeffs = (float32_t *)firlp10;
 8003784:	4a11      	ldr	r2, [pc, #68]	; (80037cc <calcFilters+0x570>)
 8003786:	9207      	str	r2, [sp, #28]
		filt2.ntaps = firlp10Len;
 8003788:	226e      	movs	r2, #110	; 0x6e
 800378a:	9208      	str	r2, [sp, #32]
		nFilters = 2;
 800378c:	2602      	movs	r6, #2
 800378e:	e580      	b.n	8003292 <calcFilters+0x36>
	else if(origSR == 0 && newSR == 1){
 8003790:	ea1a 0f00 	tst.w	sl, r0
 8003794:	d015      	beq.n	80037c2 <calcFilters+0x566>
		filt1.type = FILTERTYPE_DEC;
 8003796:	2200      	movs	r2, #0
 8003798:	f88d 2024 	strb.w	r2, [sp, #36]	; 0x24
		filt1.factor = 6;
 800379c:	2206      	movs	r2, #6
 800379e:	f88d 2025 	strb.w	r2, [sp, #37]	; 0x25
		filt1.coeffs = (float32_t *)firlp6;
 80037a2:	4a0f      	ldr	r2, [pc, #60]	; (80037e0 <calcFilters+0x584>)
 80037a4:	920a      	str	r2, [sp, #40]	; 0x28
		filt1.ntaps = firlp6Len;
 80037a6:	2266      	movs	r2, #102	; 0x66
 80037a8:	920b      	str	r2, [sp, #44]	; 0x2c
		filt2.type = FILTERTYPE_INT;
 80037aa:	2201      	movs	r2, #1
 80037ac:	f88d 2018 	strb.w	r2, [sp, #24]
		filt2.factor = 5;
 80037b0:	2205      	movs	r2, #5
 80037b2:	f88d 2019 	strb.w	r2, [sp, #25]
		filt2.coeffs = (float32_t *)firlp5;
 80037b6:	4a04      	ldr	r2, [pc, #16]	; (80037c8 <calcFilters+0x56c>)
 80037b8:	9207      	str	r2, [sp, #28]
		filt2.ntaps = firlp5Len;
 80037ba:	2269      	movs	r2, #105	; 0x69
 80037bc:	9208      	str	r2, [sp, #32]
		nFilters = 2;
 80037be:	2602      	movs	r6, #2
 80037c0:	e567      	b.n	8003292 <calcFilters+0x36>
		return -1;
 80037c2:	f04f 30ff 	mov.w	r0, #4294967295
 80037c6:	e574      	b.n	80032b2 <calcFilters+0x56>
 80037c8:	0800da3c 	.word	0x0800da3c
 80037cc:	0800d158 	.word	0x0800d158
 80037d0:	0800d310 	.word	0x0800d310
 80037d4:	0800d89c 	.word	0x0800d89c
 80037d8:	0800dd78 	.word	0x0800dd78
 80037dc:	0800d4a8 	.word	0x0800d4a8
 80037e0:	0800dbe0 	.word	0x0800dbe0

080037e4 <findNextMultiple>:
  * @param  q: quotient
  * @retval Next mutiple of q >= n
  */
static int32_t findNextMultiple(int32_t n, int32_t q)
{
	if(!(n % q)){
 80037e4:	fb90 f3f1 	sdiv	r3, r0, r1
 80037e8:	fb01 0313 	mls	r3, r1, r3, r0
 80037ec:	b10b      	cbz	r3, 80037f2 <findNextMultiple+0xe>
		return n;
	}

	return n + (q - (n % q));
 80037ee:	1ac9      	subs	r1, r1, r3
 80037f0:	4408      	add	r0, r1
}
 80037f2:	4770      	bx	lr

080037f4 <getFiltDelay>:
  */
static uint32_t getFiltDelay(uint8_t fact)
{
	uint32_t origlen;	/* original length of filter without appended zeros */

	switch(fact)
 80037f4:	2817      	cmp	r0, #23
 80037f6:	d001      	beq.n	80037fc <getFiltDelay+0x8>
	{
		case 2: origlen = 102; break;
 80037f8:	2066      	movs	r0, #102	; 0x66
 80037fa:	e000      	b.n	80037fe <getFiltDelay+0xa>
		case 4: origlen = 102; break;
		case 5: origlen = 102; break;
		case 6: origlen = 102; break;
		case 8: origlen = 102; break;
		case 10: origlen = 102; break;
		case 23: origlen = 234; break;
 80037fc:	20ea      	movs	r0, #234	; 0xea
		default: origlen = 102; break;
	}

	return (origlen - 1)/2;		/* grpdelay = filtorder/2 */
 80037fe:	3801      	subs	r0, #1
}
 8003800:	0840      	lsrs	r0, r0, #1
 8003802:	4770      	bx	lr

08003804 <processTriggers>:
	if(trigsrcVals[trigsrc] == TRIGSRC_CH1)
 8003804:	4b33      	ldr	r3, [pc, #204]	; (80038d4 <processTriggers+0xd0>)
 8003806:	781b      	ldrb	r3, [r3, #0]
 8003808:	4a33      	ldr	r2, [pc, #204]	; (80038d8 <processTriggers+0xd4>)
 800380a:	5cd3      	ldrb	r3, [r2, r3]
 800380c:	b97b      	cbnz	r3, 800382e <processTriggers+0x2a>
		sig = (__IO uint8_t *)CH1_ADC_vals;
 800380e:	4a33      	ldr	r2, [pc, #204]	; (80038dc <processTriggers+0xd8>)
	if(trigtypeVals[trigtype] == TRIGTYPE_RIS){
 8003810:	4b33      	ldr	r3, [pc, #204]	; (80038e0 <processTriggers+0xdc>)
 8003812:	781b      	ldrb	r3, [r3, #0]
 8003814:	4933      	ldr	r1, [pc, #204]	; (80038e4 <processTriggers+0xe0>)
 8003816:	5ccb      	ldrb	r3, [r1, r3]
 8003818:	b1e3      	cbz	r3, 8003854 <processTriggers+0x50>
	else if(trigtypeVals[trigtype] == TRIGTYPE_FAL){
 800381a:	2b01      	cmp	r3, #1
 800381c:	d030      	beq.n	8003880 <processTriggers+0x7c>
	else if(trigtypeVals[trigtype] == TRIGTYPE_EDGE){
 800381e:	2b02      	cmp	r3, #2
 8003820:	d133      	bne.n	800388a <processTriggers+0x86>
 8003822:	2301      	movs	r3, #1
		for(i = 1; i < ADC_BUF_SIZE; i++)
 8003824:	f5b3 6fa5 	cmp.w	r3, #1320	; 0x528
 8003828:	da51      	bge.n	80038ce <processTriggers+0xca>
{
 800382a:	b430      	push	{r4, r5}
 800382c:	e034      	b.n	8003898 <processTriggers+0x94>
		sig = (__IO uint8_t *)CH2_ADC_vals;
 800382e:	4a2e      	ldr	r2, [pc, #184]	; (80038e8 <processTriggers+0xe4>)
 8003830:	e7ee      	b.n	8003810 <processTriggers+0xc>
		for(i = 1; i < ADC_BUF_SIZE; i++)
 8003832:	3001      	adds	r0, #1
 8003834:	f5b0 6fa5 	cmp.w	r0, #1320	; 0x528
 8003838:	da0e      	bge.n	8003858 <processTriggers+0x54>
			if(sig[i-1] <= triglvl && triglvl < sig[i])
 800383a:	1e43      	subs	r3, r0, #1
 800383c:	5cd3      	ldrb	r3, [r2, r3]
 800383e:	b2db      	uxtb	r3, r3
 8003840:	492a      	ldr	r1, [pc, #168]	; (80038ec <processTriggers+0xe8>)
 8003842:	7809      	ldrb	r1, [r1, #0]
 8003844:	428b      	cmp	r3, r1
 8003846:	d8f4      	bhi.n	8003832 <processTriggers+0x2e>
 8003848:	5c13      	ldrb	r3, [r2, r0]
 800384a:	b2db      	uxtb	r3, r3
 800384c:	4299      	cmp	r1, r3
 800384e:	d2f0      	bcs.n	8003832 <processTriggers+0x2e>
				return i-1;
 8003850:	3801      	subs	r0, #1
 8003852:	4770      	bx	lr
 8003854:	2001      	movs	r0, #1
 8003856:	e7ed      	b.n	8003834 <processTriggers+0x30>
	return -1;		/* trigger condition not met */
 8003858:	f04f 30ff 	mov.w	r0, #4294967295
 800385c:	4770      	bx	lr
		for(i = 1; i < ADC_BUF_SIZE; i++)
 800385e:	3301      	adds	r3, #1
 8003860:	f5b3 6fa5 	cmp.w	r3, #1320	; 0x528
 8003864:	da0e      	bge.n	8003884 <processTriggers+0x80>
			if(sig[i-1] > triglvl && triglvl >= sig[i])
 8003866:	1e59      	subs	r1, r3, #1
 8003868:	5c51      	ldrb	r1, [r2, r1]
 800386a:	b2c9      	uxtb	r1, r1
 800386c:	481f      	ldr	r0, [pc, #124]	; (80038ec <processTriggers+0xe8>)
 800386e:	7800      	ldrb	r0, [r0, #0]
 8003870:	4281      	cmp	r1, r0
 8003872:	d9f4      	bls.n	800385e <processTriggers+0x5a>
 8003874:	5cd1      	ldrb	r1, [r2, r3]
 8003876:	b2c9      	uxtb	r1, r1
 8003878:	4288      	cmp	r0, r1
 800387a:	d3f0      	bcc.n	800385e <processTriggers+0x5a>
				return i-1;
 800387c:	1e58      	subs	r0, r3, #1
 800387e:	4770      	bx	lr
 8003880:	2301      	movs	r3, #1
 8003882:	e7ed      	b.n	8003860 <processTriggers+0x5c>
	return -1;		/* trigger condition not met */
 8003884:	f04f 30ff 	mov.w	r0, #4294967295
 8003888:	4770      	bx	lr
 800388a:	f04f 30ff 	mov.w	r0, #4294967295
 800388e:	4770      	bx	lr
		for(i = 1; i < ADC_BUF_SIZE; i++)
 8003890:	3301      	adds	r3, #1
 8003892:	f5b3 6fa5 	cmp.w	r3, #1320	; 0x528
 8003896:	da17      	bge.n	80038c8 <processTriggers+0xc4>
			if((sig[i-1] > triglvl && triglvl >= sig[i]) ||
 8003898:	461d      	mov	r5, r3
 800389a:	1e59      	subs	r1, r3, #1
 800389c:	1854      	adds	r4, r2, r1
 800389e:	5c51      	ldrb	r1, [r2, r1]
 80038a0:	b2c9      	uxtb	r1, r1
 80038a2:	4812      	ldr	r0, [pc, #72]	; (80038ec <processTriggers+0xe8>)
 80038a4:	7800      	ldrb	r0, [r0, #0]
 80038a6:	4281      	cmp	r1, r0
 80038a8:	d903      	bls.n	80038b2 <processTriggers+0xae>
 80038aa:	5cd1      	ldrb	r1, [r2, r3]
 80038ac:	b2c9      	uxtb	r1, r1
 80038ae:	4288      	cmp	r0, r1
 80038b0:	d207      	bcs.n	80038c2 <processTriggers+0xbe>
			   (sig[i-1] <= triglvl && triglvl < sig[i]))
 80038b2:	7821      	ldrb	r1, [r4, #0]
 80038b4:	b2c9      	uxtb	r1, r1
			if((sig[i-1] > triglvl && triglvl >= sig[i]) ||
 80038b6:	4288      	cmp	r0, r1
 80038b8:	d3ea      	bcc.n	8003890 <processTriggers+0x8c>
			   (sig[i-1] <= triglvl && triglvl < sig[i]))
 80038ba:	5d51      	ldrb	r1, [r2, r5]
 80038bc:	b2c9      	uxtb	r1, r1
 80038be:	4288      	cmp	r0, r1
 80038c0:	d2e6      	bcs.n	8003890 <processTriggers+0x8c>
				return i-1;
 80038c2:	1e58      	subs	r0, r3, #1
}
 80038c4:	bc30      	pop	{r4, r5}
 80038c6:	4770      	bx	lr
	return -1;		/* trigger condition not met */
 80038c8:	f04f 30ff 	mov.w	r0, #4294967295
 80038cc:	e7fa      	b.n	80038c4 <processTriggers+0xc0>
 80038ce:	f04f 30ff 	mov.w	r0, #4294967295
 80038d2:	4770      	bx	lr
 80038d4:	200000c2 	.word	0x200000c2
 80038d8:	0800bf90 	.word	0x0800bf90
 80038dc:	20000170 	.word	0x20000170
 80038e0:	200000c3 	.word	0x200000c3
 80038e4:	0800bfa0 	.word	0x0800bfa0
 80038e8:	20000698 	.word	0x20000698
 80038ec:	20000008 	.word	0x20000008

080038f0 <chkTrigResampSig>:
{
 80038f0:	b470      	push	{r4, r5, r6}
	if(trigsrcVals[trigsrc] == TRIGSRC_CH1)
 80038f2:	4b29      	ldr	r3, [pc, #164]	; (8003998 <chkTrigResampSig+0xa8>)
 80038f4:	781b      	ldrb	r3, [r3, #0]
 80038f6:	4a29      	ldr	r2, [pc, #164]	; (800399c <chkTrigResampSig+0xac>)
 80038f8:	5cd3      	ldrb	r3, [r2, r3]
 80038fa:	b97b      	cbnz	r3, 800391c <chkTrigResampSig+0x2c>
		sig = CH1_ResampledVals;
 80038fc:	4a28      	ldr	r2, [pc, #160]	; (80039a0 <chkTrigResampSig+0xb0>)
	if(trigtypeVals[trigtype] == TRIGTYPE_RIS){
 80038fe:	4b29      	ldr	r3, [pc, #164]	; (80039a4 <chkTrigResampSig+0xb4>)
 8003900:	781b      	ldrb	r3, [r3, #0]
 8003902:	4929      	ldr	r1, [pc, #164]	; (80039a8 <chkTrigResampSig+0xb8>)
 8003904:	5ccb      	ldrb	r3, [r1, r3]
 8003906:	b1d3      	cbz	r3, 800393e <chkTrigResampSig+0x4e>
	else if(trigtypeVals[trigtype] == TRIGTYPE_FAL){
 8003908:	2b01      	cmp	r3, #1
 800390a:	d029      	beq.n	8003960 <chkTrigResampSig+0x70>
	else if(trigtypeVals[trigtype] == TRIGTYPE_EDGE){
 800390c:	2b02      	cmp	r3, #2
 800390e:	d03e      	beq.n	800398e <chkTrigResampSig+0x9e>
	return len/2;		/* trigger condition not met, return midpoint as default */
 8003910:	4603      	mov	r3, r0
 8003912:	2800      	cmp	r0, #0
 8003914:	db3d      	blt.n	8003992 <chkTrigResampSig+0xa2>
 8003916:	1058      	asrs	r0, r3, #1
}
 8003918:	bc70      	pop	{r4, r5, r6}
 800391a:	4770      	bx	lr
		sig = CH2_ResampledVals;
 800391c:	4a23      	ldr	r2, [pc, #140]	; (80039ac <chkTrigResampSig+0xbc>)
 800391e:	e7ee      	b.n	80038fe <chkTrigResampSig+0xe>
		for(i = 1; i < len; i++)
 8003920:	3301      	adds	r3, #1
 8003922:	4283      	cmp	r3, r0
 8003924:	daf4      	bge.n	8003910 <chkTrigResampSig+0x20>
			if(sig[i-1] <= triglvl && triglvl < sig[i])
 8003926:	18d1      	adds	r1, r2, r3
 8003928:	f811 4c01 	ldrb.w	r4, [r1, #-1]
 800392c:	4920      	ldr	r1, [pc, #128]	; (80039b0 <chkTrigResampSig+0xc0>)
 800392e:	7809      	ldrb	r1, [r1, #0]
 8003930:	428c      	cmp	r4, r1
 8003932:	d8f5      	bhi.n	8003920 <chkTrigResampSig+0x30>
 8003934:	5cd4      	ldrb	r4, [r2, r3]
 8003936:	42a1      	cmp	r1, r4
 8003938:	d2f2      	bcs.n	8003920 <chkTrigResampSig+0x30>
				return i-1;
 800393a:	1e58      	subs	r0, r3, #1
 800393c:	e7ec      	b.n	8003918 <chkTrigResampSig+0x28>
 800393e:	2301      	movs	r3, #1
 8003940:	e7ef      	b.n	8003922 <chkTrigResampSig+0x32>
		for(i = 1; i < len; i++)
 8003942:	3301      	adds	r3, #1
 8003944:	4283      	cmp	r3, r0
 8003946:	dae3      	bge.n	8003910 <chkTrigResampSig+0x20>
			if(sig[i-1] > triglvl && triglvl >= sig[i])
 8003948:	18d1      	adds	r1, r2, r3
 800394a:	f811 4c01 	ldrb.w	r4, [r1, #-1]
 800394e:	4918      	ldr	r1, [pc, #96]	; (80039b0 <chkTrigResampSig+0xc0>)
 8003950:	7809      	ldrb	r1, [r1, #0]
 8003952:	428c      	cmp	r4, r1
 8003954:	d9f5      	bls.n	8003942 <chkTrigResampSig+0x52>
 8003956:	5cd4      	ldrb	r4, [r2, r3]
 8003958:	42a1      	cmp	r1, r4
 800395a:	d3f2      	bcc.n	8003942 <chkTrigResampSig+0x52>
				return i-1;
 800395c:	1e58      	subs	r0, r3, #1
 800395e:	e7db      	b.n	8003918 <chkTrigResampSig+0x28>
 8003960:	2301      	movs	r3, #1
 8003962:	e7ef      	b.n	8003944 <chkTrigResampSig+0x54>
		for(i = 1; i < len; i++)
 8003964:	3301      	adds	r3, #1
 8003966:	4283      	cmp	r3, r0
 8003968:	dad2      	bge.n	8003910 <chkTrigResampSig+0x20>
			if((sig[i-1] > triglvl && triglvl >= sig[i]) ||
 800396a:	461d      	mov	r5, r3
 800396c:	18d1      	adds	r1, r2, r3
 800396e:	f811 4c01 	ldrb.w	r4, [r1, #-1]
 8003972:	490f      	ldr	r1, [pc, #60]	; (80039b0 <chkTrigResampSig+0xc0>)
 8003974:	7809      	ldrb	r1, [r1, #0]
 8003976:	428c      	cmp	r4, r1
 8003978:	d902      	bls.n	8003980 <chkTrigResampSig+0x90>
 800397a:	5cd6      	ldrb	r6, [r2, r3]
 800397c:	42b1      	cmp	r1, r6
 800397e:	d204      	bcs.n	800398a <chkTrigResampSig+0x9a>
 8003980:	428c      	cmp	r4, r1
 8003982:	d8ef      	bhi.n	8003964 <chkTrigResampSig+0x74>
			   (sig[i-1] <= triglvl && triglvl < sig[i]))
 8003984:	5d54      	ldrb	r4, [r2, r5]
 8003986:	42a1      	cmp	r1, r4
 8003988:	d2ec      	bcs.n	8003964 <chkTrigResampSig+0x74>
				return i-1;
 800398a:	1e58      	subs	r0, r3, #1
 800398c:	e7c4      	b.n	8003918 <chkTrigResampSig+0x28>
 800398e:	2301      	movs	r3, #1
 8003990:	e7e9      	b.n	8003966 <chkTrigResampSig+0x76>
	return len/2;		/* trigger condition not met, return midpoint as default */
 8003992:	1c43      	adds	r3, r0, #1
 8003994:	e7bf      	b.n	8003916 <chkTrigResampSig+0x26>
 8003996:	bf00      	nop
 8003998:	200000c2 	.word	0x200000c2
 800399c:	0800bf90 	.word	0x0800bf90
 80039a0:	20001e94 	.word	0x20001e94
 80039a4:	200000c3 	.word	0x200000c3
 80039a8:	0800bfa0 	.word	0x0800bfa0
 80039ac:	20000bd4 	.word	0x20000bd4
 80039b0:	20000008 	.word	0x20000008

080039b4 <resampleChannels>:
{
 80039b4:	e92d 4ff0 	stmdb	sp!, {r4, r5, r6, r7, r8, r9, sl, fp, lr}
 80039b8:	ed2d 8b02 	vpush	{d8}
 80039bc:	f5ad 4de9 	sub.w	sp, sp, #29824	; 0x7480
 80039c0:	b08d      	sub	sp, #52	; 0x34
 80039c2:	af02      	add	r7, sp, #8
	if(newSR == origSR){
 80039c4:	4293      	cmp	r3, r2
 80039c6:	d028      	beq.n	8003a1a <resampleChannels+0x66>
 80039c8:	461e      	mov	r6, r3
 80039ca:	4615      	mov	r5, r2
 80039cc:	468b      	mov	fp, r1
 80039ce:	60f8      	str	r0, [r7, #12]
	nFilters = calcFilters(origSR, newSR, &filt1, &filt2, &filt3);
 80039d0:	f247 4384 	movw	r3, #29828	; 0x7484
 80039d4:	18fb      	adds	r3, r7, r3
 80039d6:	9300      	str	r3, [sp, #0]
 80039d8:	f247 4390 	movw	r3, #29840	; 0x7490
 80039dc:	18fb      	adds	r3, r7, r3
 80039de:	f247 429c 	movw	r2, #29852	; 0x749c
 80039e2:	18ba      	adds	r2, r7, r2
 80039e4:	4631      	mov	r1, r6
 80039e6:	4628      	mov	r0, r5
 80039e8:	f7ff fc38 	bl	800325c <calcFilters>
 80039ec:	6138      	str	r0, [r7, #16]
	if(nFilters == -1)
 80039ee:	f1b0 3fff 	cmp.w	r0, #4294967295
 80039f2:	f000 8439 	beq.w	8004268 <resampleChannels+0x8b4>
 80039f6:	2300      	movs	r3, #0
 80039f8:	617b      	str	r3, [r7, #20]
 80039fa:	e3f5      	b.n	80041e8 <resampleChannels+0x834>
			CH1_ResampledVals[i] = CH1_ADC_vals[offset + i];
 80039fc:	181a      	adds	r2, r3, r0
 80039fe:	4cc4      	ldr	r4, [pc, #784]	; (8003d10 <resampleChannels+0x35c>)
 8003a00:	5ca5      	ldrb	r5, [r4, r2]
 8003a02:	4cc4      	ldr	r4, [pc, #784]	; (8003d14 <resampleChannels+0x360>)
 8003a04:	54e5      	strb	r5, [r4, r3]
			CH2_ResampledVals[i] = CH2_ADC_vals[offset + i];
 8003a06:	4cc4      	ldr	r4, [pc, #784]	; (8003d18 <resampleChannels+0x364>)
 8003a08:	5ca4      	ldrb	r4, [r4, r2]
 8003a0a:	4ac4      	ldr	r2, [pc, #784]	; (8003d1c <resampleChannels+0x368>)
 8003a0c:	54d4      	strb	r4, [r2, r3]
		for(i = 0; i < lenx; i++){
 8003a0e:	3301      	adds	r3, #1
 8003a10:	428b      	cmp	r3, r1
 8003a12:	d3f3      	bcc.n	80039fc <resampleChannels+0x48>
		return lenx;
 8003a14:	6139      	str	r1, [r7, #16]
 8003a16:	f000 bc27 	b.w	8004268 <resampleChannels+0x8b4>
 8003a1a:	2300      	movs	r3, #0
 8003a1c:	e7f8      	b.n	8003a10 <resampleChannels+0x5c>
			x = (uint8_t *)CH1_ADC_vals + offset;
 8003a1e:	4ebc      	ldr	r6, [pc, #752]	; (8003d10 <resampleChannels+0x35c>)
 8003a20:	68fb      	ldr	r3, [r7, #12]
 8003a22:	441e      	add	r6, r3
			CHx_ResampledVals = CH1_ResampledVals;
 8003a24:	4dbb      	ldr	r5, [pc, #748]	; (8003d14 <resampleChannels+0x360>)
 8003a26:	e3ea      	b.n	80041fe <resampleChannels+0x84a>
		if(filt1.type == FILTERTYPE_INT){
 8003a28:	f8c7 d008 	str.w	sp, [r7, #8]
			uint32_t filtdelay = getFiltDelay(filt1.factor);
 8003a2c:	f247 439d 	movw	r3, #29853	; 0x749d
 8003a30:	18fb      	adds	r3, r7, r3
 8003a32:	f893 a000 	ldrb.w	sl, [r3]
 8003a36:	4650      	mov	r0, sl
 8003a38:	f7ff fedc 	bl	80037f4 <getFiltDelay>
 8003a3c:	4603      	mov	r3, r0
 8003a3e:	6078      	str	r0, [r7, #4]
			uint32_t nextra = floor((float32_t)(filtdelay + filt1.factor - 1)/filt1.factor);	/* no. of extra samples appended on each side */
 8003a40:	4453      	add	r3, sl
 8003a42:	3b01      	subs	r3, #1
 8003a44:	ee07 3a90 	vmov	s15, r3
 8003a48:	eef8 7a67 	vcvt.f32.u32	s15, s15
 8003a4c:	ee07 aa10 	vmov	s14, sl
 8003a50:	eeb8 7ac7 	vcvt.f32.s32	s14, s14
 8003a54:	eec7 6a87 	vdiv.f32	s13, s15, s14
 8003a58:	ee16 0a90 	vmov	r0, s13
 8003a5c:	f7fc fd40 	bl	80004e0 <__aeabi_f2d>
 8003a60:	ec41 0b10 	vmov	d0, r0, r1
 8003a64:	f008 f8f0 	bl	800bc48 <floor>
 8003a68:	ec51 0b10 	vmov	r0, r1, d0
 8003a6c:	f7fd f84e 	bl	8000b0c <__aeabi_d2uiz>
 8003a70:	4604      	mov	r4, r0
			uint32_t leninpbuf = lenx + 2*nextra;
 8003a72:	eb0b 0940 	add.w	r9, fp, r0, lsl #1
			float32_t inpbuf[leninpbuf];
 8003a76:	ea4f 0389 	mov.w	r3, r9, lsl #2
 8003a7a:	330a      	adds	r3, #10
 8003a7c:	f023 0307 	bic.w	r3, r3, #7
 8003a80:	ebad 0d03 	sub.w	sp, sp, r3
 8003a84:	f10d 0808 	add.w	r8, sp, #8
			float32_t statebuf[leninpbuf + filt1.ntaps/filt1.factor - 1];
 8003a88:	f247 43a4 	movw	r3, #29860	; 0x74a4
 8003a8c:	18fb      	adds	r3, r7, r3
 8003a8e:	681b      	ldr	r3, [r3, #0]
 8003a90:	fbb3 f3fa 	udiv	r3, r3, sl
 8003a94:	444b      	add	r3, r9
 8003a96:	3b01      	subs	r3, #1
 8003a98:	009b      	lsls	r3, r3, #2
 8003a9a:	330a      	adds	r3, #10
 8003a9c:	f023 0307 	bic.w	r3, r3, #7
 8003aa0:	ebad 0d03 	sub.w	sp, sp, r3
 8003aa4:	a802      	add	r0, sp, #8
			uint8_t endpt1 = x[0], endpt2 = x[lenx - 1];
 8003aa6:	7833      	ldrb	r3, [r6, #0]
 8003aa8:	ee06 3a10 	vmov	s12, r3
 8003aac:	f10b 33ff 	add.w	r3, fp, #4294967295
 8003ab0:	5cf3      	ldrb	r3, [r6, r3]
 8003ab2:	ee06 3a90 	vmov	s13, r3
			for(i = 0; i < nextra; i++)
 8003ab6:	2300      	movs	r3, #0
 8003ab8:	e010      	b.n	8003adc <resampleChannels+0x128>
				inpbuf[i] = (float32_t)endpt1 * filt1.factor;			/* extend signal with end-point values to minimize transient effects */
 8003aba:	eef8 7a46 	vcvt.f32.u32	s15, s12
 8003abe:	f247 429d 	movw	r2, #29853	; 0x749d
 8003ac2:	18ba      	adds	r2, r7, r2
 8003ac4:	7812      	ldrb	r2, [r2, #0]
 8003ac6:	ee07 2a10 	vmov	s14, r2
 8003aca:	eeb8 7ac7 	vcvt.f32.s32	s14, s14
 8003ace:	ee67 7a27 	vmul.f32	s15, s14, s15
 8003ad2:	eb08 0283 	add.w	r2, r8, r3, lsl #2
 8003ad6:	edc2 7a00 	vstr	s15, [r2]
			for(i = 0; i < nextra; i++)
 8003ada:	3301      	adds	r3, #1
 8003adc:	42a3      	cmp	r3, r4
 8003ade:	d3ec      	bcc.n	8003aba <resampleChannels+0x106>
 8003ae0:	2300      	movs	r3, #0
 8003ae2:	e014      	b.n	8003b0e <resampleChannels+0x15a>
				inpbuf[nextra + i] = (float32_t)x[i] * filt1.factor;	/* compensate for the interpolation loss */
 8003ae4:	191a      	adds	r2, r3, r4
 8003ae6:	5cf1      	ldrb	r1, [r6, r3]
 8003ae8:	ee07 1a10 	vmov	s14, r1
 8003aec:	eeb8 7a47 	vcvt.f32.u32	s14, s14
 8003af0:	f247 419d 	movw	r1, #29853	; 0x749d
 8003af4:	1879      	adds	r1, r7, r1
 8003af6:	7809      	ldrb	r1, [r1, #0]
 8003af8:	ee07 1a90 	vmov	s15, r1
 8003afc:	eef8 7ae7 	vcvt.f32.s32	s15, s15
 8003b00:	ee67 7a87 	vmul.f32	s15, s15, s14
 8003b04:	eb08 0282 	add.w	r2, r8, r2, lsl #2
 8003b08:	edc2 7a00 	vstr	s15, [r2]
			for(i = 0; i < lenx; i++)
 8003b0c:	3301      	adds	r3, #1
 8003b0e:	455b      	cmp	r3, fp
 8003b10:	d3e8      	bcc.n	8003ae4 <resampleChannels+0x130>
 8003b12:	2200      	movs	r2, #0
 8003b14:	e013      	b.n	8003b3e <resampleChannels+0x18a>
				inpbuf[nextra + lenx + i] = (float32_t)endpt2 * filt1.factor;	/* extend signal to obtain the complete signal output from the filter */
 8003b16:	eb0b 0304 	add.w	r3, fp, r4
 8003b1a:	4413      	add	r3, r2
 8003b1c:	eef8 7a66 	vcvt.f32.u32	s15, s13
 8003b20:	f247 419d 	movw	r1, #29853	; 0x749d
 8003b24:	1879      	adds	r1, r7, r1
 8003b26:	7809      	ldrb	r1, [r1, #0]
 8003b28:	ee07 1a10 	vmov	s14, r1
 8003b2c:	eeb8 7ac7 	vcvt.f32.s32	s14, s14
 8003b30:	ee67 7a27 	vmul.f32	s15, s14, s15
 8003b34:	eb08 0383 	add.w	r3, r8, r3, lsl #2
 8003b38:	edc3 7a00 	vstr	s15, [r3]
			for(i = 0; i < nextra; i++)
 8003b3c:	3201      	adds	r2, #1
 8003b3e:	42a2      	cmp	r2, r4
 8003b40:	d3e9      	bcc.n	8003b16 <resampleChannels+0x162>
			arm_fir_interpolate_init_f32(&hInterpolator, filt1.factor, filt1.ntaps, filt1.coeffs, statebuf, leninpbuf);
 8003b42:	f247 43a0 	movw	r3, #29856	; 0x74a0
 8003b46:	18fb      	adds	r3, r7, r3
 8003b48:	681b      	ldr	r3, [r3, #0]
 8003b4a:	f247 42a4 	movw	r2, #29860	; 0x74a4
 8003b4e:	18ba      	adds	r2, r7, r2
 8003b50:	8812      	ldrh	r2, [r2, #0]
 8003b52:	f247 419d 	movw	r1, #29853	; 0x749d
 8003b56:	1879      	adds	r1, r7, r1
 8003b58:	7809      	ldrb	r1, [r1, #0]
 8003b5a:	f8cd 9004 	str.w	r9, [sp, #4]
 8003b5e:	9000      	str	r0, [sp, #0]
 8003b60:	f247 4078 	movw	r0, #29816	; 0x7478
 8003b64:	1838      	adds	r0, r7, r0
 8003b66:	f005 fb41 	bl	80091ec <arm_fir_interpolate_init_f32>
			arm_fir_interpolate_f32(&hInterpolator, inpbuf, (float32_t *)tempbuf1 + MAX_PREPEND_LEN2, leninpbuf);
 8003b6a:	464b      	mov	r3, r9
 8003b6c:	f242 72dc 	movw	r2, #10204	; 0x27dc
 8003b70:	18ba      	adds	r2, r7, r2
 8003b72:	4641      	mov	r1, r8
 8003b74:	f247 4078 	movw	r0, #29816	; 0x7478
 8003b78:	1838      	adds	r0, r7, r0
 8003b7a:	f005 fb51 	bl	8009220 <arm_fir_interpolate_f32>
			prevStageOupOffset = filtdelay + nextra*filt1.factor + MAX_PREPEND_LEN2;		/* ignore initial transient elements of the output */
 8003b7e:	f247 439d 	movw	r3, #29853	; 0x749d
 8003b82:	18fb      	adds	r3, r7, r3
 8003b84:	781b      	ldrb	r3, [r3, #0]
 8003b86:	687a      	ldr	r2, [r7, #4]
 8003b88:	fb03 2a04 	mla	sl, r3, r4, r2
 8003b8c:	f10a 0a32 	add.w	sl, sl, #50	; 0x32
			prevStageOupLen = lenx * filt1.factor;
 8003b90:	fb03 f40b 	mul.w	r4, r3, fp
 8003b94:	f8d7 d008 	ldr.w	sp, [r7, #8]
 8003b98:	e06a      	b.n	8003c70 <resampleChannels+0x2bc>
				inpbuf[i] = endpt1;
 8003b9a:	eb04 0283 	add.w	r2, r4, r3, lsl #2
 8003b9e:	eef8 7a66 	vcvt.f32.u32	s15, s13
 8003ba2:	edc2 7a00 	vstr	s15, [r2]
			for(i = 0; i < filtdelay; i++)
 8003ba6:	3301      	adds	r3, #1
 8003ba8:	4543      	cmp	r3, r8
 8003baa:	d3f6      	bcc.n	8003b9a <resampleChannels+0x1e6>
 8003bac:	2300      	movs	r3, #0
 8003bae:	e00b      	b.n	8003bc8 <resampleChannels+0x214>
				inpbuf[filtdelay + i] = x[i];
 8003bb0:	eb03 0208 	add.w	r2, r3, r8
 8003bb4:	5cf1      	ldrb	r1, [r6, r3]
 8003bb6:	ee07 1a90 	vmov	s15, r1
 8003bba:	eb04 0282 	add.w	r2, r4, r2, lsl #2
 8003bbe:	eef8 7a67 	vcvt.f32.u32	s15, s15
 8003bc2:	edc2 7a00 	vstr	s15, [r2]
			for(i = 0; i < lenx; i++)
 8003bc6:	3301      	adds	r3, #1
 8003bc8:	455b      	cmp	r3, fp
 8003bca:	d3f1      	bcc.n	8003bb0 <resampleChannels+0x1fc>
			for(i = filtdelay + lenx; i < leninpbuf; i++)
 8003bcc:	eb0b 0308 	add.w	r3, fp, r8
 8003bd0:	e006      	b.n	8003be0 <resampleChannels+0x22c>
				inpbuf[i] = endpt2;
 8003bd2:	eb04 0283 	add.w	r2, r4, r3, lsl #2
 8003bd6:	eef8 7a47 	vcvt.f32.u32	s15, s14
 8003bda:	edc2 7a00 	vstr	s15, [r2]
			for(i = filtdelay + lenx; i < leninpbuf; i++)
 8003bde:	3301      	adds	r3, #1
 8003be0:	4553      	cmp	r3, sl
 8003be2:	d3f6      	bcc.n	8003bd2 <resampleChannels+0x21e>
			arm_fir_decimate_init_f32(&hDecimator, filt1.ntaps, filt1.factor, filt1.coeffs, statebuf, leninpbuf);
 8003be4:	f247 43a0 	movw	r3, #29856	; 0x74a0
 8003be8:	18fb      	adds	r3, r7, r3
 8003bea:	681b      	ldr	r3, [r3, #0]
 8003bec:	f247 429d 	movw	r2, #29853	; 0x749d
 8003bf0:	18ba      	adds	r2, r7, r2
 8003bf2:	7812      	ldrb	r2, [r2, #0]
 8003bf4:	f247 41a4 	movw	r1, #29860	; 0x74a4
 8003bf8:	1879      	adds	r1, r7, r1
 8003bfa:	8809      	ldrh	r1, [r1, #0]
 8003bfc:	f8cd a004 	str.w	sl, [sp, #4]
 8003c00:	9000      	str	r0, [sp, #0]
 8003c02:	f247 406c 	movw	r0, #29804	; 0x746c
 8003c06:	1838      	adds	r0, r7, r0
 8003c08:	f005 fd5a 	bl	80096c0 <arm_fir_decimate_init_f32>
			arm_fir_decimate_f32(&hDecimator, inpbuf, (float32_t *)tempbuf1 + MAX_PREPEND_LEN2, leninpbuf);
 8003c0c:	4653      	mov	r3, sl
 8003c0e:	f242 72dc 	movw	r2, #10204	; 0x27dc
 8003c12:	18ba      	adds	r2, r7, r2
 8003c14:	4621      	mov	r1, r4
 8003c16:	f247 406c 	movw	r0, #29804	; 0x746c
 8003c1a:	1838      	adds	r0, r7, r0
 8003c1c:	f005 fd6e 	bl	80096fc <arm_fir_decimate_f32>
			prevStageOupOffset = 2*floor((float32_t)(filtdelay + filt1.factor - 1)/filt1.factor);
 8003c20:	f247 439d 	movw	r3, #29853	; 0x749d
 8003c24:	18fb      	adds	r3, r7, r3
 8003c26:	781c      	ldrb	r4, [r3, #0]
 8003c28:	44a0      	add	r8, r4
 8003c2a:	f108 38ff 	add.w	r8, r8, #4294967295
 8003c2e:	ee07 8a90 	vmov	s15, r8
 8003c32:	eef8 7a67 	vcvt.f32.u32	s15, s15
 8003c36:	ee07 4a10 	vmov	s14, r4
 8003c3a:	eeb8 7ac7 	vcvt.f32.s32	s14, s14
 8003c3e:	eec7 6a87 	vdiv.f32	s13, s15, s14
 8003c42:	ee16 0a90 	vmov	r0, s13
 8003c46:	f7fc fc4b 	bl	80004e0 <__aeabi_f2d>
 8003c4a:	ec41 0b10 	vmov	d0, r0, r1
 8003c4e:	f007 fffb 	bl	800bc48 <floor>
 8003c52:	ec51 0b10 	vmov	r0, r1, d0
 8003c56:	ee10 2a10 	vmov	r2, s0
 8003c5a:	460b      	mov	r3, r1
 8003c5c:	f7fc fae2 	bl	8000224 <__adddf3>
 8003c60:	f7fc ff54 	bl	8000b0c <__aeabi_d2uiz>
			prevStageOupLen = leninpbuf/filt1.factor - prevStageOupOffset;
 8003c64:	fbba f4f4 	udiv	r4, sl, r4
 8003c68:	1a24      	subs	r4, r4, r0
			prevStageOupOffset += MAX_PREPEND_LEN2;
 8003c6a:	f100 0a32 	add.w	sl, r0, #50	; 0x32
 8003c6e:	46cd      	mov	sp, r9
		if(nFilters == 1){
 8003c70:	693b      	ldr	r3, [r7, #16]
 8003c72:	2b01      	cmp	r3, #1
 8003c74:	d049      	beq.n	8003d0a <resampleChannels+0x356>
			if(filt2.type == FILTERTYPE_INT){
 8003c76:	f247 4390 	movw	r3, #29840	; 0x7490
 8003c7a:	18fb      	adds	r3, r7, r3
 8003c7c:	781b      	ldrb	r3, [r3, #0]
 8003c7e:	2b01      	cmp	r3, #1
 8003c80:	d04e      	beq.n	8003d20 <resampleChannels+0x36c>
			else{
 8003c82:	f8c7 d008 	str.w	sp, [r7, #8]
				uint32_t filtdelay = getFiltDelay(filt2.factor);
 8003c86:	f247 4391 	movw	r3, #29841	; 0x7491
 8003c8a:	18fb      	adds	r3, r7, r3
 8003c8c:	f893 9000 	ldrb.w	r9, [r3]
 8003c90:	4648      	mov	r0, r9
 8003c92:	f7ff fdaf 	bl	80037f4 <getFiltDelay>
 8003c96:	4680      	mov	r8, r0
				uint32_t leninpbuf = findNextMultiple(prevStageOupLen + 2*filtdelay, filt2.factor);
 8003c98:	4649      	mov	r1, r9
 8003c9a:	eb04 0040 	add.w	r0, r4, r0, lsl #1
 8003c9e:	f7ff fda1 	bl	80037e4 <findNextMultiple>
 8003ca2:	4606      	mov	r6, r0
				float32_t statebuf[filt2.ntaps + leninpbuf - 1];
 8003ca4:	f247 4398 	movw	r3, #29848	; 0x7498
 8003ca8:	18fb      	adds	r3, r7, r3
 8003caa:	6819      	ldr	r1, [r3, #0]
 8003cac:	1843      	adds	r3, r0, r1
 8003cae:	3b01      	subs	r3, #1
 8003cb0:	009b      	lsls	r3, r3, #2
 8003cb2:	330a      	adds	r3, #10
 8003cb4:	f023 0307 	bic.w	r3, r3, #7
 8003cb8:	ebad 0d03 	sub.w	sp, sp, r3
 8003cbc:	aa02      	add	r2, sp, #8
				float32_t endpt1 = tempbuf1[prevStageOupOffset], endpt2 = tempbuf1[prevStageOupOffset + prevStageOupLen - 1];
 8003cbe:	f242 7314 	movw	r3, #10004	; 0x2714
 8003cc2:	18fb      	adds	r3, r7, r3
 8003cc4:	eb03 038a 	add.w	r3, r3, sl, lsl #2
 8003cc8:	f8d3 c000 	ldr.w	ip, [r3]
 8003ccc:	eb04 030a 	add.w	r3, r4, sl
 8003cd0:	3b01      	subs	r3, #1
 8003cd2:	f242 7014 	movw	r0, #10004	; 0x2714
 8003cd6:	1838      	adds	r0, r7, r0
 8003cd8:	eb00 0383 	add.w	r3, r0, r3, lsl #2
 8003cdc:	f8d3 e000 	ldr.w	lr, [r3]
				for(i = 0; i < filtdelay; i++)
 8003ce0:	2000      	movs	r0, #0
 8003ce2:	607a      	str	r2, [r7, #4]
 8003ce4:	e0cd      	b.n	8003e82 <resampleChannels+0x4ce>
				CHx_ResampledVals[i] = tempbuf1[prevStageOupOffset + i];
 8003ce6:	eb02 030a 	add.w	r3, r2, sl
 8003cea:	f242 7114 	movw	r1, #10004	; 0x2714
 8003cee:	1879      	adds	r1, r7, r1
 8003cf0:	eb01 0383 	add.w	r3, r1, r3, lsl #2
 8003cf4:	edd3 7a00 	vldr	s15, [r3]
 8003cf8:	eefc 7ae7 	vcvt.u32.f32	s15, s15
 8003cfc:	ee17 3a90 	vmov	r3, s15
 8003d00:	54ab      	strb	r3, [r5, r2]
			for(i = 0; i < prevStageOupLen; i++)
 8003d02:	3201      	adds	r2, #1
 8003d04:	42a2      	cmp	r2, r4
 8003d06:	d3ee      	bcc.n	8003ce6 <resampleChannels+0x332>
 8003d08:	e26b      	b.n	80041e2 <resampleChannels+0x82e>
 8003d0a:	2200      	movs	r2, #0
 8003d0c:	e7fa      	b.n	8003d04 <resampleChannels+0x350>
 8003d0e:	bf00      	nop
 8003d10:	20000170 	.word	0x20000170
 8003d14:	20001e94 	.word	0x20001e94
 8003d18:	20000698 	.word	0x20000698
 8003d1c:	20000bd4 	.word	0x20000bd4
			if(filt2.type == FILTERTYPE_INT){
 8003d20:	f8c7 d008 	str.w	sp, [r7, #8]
				uint32_t filtdelay = getFiltDelay(filt2.factor);
 8003d24:	f247 4391 	movw	r3, #29841	; 0x7491
 8003d28:	18fb      	adds	r3, r7, r3
 8003d2a:	f893 9000 	ldrb.w	r9, [r3]
 8003d2e:	4648      	mov	r0, r9
 8003d30:	f7ff fd60 	bl	80037f4 <getFiltDelay>
 8003d34:	4603      	mov	r3, r0
 8003d36:	6078      	str	r0, [r7, #4]
				uint32_t nextra = floor((float32_t)(filtdelay + filt2.factor - 1)/filt2.factor);
 8003d38:	444b      	add	r3, r9
 8003d3a:	3b01      	subs	r3, #1
 8003d3c:	ee07 3a90 	vmov	s15, r3
 8003d40:	eef8 7a67 	vcvt.f32.u32	s15, s15
 8003d44:	ee07 9a10 	vmov	s14, r9
 8003d48:	eeb8 8ac7 	vcvt.f32.s32	s16, s14
 8003d4c:	ee87 7a88 	vdiv.f32	s14, s15, s16
 8003d50:	ee17 0a10 	vmov	r0, s14
 8003d54:	f7fc fbc4 	bl	80004e0 <__aeabi_f2d>
 8003d58:	ec41 0b10 	vmov	d0, r0, r1
 8003d5c:	f007 ff74 	bl	800bc48 <floor>
 8003d60:	ec51 0b10 	vmov	r0, r1, d0
 8003d64:	f7fc fed2 	bl	8000b0c <__aeabi_d2uiz>
 8003d68:	4606      	mov	r6, r0
				uint32_t leninpbuf = prevStageOupLen + 2*nextra;
 8003d6a:	eb04 0840 	add.w	r8, r4, r0, lsl #1
				float32_t statebuf[leninpbuf + filt2.ntaps/filt2.factor - 1];
 8003d6e:	f247 4398 	movw	r3, #29848	; 0x7498
 8003d72:	18fb      	adds	r3, r7, r3
 8003d74:	681a      	ldr	r2, [r3, #0]
 8003d76:	fbb2 f3f9 	udiv	r3, r2, r9
 8003d7a:	4443      	add	r3, r8
 8003d7c:	3b01      	subs	r3, #1
 8003d7e:	009b      	lsls	r3, r3, #2
 8003d80:	330a      	adds	r3, #10
 8003d82:	f023 0307 	bic.w	r3, r3, #7
 8003d86:	ebad 0d03 	sub.w	sp, sp, r3
 8003d8a:	f10d 0e08 	add.w	lr, sp, #8
				float32_t endpt1 = tempbuf1[prevStageOupOffset], endpt2 = tempbuf1[prevStageOupOffset + prevStageOupLen - 1];
 8003d8e:	f242 7314 	movw	r3, #10004	; 0x2714
 8003d92:	18fb      	adds	r3, r7, r3
 8003d94:	eb03 038a 	add.w	r3, r3, sl, lsl #2
 8003d98:	edd3 6a00 	vldr	s13, [r3]
 8003d9c:	eb04 000a 	add.w	r0, r4, sl
 8003da0:	1e43      	subs	r3, r0, #1
 8003da2:	f242 7114 	movw	r1, #10004	; 0x2714
 8003da6:	1879      	adds	r1, r7, r1
 8003da8:	eb01 0383 	add.w	r3, r1, r3, lsl #2
 8003dac:	ed93 7a00 	vldr	s14, [r3]
				for(i = 0; i < nextra; i++)
 8003db0:	2100      	movs	r1, #0
 8003db2:	e00c      	b.n	8003dce <resampleChannels+0x41a>
					tempbuf1[prevStageOupOffset - 1 - i] = endpt1 * filt2.factor;
 8003db4:	ebaa 0301 	sub.w	r3, sl, r1
 8003db8:	3b01      	subs	r3, #1
 8003dba:	ee68 7a26 	vmul.f32	s15, s16, s13
 8003dbe:	f242 7c14 	movw	ip, #10004	; 0x2714
 8003dc2:	44bc      	add	ip, r7
 8003dc4:	eb0c 0383 	add.w	r3, ip, r3, lsl #2
 8003dc8:	edc3 7a00 	vstr	s15, [r3]
				for(i = 0; i < nextra; i++)
 8003dcc:	3101      	adds	r1, #1
 8003dce:	42b1      	cmp	r1, r6
 8003dd0:	d3f0      	bcc.n	8003db4 <resampleChannels+0x400>
 8003dd2:	2100      	movs	r1, #0
 8003dd4:	e00d      	b.n	8003df2 <resampleChannels+0x43e>
					tempbuf1[prevStageOupOffset + i] = tempbuf1[prevStageOupOffset + i] * filt2.factor;
 8003dd6:	eb01 030a 	add.w	r3, r1, sl
 8003dda:	f242 7c14 	movw	ip, #10004	; 0x2714
 8003dde:	44bc      	add	ip, r7
 8003de0:	eb0c 0383 	add.w	r3, ip, r3, lsl #2
 8003de4:	edd3 7a00 	vldr	s15, [r3]
 8003de8:	ee68 7a27 	vmul.f32	s15, s16, s15
 8003dec:	edc3 7a00 	vstr	s15, [r3]
				for(i = 0; i < prevStageOupLen; i++)
 8003df0:	3101      	adds	r1, #1
 8003df2:	42a1      	cmp	r1, r4
 8003df4:	d3ef      	bcc.n	8003dd6 <resampleChannels+0x422>
 8003df6:	2100      	movs	r1, #0
 8003df8:	e00a      	b.n	8003e10 <resampleChannels+0x45c>
					tempbuf1[prevStageOupOffset + prevStageOupLen + i] = endpt2 * filt2.factor;
 8003dfa:	180b      	adds	r3, r1, r0
 8003dfc:	ee68 7a07 	vmul.f32	s15, s16, s14
 8003e00:	f242 7c14 	movw	ip, #10004	; 0x2714
 8003e04:	44bc      	add	ip, r7
 8003e06:	eb0c 0383 	add.w	r3, ip, r3, lsl #2
 8003e0a:	edc3 7a00 	vstr	s15, [r3]
				for(i = 0; i < nextra; i++)
 8003e0e:	3101      	adds	r1, #1
 8003e10:	42b1      	cmp	r1, r6
 8003e12:	d3f2      	bcc.n	8003dfa <resampleChannels+0x446>
				arm_fir_interpolate_init_f32(&hInterpolator, filt2.factor, filt2.ntaps, filt2.coeffs, statebuf, leninpbuf);
 8003e14:	f247 4394 	movw	r3, #29844	; 0x7494
 8003e18:	18fb      	adds	r3, r7, r3
 8003e1a:	681b      	ldr	r3, [r3, #0]
 8003e1c:	f8cd 8004 	str.w	r8, [sp, #4]
 8003e20:	f8cd e000 	str.w	lr, [sp]
 8003e24:	b292      	uxth	r2, r2
 8003e26:	4649      	mov	r1, r9
 8003e28:	f247 4078 	movw	r0, #29816	; 0x7478
 8003e2c:	1838      	adds	r0, r7, r0
 8003e2e:	f005 f9dd 	bl	80091ec <arm_fir_interpolate_init_f32>
				arm_fir_interpolate_f32(&hInterpolator, (float32_t *)tempbuf1 + prevStageOupOffset - nextra, (float32_t *)tempbuf2 + MAX_PREPEND_LEN3, leninpbuf);
 8003e32:	ebaa 0106 	sub.w	r1, sl, r6
 8003e36:	4643      	mov	r3, r8
 8003e38:	f107 0244 	add.w	r2, r7, #68	; 0x44
 8003e3c:	f242 7014 	movw	r0, #10004	; 0x2714
 8003e40:	1838      	adds	r0, r7, r0
 8003e42:	eb00 0181 	add.w	r1, r0, r1, lsl #2
 8003e46:	f247 4078 	movw	r0, #29816	; 0x7478
 8003e4a:	1838      	adds	r0, r7, r0
 8003e4c:	f005 f9e8 	bl	8009220 <arm_fir_interpolate_f32>
				prevStageOupOffset = filtdelay + nextra*filt2.factor + MAX_PREPEND_LEN3;
 8003e50:	f247 4391 	movw	r3, #29841	; 0x7491
 8003e54:	18fb      	adds	r3, r7, r3
 8003e56:	781b      	ldrb	r3, [r3, #0]
 8003e58:	687a      	ldr	r2, [r7, #4]
 8003e5a:	fb03 2606 	mla	r6, r3, r6, r2
 8003e5e:	f106 080a 	add.w	r8, r6, #10
				prevStageOupLen = prevStageOupLen * filt2.factor;
 8003e62:	fb03 f404 	mul.w	r4, r3, r4
 8003e66:	f8d7 d008 	ldr.w	sp, [r7, #8]
 8003e6a:	e05f      	b.n	8003f2c <resampleChannels+0x578>
					tempbuf1[prevStageOupOffset - 1 - i] = endpt1;
 8003e6c:	ebaa 0300 	sub.w	r3, sl, r0
 8003e70:	3b01      	subs	r3, #1
 8003e72:	f242 7214 	movw	r2, #10004	; 0x2714
 8003e76:	18ba      	adds	r2, r7, r2
 8003e78:	eb02 0383 	add.w	r3, r2, r3, lsl #2
 8003e7c:	f8c3 c000 	str.w	ip, [r3]
				for(i = 0; i < filtdelay; i++)
 8003e80:	3001      	adds	r0, #1
 8003e82:	4540      	cmp	r0, r8
 8003e84:	d3f2      	bcc.n	8003e6c <resampleChannels+0x4b8>
 8003e86:	687a      	ldr	r2, [r7, #4]
 8003e88:	e009      	b.n	8003e9e <resampleChannels+0x4ea>
					tempbuf1[prevStageOupOffset + i] = endpt2;
 8003e8a:	eb04 030a 	add.w	r3, r4, sl
 8003e8e:	f242 7014 	movw	r0, #10004	; 0x2714
 8003e92:	1838      	adds	r0, r7, r0
 8003e94:	eb00 0383 	add.w	r3, r0, r3, lsl #2
 8003e98:	f8c3 e000 	str.w	lr, [r3]
				for(i = prevStageOupLen; i < leninpbuf; i++)
 8003e9c:	3401      	adds	r4, #1
 8003e9e:	42b4      	cmp	r4, r6
 8003ea0:	d3f3      	bcc.n	8003e8a <resampleChannels+0x4d6>
				arm_fir_decimate_init_f32(&hDecimator, filt2.ntaps, filt2.factor, filt2.coeffs, statebuf, leninpbuf);
 8003ea2:	f247 4394 	movw	r3, #29844	; 0x7494
 8003ea6:	18fb      	adds	r3, r7, r3
 8003ea8:	681b      	ldr	r3, [r3, #0]
 8003eaa:	9601      	str	r6, [sp, #4]
 8003eac:	9200      	str	r2, [sp, #0]
 8003eae:	464a      	mov	r2, r9
 8003eb0:	b289      	uxth	r1, r1
 8003eb2:	f247 406c 	movw	r0, #29804	; 0x746c
 8003eb6:	1838      	adds	r0, r7, r0
 8003eb8:	f005 fc02 	bl	80096c0 <arm_fir_decimate_init_f32>
				arm_fir_decimate_f32(&hDecimator, (float32_t *)tempbuf1 + prevStageOupOffset - filtdelay, (float32_t *)tempbuf2 + MAX_PREPEND_LEN3, leninpbuf);
 8003ebc:	ebaa 0108 	sub.w	r1, sl, r8
 8003ec0:	4633      	mov	r3, r6
 8003ec2:	f107 0244 	add.w	r2, r7, #68	; 0x44
 8003ec6:	f242 7014 	movw	r0, #10004	; 0x2714
 8003eca:	1838      	adds	r0, r7, r0
 8003ecc:	eb00 0181 	add.w	r1, r0, r1, lsl #2
 8003ed0:	f247 406c 	movw	r0, #29804	; 0x746c
 8003ed4:	1838      	adds	r0, r7, r0
 8003ed6:	f005 fc11 	bl	80096fc <arm_fir_decimate_f32>
				prevStageOupOffset = 2*floor((float32_t)(filtdelay + filt2.factor - 1)/filt2.factor);
 8003eda:	f247 4391 	movw	r3, #29841	; 0x7491
 8003ede:	18fb      	adds	r3, r7, r3
 8003ee0:	781c      	ldrb	r4, [r3, #0]
 8003ee2:	44a0      	add	r8, r4
 8003ee4:	f108 38ff 	add.w	r8, r8, #4294967295
 8003ee8:	ee07 8a90 	vmov	s15, r8
 8003eec:	eef8 7a67 	vcvt.f32.u32	s15, s15
 8003ef0:	ee07 4a10 	vmov	s14, r4
 8003ef4:	eeb8 7ac7 	vcvt.f32.s32	s14, s14
 8003ef8:	eec7 6a87 	vdiv.f32	s13, s15, s14
 8003efc:	ee16 0a90 	vmov	r0, s13
 8003f00:	f7fc faee 	bl	80004e0 <__aeabi_f2d>
 8003f04:	ec41 0b10 	vmov	d0, r0, r1
 8003f08:	f007 fe9e 	bl	800bc48 <floor>
 8003f0c:	ec51 0b10 	vmov	r0, r1, d0
 8003f10:	ee10 2a10 	vmov	r2, s0
 8003f14:	460b      	mov	r3, r1
 8003f16:	f7fc f985 	bl	8000224 <__adddf3>
 8003f1a:	f7fc fdf7 	bl	8000b0c <__aeabi_d2uiz>
 8003f1e:	4680      	mov	r8, r0
				prevStageOupLen = leninpbuf/filt2.factor - prevStageOupOffset;
 8003f20:	fbb6 f4f4 	udiv	r4, r6, r4
 8003f24:	1a24      	subs	r4, r4, r0
				prevStageOupLen += MAX_PREPEND_LEN3;
 8003f26:	340a      	adds	r4, #10
 8003f28:	f8d7 d008 	ldr.w	sp, [r7, #8]
			if(nFilters == 2){
 8003f2c:	693b      	ldr	r3, [r7, #16]
 8003f2e:	2b02      	cmp	r3, #2
 8003f30:	d046      	beq.n	8003fc0 <resampleChannels+0x60c>
				if(filt3.type == FILTERTYPE_INT){
 8003f32:	f247 4384 	movw	r3, #29828	; 0x7484
 8003f36:	18fb      	adds	r3, r7, r3
 8003f38:	781b      	ldrb	r3, [r3, #0]
 8003f3a:	2b01      	cmp	r3, #1
 8003f3c:	d042      	beq.n	8003fc4 <resampleChannels+0x610>
				else{
 8003f3e:	f8c7 d008 	str.w	sp, [r7, #8]
					uint32_t filtdelay = getFiltDelay(filt3.factor);
 8003f42:	f247 4385 	movw	r3, #29829	; 0x7485
 8003f46:	18fb      	adds	r3, r7, r3
 8003f48:	f893 a000 	ldrb.w	sl, [r3]
 8003f4c:	4650      	mov	r0, sl
 8003f4e:	f7ff fc51 	bl	80037f4 <getFiltDelay>
 8003f52:	4606      	mov	r6, r0
					uint32_t leninpbuf = findNextMultiple(prevStageOupLen + 2*filtdelay, filt3.factor);
 8003f54:	4651      	mov	r1, sl
 8003f56:	eb04 0040 	add.w	r0, r4, r0, lsl #1
 8003f5a:	f7ff fc43 	bl	80037e4 <findNextMultiple>
 8003f5e:	4681      	mov	r9, r0
					float32_t statebuf[filt3.ntaps + leninpbuf - 1];
 8003f60:	f247 438c 	movw	r3, #29836	; 0x748c
 8003f64:	18fb      	adds	r3, r7, r3
 8003f66:	6819      	ldr	r1, [r3, #0]
 8003f68:	1843      	adds	r3, r0, r1
 8003f6a:	3b01      	subs	r3, #1
 8003f6c:	009b      	lsls	r3, r3, #2
 8003f6e:	330a      	adds	r3, #10
 8003f70:	f023 0307 	bic.w	r3, r3, #7
 8003f74:	ebad 0d03 	sub.w	sp, sp, r3
 8003f78:	aa02      	add	r2, sp, #8
					float32_t endpt1 = tempbuf2[prevStageOupOffset], endpt2 = tempbuf2[prevStageOupOffset + prevStageOupLen - 1];
 8003f7a:	f107 031c 	add.w	r3, r7, #28
 8003f7e:	eb03 0388 	add.w	r3, r3, r8, lsl #2
 8003f82:	f8d3 c000 	ldr.w	ip, [r3]
 8003f86:	eb04 0308 	add.w	r3, r4, r8
 8003f8a:	3b01      	subs	r3, #1
 8003f8c:	f107 001c 	add.w	r0, r7, #28
 8003f90:	eb00 0383 	add.w	r3, r0, r3, lsl #2
 8003f94:	f8d3 e000 	ldr.w	lr, [r3]
					for(i = 0; i < filtdelay; i++)
 8003f98:	2000      	movs	r0, #0
 8003f9a:	607a      	str	r2, [r7, #4]
 8003f9c:	e0bd      	b.n	800411a <resampleChannels+0x766>
					CHx_ResampledVals[i] = tempbuf2[prevStageOupOffset + i];
 8003f9e:	eb02 0308 	add.w	r3, r2, r8
 8003fa2:	f107 011c 	add.w	r1, r7, #28
 8003fa6:	eb01 0383 	add.w	r3, r1, r3, lsl #2
 8003faa:	edd3 7a00 	vldr	s15, [r3]
 8003fae:	eefc 7ae7 	vcvt.u32.f32	s15, s15
 8003fb2:	ee17 3a90 	vmov	r3, s15
 8003fb6:	54ab      	strb	r3, [r5, r2]
				for(i = 0; i < prevStageOupLen; i++)
 8003fb8:	3201      	adds	r2, #1
 8003fba:	42a2      	cmp	r2, r4
 8003fbc:	d3ef      	bcc.n	8003f9e <resampleChannels+0x5ea>
 8003fbe:	e110      	b.n	80041e2 <resampleChannels+0x82e>
 8003fc0:	2200      	movs	r2, #0
 8003fc2:	e7fa      	b.n	8003fba <resampleChannels+0x606>
				if(filt3.type == FILTERTYPE_INT){
 8003fc4:	f8c7 d008 	str.w	sp, [r7, #8]
					uint32_t filtdelay = getFiltDelay(filt3.factor);
 8003fc8:	f247 4385 	movw	r3, #29829	; 0x7485
 8003fcc:	18fb      	adds	r3, r7, r3
 8003fce:	f893 a000 	ldrb.w	sl, [r3]
 8003fd2:	4650      	mov	r0, sl
 8003fd4:	f7ff fc0e 	bl	80037f4 <getFiltDelay>
 8003fd8:	4603      	mov	r3, r0
 8003fda:	6078      	str	r0, [r7, #4]
					uint32_t nextra = floor((float32_t)(filtdelay + filt3.factor - 1)/filt3.factor);
 8003fdc:	4453      	add	r3, sl
 8003fde:	3b01      	subs	r3, #1
 8003fe0:	ee07 3a90 	vmov	s15, r3
 8003fe4:	eef8 7a67 	vcvt.f32.u32	s15, s15
 8003fe8:	ee07 aa10 	vmov	s14, sl
 8003fec:	eeb8 8ac7 	vcvt.f32.s32	s16, s14
 8003ff0:	ee87 7a88 	vdiv.f32	s14, s15, s16
 8003ff4:	ee17 0a10 	vmov	r0, s14
 8003ff8:	f7fc fa72 	bl	80004e0 <__aeabi_f2d>
 8003ffc:	ec41 0b10 	vmov	d0, r0, r1
 8004000:	f007 fe22 	bl	800bc48 <floor>
 8004004:	ec51 0b10 	vmov	r0, r1, d0
 8004008:	f7fc fd80 	bl	8000b0c <__aeabi_d2uiz>
 800400c:	4606      	mov	r6, r0
					uint32_t leninpbuf = prevStageOupLen + 2*nextra;
 800400e:	eb04 0940 	add.w	r9, r4, r0, lsl #1
					float32_t statebuf[leninpbuf + filt3.ntaps/filt3.factor - 1];
 8004012:	f247 438c 	movw	r3, #29836	; 0x748c
 8004016:	18fb      	adds	r3, r7, r3
 8004018:	681a      	ldr	r2, [r3, #0]
 800401a:	fbb2 f3fa 	udiv	r3, r2, sl
 800401e:	444b      	add	r3, r9
 8004020:	3b01      	subs	r3, #1
 8004022:	009b      	lsls	r3, r3, #2
 8004024:	330a      	adds	r3, #10
 8004026:	f023 0307 	bic.w	r3, r3, #7
 800402a:	ebad 0d03 	sub.w	sp, sp, r3
 800402e:	f10d 0e08 	add.w	lr, sp, #8
					float32_t endpt1 = tempbuf2[prevStageOupOffset], endpt2 = tempbuf2[prevStageOupOffset + prevStageOupLen - 1];
 8004032:	f107 031c 	add.w	r3, r7, #28
 8004036:	eb03 0388 	add.w	r3, r3, r8, lsl #2
 800403a:	edd3 6a00 	vldr	s13, [r3]
 800403e:	eb04 0008 	add.w	r0, r4, r8
 8004042:	1e43      	subs	r3, r0, #1
 8004044:	f107 011c 	add.w	r1, r7, #28
 8004048:	eb01 0383 	add.w	r3, r1, r3, lsl #2
 800404c:	ed93 7a00 	vldr	s14, [r3]
					for(i = 0; i < nextra; i++)
 8004050:	2100      	movs	r1, #0
 8004052:	4694      	mov	ip, r2
 8004054:	e00b      	b.n	800406e <resampleChannels+0x6ba>
						tempbuf2[prevStageOupOffset - 1 - i] = endpt1 * filt3.factor;
 8004056:	eba8 0301 	sub.w	r3, r8, r1
 800405a:	3b01      	subs	r3, #1
 800405c:	ee68 7a26 	vmul.f32	s15, s16, s13
 8004060:	f107 021c 	add.w	r2, r7, #28
 8004064:	eb02 0383 	add.w	r3, r2, r3, lsl #2
 8004068:	edc3 7a00 	vstr	s15, [r3]
					for(i = 0; i < nextra; i++)
 800406c:	3101      	adds	r1, #1
 800406e:	42b1      	cmp	r1, r6
 8004070:	d3f1      	bcc.n	8004056 <resampleChannels+0x6a2>
 8004072:	2100      	movs	r1, #0
 8004074:	e00c      	b.n	8004090 <resampleChannels+0x6dc>
						tempbuf2[prevStageOupOffset + i] = tempbuf2[prevStageOupOffset + i] * filt3.factor;
 8004076:	eb01 0308 	add.w	r3, r1, r8
 800407a:	f107 021c 	add.w	r2, r7, #28
 800407e:	eb02 0383 	add.w	r3, r2, r3, lsl #2
 8004082:	edd3 7a00 	vldr	s15, [r3]
 8004086:	ee68 7a27 	vmul.f32	s15, s16, s15
 800408a:	edc3 7a00 	vstr	s15, [r3]
					for(i = 0; i < prevStageOupLen; i++)
 800408e:	3101      	adds	r1, #1
 8004090:	42a1      	cmp	r1, r4
 8004092:	d3f0      	bcc.n	8004076 <resampleChannels+0x6c2>
 8004094:	2100      	movs	r1, #0
 8004096:	e009      	b.n	80040ac <resampleChannels+0x6f8>
						tempbuf2[prevStageOupOffset + prevStageOupLen + i] = endpt2 * filt3.factor;
 8004098:	180b      	adds	r3, r1, r0
 800409a:	ee68 7a07 	vmul.f32	s15, s16, s14
 800409e:	f107 021c 	add.w	r2, r7, #28
 80040a2:	eb02 0383 	add.w	r3, r2, r3, lsl #2
 80040a6:	edc3 7a00 	vstr	s15, [r3]
					for(i = 0; i < nextra; i++)
 80040aa:	3101      	adds	r1, #1
 80040ac:	42b1      	cmp	r1, r6
 80040ae:	d3f3      	bcc.n	8004098 <resampleChannels+0x6e4>
					arm_fir_interpolate_init_f32(&hInterpolator, filt3.factor, filt3.ntaps, filt3.coeffs, statebuf, leninpbuf);
 80040b0:	f247 4388 	movw	r3, #29832	; 0x7488
 80040b4:	18fb      	adds	r3, r7, r3
 80040b6:	681b      	ldr	r3, [r3, #0]
 80040b8:	f8cd 9004 	str.w	r9, [sp, #4]
 80040bc:	f8cd e000 	str.w	lr, [sp]
 80040c0:	fa1f f28c 	uxth.w	r2, ip
 80040c4:	4651      	mov	r1, sl
 80040c6:	f247 4078 	movw	r0, #29816	; 0x7478
 80040ca:	1838      	adds	r0, r7, r0
 80040cc:	f005 f88e 	bl	80091ec <arm_fir_interpolate_init_f32>
					arm_fir_interpolate_f32(&hInterpolator, (float32_t *)tempbuf2 + prevStageOupOffset - nextra, tempbuf1, leninpbuf);
 80040d0:	eba8 0106 	sub.w	r1, r8, r6
 80040d4:	464b      	mov	r3, r9
 80040d6:	f242 7214 	movw	r2, #10004	; 0x2714
 80040da:	18ba      	adds	r2, r7, r2
 80040dc:	f107 001c 	add.w	r0, r7, #28
 80040e0:	eb00 0181 	add.w	r1, r0, r1, lsl #2
 80040e4:	f247 4078 	movw	r0, #29816	; 0x7478
 80040e8:	1838      	adds	r0, r7, r0
 80040ea:	f005 f899 	bl	8009220 <arm_fir_interpolate_f32>
					prevStageOupOffset = filtdelay + nextra*filt3.factor;
 80040ee:	f247 4385 	movw	r3, #29829	; 0x7485
 80040f2:	18fb      	adds	r3, r7, r3
 80040f4:	781b      	ldrb	r3, [r3, #0]
 80040f6:	687a      	ldr	r2, [r7, #4]
 80040f8:	fb03 2006 	mla	r0, r3, r6, r2
					prevStageOupLen = prevStageOupLen * filt3.factor;
 80040fc:	fb03 f404 	mul.w	r4, r3, r4
 8004100:	f8d7 d008 	ldr.w	sp, [r7, #8]
 8004104:	e05b      	b.n	80041be <resampleChannels+0x80a>
						tempbuf2[prevStageOupOffset - 1 - i] = endpt1;
 8004106:	eba8 0300 	sub.w	r3, r8, r0
 800410a:	3b01      	subs	r3, #1
 800410c:	f107 021c 	add.w	r2, r7, #28
 8004110:	eb02 0383 	add.w	r3, r2, r3, lsl #2
 8004114:	f8c3 c000 	str.w	ip, [r3]
					for(i = 0; i < filtdelay; i++)
 8004118:	3001      	adds	r0, #1
 800411a:	42b0      	cmp	r0, r6
 800411c:	d3f3      	bcc.n	8004106 <resampleChannels+0x752>
 800411e:	687a      	ldr	r2, [r7, #4]
 8004120:	e008      	b.n	8004134 <resampleChannels+0x780>
						tempbuf2[prevStageOupOffset + i] = endpt2;
 8004122:	eb04 0308 	add.w	r3, r4, r8
 8004126:	f107 001c 	add.w	r0, r7, #28
 800412a:	eb00 0383 	add.w	r3, r0, r3, lsl #2
 800412e:	f8c3 e000 	str.w	lr, [r3]
					for(i = prevStageOupLen; i < leninpbuf; i++)
 8004132:	3401      	adds	r4, #1
 8004134:	454c      	cmp	r4, r9
 8004136:	d3f4      	bcc.n	8004122 <resampleChannels+0x76e>
					arm_fir_decimate_init_f32(&hDecimator, filt3.ntaps, filt3.factor, filt3.coeffs, statebuf, leninpbuf);
 8004138:	f247 4388 	movw	r3, #29832	; 0x7488
 800413c:	18fb      	adds	r3, r7, r3
 800413e:	681b      	ldr	r3, [r3, #0]
 8004140:	f8cd 9004 	str.w	r9, [sp, #4]
 8004144:	9200      	str	r2, [sp, #0]
 8004146:	4652      	mov	r2, sl
 8004148:	b289      	uxth	r1, r1
 800414a:	f247 406c 	movw	r0, #29804	; 0x746c
 800414e:	1838      	adds	r0, r7, r0
 8004150:	f005 fab6 	bl	80096c0 <arm_fir_decimate_init_f32>
					arm_fir_decimate_f32(&hDecimator, (float32_t *)tempbuf2 + prevStageOupOffset - filtdelay, tempbuf1, leninpbuf);
 8004154:	eba8 0106 	sub.w	r1, r8, r6
 8004158:	464b      	mov	r3, r9
 800415a:	f242 7214 	movw	r2, #10004	; 0x2714
 800415e:	18ba      	adds	r2, r7, r2
 8004160:	f107 001c 	add.w	r0, r7, #28
 8004164:	eb00 0181 	add.w	r1, r0, r1, lsl #2
 8004168:	f247 406c 	movw	r0, #29804	; 0x746c
 800416c:	1838      	adds	r0, r7, r0
 800416e:	f005 fac5 	bl	80096fc <arm_fir_decimate_f32>
					prevStageOupOffset = 2*floor((float32_t)(filtdelay + filt3.factor - 1)/filt3.factor);
 8004172:	f247 4385 	movw	r3, #29829	; 0x7485
 8004176:	18fb      	adds	r3, r7, r3
 8004178:	781c      	ldrb	r4, [r3, #0]
 800417a:	4426      	add	r6, r4
 800417c:	3e01      	subs	r6, #1
 800417e:	ee07 6a90 	vmov	s15, r6
 8004182:	eef8 7a67 	vcvt.f32.u32	s15, s15
 8004186:	ee07 4a10 	vmov	s14, r4
 800418a:	eeb8 7ac7 	vcvt.f32.s32	s14, s14
 800418e:	eec7 6a87 	vdiv.f32	s13, s15, s14
 8004192:	ee16 0a90 	vmov	r0, s13
 8004196:	f7fc f9a3 	bl	80004e0 <__aeabi_f2d>
 800419a:	ec41 0b10 	vmov	d0, r0, r1
 800419e:	f007 fd53 	bl	800bc48 <floor>
 80041a2:	ec51 0b10 	vmov	r0, r1, d0
 80041a6:	ee10 2a10 	vmov	r2, s0
 80041aa:	460b      	mov	r3, r1
 80041ac:	f7fc f83a 	bl	8000224 <__adddf3>
 80041b0:	f7fc fcac 	bl	8000b0c <__aeabi_d2uiz>
					prevStageOupLen = leninpbuf/filt3.factor - prevStageOupOffset;
 80041b4:	fbb9 f4f4 	udiv	r4, r9, r4
 80041b8:	1a24      	subs	r4, r4, r0
 80041ba:	f8d7 d008 	ldr.w	sp, [r7, #8]
				for(i = 0; i < prevStageOupLen; i++)
 80041be:	2200      	movs	r2, #0
 80041c0:	e00d      	b.n	80041de <resampleChannels+0x82a>
					CHx_ResampledVals[i] = tempbuf1[prevStageOupOffset + i];
 80041c2:	1813      	adds	r3, r2, r0
 80041c4:	f242 7114 	movw	r1, #10004	; 0x2714
 80041c8:	1879      	adds	r1, r7, r1
 80041ca:	eb01 0383 	add.w	r3, r1, r3, lsl #2
 80041ce:	edd3 7a00 	vldr	s15, [r3]
 80041d2:	eefc 7ae7 	vcvt.u32.f32	s15, s15
 80041d6:	ee17 3a90 	vmov	r3, s15
 80041da:	54ab      	strb	r3, [r5, r2]
				for(i = 0; i < prevStageOupLen; i++)
 80041dc:	3201      	adds	r2, #1
 80041de:	42a2      	cmp	r2, r4
 80041e0:	d3ef      	bcc.n	80041c2 <resampleChannels+0x80e>
	for(ch = 0; ch < 2; ch++){
 80041e2:	697b      	ldr	r3, [r7, #20]
 80041e4:	3301      	adds	r3, #1
 80041e6:	617b      	str	r3, [r7, #20]
 80041e8:	697b      	ldr	r3, [r7, #20]
 80041ea:	2b01      	cmp	r3, #1
 80041ec:	d83b      	bhi.n	8004266 <resampleChannels+0x8b2>
		if(ch == 0){
 80041ee:	697b      	ldr	r3, [r7, #20]
 80041f0:	2b00      	cmp	r3, #0
 80041f2:	f43f ac14 	beq.w	8003a1e <resampleChannels+0x6a>
			x = (uint8_t *)CH2_ADC_vals + offset;
 80041f6:	4e21      	ldr	r6, [pc, #132]	; (800427c <resampleChannels+0x8c8>)
 80041f8:	68fb      	ldr	r3, [r7, #12]
 80041fa:	441e      	add	r6, r3
			CHx_ResampledVals = CH2_ResampledVals;
 80041fc:	4d20      	ldr	r5, [pc, #128]	; (8004280 <resampleChannels+0x8cc>)
		if(filt1.type == FILTERTYPE_INT){
 80041fe:	f247 439c 	movw	r3, #29852	; 0x749c
 8004202:	18fb      	adds	r3, r7, r3
 8004204:	781b      	ldrb	r3, [r3, #0]
 8004206:	2b01      	cmp	r3, #1
 8004208:	f43f ac0e 	beq.w	8003a28 <resampleChannels+0x74>
		else{
 800420c:	46e9      	mov	r9, sp
			uint32_t filtdelay = getFiltDelay(filt1.factor);
 800420e:	f247 439d 	movw	r3, #29853	; 0x749d
 8004212:	18fb      	adds	r3, r7, r3
 8004214:	781c      	ldrb	r4, [r3, #0]
 8004216:	4620      	mov	r0, r4
 8004218:	f7ff faec 	bl	80037f4 <getFiltDelay>
 800421c:	4680      	mov	r8, r0
			uint32_t leninpbuf = findNextMultiple(lenx + 2*filtdelay, filt1.factor);
 800421e:	4621      	mov	r1, r4
 8004220:	eb0b 0040 	add.w	r0, fp, r0, lsl #1
 8004224:	f7ff fade 	bl	80037e4 <findNextMultiple>
 8004228:	4682      	mov	sl, r0
			float32_t inpbuf[leninpbuf];
 800422a:	0083      	lsls	r3, r0, #2
 800422c:	330a      	adds	r3, #10
 800422e:	f023 0307 	bic.w	r3, r3, #7
 8004232:	ebad 0d03 	sub.w	sp, sp, r3
 8004236:	ac02      	add	r4, sp, #8
			float32_t statebuf[filt1.ntaps + leninpbuf - 1];
 8004238:	f247 43a4 	movw	r3, #29860	; 0x74a4
 800423c:	18fb      	adds	r3, r7, r3
 800423e:	681b      	ldr	r3, [r3, #0]
 8004240:	4403      	add	r3, r0
 8004242:	3b01      	subs	r3, #1
 8004244:	009b      	lsls	r3, r3, #2
 8004246:	330a      	adds	r3, #10
 8004248:	f023 0307 	bic.w	r3, r3, #7
 800424c:	ebad 0d03 	sub.w	sp, sp, r3
 8004250:	a802      	add	r0, sp, #8
			uint8_t endpt1 = x[0], endpt2 = x[lenx - 1];
 8004252:	7833      	ldrb	r3, [r6, #0]
 8004254:	ee06 3a90 	vmov	s13, r3
 8004258:	f10b 33ff 	add.w	r3, fp, #4294967295
 800425c:	5cf3      	ldrb	r3, [r6, r3]
 800425e:	ee07 3a10 	vmov	s14, r3
			for(i = 0; i < filtdelay; i++)
 8004262:	2300      	movs	r3, #0
 8004264:	e4a0      	b.n	8003ba8 <resampleChannels+0x1f4>
	return prevStageOupLen;
 8004266:	613c      	str	r4, [r7, #16]
}
 8004268:	6938      	ldr	r0, [r7, #16]
 800426a:	f507 47e9 	add.w	r7, r7, #29824	; 0x7480
 800426e:	372c      	adds	r7, #44	; 0x2c
 8004270:	46bd      	mov	sp, r7
 8004272:	ecbd 8b02 	vpop	{d8}
 8004276:	e8bd 8ff0 	ldmia.w	sp!, {r4, r5, r6, r7, r8, r9, sl, fp, pc}
 800427a:	bf00      	nop
 800427c:	20000698 	.word	0x20000698
 8004280:	20000bd4 	.word	0x20000bd4

08004284 <UG_Init>:

UG_S16 UG_Init( UG_GUI* g, void (*p)(UG_S16,UG_S16,UG_COLOR), UG_S16 x, UG_S16 y )
{
   UG_U8 i;

   g->pset = (void(*)(UG_S16,UG_S16,UG_COLOR))p;
 8004284:	6001      	str	r1, [r0, #0]
   g->x_dim = x;
 8004286:	8082      	strh	r2, [r0, #4]
   g->y_dim = y;
 8004288:	80c3      	strh	r3, [r0, #6]
   g->console.x_start = 4;
 800428a:	2104      	movs	r1, #4
 800428c:	8401      	strh	r1, [r0, #32]
   g->console.y_start = 4;
 800428e:	8441      	strh	r1, [r0, #34]	; 0x22
   g->console.x_end = g->x_dim - g->console.x_start-1;
 8004290:	b292      	uxth	r2, r2
 8004292:	3a04      	subs	r2, #4
 8004294:	b292      	uxth	r2, r2
 8004296:	3a01      	subs	r2, #1
 8004298:	b212      	sxth	r2, r2
 800429a:	8482      	strh	r2, [r0, #36]	; 0x24
   g->console.y_end = g->y_dim - g->console.x_start-1;
 800429c:	b29b      	uxth	r3, r3
 800429e:	3b04      	subs	r3, #4
 80042a0:	b29b      	uxth	r3, r3
 80042a2:	3b01      	subs	r3, #1
 80042a4:	b21b      	sxth	r3, r3
 80042a6:	84c3      	strh	r3, [r0, #38]	; 0x26
   g->console.x_pos = g->console.x_end;
 80042a8:	8382      	strh	r2, [r0, #28]
   g->console.y_pos = g->console.y_end;
 80042aa:	83c3      	strh	r3, [r0, #30]
   g->char_h_space = 1;
 80042ac:	2301      	movs	r3, #1
 80042ae:	f880 3040 	strb.w	r3, [r0, #64]	; 0x40
   g->char_v_space = 1;
 80042b2:	f880 3041 	strb.w	r3, [r0, #65]	; 0x41
   g->font.p = NULL;
 80042b6:	2300      	movs	r3, #0
 80042b8:	62c3      	str	r3, [r0, #44]	; 0x2c
   g->font.char_height = 0;
 80042ba:	8683      	strh	r3, [r0, #52]	; 0x34
   g->font.char_width = 0;
 80042bc:	8643      	strh	r3, [r0, #50]	; 0x32
   g->font.start_char = 0;
 80042be:	86c3      	strh	r3, [r0, #54]	; 0x36
   g->font.end_char = 0;
 80042c0:	8703      	strh	r3, [r0, #56]	; 0x38
   g->font.widths = NULL;
 80042c2:	63c3      	str	r3, [r0, #60]	; 0x3c
   #ifdef USE_COLOR_RGB888
   g->desktop_color = 0x5E8BEf;
   #endif
   #ifdef USE_COLOR_RGB565
   g->desktop_color = 0x5C5D;
 80042c4:	f645 425d 	movw	r2, #23645	; 0x5c5d
 80042c8:	f8a0 2046 	strh.w	r2, [r0, #70]	; 0x46
   #endif
   g->fore_color = C_WHITE;
 80042cc:	f64f 72ff 	movw	r2, #65535	; 0xffff
 80042d0:	f8a0 2042 	strh.w	r2, [r0, #66]	; 0x42
   g->back_color = C_BLACK;
 80042d4:	f8a0 3044 	strh.w	r3, [r0, #68]	; 0x44
   g->next_window = NULL;
 80042d8:	6103      	str	r3, [r0, #16]
   g->active_window = NULL;
 80042da:	6143      	str	r3, [r0, #20]
   g->last_window = NULL;
 80042dc:	6183      	str	r3, [r0, #24]

   /* Clear drivers */
   for(i=0;i<NUMBER_OF_DRIVERS;i++)
 80042de:	e008      	b.n	80042f2 <UG_Init+0x6e>
   {
      g->driver[i].driver = NULL;
 80042e0:	f103 0209 	add.w	r2, r3, #9
 80042e4:	eb00 02c2 	add.w	r2, r0, r2, lsl #3
 80042e8:	2100      	movs	r1, #0
 80042ea:	6051      	str	r1, [r2, #4]
      g->driver[i].state = 0;
 80042ec:	7211      	strb	r1, [r2, #8]
   for(i=0;i<NUMBER_OF_DRIVERS;i++)
 80042ee:	3301      	adds	r3, #1
 80042f0:	b2db      	uxtb	r3, r3
 80042f2:	2b02      	cmp	r3, #2
 80042f4:	d9f4      	bls.n	80042e0 <UG_Init+0x5c>
   }

   gui = g;
 80042f6:	4b02      	ldr	r3, [pc, #8]	; (8004300 <UG_Init+0x7c>)
 80042f8:	6018      	str	r0, [r3, #0]
   return 1;
}
 80042fa:	2001      	movs	r0, #1
 80042fc:	4770      	bx	lr
 80042fe:	bf00      	nop
 8004300:	20000100 	.word	0x20000100

08004304 <UG_FillFrame>:
{
   UG_FillFrame(0,0,gui->x_dim-1,gui->y_dim-1,c);
}

void UG_FillFrame( UG_S16 x1, UG_S16 y1, UG_S16 x2, UG_S16 y2, UG_COLOR c )
{
 8004304:	e92d 43f0 	stmdb	sp!, {r4, r5, r6, r7, r8, r9, lr}
 8004308:	b083      	sub	sp, #12
 800430a:	4606      	mov	r6, r0
 800430c:	4688      	mov	r8, r1
 800430e:	4691      	mov	r9, r2
 8004310:	461d      	mov	r5, r3
 8004312:	f8bd 7028 	ldrh.w	r7, [sp, #40]	; 0x28
   UG_S16 n,m;

   if ( x2 < x1 )
 8004316:	4282      	cmp	r2, r0
 8004318:	db01      	blt.n	800431e <UG_FillFrame+0x1a>
 800431a:	4681      	mov	r9, r0
 800431c:	4616      	mov	r6, r2
   {
      n = x2;
      x2 = x1;
      x1 = n;
   }
   if ( y2 < y1 )
 800431e:	4545      	cmp	r5, r8
 8004320:	db02      	blt.n	8004328 <UG_FillFrame+0x24>
 8004322:	462b      	mov	r3, r5
 8004324:	4645      	mov	r5, r8
 8004326:	4698      	mov	r8, r3
      y2 = y1;
      y1 = n;
   }

   /* Is hardware acceleration available? */
   if ( gui->driver[DRIVER_FILL_FRAME].state & DRIVER_ENABLED )
 8004328:	4b11      	ldr	r3, [pc, #68]	; (8004370 <UG_FillFrame+0x6c>)
 800432a:	681b      	ldr	r3, [r3, #0]
 800432c:	f893 2058 	ldrb.w	r2, [r3, #88]	; 0x58
 8004330:	f012 0f02 	tst.w	r2, #2
 8004334:	d017      	beq.n	8004366 <UG_FillFrame+0x62>
   {
      if( ((UG_RESULT(*)(UG_S16 x1, UG_S16 y1, UG_S16 x2, UG_S16 y2, UG_COLOR c))gui->driver[DRIVER_FILL_FRAME].driver)(x1,y1,x2,y2,c) == UG_RESULT_OK ) return;
 8004336:	6d5c      	ldr	r4, [r3, #84]	; 0x54
 8004338:	9700      	str	r7, [sp, #0]
 800433a:	4643      	mov	r3, r8
 800433c:	4632      	mov	r2, r6
 800433e:	4629      	mov	r1, r5
 8004340:	4648      	mov	r0, r9
 8004342:	47a0      	blx	r4
 8004344:	b978      	cbnz	r0, 8004366 <UG_FillFrame+0x62>
      for( n=x1; n<=x2; n++ )
      {
         gui->pset(n,m,c);
      }
   }
}
 8004346:	b003      	add	sp, #12
 8004348:	e8bd 83f0 	ldmia.w	sp!, {r4, r5, r6, r7, r8, r9, pc}
         gui->pset(n,m,c);
 800434c:	4b08      	ldr	r3, [pc, #32]	; (8004370 <UG_FillFrame+0x6c>)
 800434e:	681b      	ldr	r3, [r3, #0]
 8004350:	681b      	ldr	r3, [r3, #0]
 8004352:	463a      	mov	r2, r7
 8004354:	4629      	mov	r1, r5
 8004356:	4620      	mov	r0, r4
 8004358:	4798      	blx	r3
      for( n=x1; n<=x2; n++ )
 800435a:	3401      	adds	r4, #1
 800435c:	b224      	sxth	r4, r4
 800435e:	42a6      	cmp	r6, r4
 8004360:	daf4      	bge.n	800434c <UG_FillFrame+0x48>
   for( m=y1; m<=y2; m++ )
 8004362:	3501      	adds	r5, #1
 8004364:	b22d      	sxth	r5, r5
 8004366:	45a8      	cmp	r8, r5
 8004368:	dbed      	blt.n	8004346 <UG_FillFrame+0x42>
 800436a:	464c      	mov	r4, r9
 800436c:	e7f7      	b.n	800435e <UG_FillFrame+0x5a>
 800436e:	bf00      	nop
 8004370:	20000100 	.word	0x20000100

08004374 <UG_FillScreen>:
{
 8004374:	b500      	push	{lr}
 8004376:	b083      	sub	sp, #12
   UG_FillFrame(0,0,gui->x_dim-1,gui->y_dim-1,c);
 8004378:	4b07      	ldr	r3, [pc, #28]	; (8004398 <UG_FillScreen+0x24>)
 800437a:	681b      	ldr	r3, [r3, #0]
 800437c:	889a      	ldrh	r2, [r3, #4]
 800437e:	3a01      	subs	r2, #1
 8004380:	88db      	ldrh	r3, [r3, #6]
 8004382:	3b01      	subs	r3, #1
 8004384:	9000      	str	r0, [sp, #0]
 8004386:	b21b      	sxth	r3, r3
 8004388:	b212      	sxth	r2, r2
 800438a:	2100      	movs	r1, #0
 800438c:	4608      	mov	r0, r1
 800438e:	f7ff ffb9 	bl	8004304 <UG_FillFrame>
}
 8004392:	b003      	add	sp, #12
 8004394:	f85d fb04 	ldr.w	pc, [sp], #4
 8004398:	20000100 	.word	0x20000100

0800439c <UG_DrawLine>:
      }
   }
}

void UG_DrawLine( UG_S16 x1, UG_S16 y1, UG_S16 x2, UG_S16 y2, UG_COLOR c )
{
 800439c:	e92d 4ff0 	stmdb	sp!, {r4, r5, r6, r7, r8, r9, sl, fp, lr}
 80043a0:	b087      	sub	sp, #28
 80043a2:	4606      	mov	r6, r0
 80043a4:	460f      	mov	r7, r1
 80043a6:	4615      	mov	r5, r2
 80043a8:	461c      	mov	r4, r3
 80043aa:	f8bd 3040 	ldrh.w	r3, [sp, #64]	; 0x40
 80043ae:	9303      	str	r3, [sp, #12]
   UG_S16 n, dx, dy, sgndx, sgndy, dxabs, dyabs, x, y, drawx, drawy;

   /* Is hardware acceleration available? */
   if ( gui->driver[DRIVER_DRAW_LINE].state & DRIVER_ENABLED )
 80043b0:	4b3c      	ldr	r3, [pc, #240]	; (80044a4 <UG_DrawLine+0x108>)
 80043b2:	681b      	ldr	r3, [r3, #0]
 80043b4:	f893 2050 	ldrb.w	r2, [r3, #80]	; 0x50
 80043b8:	f012 0f02 	tst.w	r2, #2
 80043bc:	d128      	bne.n	8004410 <UG_DrawLine+0x74>
   {
      if( ((UG_RESULT(*)(UG_S16 x1, UG_S16 y1, UG_S16 x2, UG_S16 y2, UG_COLOR c))gui->driver[DRIVER_DRAW_LINE].driver)(x1,y1,x2,y2,c) == UG_RESULT_OK ) return;
   }

   dx = x2 - x1;
 80043be:	1baa      	subs	r2, r5, r6
 80043c0:	b212      	sxth	r2, r2
   dy = y2 - y1;
 80043c2:	1be3      	subs	r3, r4, r7
 80043c4:	b21b      	sxth	r3, r3
   dxabs = (dx>0)?dx:-dx;
 80043c6:	ea82 7ae2 	eor.w	sl, r2, r2, asr #31
 80043ca:	ebaa 7ae2 	sub.w	sl, sl, r2, asr #31
 80043ce:	fa0f f88a 	sxth.w	r8, sl
   dyabs = (dy>0)?dy:-dy;
 80043d2:	ea83 7be3 	eor.w	fp, r3, r3, asr #31
 80043d6:	ebab 7be3 	sub.w	fp, fp, r3, asr #31
 80043da:	fa0f f98b 	sxth.w	r9, fp
   sgndx = (dx>0)?1:-1;
 80043de:	2a00      	cmp	r2, #0
 80043e0:	dd22      	ble.n	8004428 <UG_DrawLine+0x8c>
 80043e2:	2201      	movs	r2, #1
 80043e4:	9204      	str	r2, [sp, #16]
   sgndy = (dy>0)?1:-1;
 80043e6:	2b00      	cmp	r3, #0
 80043e8:	dd22      	ble.n	8004430 <UG_DrawLine+0x94>
 80043ea:	2301      	movs	r3, #1
 80043ec:	9305      	str	r3, [sp, #20]
   x = dyabs >> 1;
 80043ee:	ea4f 0569 	mov.w	r5, r9, asr #1
   y = dxabs >> 1;
 80043f2:	ea4f 0468 	mov.w	r4, r8, asr #1
   drawx = x1;
   drawy = y1;

   gui->pset(drawx, drawy,c);
 80043f6:	4b2b      	ldr	r3, [pc, #172]	; (80044a4 <UG_DrawLine+0x108>)
 80043f8:	681b      	ldr	r3, [r3, #0]
 80043fa:	681b      	ldr	r3, [r3, #0]
 80043fc:	9a03      	ldr	r2, [sp, #12]
 80043fe:	4639      	mov	r1, r7
 8004400:	4630      	mov	r0, r6
 8004402:	4798      	blx	r3

   if( dxabs >= dyabs )
 8004404:	45c8      	cmp	r8, r9
 8004406:	da30      	bge.n	800446a <UG_DrawLine+0xce>
 8004408:	2400      	movs	r4, #0
 800440a:	f8dd 8014 	ldr.w	r8, [sp, #20]
 800440e:	e03b      	b.n	8004488 <UG_DrawLine+0xec>
      if( ((UG_RESULT(*)(UG_S16 x1, UG_S16 y1, UG_S16 x2, UG_S16 y2, UG_COLOR c))gui->driver[DRIVER_DRAW_LINE].driver)(x1,y1,x2,y2,c) == UG_RESULT_OK ) return;
 8004410:	f8d3 804c 	ldr.w	r8, [r3, #76]	; 0x4c
 8004414:	9b03      	ldr	r3, [sp, #12]
 8004416:	9300      	str	r3, [sp, #0]
 8004418:	4623      	mov	r3, r4
 800441a:	462a      	mov	r2, r5
 800441c:	47c0      	blx	r8
 800441e:	2800      	cmp	r0, #0
 8004420:	d1cd      	bne.n	80043be <UG_DrawLine+0x22>
         }
         drawy += sgndy;
         gui->pset(drawx, drawy,c);
      }
   }  
}
 8004422:	b007      	add	sp, #28
 8004424:	e8bd 8ff0 	ldmia.w	sp!, {r4, r5, r6, r7, r8, r9, sl, fp, pc}
   sgndx = (dx>0)?1:-1;
 8004428:	f04f 32ff 	mov.w	r2, #4294967295
 800442c:	9204      	str	r2, [sp, #16]
 800442e:	e7da      	b.n	80043e6 <UG_DrawLine+0x4a>
   sgndy = (dy>0)?1:-1;
 8004430:	f04f 33ff 	mov.w	r3, #4294967295
 8004434:	9305      	str	r3, [sp, #20]
 8004436:	e7da      	b.n	80043ee <UG_DrawLine+0x52>
         drawx += sgndx;
 8004438:	444e      	add	r6, r9
 800443a:	b236      	sxth	r6, r6
         gui->pset(drawx, drawy,c);
 800443c:	4b19      	ldr	r3, [pc, #100]	; (80044a4 <UG_DrawLine+0x108>)
 800443e:	681b      	ldr	r3, [r3, #0]
 8004440:	681b      	ldr	r3, [r3, #0]
 8004442:	9a03      	ldr	r2, [sp, #12]
 8004444:	4639      	mov	r1, r7
 8004446:	4630      	mov	r0, r6
 8004448:	4798      	blx	r3
      for( n=0; n<dxabs; n++ )
 800444a:	3501      	adds	r5, #1
 800444c:	b22d      	sxth	r5, r5
 800444e:	4545      	cmp	r5, r8
 8004450:	dae7      	bge.n	8004422 <UG_DrawLine+0x86>
         y += dyabs;
 8004452:	445c      	add	r4, fp
 8004454:	b2a3      	uxth	r3, r4
 8004456:	b21c      	sxth	r4, r3
         if( y >= dxabs )
 8004458:	45a0      	cmp	r8, r4
 800445a:	dced      	bgt.n	8004438 <UG_DrawLine+0x9c>
            y -= dxabs;
 800445c:	eba3 040a 	sub.w	r4, r3, sl
 8004460:	b224      	sxth	r4, r4
            drawy += sgndy;
 8004462:	9b05      	ldr	r3, [sp, #20]
 8004464:	441f      	add	r7, r3
 8004466:	b23f      	sxth	r7, r7
 8004468:	e7e6      	b.n	8004438 <UG_DrawLine+0x9c>
 800446a:	2500      	movs	r5, #0
 800446c:	f8dd 9010 	ldr.w	r9, [sp, #16]
 8004470:	e7ed      	b.n	800444e <UG_DrawLine+0xb2>
         drawy += sgndy;
 8004472:	4447      	add	r7, r8
 8004474:	b23f      	sxth	r7, r7
         gui->pset(drawx, drawy,c);
 8004476:	4b0b      	ldr	r3, [pc, #44]	; (80044a4 <UG_DrawLine+0x108>)
 8004478:	681b      	ldr	r3, [r3, #0]
 800447a:	681b      	ldr	r3, [r3, #0]
 800447c:	9a03      	ldr	r2, [sp, #12]
 800447e:	4639      	mov	r1, r7
 8004480:	4630      	mov	r0, r6
 8004482:	4798      	blx	r3
      for( n=0; n<dyabs; n++ )
 8004484:	3401      	adds	r4, #1
 8004486:	b224      	sxth	r4, r4
 8004488:	454c      	cmp	r4, r9
 800448a:	daca      	bge.n	8004422 <UG_DrawLine+0x86>
         x += dxabs;
 800448c:	4455      	add	r5, sl
 800448e:	b2ab      	uxth	r3, r5
 8004490:	b21d      	sxth	r5, r3
         if( x >= dyabs )
 8004492:	45a9      	cmp	r9, r5
 8004494:	dced      	bgt.n	8004472 <UG_DrawLine+0xd6>
            x -= dyabs;
 8004496:	eba3 050b 	sub.w	r5, r3, fp
 800449a:	b22d      	sxth	r5, r5
            drawx += sgndx;
 800449c:	9b04      	ldr	r3, [sp, #16]
 800449e:	441e      	add	r6, r3
 80044a0:	b236      	sxth	r6, r6
 80044a2:	e7e6      	b.n	8004472 <UG_DrawLine+0xd6>
 80044a4:	20000100 	.word	0x20000100

080044a8 <UG_DrawFrame>:
{
 80044a8:	e92d 41f0 	stmdb	sp!, {r4, r5, r6, r7, r8, lr}
 80044ac:	b082      	sub	sp, #8
 80044ae:	4680      	mov	r8, r0
 80044b0:	460f      	mov	r7, r1
 80044b2:	4616      	mov	r6, r2
 80044b4:	461c      	mov	r4, r3
 80044b6:	f8bd 5020 	ldrh.w	r5, [sp, #32]
   UG_DrawLine(x1,y1,x2,y1,c);
 80044ba:	9500      	str	r5, [sp, #0]
 80044bc:	460b      	mov	r3, r1
 80044be:	f7ff ff6d 	bl	800439c <UG_DrawLine>
   UG_DrawLine(x1,y2,x2,y2,c);
 80044c2:	9500      	str	r5, [sp, #0]
 80044c4:	4623      	mov	r3, r4
 80044c6:	4632      	mov	r2, r6
 80044c8:	4621      	mov	r1, r4
 80044ca:	4640      	mov	r0, r8
 80044cc:	f7ff ff66 	bl	800439c <UG_DrawLine>
   UG_DrawLine(x1,y1,x1,y2,c);
 80044d0:	9500      	str	r5, [sp, #0]
 80044d2:	4623      	mov	r3, r4
 80044d4:	4642      	mov	r2, r8
 80044d6:	4639      	mov	r1, r7
 80044d8:	4640      	mov	r0, r8
 80044da:	f7ff ff5f 	bl	800439c <UG_DrawLine>
   UG_DrawLine(x2,y1,x2,y2,c);
 80044de:	9500      	str	r5, [sp, #0]
 80044e0:	4623      	mov	r3, r4
 80044e2:	4632      	mov	r2, r6
 80044e4:	4639      	mov	r1, r7
 80044e6:	4630      	mov	r0, r6
 80044e8:	f7ff ff58 	bl	800439c <UG_DrawLine>
}
 80044ec:	b002      	add	sp, #8
 80044ee:	e8bd 81f0 	ldmia.w	sp!, {r4, r5, r6, r7, r8, pc}
	...

080044f4 <UG_GetXDim>:
   gui->back_color = c;
}

UG_S16 UG_GetXDim( void )
{
   return gui->x_dim;
 80044f4:	4b02      	ldr	r3, [pc, #8]	; (8004500 <UG_GetXDim+0xc>)
 80044f6:	681b      	ldr	r3, [r3, #0]
}
 80044f8:	f9b3 0004 	ldrsh.w	r0, [r3, #4]
 80044fc:	4770      	bx	lr
 80044fe:	bf00      	nop
 8004500:	20000100 	.word	0x20000100

08004504 <UG_GetYDim>:

UG_S16 UG_GetYDim( void )
{
   return gui->y_dim;
 8004504:	4b02      	ldr	r3, [pc, #8]	; (8004510 <UG_GetYDim+0xc>)
 8004506:	681b      	ldr	r3, [r3, #0]
}
 8004508:	f9b3 0006 	ldrsh.w	r0, [r3, #6]
 800450c:	4770      	bx	lr
 800450e:	bf00      	nop
 8004510:	20000100 	.word	0x20000100

08004514 <_UG_PutChar>:

/* -------------------------------------------------------------------------------- */
/* -- INTERNAL FUNCTIONS                                                         -- */
/* -------------------------------------------------------------------------------- */
void _UG_PutChar( char chr, UG_S16 x, UG_S16 y, UG_COLOR fc, UG_COLOR bc, const UG_FONT* font)
{
 8004514:	e92d 4ff0 	stmdb	sp!, {r4, r5, r6, r7, r8, r9, sl, fp, lr}
 8004518:	b087      	sub	sp, #28
 800451a:	f8bd 4040 	ldrh.w	r4, [sp, #64]	; 0x40
 800451e:	9400      	str	r4, [sp, #0]
 8004520:	f8dd 8044 	ldr.w	r8, [sp, #68]	; 0x44
   UG_COLOR color;
   void(*push_pixel)(UG_COLOR);

   bt = (UG_U8)chr;

   switch ( bt )
 8004524:	f1a0 05b0 	sub.w	r5, r0, #176	; 0xb0
 8004528:	2d4c      	cmp	r5, #76	; 0x4c
 800452a:	d828      	bhi.n	800457e <_UG_PutChar+0x6a>
 800452c:	e8df f005 	tbb	[pc, r5]
 8004530:	27272735 	.word	0x27272735
 8004534:	27273327 	.word	0x27273327
 8004538:	27272727 	.word	0x27272727
 800453c:	27272727 	.word	0x27272727
 8004540:	27272727 	.word	0x27272727
 8004544:	27272731 	.word	0x27272731
 8004548:	27272727 	.word	0x27272727
 800454c:	27272727 	.word	0x27272727
 8004550:	27272727 	.word	0x27272727
 8004554:	27292727 	.word	0x27292727
 8004558:	27272727 	.word	0x27272727
 800455c:	2727272d 	.word	0x2727272d
 8004560:	27272727 	.word	0x27272727
 8004564:	2727272f 	.word	0x2727272f
 8004568:	27272727 	.word	0x27272727
 800456c:	27272727 	.word	0x27272727
 8004570:	27272727 	.word	0x27272727
 8004574:	27372727 	.word	0x27372727
 8004578:	27272727 	.word	0x27272727
 800457c:	2b          	.byte	0x2b
 800457d:	00          	.byte	0x00
   bt = (UG_U8)chr;
 800457e:	4604      	mov	r4, r0
 8004580:	e00e      	b.n	80045a0 <_UG_PutChar+0x8c>
   {
      case 0xF6: bt = 0x94; break; // 
      case 0xD6: bt = 0x99; break; // 
 8004582:	2499      	movs	r4, #153	; 0x99
 8004584:	e00c      	b.n	80045a0 <_UG_PutChar+0x8c>
      case 0xFC: bt = 0x81; break; // 
 8004586:	2481      	movs	r4, #129	; 0x81
 8004588:	e00a      	b.n	80045a0 <_UG_PutChar+0x8c>
      case 0xDC: bt = 0x9A; break; // 
 800458a:	249a      	movs	r4, #154	; 0x9a
 800458c:	e008      	b.n	80045a0 <_UG_PutChar+0x8c>
      case 0xE4: bt = 0x84; break; // 
 800458e:	2484      	movs	r4, #132	; 0x84
 8004590:	e006      	b.n	80045a0 <_UG_PutChar+0x8c>
      case 0xC4: bt = 0x8E; break; // 
 8004592:	248e      	movs	r4, #142	; 0x8e
 8004594:	e004      	b.n	80045a0 <_UG_PutChar+0x8c>
      case 0xB5: bt = 0xE6; break; // 
 8004596:	24e6      	movs	r4, #230	; 0xe6
 8004598:	e002      	b.n	80045a0 <_UG_PutChar+0x8c>
      case 0xB0: bt = 0xF8; break; // 
 800459a:	24f8      	movs	r4, #248	; 0xf8
 800459c:	e000      	b.n	80045a0 <_UG_PutChar+0x8c>
      case 0xF6: bt = 0x94; break; // 
 800459e:	2494      	movs	r4, #148	; 0x94
   }

   if (bt < font->start_char || bt > font->end_char) return;
 80045a0:	b2a5      	uxth	r5, r4
 80045a2:	f8b8 000a 	ldrh.w	r0, [r8, #10]
 80045a6:	4285      	cmp	r5, r0
 80045a8:	f0c0 8111 	bcc.w	80047ce <_UG_PutChar+0x2ba>
 80045ac:	f8b8 600c 	ldrh.w	r6, [r8, #12]
 80045b0:	42b5      	cmp	r5, r6
 80045b2:	f200 810c 	bhi.w	80047ce <_UG_PutChar+0x2ba>
   
   yo = y;
 80045b6:	fa1f fb82 	uxth.w	fp, r2
   bn = font->char_width;
 80045ba:	f9b8 5006 	ldrsh.w	r5, [r8, #6]
 80045be:	b2ae      	uxth	r6, r5
 80045c0:	9604      	str	r6, [sp, #16]
   if ( !bn ) return;
 80045c2:	2e00      	cmp	r6, #0
 80045c4:	f000 8103 	beq.w	80047ce <_UG_PutChar+0x2ba>
   bn >>= 3;
 80045c8:	ea4f 0ad6 	mov.w	sl, r6, lsr #3
   if ( font->char_width % 8 ) bn++;
 80045cc:	f016 0f07 	tst.w	r6, #7
 80045d0:	d001      	beq.n	80045d6 <_UG_PutChar+0xc2>
 80045d2:	f10a 0a01 	add.w	sl, sl, #1
   actual_char_width = (font->widths ? font->widths[bt - font->start_char] : font->char_width);
 80045d6:	f8d8 6010 	ldr.w	r6, [r8, #16]
 80045da:	b116      	cbz	r6, 80045e2 <_UG_PutChar+0xce>
 80045dc:	1a27      	subs	r7, r4, r0
 80045de:	5df6      	ldrb	r6, [r6, r7]
 80045e0:	9604      	str	r6, [sp, #16]
 80045e2:	9301      	str	r3, [sp, #4]
 80045e4:	4616      	mov	r6, r2
 80045e6:	9105      	str	r1, [sp, #20]

   /* Is hardware acceleration available? */
   if ( gui->driver[DRIVER_FILL_AREA].state & DRIVER_ENABLED )
 80045e8:	4ba2      	ldr	r3, [pc, #648]	; (8004874 <_UG_PutChar+0x360>)
 80045ea:	681b      	ldr	r3, [r3, #0]
 80045ec:	f893 2060 	ldrb.w	r2, [r3, #96]	; 0x60
 80045f0:	f012 0f02 	tst.w	r2, #2
 80045f4:	d10e      	bne.n	8004614 <_UG_PutChar+0x100>
	  }
   }
   else
   {
	   /*Not accelerated output*/
	   if (font->font_type == FONT_TYPE_1BPP)
 80045f6:	f898 3004 	ldrb.w	r3, [r8, #4]
 80045fa:	2b00      	cmp	r3, #0
 80045fc:	f040 80e5 	bne.w	80047ca <_UG_PutChar+0x2b6>
	   {
         index = (bt - font->start_char)* font->char_height * bn;
 8004600:	1a24      	subs	r4, r4, r0
 8004602:	f9b8 3008 	ldrsh.w	r3, [r8, #8]
 8004606:	fb03 f304 	mul.w	r3, r3, r4
 800460a:	fb03 f30a 	mul.w	r3, r3, sl
         for( j=0;j<font->char_height;j++ )
 800460e:	2200      	movs	r2, #0
 8004610:	9203      	str	r2, [sp, #12]
 8004612:	e0cf      	b.n	80047b4 <_UG_PutChar+0x2a0>
      push_pixel = ((void*(*)(UG_S16, UG_S16, UG_S16, UG_S16))gui->driver[DRIVER_FILL_AREA].driver)(x,y,x+actual_char_width-1,y+font->char_height-1);
 8004614:	6ddd      	ldr	r5, [r3, #92]	; 0x5c
 8004616:	9a04      	ldr	r2, [sp, #16]
 8004618:	4608      	mov	r0, r1
 800461a:	440a      	add	r2, r1
 800461c:	b292      	uxth	r2, r2
 800461e:	3a01      	subs	r2, #1
 8004620:	f8b8 3008 	ldrh.w	r3, [r8, #8]
 8004624:	445b      	add	r3, fp
 8004626:	b29b      	uxth	r3, r3
 8004628:	3b01      	subs	r3, #1
 800462a:	b21b      	sxth	r3, r3
 800462c:	b212      	sxth	r2, r2
 800462e:	4631      	mov	r1, r6
 8004630:	47a8      	blx	r5
 8004632:	4607      	mov	r7, r0
      if (font->font_type == FONT_TYPE_1BPP)
 8004634:	f898 3004 	ldrb.w	r3, [r8, #4]
 8004638:	2b00      	cmp	r3, #0
 800463a:	d13c      	bne.n	80046b6 <_UG_PutChar+0x1a2>
	      index = (bt - font->start_char)* font->char_height * bn;
 800463c:	f8b8 300a 	ldrh.w	r3, [r8, #10]
 8004640:	1ae4      	subs	r4, r4, r3
 8004642:	f9b8 3008 	ldrsh.w	r3, [r8, #8]
 8004646:	fb03 f304 	mul.w	r3, r3, r4
 800464a:	fb03 f30a 	mul.w	r3, r3, sl
		  for( j=0;j<font->char_height;j++ )
 800464e:	2200      	movs	r2, #0
 8004650:	9202      	str	r2, [sp, #8]
 8004652:	e026      	b.n	80046a2 <_UG_PutChar+0x18e>
					  push_pixel(bc);
 8004654:	9800      	ldr	r0, [sp, #0]
 8004656:	47b8      	blx	r7
				   b >>= 1;
 8004658:	0876      	lsrs	r6, r6, #1
				   c--;
 800465a:	3d01      	subs	r5, #1
 800465c:	b2ad      	uxth	r5, r5
				for( k=0;(k<8) && c;k++ )
 800465e:	3401      	adds	r4, #1
 8004660:	b2a4      	uxth	r4, r4
 8004662:	2c07      	cmp	r4, #7
 8004664:	bf8c      	ite	hi
 8004666:	2300      	movhi	r3, #0
 8004668:	2301      	movls	r3, #1
 800466a:	2d00      	cmp	r5, #0
 800466c:	bf08      	it	eq
 800466e:	2300      	moveq	r3, #0
 8004670:	b12b      	cbz	r3, 800467e <_UG_PutChar+0x16a>
				   if( b & 0x01 )
 8004672:	f016 0f01 	tst.w	r6, #1
 8004676:	d0ed      	beq.n	8004654 <_UG_PutChar+0x140>
					  push_pixel(fc);
 8004678:	9801      	ldr	r0, [sp, #4]
 800467a:	47b8      	blx	r7
 800467c:	e7ec      	b.n	8004658 <_UG_PutChar+0x144>
			 for( i=0;i<bn;i++ )
 800467e:	f109 0901 	add.w	r9, r9, #1
 8004682:	fa1f f989 	uxth.w	r9, r9
				b = font->p[index++];
 8004686:	465b      	mov	r3, fp
			 for( i=0;i<bn;i++ )
 8004688:	45d1      	cmp	r9, sl
 800468a:	d206      	bcs.n	800469a <_UG_PutChar+0x186>
				b = font->p[index++];
 800468c:	f8d8 2000 	ldr.w	r2, [r8]
 8004690:	f103 0b01 	add.w	fp, r3, #1
 8004694:	5cd6      	ldrb	r6, [r2, r3]
				for( k=0;(k<8) && c;k++ )
 8004696:	2400      	movs	r4, #0
 8004698:	e7e3      	b.n	8004662 <_UG_PutChar+0x14e>
		  for( j=0;j<font->char_height;j++ )
 800469a:	9a02      	ldr	r2, [sp, #8]
 800469c:	3201      	adds	r2, #1
 800469e:	b292      	uxth	r2, r2
 80046a0:	9202      	str	r2, [sp, #8]
 80046a2:	f9b8 2008 	ldrsh.w	r2, [r8, #8]
 80046a6:	9902      	ldr	r1, [sp, #8]
 80046a8:	4291      	cmp	r1, r2
 80046aa:	f280 8090 	bge.w	80047ce <_UG_PutChar+0x2ba>
 80046ae:	9d04      	ldr	r5, [sp, #16]
 80046b0:	f04f 0900 	mov.w	r9, #0
 80046b4:	e7e8      	b.n	8004688 <_UG_PutChar+0x174>
	  else if (font->font_type == FONT_TYPE_8BPP)
 80046b6:	2b01      	cmp	r3, #1
 80046b8:	f040 8089 	bne.w	80047ce <_UG_PutChar+0x2ba>
		   index = (bt - font->start_char)* font->char_height * font->char_width;
 80046bc:	f8b8 200a 	ldrh.w	r2, [r8, #10]
 80046c0:	1aa2      	subs	r2, r4, r2
 80046c2:	f9b8 3008 	ldrsh.w	r3, [r8, #8]
 80046c6:	fb03 f202 	mul.w	r2, r3, r2
 80046ca:	f9b8 3006 	ldrsh.w	r3, [r8, #6]
 80046ce:	fb03 f302 	mul.w	r3, r3, r2
		   for( j=0;j<font->char_height;j++ )
 80046d2:	2600      	movs	r6, #0
 80046d4:	f8dd b010 	ldr.w	fp, [sp, #16]
 80046d8:	9d00      	ldr	r5, [sp, #0]
 80046da:	f8dd 9004 	ldr.w	r9, [sp, #4]
 80046de:	e02a      	b.n	8004736 <_UG_PutChar+0x222>
				 b = font->p[index++];
 80046e0:	f8d8 2000 	ldr.w	r2, [r8]
 80046e4:	f103 0a01 	add.w	sl, r3, #1
 80046e8:	5cd3      	ldrb	r3, [r2, r3]
				 color = ((((fc & 0xFF) * b + (bc & 0xFF) * (256 - b)) >> 8) & 0xFF) |				//Blue component
 80046ea:	fa5f f289 	uxtb.w	r2, r9
 80046ee:	b2e8      	uxtb	r0, r5
 80046f0:	f5c3 7180 	rsb	r1, r3, #256	; 0x100
 80046f4:	fb01 f000 	mul.w	r0, r1, r0
 80046f8:	fb03 0202 	mla	r2, r3, r2, r0
 80046fc:	f3c2 2207 	ubfx	r2, r2, #8, #8
				         ((((fc & 0xFF00) * b + (bc & 0xFF00) * (256 - b)) >> 8) & 0xFF00) |		//Green component
 8004700:	f409 4e7f 	and.w	lr, r9, #65280	; 0xff00
 8004704:	f405 407f 	and.w	r0, r5, #65280	; 0xff00
 8004708:	fb00 f101 	mul.w	r1, r0, r1
 800470c:	fb0e 1303 	mla	r3, lr, r3, r1
 8004710:	121b      	asrs	r3, r3, #8
 8004712:	f023 03ff 	bic.w	r3, r3, #255	; 0xff
 8004716:	b21b      	sxth	r3, r3
				 color = ((((fc & 0xFF) * b + (bc & 0xFF) * (256 - b)) >> 8) & 0xFF) |				//Blue component
 8004718:	4313      	orrs	r3, r2
				 push_pixel(color);
 800471a:	b298      	uxth	r0, r3
 800471c:	47b8      	blx	r7
			  for( i=0;i<actual_char_width;i++ )
 800471e:	3401      	adds	r4, #1
 8004720:	b2a4      	uxth	r4, r4
				 b = font->p[index++];
 8004722:	4653      	mov	r3, sl
			  for( i=0;i<actual_char_width;i++ )
 8004724:	455c      	cmp	r4, fp
 8004726:	d3db      	bcc.n	80046e0 <_UG_PutChar+0x1cc>
			  index += font->char_width - actual_char_width;
 8004728:	f9b8 2006 	ldrsh.w	r2, [r8, #6]
 800472c:	eba2 020b 	sub.w	r2, r2, fp
 8004730:	4413      	add	r3, r2
		   for( j=0;j<font->char_height;j++ )
 8004732:	3601      	adds	r6, #1
 8004734:	b2b6      	uxth	r6, r6
 8004736:	f9b8 2008 	ldrsh.w	r2, [r8, #8]
 800473a:	4296      	cmp	r6, r2
 800473c:	da47      	bge.n	80047ce <_UG_PutChar+0x2ba>
 800473e:	2400      	movs	r4, #0
 8004740:	e7f0      	b.n	8004724 <_UG_PutChar+0x210>
               {
                  gui->pset(xo,yo,fc);
               }
               else
               {
                  gui->pset(xo,yo,bc);
 8004742:	4b4c      	ldr	r3, [pc, #304]	; (8004874 <_UG_PutChar+0x360>)
 8004744:	681b      	ldr	r3, [r3, #0]
 8004746:	681b      	ldr	r3, [r3, #0]
 8004748:	9a00      	ldr	r2, [sp, #0]
 800474a:	fa0f f18b 	sxth.w	r1, fp
 800474e:	b230      	sxth	r0, r6
 8004750:	4798      	blx	r3
               }
               b >>= 1;
 8004752:	087f      	lsrs	r7, r7, #1
               xo++;
 8004754:	3601      	adds	r6, #1
 8004756:	b2b6      	uxth	r6, r6
               c--;
 8004758:	3d01      	subs	r5, #1
 800475a:	b2ad      	uxth	r5, r5
             for( k=0;(k<8) && c;k++ )
 800475c:	3401      	adds	r4, #1
 800475e:	b2a4      	uxth	r4, r4
 8004760:	2c07      	cmp	r4, #7
 8004762:	bf8c      	ite	hi
 8004764:	2300      	movhi	r3, #0
 8004766:	2301      	movls	r3, #1
 8004768:	2d00      	cmp	r5, #0
 800476a:	bf08      	it	eq
 800476c:	2300      	moveq	r3, #0
 800476e:	b15b      	cbz	r3, 8004788 <_UG_PutChar+0x274>
               if( b & 0x01 )
 8004770:	f017 0f01 	tst.w	r7, #1
 8004774:	d0e5      	beq.n	8004742 <_UG_PutChar+0x22e>
                  gui->pset(xo,yo,fc);
 8004776:	4b3f      	ldr	r3, [pc, #252]	; (8004874 <_UG_PutChar+0x360>)
 8004778:	681b      	ldr	r3, [r3, #0]
 800477a:	681b      	ldr	r3, [r3, #0]
 800477c:	9a01      	ldr	r2, [sp, #4]
 800477e:	fa0f f18b 	sxth.w	r1, fp
 8004782:	b230      	sxth	r0, r6
 8004784:	4798      	blx	r3
 8004786:	e7e4      	b.n	8004752 <_UG_PutChar+0x23e>
           for( i=0;i<bn;i++ )
 8004788:	f109 0901 	add.w	r9, r9, #1
 800478c:	fa1f f989 	uxth.w	r9, r9
             b = font->p[index++];
 8004790:	9b02      	ldr	r3, [sp, #8]
           for( i=0;i<bn;i++ )
 8004792:	45d1      	cmp	r9, sl
 8004794:	d206      	bcs.n	80047a4 <_UG_PutChar+0x290>
             b = font->p[index++];
 8004796:	f8d8 2000 	ldr.w	r2, [r8]
 800479a:	1c59      	adds	r1, r3, #1
 800479c:	9102      	str	r1, [sp, #8]
 800479e:	5cd7      	ldrb	r7, [r2, r3]
             for( k=0;(k<8) && c;k++ )
 80047a0:	2400      	movs	r4, #0
 80047a2:	e7dd      	b.n	8004760 <_UG_PutChar+0x24c>
             }
           }
           yo++;
 80047a4:	f10b 0b01 	add.w	fp, fp, #1
 80047a8:	fa1f fb8b 	uxth.w	fp, fp
         for( j=0;j<font->char_height;j++ )
 80047ac:	9a03      	ldr	r2, [sp, #12]
 80047ae:	3201      	adds	r2, #1
 80047b0:	b292      	uxth	r2, r2
 80047b2:	9203      	str	r2, [sp, #12]
 80047b4:	f9b8 2008 	ldrsh.w	r2, [r8, #8]
 80047b8:	9903      	ldr	r1, [sp, #12]
 80047ba:	4291      	cmp	r1, r2
 80047bc:	da07      	bge.n	80047ce <_UG_PutChar+0x2ba>
           xo = x;
 80047be:	f8bd 6014 	ldrh.w	r6, [sp, #20]
           c=actual_char_width;
 80047c2:	9d04      	ldr	r5, [sp, #16]
           for( i=0;i<bn;i++ )
 80047c4:	f04f 0900 	mov.w	r9, #0
 80047c8:	e7e3      	b.n	8004792 <_UG_PutChar+0x27e>
         }
      }
      else if (font->font_type == FONT_TYPE_8BPP)
 80047ca:	2b01      	cmp	r3, #1
 80047cc:	d002      	beq.n	80047d4 <_UG_PutChar+0x2c0>
            index += font->char_width - actual_char_width;
            yo++;
         }
      }
   }
}
 80047ce:	b007      	add	sp, #28
 80047d0:	e8bd 8ff0 	ldmia.w	sp!, {r4, r5, r6, r7, r8, r9, sl, fp, pc}
         index = (bt - font->start_char)* font->char_height * font->char_width;
 80047d4:	1a24      	subs	r4, r4, r0
 80047d6:	f9b8 3008 	ldrsh.w	r3, [r8, #8]
 80047da:	fb03 f404 	mul.w	r4, r3, r4
 80047de:	fb05 f304 	mul.w	r3, r5, r4
         for( j=0;j<font->char_height;j++ )
 80047e2:	2700      	movs	r7, #0
 80047e4:	9702      	str	r7, [sp, #8]
 80047e6:	f8dd a010 	ldr.w	sl, [sp, #16]
 80047ea:	9e00      	ldr	r6, [sp, #0]
 80047ec:	9f01      	ldr	r7, [sp, #4]
 80047ee:	e037      	b.n	8004860 <_UG_PutChar+0x34c>
               b = font->p[index++];
 80047f0:	f8d8 2000 	ldr.w	r2, [r8]
 80047f4:	f103 0901 	add.w	r9, r3, #1
 80047f8:	5cd3      	ldrb	r3, [r2, r3]
               color = ((((fc & 0xFF) * b + (bc & 0xFF) * (256 - b)) >> 8) & 0xFF) 	|				//Blue component
 80047fa:	b2f9      	uxtb	r1, r7
 80047fc:	b2f2      	uxtb	r2, r6
 80047fe:	f5c3 7080 	rsb	r0, r3, #256	; 0x100
 8004802:	fb00 f202 	mul.w	r2, r0, r2
 8004806:	fb03 2101 	mla	r1, r3, r1, r2
 800480a:	f3c1 2107 	ubfx	r1, r1, #8, #8
                       ((((fc & 0xFF00) * b + (bc & 0xFF00) * (256 - b)) >> 8) & 0xFF00)  |			//Green component
 800480e:	f407 427f 	and.w	r2, r7, #65280	; 0xff00
 8004812:	f406 4e7f 	and.w	lr, r6, #65280	; 0xff00
 8004816:	fb0e f000 	mul.w	r0, lr, r0
 800481a:	fb02 0203 	mla	r2, r2, r3, r0
 800481e:	1212      	asrs	r2, r2, #8
 8004820:	f022 02ff 	bic.w	r2, r2, #255	; 0xff
 8004824:	b212      	sxth	r2, r2
               color = ((((fc & 0xFF) * b + (bc & 0xFF) * (256 - b)) >> 8) & 0xFF) 	|				//Blue component
 8004826:	430a      	orrs	r2, r1
               gui->pset(xo,yo,color);
 8004828:	4b12      	ldr	r3, [pc, #72]	; (8004874 <_UG_PutChar+0x360>)
 800482a:	681b      	ldr	r3, [r3, #0]
 800482c:	681b      	ldr	r3, [r3, #0]
 800482e:	b292      	uxth	r2, r2
 8004830:	fa0f f18b 	sxth.w	r1, fp
 8004834:	b228      	sxth	r0, r5
 8004836:	4798      	blx	r3
               xo++;
 8004838:	3501      	adds	r5, #1
 800483a:	b2ad      	uxth	r5, r5
            for( i=0;i<actual_char_width;i++ )
 800483c:	3401      	adds	r4, #1
 800483e:	b2a4      	uxth	r4, r4
               b = font->p[index++];
 8004840:	464b      	mov	r3, r9
            for( i=0;i<actual_char_width;i++ )
 8004842:	4554      	cmp	r4, sl
 8004844:	d3d4      	bcc.n	80047f0 <_UG_PutChar+0x2dc>
            index += font->char_width - actual_char_width;
 8004846:	f9b8 2006 	ldrsh.w	r2, [r8, #6]
 800484a:	eba2 020a 	sub.w	r2, r2, sl
 800484e:	4413      	add	r3, r2
            yo++;
 8004850:	f10b 0b01 	add.w	fp, fp, #1
 8004854:	fa1f fb8b 	uxth.w	fp, fp
         for( j=0;j<font->char_height;j++ )
 8004858:	9a02      	ldr	r2, [sp, #8]
 800485a:	3201      	adds	r2, #1
 800485c:	b292      	uxth	r2, r2
 800485e:	9202      	str	r2, [sp, #8]
 8004860:	f9b8 2008 	ldrsh.w	r2, [r8, #8]
 8004864:	9902      	ldr	r1, [sp, #8]
 8004866:	4291      	cmp	r1, r2
 8004868:	dab1      	bge.n	80047ce <_UG_PutChar+0x2ba>
            xo = x;
 800486a:	f8bd 5014 	ldrh.w	r5, [sp, #20]
            for( i=0;i<actual_char_width;i++ )
 800486e:	2400      	movs	r4, #0
 8004870:	e7e7      	b.n	8004842 <_UG_PutChar+0x32e>
 8004872:	bf00      	nop
 8004874:	20000100 	.word	0x20000100

08004878 <_UG_PutText>:

void _UG_PutText(UG_TEXT* txt)
{
 8004878:	e92d 4ff0 	stmdb	sp!, {r4, r5, r6, r7, r8, r9, sl, fp, lr}
 800487c:	b089      	sub	sp, #36	; 0x24
   UG_U16 sl,rc,wl;
   UG_S16 xp,yp;
   UG_S16 xs=txt->a.xs;
 800487e:	f9b0 3008 	ldrsh.w	r3, [r0, #8]
 8004882:	9304      	str	r3, [sp, #16]
   UG_S16 ys=txt->a.ys;
 8004884:	f9b0 400a 	ldrsh.w	r4, [r0, #10]
   UG_S16 xe=txt->a.xe;
 8004888:	f9b0 300c 	ldrsh.w	r3, [r0, #12]
 800488c:	9305      	str	r3, [sp, #20]
   UG_S16 ye=txt->a.ye;
 800488e:	f9b0 100e 	ldrsh.w	r1, [r0, #14]
   UG_U8  align=txt->align;
 8004892:	f890 a014 	ldrb.w	sl, [r0, #20]
   UG_S16 char_width=txt->font->char_width;
 8004896:	6843      	ldr	r3, [r0, #4]
 8004898:	f9b3 2006 	ldrsh.w	r2, [r3, #6]
 800489c:	9203      	str	r2, [sp, #12]
   UG_S16 char_height=txt->font->char_height;
 800489e:	f9b3 b008 	ldrsh.w	fp, [r3, #8]
   UG_S16 char_h_space=txt->h_space;
 80048a2:	f9b0 9016 	ldrsh.w	r9, [r0, #22]
   UG_S16 char_v_space=txt->v_space;
 80048a6:	f9b0 2018 	ldrsh.w	r2, [r0, #24]
 80048aa:	9206      	str	r2, [sp, #24]

   char chr;

   char* str = txt->str;
 80048ac:	6807      	ldr	r7, [r0, #0]
   char* c = str;

   if ( txt->font->p == NULL ) return;
 80048ae:	681b      	ldr	r3, [r3, #0]
 80048b0:	b313      	cbz	r3, 80048f8 <_UG_PutText+0x80>
   if ( str == NULL ) return;
 80048b2:	b30f      	cbz	r7, 80048f8 <_UG_PutText+0x80>
   if ( (ye - ys) < txt->font->char_height ) return;
 80048b4:	1b0b      	subs	r3, r1, r4
 80048b6:	455b      	cmp	r3, fp
 80048b8:	db1e      	blt.n	80048f8 <_UG_PutText+0x80>
 80048ba:	463a      	mov	r2, r7
 80048bc:	2501      	movs	r5, #1
 80048be:	e000      	b.n	80048c2 <_UG_PutText+0x4a>
   rc=1;
   c=str;
   while ( *c != 0 )
   {
      if ( *c == '\n' ) rc++;
      c++;
 80048c0:	3201      	adds	r2, #1
   while ( *c != 0 )
 80048c2:	7813      	ldrb	r3, [r2, #0]
 80048c4:	b123      	cbz	r3, 80048d0 <_UG_PutText+0x58>
      if ( *c == '\n' ) rc++;
 80048c6:	2b0a      	cmp	r3, #10
 80048c8:	d1fa      	bne.n	80048c0 <_UG_PutText+0x48>
 80048ca:	3501      	adds	r5, #1
 80048cc:	b2ad      	uxth	r5, r5
 80048ce:	e7f7      	b.n	80048c0 <_UG_PutText+0x48>
   }

   yp = 0;
   if ( align & (ALIGN_V_CENTER | ALIGN_V_BOTTOM) )
 80048d0:	f01a 0f30 	tst.w	sl, #48	; 0x30
 80048d4:	d013      	beq.n	80048fe <_UG_PutText+0x86>
   {
      yp = ye - ys + 1;
 80048d6:	1b0b      	subs	r3, r1, r4
 80048d8:	b29b      	uxth	r3, r3
 80048da:	3301      	adds	r3, #1
 80048dc:	b29b      	uxth	r3, r3
      yp -= char_height*rc;
 80048de:	fb1b f205 	smulbb	r2, fp, r5
 80048e2:	1a9b      	subs	r3, r3, r2
 80048e4:	b29b      	uxth	r3, r3
      yp -= char_v_space*(rc-1);
 80048e6:	3d01      	subs	r5, #1
 80048e8:	f8bd 2018 	ldrh.w	r2, [sp, #24]
 80048ec:	fb15 f502 	smulbb	r5, r5, r2
 80048f0:	1b5b      	subs	r3, r3, r5
 80048f2:	b21b      	sxth	r3, r3
      if ( yp < 0 ) return;
 80048f4:	2b00      	cmp	r3, #0
 80048f6:	da03      	bge.n	8004900 <_UG_PutText+0x88>
         xp += (txt->font->widths ? txt->font->widths[chr - txt->font->start_char] : char_width) + char_h_space;
      }
      str++;
      yp += char_height + char_v_space;
   }
}
 80048f8:	b009      	add	sp, #36	; 0x24
 80048fa:	e8bd 8ff0 	ldmia.w	sp!, {r4, r5, r6, r7, r8, r9, sl, fp, pc}
   yp = 0;
 80048fe:	2300      	movs	r3, #0
   if ( align & ALIGN_V_CENTER ) yp >>= 1;
 8004900:	f01a 0f10 	tst.w	sl, #16
 8004904:	d000      	beq.n	8004908 <_UG_PutText+0x90>
 8004906:	105b      	asrs	r3, r3, #1
 8004908:	4606      	mov	r6, r0
   yp += ys;
 800490a:	4423      	add	r3, r4
 800490c:	b21b      	sxth	r3, r3
 800490e:	f8cd b01c 	str.w	fp, [sp, #28]
 8004912:	469b      	mov	fp, r3
      c=str;
 8004914:	4638      	mov	r0, r7
      wl = 0;
 8004916:	2400      	movs	r4, #0
      while( (*c != 0) && (*c != '\n') )
 8004918:	e000      	b.n	800491c <_UG_PutText+0xa4>
         if (*c < txt->font->start_char || *c > txt->font->end_char) {c++; continue;}
 800491a:	3001      	adds	r0, #1
      while( (*c != 0) && (*c != '\n') )
 800491c:	7803      	ldrb	r3, [r0, #0]
 800491e:	2b00      	cmp	r3, #0
 8004920:	bf18      	it	ne
 8004922:	2b0a      	cmpne	r3, #10
 8004924:	d015      	beq.n	8004952 <_UG_PutText+0xda>
         if (*c < txt->font->start_char || *c > txt->font->end_char) {c++; continue;}
 8004926:	b299      	uxth	r1, r3
 8004928:	6872      	ldr	r2, [r6, #4]
 800492a:	8955      	ldrh	r5, [r2, #10]
 800492c:	42a9      	cmp	r1, r5
 800492e:	d3f4      	bcc.n	800491a <_UG_PutText+0xa2>
 8004930:	f8b2 e00c 	ldrh.w	lr, [r2, #12]
 8004934:	4571      	cmp	r1, lr
 8004936:	d8f0      	bhi.n	800491a <_UG_PutText+0xa2>
         wl += (txt->font->widths ? txt->font->widths[*c - txt->font->start_char] : char_width) + char_h_space;
 8004938:	6912      	ldr	r2, [r2, #16]
 800493a:	b13a      	cbz	r2, 800494c <_UG_PutText+0xd4>
 800493c:	1b5b      	subs	r3, r3, r5
 800493e:	5cd3      	ldrb	r3, [r2, r3]
 8004940:	444b      	add	r3, r9
 8004942:	fa14 f483 	uxtah	r4, r4, r3
 8004946:	b2a4      	uxth	r4, r4
         c++;
 8004948:	3001      	adds	r0, #1
 800494a:	e7e7      	b.n	800491c <_UG_PutText+0xa4>
         wl += (txt->font->widths ? txt->font->widths[*c - txt->font->start_char] : char_width) + char_h_space;
 800494c:	f8bd 300c 	ldrh.w	r3, [sp, #12]
 8004950:	e7f6      	b.n	8004940 <_UG_PutText+0xc8>
      wl -= char_h_space;
 8004952:	fa1f f889 	uxth.w	r8, r9
 8004956:	eba4 0308 	sub.w	r3, r4, r8
 800495a:	b29a      	uxth	r2, r3
      xp = xe - xs + 1;
 800495c:	f8bd 4010 	ldrh.w	r4, [sp, #16]
 8004960:	9b05      	ldr	r3, [sp, #20]
 8004962:	1b1b      	subs	r3, r3, r4
 8004964:	b29b      	uxth	r3, r3
 8004966:	3301      	adds	r3, #1
 8004968:	b29b      	uxth	r3, r3
      xp -= wl;
 800496a:	1a9b      	subs	r3, r3, r2
 800496c:	b21b      	sxth	r3, r3
      if ( xp < 0 ) return;
 800496e:	2b00      	cmp	r3, #0
 8004970:	dbc2      	blt.n	80048f8 <_UG_PutText+0x80>
      if ( align & ALIGN_H_LEFT ) xp = 0;
 8004972:	f01a 0f01 	tst.w	sl, #1
 8004976:	d104      	bne.n	8004982 <_UG_PutText+0x10a>
      else if ( align & ALIGN_H_CENTER ) xp >>= 1;
 8004978:	f01a 0f02 	tst.w	sl, #2
 800497c:	d002      	beq.n	8004984 <_UG_PutText+0x10c>
 800497e:	105b      	asrs	r3, r3, #1
 8004980:	e000      	b.n	8004984 <_UG_PutText+0x10c>
      if ( align & ALIGN_H_LEFT ) xp = 0;
 8004982:	2300      	movs	r3, #0
      xp += xs;
 8004984:	441c      	add	r4, r3
 8004986:	b224      	sxth	r4, r4
      while( (*str != '\n') )
 8004988:	e005      	b.n	8004996 <_UG_PutText+0x11e>
         xp += (txt->font->widths ? txt->font->widths[chr - txt->font->start_char] : char_width) + char_h_space;
 800498a:	f8bd 100c 	ldrh.w	r1, [sp, #12]
 800498e:	4441      	add	r1, r8
 8004990:	fa14 f181 	uxtah	r1, r4, r1
 8004994:	b20c      	sxth	r4, r1
      while( (*str != '\n') )
 8004996:	783d      	ldrb	r5, [r7, #0]
 8004998:	2d0a      	cmp	r5, #10
 800499a:	d014      	beq.n	80049c6 <_UG_PutText+0x14e>
         chr = *str++;
 800499c:	3701      	adds	r7, #1
         if ( chr == 0 ) return;
 800499e:	2d00      	cmp	r5, #0
 80049a0:	d0aa      	beq.n	80048f8 <_UG_PutText+0x80>
         _UG_PutChar(chr,xp,yp,txt->fc,txt->bc,txt->font);
 80049a2:	8a33      	ldrh	r3, [r6, #16]
 80049a4:	6872      	ldr	r2, [r6, #4]
 80049a6:	9201      	str	r2, [sp, #4]
 80049a8:	8a72      	ldrh	r2, [r6, #18]
 80049aa:	9200      	str	r2, [sp, #0]
 80049ac:	465a      	mov	r2, fp
 80049ae:	4621      	mov	r1, r4
 80049b0:	4628      	mov	r0, r5
 80049b2:	f7ff fdaf 	bl	8004514 <_UG_PutChar>
         xp += (txt->font->widths ? txt->font->widths[chr - txt->font->start_char] : char_width) + char_h_space;
 80049b6:	6873      	ldr	r3, [r6, #4]
 80049b8:	691a      	ldr	r2, [r3, #16]
 80049ba:	2a00      	cmp	r2, #0
 80049bc:	d0e5      	beq.n	800498a <_UG_PutText+0x112>
 80049be:	895b      	ldrh	r3, [r3, #10]
 80049c0:	1aed      	subs	r5, r5, r3
 80049c2:	5d51      	ldrb	r1, [r2, r5]
 80049c4:	e7e3      	b.n	800498e <_UG_PutText+0x116>
      str++;
 80049c6:	3701      	adds	r7, #1
      yp += char_height + char_v_space;
 80049c8:	9b07      	ldr	r3, [sp, #28]
 80049ca:	9a06      	ldr	r2, [sp, #24]
 80049cc:	4413      	add	r3, r2
 80049ce:	fa1b f383 	uxtah	r3, fp, r3
 80049d2:	fa0f fb83 	sxth.w	fp, r3
      sl=0;
 80049d6:	e79d      	b.n	8004914 <_UG_PutText+0x9c>

080049d8 <_UG_GetFreeObject>:

UG_OBJECT* _UG_GetFreeObject( UG_WINDOW* wnd )
{
 80049d8:	b410      	push	{r4}
   UG_U8 i;
   UG_OBJECT* obj=(UG_OBJECT*)wnd->objlst;
 80049da:	6841      	ldr	r1, [r0, #4]

   for(i=0;i<wnd->objcnt;i++)
 80049dc:	2300      	movs	r3, #0
 80049de:	7802      	ldrb	r2, [r0, #0]
 80049e0:	4293      	cmp	r3, r2
 80049e2:	d209      	bcs.n	80049f8 <_UG_GetFreeObject+0x20>
   {
      obj = (UG_OBJECT*)(&wnd->objlst[i]);
 80049e4:	015a      	lsls	r2, r3, #5
 80049e6:	188c      	adds	r4, r1, r2
      if ( (obj->state & OBJ_STATE_FREE) && (obj->state & OBJ_STATE_VALID) )
 80049e8:	5c8a      	ldrb	r2, [r1, r2]
 80049ea:	f002 0203 	and.w	r2, r2, #3
 80049ee:	2a03      	cmp	r2, #3
 80049f0:	d003      	beq.n	80049fa <_UG_GetFreeObject+0x22>
   for(i=0;i<wnd->objcnt;i++)
 80049f2:	3301      	adds	r3, #1
 80049f4:	b2db      	uxtb	r3, r3
 80049f6:	e7f2      	b.n	80049de <_UG_GetFreeObject+0x6>
      {
         /* Free object found! */
         return obj;
      }
   }
   return NULL;
 80049f8:	2400      	movs	r4, #0
}
 80049fa:	4620      	mov	r0, r4
 80049fc:	f85d 4b04 	ldr.w	r4, [sp], #4
 8004a00:	4770      	bx	lr

08004a02 <_UG_SearchObject>:

UG_OBJECT* _UG_SearchObject( UG_WINDOW* wnd, UG_U8 type, UG_U8 id )
{
 8004a02:	b470      	push	{r4, r5, r6}
 8004a04:	4606      	mov	r6, r0
   UG_U8 i;
   UG_OBJECT* obj=(UG_OBJECT*)wnd->objlst;
 8004a06:	6845      	ldr	r5, [r0, #4]

   for(i=0;i<wnd->objcnt;i++)
 8004a08:	2300      	movs	r3, #0
 8004a0a:	e001      	b.n	8004a10 <_UG_SearchObject+0xe>
 8004a0c:	3301      	adds	r3, #1
 8004a0e:	b2db      	uxtb	r3, r3
 8004a10:	7834      	ldrb	r4, [r6, #0]
 8004a12:	42a3      	cmp	r3, r4
 8004a14:	d20d      	bcs.n	8004a32 <_UG_SearchObject+0x30>
   {
      obj = (UG_OBJECT*)(&wnd->objlst[i]);
 8004a16:	015c      	lsls	r4, r3, #5
 8004a18:	1928      	adds	r0, r5, r4
      if ( !(obj->state & OBJ_STATE_FREE) && (obj->state & OBJ_STATE_VALID) )
 8004a1a:	5d2c      	ldrb	r4, [r5, r4]
 8004a1c:	f004 0403 	and.w	r4, r4, #3
 8004a20:	2c02      	cmp	r4, #2
 8004a22:	d1f3      	bne.n	8004a0c <_UG_SearchObject+0xa>
      {
         if ( (obj->type == type) && (obj->id == id) )
 8004a24:	7e04      	ldrb	r4, [r0, #24]
 8004a26:	428c      	cmp	r4, r1
 8004a28:	d1f0      	bne.n	8004a0c <_UG_SearchObject+0xa>
 8004a2a:	7e44      	ldrb	r4, [r0, #25]
 8004a2c:	4294      	cmp	r4, r2
 8004a2e:	d1ed      	bne.n	8004a0c <_UG_SearchObject+0xa>
 8004a30:	e000      	b.n	8004a34 <_UG_SearchObject+0x32>
            /* Requested object found! */
            return obj;
         }
      }
   }
   return NULL;
 8004a32:	2000      	movs	r0, #0
}
 8004a34:	bc70      	pop	{r4, r5, r6}
 8004a36:	4770      	bx	lr

08004a38 <_UG_ProcessTouchData>:
   }
   return UG_RESULT_FAIL;
}

void _UG_ProcessTouchData( UG_WINDOW* wnd )
{
 8004a38:	b5f0      	push	{r4, r5, r6, r7, lr}
   UG_OBJECT* obj;
   UG_U8 objstate;
   UG_U8 objtouch;
   UG_U8 tchstate;

   xp = gui->touch.xp;
 8004a3a:	4b2d      	ldr	r3, [pc, #180]	; (8004af0 <_UG_ProcessTouchData+0xb8>)
 8004a3c:	681b      	ldr	r3, [r3, #0]
 8004a3e:	f9b3 600a 	ldrsh.w	r6, [r3, #10]
   yp = gui->touch.yp;
 8004a42:	f9b3 e00c 	ldrsh.w	lr, [r3, #12]
   tchstate = gui->touch.state;
 8004a46:	7a1f      	ldrb	r7, [r3, #8]

   objcnt = wnd->objcnt;
 8004a48:	7805      	ldrb	r5, [r0, #0]
   for(i=0; i<objcnt; i++)
 8004a4a:	2300      	movs	r3, #0
 8004a4c:	e004      	b.n	8004a58 <_UG_ProcessTouchData+0x20>
                        }
                     }
                  }
               }
            }
            objtouch |= OBJ_TOUCH_STATE_IS_PRESSED;
 8004a4e:	f042 0140 	orr.w	r1, r2, #64	; 0x40
               objtouch |= OBJ_TOUCH_STATE_CHANGED;
            }
            objtouch &= ~(OBJ_TOUCH_STATE_PRESSED_OUTSIDE_OBJECT | OBJ_TOUCH_STATE_PRESSED_ON_OBJECT | OBJ_TOUCH_STATE_IS_PRESSED);
         }
      }
      obj->touch_state = objtouch;
 8004a52:	7061      	strb	r1, [r4, #1]
   for(i=0; i<objcnt; i++)
 8004a54:	3301      	adds	r3, #1
 8004a56:	b29b      	uxth	r3, r3
 8004a58:	42ab      	cmp	r3, r5
 8004a5a:	d248      	bcs.n	8004aee <_UG_ProcessTouchData+0xb6>
      obj = (UG_OBJECT*)&wnd->objlst[i];
 8004a5c:	6841      	ldr	r1, [r0, #4]
 8004a5e:	015a      	lsls	r2, r3, #5
 8004a60:	188c      	adds	r4, r1, r2
      objstate = obj->state;
 8004a62:	5c8a      	ldrb	r2, [r1, r2]
      objtouch = obj->touch_state;
 8004a64:	7861      	ldrb	r1, [r4, #1]
      if ( !(objstate & OBJ_STATE_FREE) && (objstate & OBJ_STATE_VALID) && (objstate & OBJ_STATE_VISIBLE) && !(objstate & OBJ_STATE_REDRAW))
 8004a66:	f002 024b 	and.w	r2, r2, #75	; 0x4b
 8004a6a:	2a0a      	cmp	r2, #10
 8004a6c:	d1f1      	bne.n	8004a52 <_UG_ProcessTouchData+0x1a>
         if ( (tchstate) && xp != -1 )
 8004a6e:	2f00      	cmp	r7, #0
 8004a70:	bf18      	it	ne
 8004a72:	f1b6 3fff 	cmpne.w	r6, #4294967295
 8004a76:	d022      	beq.n	8004abe <_UG_ProcessTouchData+0x86>
            if ( !(objtouch & OBJ_TOUCH_STATE_IS_PRESSED) )
 8004a78:	f011 0f40 	tst.w	r1, #64	; 0x40
 8004a7c:	d103      	bne.n	8004a86 <_UG_ProcessTouchData+0x4e>
 8004a7e:	f001 0167 	and.w	r1, r1, #103	; 0x67
               objtouch &= ~(OBJ_TOUCH_STATE_RELEASED_ON_OBJECT | OBJ_TOUCH_STATE_RELEASED_OUTSIDE_OBJECT | OBJ_TOUCH_STATE_CLICK_ON_OBJECT);
 8004a82:	f041 0105 	orr.w	r1, r1, #5
            objtouch &= ~OBJ_TOUCH_STATE_IS_PRESSED_ON_OBJECT;
 8004a86:	f001 02df 	and.w	r2, r1, #223	; 0xdf
            if ( xp >= obj->a_abs.xs )
 8004a8a:	f9b4 c008 	ldrsh.w	ip, [r4, #8]
 8004a8e:	4566      	cmp	r6, ip
 8004a90:	dbdd      	blt.n	8004a4e <_UG_ProcessTouchData+0x16>
               if ( xp <= obj->a_abs.xe )
 8004a92:	f9b4 c00c 	ldrsh.w	ip, [r4, #12]
 8004a96:	4566      	cmp	r6, ip
 8004a98:	dcd9      	bgt.n	8004a4e <_UG_ProcessTouchData+0x16>
                  if ( yp >= obj->a_abs.ys )
 8004a9a:	f9b4 c00a 	ldrsh.w	ip, [r4, #10]
 8004a9e:	45e6      	cmp	lr, ip
 8004aa0:	dbd5      	blt.n	8004a4e <_UG_ProcessTouchData+0x16>
                     if ( yp <= obj->a_abs.ye )
 8004aa2:	f9b4 c00e 	ldrsh.w	ip, [r4, #14]
 8004aa6:	45e6      	cmp	lr, ip
 8004aa8:	dcd1      	bgt.n	8004a4e <_UG_ProcessTouchData+0x16>
                        objtouch |= OBJ_TOUCH_STATE_IS_PRESSED_ON_OBJECT;
 8004aaa:	f042 0220 	orr.w	r2, r2, #32
                        if ( !(objtouch & OBJ_TOUCH_STATE_IS_PRESSED) )
 8004aae:	f011 0f40 	tst.w	r1, #64	; 0x40
 8004ab2:	d1cc      	bne.n	8004a4e <_UG_ProcessTouchData+0x16>
 8004ab4:	f001 02db 	and.w	r2, r1, #219	; 0xdb
                           objtouch |= OBJ_TOUCH_STATE_PRESSED_ON_OBJECT;
 8004ab8:	f042 0222 	orr.w	r2, r2, #34	; 0x22
 8004abc:	e7c7      	b.n	8004a4e <_UG_ProcessTouchData+0x16>
         else if ( objtouch & OBJ_TOUCH_STATE_IS_PRESSED )
 8004abe:	f011 0f40 	tst.w	r1, #64	; 0x40
 8004ac2:	d0c6      	beq.n	8004a52 <_UG_ProcessTouchData+0x1a>
            if ( objtouch & OBJ_TOUCH_STATE_IS_PRESSED_ON_OBJECT )
 8004ac4:	f011 0f20 	tst.w	r1, #32
 8004ac8:	d00e      	beq.n	8004ae8 <_UG_ProcessTouchData+0xb0>
               if ( objtouch & OBJ_TOUCH_STATE_PRESSED_ON_OBJECT ) objtouch |= OBJ_TOUCH_STATE_CLICK_ON_OBJECT;
 8004aca:	f011 0f02 	tst.w	r1, #2
 8004ace:	d001      	beq.n	8004ad4 <_UG_ProcessTouchData+0x9c>
 8004ad0:	f041 0180 	orr.w	r1, r1, #128	; 0x80
               objtouch |= OBJ_TOUCH_STATE_RELEASED_ON_OBJECT;
 8004ad4:	f041 0108 	orr.w	r1, r1, #8
            if ( objtouch & OBJ_TOUCH_STATE_IS_PRESSED )
 8004ad8:	f011 0f40 	tst.w	r1, #64	; 0x40
 8004adc:	d001      	beq.n	8004ae2 <_UG_ProcessTouchData+0xaa>
               objtouch |= OBJ_TOUCH_STATE_CHANGED;
 8004ade:	f041 0101 	orr.w	r1, r1, #1
            objtouch &= ~(OBJ_TOUCH_STATE_PRESSED_OUTSIDE_OBJECT | OBJ_TOUCH_STATE_PRESSED_ON_OBJECT | OBJ_TOUCH_STATE_IS_PRESSED);
 8004ae2:	f001 01b9 	and.w	r1, r1, #185	; 0xb9
 8004ae6:	e7b4      	b.n	8004a52 <_UG_ProcessTouchData+0x1a>
               objtouch |= OBJ_TOUCH_STATE_RELEASED_OUTSIDE_OBJECT;
 8004ae8:	f041 0110 	orr.w	r1, r1, #16
 8004aec:	e7f4      	b.n	8004ad8 <_UG_ProcessTouchData+0xa0>
   }
}
 8004aee:	bdf0      	pop	{r4, r5, r6, r7, pc}
 8004af0:	20000100 	.word	0x20000100

08004af4 <_UG_UpdateObjects>:

void _UG_UpdateObjects( UG_WINDOW* wnd )
{
 8004af4:	e92d 43f8 	stmdb	sp!, {r3, r4, r5, r6, r7, r8, r9, lr}
 8004af8:	4607      	mov	r7, r0
   UG_OBJECT* obj;
   UG_U8 objstate;
   UG_U8 objtouch;

   /* Check each object, if it needs to be updated? */
   objcnt = wnd->objcnt;
 8004afa:	f890 8000 	ldrb.w	r8, [r0]
   for(i=0; i<objcnt; i++)
 8004afe:	2400      	movs	r4, #0
 8004b00:	e006      	b.n	8004b10 <_UG_UpdateObjects+0x1c>
      objtouch = obj->touch_state;
      if ( !(objstate & OBJ_STATE_FREE) && (objstate & OBJ_STATE_VALID) )
      {
         if ( objstate & OBJ_STATE_UPDATE )
         {
            obj->update(wnd,obj);
 8004b02:	6873      	ldr	r3, [r6, #4]
 8004b04:	4631      	mov	r1, r6
 8004b06:	4638      	mov	r0, r7
 8004b08:	4798      	blx	r3
 8004b0a:	e010      	b.n	8004b2e <_UG_UpdateObjects+0x3a>
   for(i=0; i<objcnt; i++)
 8004b0c:	3401      	adds	r4, #1
 8004b0e:	b2a4      	uxth	r4, r4
 8004b10:	4544      	cmp	r4, r8
 8004b12:	d21a      	bcs.n	8004b4a <_UG_UpdateObjects+0x56>
      obj = (UG_OBJECT*)&wnd->objlst[i];
 8004b14:	687a      	ldr	r2, [r7, #4]
 8004b16:	0163      	lsls	r3, r4, #5
 8004b18:	18d6      	adds	r6, r2, r3
      objstate = obj->state;
 8004b1a:	5cd5      	ldrb	r5, [r2, r3]
      objtouch = obj->touch_state;
 8004b1c:	f896 9001 	ldrb.w	r9, [r6, #1]
      if ( !(objstate & OBJ_STATE_FREE) && (objstate & OBJ_STATE_VALID) )
 8004b20:	f005 0303 	and.w	r3, r5, #3
 8004b24:	2b02      	cmp	r3, #2
 8004b26:	d1f1      	bne.n	8004b0c <_UG_UpdateObjects+0x18>
         if ( objstate & OBJ_STATE_UPDATE )
 8004b28:	f015 0f20 	tst.w	r5, #32
 8004b2c:	d1e9      	bne.n	8004b02 <_UG_UpdateObjects+0xe>
         }
         if ( (objstate & OBJ_STATE_VISIBLE) && (objstate & OBJ_STATE_TOUCH_ENABLE) )
 8004b2e:	f015 0f08 	tst.w	r5, #8
 8004b32:	d0eb      	beq.n	8004b0c <_UG_UpdateObjects+0x18>
 8004b34:	f015 0f80 	tst.w	r5, #128	; 0x80
 8004b38:	d0e8      	beq.n	8004b0c <_UG_UpdateObjects+0x18>
         {
            if ( (objtouch & (OBJ_TOUCH_STATE_CHANGED | OBJ_TOUCH_STATE_IS_PRESSED)) )
 8004b3a:	f019 0f41 	tst.w	r9, #65	; 0x41
 8004b3e:	d0e5      	beq.n	8004b0c <_UG_UpdateObjects+0x18>
            {
               obj->update(wnd,obj);
 8004b40:	6873      	ldr	r3, [r6, #4]
 8004b42:	4631      	mov	r1, r6
 8004b44:	4638      	mov	r0, r7
 8004b46:	4798      	blx	r3
 8004b48:	e7e0      	b.n	8004b0c <_UG_UpdateObjects+0x18>
            }
         }
      }
   }
}
 8004b4a:	e8bd 83f8 	ldmia.w	sp!, {r3, r4, r5, r6, r7, r8, r9, pc}
	...

08004b50 <_UG_HandleEvents>:

void _UG_HandleEvents( UG_WINDOW* wnd )
{
 8004b50:	b570      	push	{r4, r5, r6, lr}
 8004b52:	b082      	sub	sp, #8
 8004b54:	4605      	mov	r5, r0
   UG_U16 i,objcnt;
   UG_OBJECT* obj;
   UG_U8 objstate;
   static UG_MESSAGE msg;
   msg.src = NULL;
 8004b56:	4b13      	ldr	r3, [pc, #76]	; (8004ba4 <_UG_HandleEvents+0x54>)
 8004b58:	2400      	movs	r4, #0
 8004b5a:	605c      	str	r4, [r3, #4]
   /* Handle window-related events */
   //ToDo


   /* Handle object-related events */
   msg.type = MSG_TYPE_OBJECT;
 8004b5c:	2202      	movs	r2, #2
 8004b5e:	701a      	strb	r2, [r3, #0]
   objcnt = wnd->objcnt;
 8004b60:	7806      	ldrb	r6, [r0, #0]
   for(i=0; i<objcnt; i++)
 8004b62:	e001      	b.n	8004b68 <_UG_HandleEvents+0x18>
 8004b64:	3401      	adds	r4, #1
 8004b66:	b2a4      	uxth	r4, r4
 8004b68:	42b4      	cmp	r4, r6
 8004b6a:	d219      	bcs.n	8004ba0 <_UG_HandleEvents+0x50>
   {
      obj = (UG_OBJECT*)&wnd->objlst[i];
 8004b6c:	686a      	ldr	r2, [r5, #4]
 8004b6e:	0163      	lsls	r3, r4, #5
 8004b70:	18d1      	adds	r1, r2, r3
 8004b72:	9101      	str	r1, [sp, #4]
      objstate = obj->state;
 8004b74:	5cd3      	ldrb	r3, [r2, r3]
      if ( !(objstate & OBJ_STATE_FREE) && (objstate & OBJ_STATE_VALID) )
 8004b76:	f003 0303 	and.w	r3, r3, #3
 8004b7a:	2b02      	cmp	r3, #2
 8004b7c:	d1f2      	bne.n	8004b64 <_UG_HandleEvents+0x14>
      {
         if ( obj->event != OBJ_EVENT_NONE )
 8004b7e:	7e8b      	ldrb	r3, [r1, #26]
 8004b80:	2b00      	cmp	r3, #0
 8004b82:	d0ef      	beq.n	8004b64 <_UG_HandleEvents+0x14>
         {
            msg.src = &obj;
 8004b84:	4807      	ldr	r0, [pc, #28]	; (8004ba4 <_UG_HandleEvents+0x54>)
 8004b86:	aa01      	add	r2, sp, #4
 8004b88:	6042      	str	r2, [r0, #4]
            msg.id = obj->type;
 8004b8a:	7e0a      	ldrb	r2, [r1, #24]
 8004b8c:	7042      	strb	r2, [r0, #1]
            msg.sub_id = obj->id;
 8004b8e:	7e4a      	ldrb	r2, [r1, #25]
 8004b90:	7082      	strb	r2, [r0, #2]
            msg.event = obj->event;
 8004b92:	70c3      	strb	r3, [r0, #3]

            wnd->cb( &msg );
 8004b94:	6b2b      	ldr	r3, [r5, #48]	; 0x30
 8004b96:	4798      	blx	r3

            obj->event = OBJ_EVENT_NONE;
 8004b98:	2200      	movs	r2, #0
 8004b9a:	9b01      	ldr	r3, [sp, #4]
 8004b9c:	769a      	strb	r2, [r3, #26]
 8004b9e:	e7e1      	b.n	8004b64 <_UG_HandleEvents+0x14>
         }
      }
   }
}
 8004ba0:	b002      	add	sp, #8
 8004ba2:	bd70      	pop	{r4, r5, r6, pc}
 8004ba4:	20000104 	.word	0x20000104

08004ba8 <_UG_DrawObjectFrame>:

void _UG_DrawObjectFrame( UG_S16 xs, UG_S16 ys, UG_S16 xe, UG_S16 ye, UG_COLOR* p )
{
 8004ba8:	e92d 4ff0 	stmdb	sp!, {r4, r5, r6, r7, r8, r9, sl, fp, lr}
 8004bac:	b087      	sub	sp, #28
 8004bae:	4681      	mov	r9, r0
 8004bb0:	460f      	mov	r7, r1
 8004bb2:	4614      	mov	r4, r2
 8004bb4:	4698      	mov	r8, r3
 8004bb6:	9d10      	ldr	r5, [sp, #64]	; 0x40
   // Frame 0
   UG_DrawLine(xs, ys  , xe-1, ys  , *p++);
 8004bb8:	fa1f fb82 	uxth.w	fp, r2
 8004bbc:	f10b 33ff 	add.w	r3, fp, #4294967295
 8004bc0:	b21b      	sxth	r3, r3
 8004bc2:	461a      	mov	r2, r3
 8004bc4:	882b      	ldrh	r3, [r5, #0]
 8004bc6:	9300      	str	r3, [sp, #0]
 8004bc8:	460b      	mov	r3, r1
 8004bca:	9203      	str	r2, [sp, #12]
 8004bcc:	f7ff fbe6 	bl	800439c <UG_DrawLine>
   UG_DrawLine(xs, ys+1, xs  , ye-1, *p++);
 8004bd0:	fa1f fa87 	uxth.w	sl, r7
 8004bd4:	f10a 0301 	add.w	r3, sl, #1
 8004bd8:	b219      	sxth	r1, r3
 8004bda:	fa1f f688 	uxth.w	r6, r8
 8004bde:	1e73      	subs	r3, r6, #1
 8004be0:	b218      	sxth	r0, r3
 8004be2:	886b      	ldrh	r3, [r5, #2]
 8004be4:	9300      	str	r3, [sp, #0]
 8004be6:	9004      	str	r0, [sp, #16]
 8004be8:	4603      	mov	r3, r0
 8004bea:	464a      	mov	r2, r9
 8004bec:	9102      	str	r1, [sp, #8]
 8004bee:	4648      	mov	r0, r9
 8004bf0:	f7ff fbd4 	bl	800439c <UG_DrawLine>
   UG_DrawLine(xs, ye  , xe  , ye  , *p++);
 8004bf4:	88ab      	ldrh	r3, [r5, #4]
 8004bf6:	9300      	str	r3, [sp, #0]
 8004bf8:	4643      	mov	r3, r8
 8004bfa:	4622      	mov	r2, r4
 8004bfc:	4641      	mov	r1, r8
 8004bfe:	4648      	mov	r0, r9
 8004c00:	f7ff fbcc 	bl	800439c <UG_DrawLine>
   UG_DrawLine(xe, ys  , xe  , ye-1, *p++);
 8004c04:	88eb      	ldrh	r3, [r5, #6]
 8004c06:	9300      	str	r3, [sp, #0]
 8004c08:	9b04      	ldr	r3, [sp, #16]
 8004c0a:	4622      	mov	r2, r4
 8004c0c:	4639      	mov	r1, r7
 8004c0e:	4620      	mov	r0, r4
 8004c10:	f7ff fbc4 	bl	800439c <UG_DrawLine>
   // Frame 1
   UG_DrawLine(xs+1, ys+1, xe-2, ys+1, *p++);
 8004c14:	fa1f f489 	uxth.w	r4, r9
 8004c18:	f104 0901 	add.w	r9, r4, #1
 8004c1c:	fa0f f989 	sxth.w	r9, r9
 8004c20:	f1ab 0302 	sub.w	r3, fp, #2
 8004c24:	b21f      	sxth	r7, r3
 8004c26:	892b      	ldrh	r3, [r5, #8]
 8004c28:	9300      	str	r3, [sp, #0]
 8004c2a:	9902      	ldr	r1, [sp, #8]
 8004c2c:	460b      	mov	r3, r1
 8004c2e:	9705      	str	r7, [sp, #20]
 8004c30:	463a      	mov	r2, r7
 8004c32:	4648      	mov	r0, r9
 8004c34:	f7ff fbb2 	bl	800439c <UG_DrawLine>
   UG_DrawLine(xs+1, ys+2, xs+1, ye-2, *p++);
 8004c38:	f10a 0702 	add.w	r7, sl, #2
 8004c3c:	b23f      	sxth	r7, r7
 8004c3e:	f1a6 0802 	sub.w	r8, r6, #2
 8004c42:	fa0f f888 	sxth.w	r8, r8
 8004c46:	896b      	ldrh	r3, [r5, #10]
 8004c48:	9300      	str	r3, [sp, #0]
 8004c4a:	4643      	mov	r3, r8
 8004c4c:	464a      	mov	r2, r9
 8004c4e:	4639      	mov	r1, r7
 8004c50:	4648      	mov	r0, r9
 8004c52:	f7ff fba3 	bl	800439c <UG_DrawLine>
   UG_DrawLine(xs+1, ye-1, xe-1, ye-1, *p++);
 8004c56:	89ab      	ldrh	r3, [r5, #12]
 8004c58:	9300      	str	r3, [sp, #0]
 8004c5a:	f8dd e010 	ldr.w	lr, [sp, #16]
 8004c5e:	4673      	mov	r3, lr
 8004c60:	9a03      	ldr	r2, [sp, #12]
 8004c62:	4671      	mov	r1, lr
 8004c64:	4648      	mov	r0, r9
 8004c66:	f7ff fb99 	bl	800439c <UG_DrawLine>
   UG_DrawLine(xe-1, ys+1, xe-1, ye-2, *p++);
 8004c6a:	89eb      	ldrh	r3, [r5, #14]
 8004c6c:	9300      	str	r3, [sp, #0]
 8004c6e:	4643      	mov	r3, r8
 8004c70:	9803      	ldr	r0, [sp, #12]
 8004c72:	4602      	mov	r2, r0
 8004c74:	9902      	ldr	r1, [sp, #8]
 8004c76:	f7ff fb91 	bl	800439c <UG_DrawLine>
   // Frame 2
   UG_DrawLine(xs+2, ys+2, xe-3, ys+2, *p++);
 8004c7a:	3402      	adds	r4, #2
 8004c7c:	b224      	sxth	r4, r4
 8004c7e:	f1ab 0203 	sub.w	r2, fp, #3
 8004c82:	8a2b      	ldrh	r3, [r5, #16]
 8004c84:	9300      	str	r3, [sp, #0]
 8004c86:	463b      	mov	r3, r7
 8004c88:	b212      	sxth	r2, r2
 8004c8a:	4639      	mov	r1, r7
 8004c8c:	4620      	mov	r0, r4
 8004c8e:	f7ff fb85 	bl	800439c <UG_DrawLine>
   UG_DrawLine(xs+2, ys+3, xs+2, ye-3, *p++);
 8004c92:	f10a 0103 	add.w	r1, sl, #3
 8004c96:	3e03      	subs	r6, #3
 8004c98:	b236      	sxth	r6, r6
 8004c9a:	8a6b      	ldrh	r3, [r5, #18]
 8004c9c:	9300      	str	r3, [sp, #0]
 8004c9e:	4633      	mov	r3, r6
 8004ca0:	4622      	mov	r2, r4
 8004ca2:	b209      	sxth	r1, r1
 8004ca4:	4620      	mov	r0, r4
 8004ca6:	f7ff fb79 	bl	800439c <UG_DrawLine>
   UG_DrawLine(xs+2, ye-2, xe-2, ye-2, *p++);
 8004caa:	8aab      	ldrh	r3, [r5, #20]
 8004cac:	9300      	str	r3, [sp, #0]
 8004cae:	4643      	mov	r3, r8
 8004cb0:	f8dd 9014 	ldr.w	r9, [sp, #20]
 8004cb4:	464a      	mov	r2, r9
 8004cb6:	4641      	mov	r1, r8
 8004cb8:	4620      	mov	r0, r4
 8004cba:	f7ff fb6f 	bl	800439c <UG_DrawLine>
   UG_DrawLine(xe-2, ys+2, xe-2, ye-3, *p);
 8004cbe:	8aeb      	ldrh	r3, [r5, #22]
 8004cc0:	9300      	str	r3, [sp, #0]
 8004cc2:	4633      	mov	r3, r6
 8004cc4:	464a      	mov	r2, r9
 8004cc6:	4639      	mov	r1, r7
 8004cc8:	4648      	mov	r0, r9
 8004cca:	f7ff fb67 	bl	800439c <UG_DrawLine>
}
 8004cce:	b007      	add	sp, #28
 8004cd0:	e8bd 8ff0 	ldmia.w	sp!, {r4, r5, r6, r7, r8, r9, sl, fp, pc}

08004cd4 <_UG_SendObjectPrerenderEvent>:

#ifdef USE_PRERENDER_EVENT
void _UG_SendObjectPrerenderEvent(UG_WINDOW *wnd,UG_OBJECT *obj)
{
 8004cd4:	b500      	push	{lr}
 8004cd6:	b083      	sub	sp, #12
	UG_MESSAGE msg;
	msg.event = OBJ_EVENT_PRERENDER;
 8004cd8:	2302      	movs	r3, #2
 8004cda:	f88d 3003 	strb.w	r3, [sp, #3]
	msg.type = MSG_TYPE_OBJECT;
 8004cde:	f88d 3000 	strb.w	r3, [sp]
	msg.id = obj->type;
 8004ce2:	7e0b      	ldrb	r3, [r1, #24]
 8004ce4:	f88d 3001 	strb.w	r3, [sp, #1]
	msg.sub_id = obj->id;
 8004ce8:	7e4b      	ldrb	r3, [r1, #25]
 8004cea:	f88d 3002 	strb.w	r3, [sp, #2]
	msg.src = obj;
 8004cee:	9101      	str	r1, [sp, #4]

	wnd->cb(&msg);
 8004cf0:	6b03      	ldr	r3, [r0, #48]	; 0x30
 8004cf2:	4668      	mov	r0, sp
 8004cf4:	4798      	blx	r3
}
 8004cf6:	b003      	add	sp, #12
 8004cf8:	f85d fb04 	ldr.w	pc, [sp], #4

08004cfc <_UG_SendObjectPostrenderEvent>:
#endif

#ifdef USE_POSTRENDER_EVENT
void _UG_SendObjectPostrenderEvent(UG_WINDOW *wnd,UG_OBJECT *obj)
{
 8004cfc:	b500      	push	{lr}
 8004cfe:	b083      	sub	sp, #12
	UG_MESSAGE msg;
	msg.event = OBJ_EVENT_POSTRENDER;
 8004d00:	2303      	movs	r3, #3
 8004d02:	f88d 3003 	strb.w	r3, [sp, #3]
	msg.type = MSG_TYPE_OBJECT;
 8004d06:	2302      	movs	r3, #2
 8004d08:	f88d 3000 	strb.w	r3, [sp]
	msg.id = obj->type;
 8004d0c:	7e0b      	ldrb	r3, [r1, #24]
 8004d0e:	f88d 3001 	strb.w	r3, [sp, #1]
	msg.sub_id = obj->id;
 8004d12:	7e4b      	ldrb	r3, [r1, #25]
 8004d14:	f88d 3002 	strb.w	r3, [sp, #2]
	msg.src = obj;
 8004d18:	9101      	str	r1, [sp, #4]

	wnd->cb(&msg);
 8004d1a:	6b03      	ldr	r3, [r0, #48]	; 0x30
 8004d1c:	4668      	mov	r0, sp
 8004d1e:	4798      	blx	r3
}
 8004d20:	b003      	add	sp, #12
 8004d22:	f85d fb04 	ldr.w	pc, [sp], #4
	...

08004d28 <UG_DriverRegister>:
/* -------------------------------------------------------------------------------- */
/* -- DRIVER FUNCTIONS                                                           -- */
/* -------------------------------------------------------------------------------- */
void UG_DriverRegister( UG_U8 type, void* driver )
{
   if ( type >= NUMBER_OF_DRIVERS ) return;
 8004d28:	2802      	cmp	r0, #2
 8004d2a:	d807      	bhi.n	8004d3c <UG_DriverRegister+0x14>

   gui->driver[type].driver = driver;
 8004d2c:	4b04      	ldr	r3, [pc, #16]	; (8004d40 <UG_DriverRegister+0x18>)
 8004d2e:	681b      	ldr	r3, [r3, #0]
 8004d30:	3009      	adds	r0, #9
 8004d32:	eb03 00c0 	add.w	r0, r3, r0, lsl #3
 8004d36:	6041      	str	r1, [r0, #4]
   gui->driver[type].state = DRIVER_REGISTERED | DRIVER_ENABLED;
 8004d38:	2303      	movs	r3, #3
 8004d3a:	7203      	strb	r3, [r0, #8]
 8004d3c:	4770      	bx	lr
 8004d3e:	bf00      	nop
 8004d40:	20000100 	.word	0x20000100

08004d44 <UG_DriverEnable>:
}

void UG_DriverEnable( UG_U8 type )
{
   if ( type >= NUMBER_OF_DRIVERS ) return;
 8004d44:	2802      	cmp	r0, #2
 8004d46:	d80f      	bhi.n	8004d68 <UG_DriverEnable+0x24>
   if ( gui->driver[type].state & DRIVER_REGISTERED )
 8004d48:	4b08      	ldr	r3, [pc, #32]	; (8004d6c <UG_DriverEnable+0x28>)
 8004d4a:	681a      	ldr	r2, [r3, #0]
 8004d4c:	f100 0309 	add.w	r3, r0, #9
 8004d50:	eb02 03c3 	add.w	r3, r2, r3, lsl #3
 8004d54:	7a1b      	ldrb	r3, [r3, #8]
 8004d56:	f013 0f01 	tst.w	r3, #1
 8004d5a:	d005      	beq.n	8004d68 <UG_DriverEnable+0x24>
   {
      gui->driver[type].state |= DRIVER_ENABLED;
 8004d5c:	3009      	adds	r0, #9
 8004d5e:	eb02 00c0 	add.w	r0, r2, r0, lsl #3
 8004d62:	f043 0302 	orr.w	r3, r3, #2
 8004d66:	7203      	strb	r3, [r0, #8]
 8004d68:	4770      	bx	lr
 8004d6a:	bf00      	nop
 8004d6c:	20000100 	.word	0x20000100

08004d70 <UG_TouchUpdate>:
   }
}

void UG_TouchUpdate( UG_S16 xp, UG_S16 yp, UG_U8 state )
{
   gui->touch.xp = xp;
 8004d70:	4b02      	ldr	r3, [pc, #8]	; (8004d7c <UG_TouchUpdate+0xc>)
 8004d72:	681b      	ldr	r3, [r3, #0]
 8004d74:	8158      	strh	r0, [r3, #10]
   gui->touch.yp = yp;
 8004d76:	8199      	strh	r1, [r3, #12]
   gui->touch.state = state;
 8004d78:	721a      	strb	r2, [r3, #8]
 8004d7a:	4770      	bx	lr
 8004d7c:	20000100 	.word	0x20000100

08004d80 <UG_WindowCreate>:
UG_RESULT UG_WindowCreate( UG_WINDOW* wnd, UG_OBJECT* objlst, UG_U8 objcnt, void (*cb)( UG_MESSAGE* ) )
{
   UG_U8 i;
   UG_OBJECT* obj=NULL;

   if ( (wnd == NULL) || (objlst == NULL) || (objcnt == 0) ) return UG_RESULT_FAIL;
 8004d80:	2900      	cmp	r1, #0
 8004d82:	bf18      	it	ne
 8004d84:	2800      	cmpne	r0, #0
 8004d86:	d048      	beq.n	8004e1a <UG_WindowCreate+0x9a>
{
 8004d88:	b5f8      	push	{r3, r4, r5, r6, r7, lr}
 8004d8a:	4605      	mov	r5, r0
 8004d8c:	460c      	mov	r4, r1
   if ( (wnd == NULL) || (objlst == NULL) || (objcnt == 0) ) return UG_RESULT_FAIL;
 8004d8e:	2a00      	cmp	r2, #0
 8004d90:	d046      	beq.n	8004e20 <UG_WindowCreate+0xa0>
 8004d92:	2100      	movs	r1, #0
 8004d94:	e007      	b.n	8004da6 <UG_WindowCreate+0x26>

   /* Initialize all objects of the window */
   for(i=0; i<objcnt; i++)
   {
      obj = (UG_OBJECT*)&objlst[i];
 8004d96:	0148      	lsls	r0, r1, #5
 8004d98:	1826      	adds	r6, r4, r0
      obj->state = OBJ_STATE_INIT;
 8004d9a:	2703      	movs	r7, #3
 8004d9c:	5427      	strb	r7, [r4, r0]
      obj->data = NULL;
 8004d9e:	2000      	movs	r0, #0
 8004da0:	61f0      	str	r0, [r6, #28]
   for(i=0; i<objcnt; i++)
 8004da2:	3101      	adds	r1, #1
 8004da4:	b2c9      	uxtb	r1, r1
 8004da6:	4291      	cmp	r1, r2
 8004da8:	d3f5      	bcc.n	8004d96 <UG_WindowCreate+0x16>
 8004daa:	461e      	mov	r6, r3
   }

   /* Initialize window */
   wnd->objcnt = objcnt;
 8004dac:	702a      	strb	r2, [r5, #0]
   wnd->objlst = objlst;
 8004dae:	606c      	str	r4, [r5, #4]
   wnd->state = WND_STATE_VALID;
 8004db0:	2302      	movs	r3, #2
 8004db2:	722b      	strb	r3, [r5, #8]
   #ifdef USE_COLOR_RGB888
   wnd->fc = 0x000000;
   wnd->bc = 0xF0F0F0;
   #endif
   #ifdef USE_COLOR_RGB565
   wnd->fc = 0x0000;
 8004db4:	2400      	movs	r4, #0
 8004db6:	816c      	strh	r4, [r5, #10]
   wnd->bc = 0xEF7D;
 8004db8:	f64e 737d 	movw	r3, #61309	; 0xef7d
 8004dbc:	81ab      	strh	r3, [r5, #12]
   #endif
   wnd->xs = 0;
 8004dbe:	81ec      	strh	r4, [r5, #14]
   wnd->ys = 0;
 8004dc0:	822c      	strh	r4, [r5, #16]
   wnd->xe = UG_GetXDim()-1;
 8004dc2:	f7ff fb97 	bl	80044f4 <UG_GetXDim>
 8004dc6:	b280      	uxth	r0, r0
 8004dc8:	3801      	subs	r0, #1
 8004dca:	8268      	strh	r0, [r5, #18]
   wnd->ye = UG_GetYDim()-1;
 8004dcc:	f7ff fb9a 	bl	8004504 <UG_GetYDim>
 8004dd0:	b280      	uxth	r0, r0
 8004dd2:	3801      	subs	r0, #1
 8004dd4:	82a8      	strh	r0, [r5, #20]
   wnd->cb = cb;
 8004dd6:	632e      	str	r6, [r5, #48]	; 0x30
   wnd->style = WND_STYLE_3D | WND_STYLE_SHOW_TITLE;
 8004dd8:	2303      	movs	r3, #3
 8004dda:	75ab      	strb	r3, [r5, #22]

   /* Initialize window title-bar */
   wnd->title.str = NULL;
 8004ddc:	61ac      	str	r4, [r5, #24]
   if (gui != NULL) wnd->title.font = &gui->font;
 8004dde:	4b12      	ldr	r3, [pc, #72]	; (8004e28 <UG_WindowCreate+0xa8>)
 8004de0:	681b      	ldr	r3, [r3, #0]
 8004de2:	b1bb      	cbz	r3, 8004e14 <UG_WindowCreate+0x94>
 8004de4:	332c      	adds	r3, #44	; 0x2c
 8004de6:	61eb      	str	r3, [r5, #28]
   else wnd->title.font = NULL;
   wnd->title.h_space = 2;
 8004de8:	2302      	movs	r3, #2
 8004dea:	f885 3020 	strb.w	r3, [r5, #32]
   wnd->title.v_space = 2;
 8004dee:	f885 3021 	strb.w	r3, [r5, #33]	; 0x21
   wnd->title.align = ALIGN_CENTER_LEFT;
 8004df2:	2311      	movs	r3, #17
 8004df4:	f885 3022 	strb.w	r3, [r5, #34]	; 0x22
   wnd->title.fc = C_WHITE;
 8004df8:	f64f 73ff 	movw	r3, #65535	; 0xffff
 8004dfc:	84ab      	strh	r3, [r5, #36]	; 0x24
   wnd->title.bc = C_BLUE;
 8004dfe:	221f      	movs	r2, #31
 8004e00:	84ea      	strh	r2, [r5, #38]	; 0x26
   wnd->title.ifc = C_WHITE;
 8004e02:	852b      	strh	r3, [r5, #40]	; 0x28
   wnd->title.ibc = C_GRAY;
 8004e04:	f248 4310 	movw	r3, #33808	; 0x8410
 8004e08:	856b      	strh	r3, [r5, #42]	; 0x2a
   wnd->title.height = 15;
 8004e0a:	230f      	movs	r3, #15
 8004e0c:	f885 302c 	strb.w	r3, [r5, #44]	; 0x2c

   return UG_RESULT_OK;
 8004e10:	2000      	movs	r0, #0
 8004e12:	bdf8      	pop	{r3, r4, r5, r6, r7, pc}
   else wnd->title.font = NULL;
 8004e14:	2300      	movs	r3, #0
 8004e16:	61eb      	str	r3, [r5, #28]
 8004e18:	e7e6      	b.n	8004de8 <UG_WindowCreate+0x68>
   if ( (wnd == NULL) || (objlst == NULL) || (objcnt == 0) ) return UG_RESULT_FAIL;
 8004e1a:	f04f 30ff 	mov.w	r0, #4294967295
 8004e1e:	4770      	bx	lr
 8004e20:	f04f 30ff 	mov.w	r0, #4294967295
}
 8004e24:	bdf8      	pop	{r3, r4, r5, r6, r7, pc}
 8004e26:	bf00      	nop
 8004e28:	20000100 	.word	0x20000100

08004e2c <UG_WindowShow>:
   return UG_RESULT_FAIL;
}

UG_RESULT UG_WindowShow( UG_WINDOW* wnd )
{
   if ( wnd != NULL )
 8004e2c:	b150      	cbz	r0, 8004e44 <UG_WindowShow+0x18>
   {
      /* Force an update, even if this is the active window! */
      wnd->state |= WND_STATE_VISIBLE | WND_STATE_UPDATE;
 8004e2e:	7a03      	ldrb	r3, [r0, #8]
 8004e30:	f043 0328 	orr.w	r3, r3, #40	; 0x28
      wnd->state &= ~WND_STATE_REDRAW_TITLE;
 8004e34:	f023 0340 	bic.w	r3, r3, #64	; 0x40
 8004e38:	7203      	strb	r3, [r0, #8]
      gui->next_window = wnd;
 8004e3a:	4b04      	ldr	r3, [pc, #16]	; (8004e4c <UG_WindowShow+0x20>)
 8004e3c:	681b      	ldr	r3, [r3, #0]
 8004e3e:	6118      	str	r0, [r3, #16]
      return UG_RESULT_OK;
 8004e40:	2000      	movs	r0, #0
 8004e42:	4770      	bx	lr
   }
   return UG_RESULT_FAIL;
 8004e44:	f04f 30ff 	mov.w	r0, #4294967295
}
 8004e48:	4770      	bx	lr
 8004e4a:	bf00      	nop
 8004e4c:	20000100 	.word	0x20000100

08004e50 <UG_WindowResize>:
   }
   return UG_RESULT_FAIL;
}

UG_RESULT UG_WindowResize( UG_WINDOW* wnd, UG_S16 xs, UG_S16 ys, UG_S16 xe, UG_S16 ye )
{
 8004e50:	e92d 47f0 	stmdb	sp!, {r4, r5, r6, r7, r8, r9, sl, lr}
 8004e54:	b082      	sub	sp, #8
 8004e56:	4604      	mov	r4, r0
 8004e58:	4688      	mov	r8, r1
 8004e5a:	4617      	mov	r7, r2
 8004e5c:	4699      	mov	r9, r3
 8004e5e:	f9bd a028 	ldrsh.w	sl, [sp, #40]	; 0x28
   UG_S16 pos;
   UG_S16 xmax,ymax;

   xmax = UG_GetXDim()-1;
 8004e62:	f7ff fb47 	bl	80044f4 <UG_GetXDim>
 8004e66:	b285      	uxth	r5, r0
   ymax = UG_GetYDim()-1;
 8004e68:	f7ff fb4c 	bl	8004504 <UG_GetYDim>

   if ( (wnd != NULL) && (wnd->state & WND_STATE_VALID) )
 8004e6c:	2c00      	cmp	r4, #0
 8004e6e:	d076      	beq.n	8004f5e <UG_WindowResize+0x10e>
 8004e70:	3d01      	subs	r5, #1
 8004e72:	b22d      	sxth	r5, r5
 8004e74:	b286      	uxth	r6, r0
 8004e76:	3e01      	subs	r6, #1
 8004e78:	b236      	sxth	r6, r6
 8004e7a:	7a22      	ldrb	r2, [r4, #8]
 8004e7c:	f012 0f02 	tst.w	r2, #2
 8004e80:	d070      	beq.n	8004f64 <UG_WindowResize+0x114>
   {
      /* Do some checks... */
      if ( (xs < 0) || (ys < 0) ) return UG_RESULT_FAIL;
 8004e82:	ea58 0307 	orrs.w	r3, r8, r7
 8004e86:	d470      	bmi.n	8004f6a <UG_WindowResize+0x11a>
      if ( (xe > xmax) || (ye > ymax) ) return UG_RESULT_FAIL;
 8004e88:	4556      	cmp	r6, sl
 8004e8a:	bfa8      	it	ge
 8004e8c:	454d      	cmpge	r5, r9
 8004e8e:	db6f      	blt.n	8004f70 <UG_WindowResize+0x120>
      pos = xe-xs;
 8004e90:	eba9 0308 	sub.w	r3, r9, r8
 8004e94:	b21b      	sxth	r3, r3
      if ( pos < 10 ) return UG_RESULT_FAIL;
 8004e96:	2b09      	cmp	r3, #9
 8004e98:	dd6d      	ble.n	8004f76 <UG_WindowResize+0x126>
      pos = ye-ys;
 8004e9a:	b2b9      	uxth	r1, r7
 8004e9c:	ebaa 0301 	sub.w	r3, sl, r1
 8004ea0:	b21b      	sxth	r3, r3
      if ( pos < 10 ) return UG_RESULT_FAIL;
 8004ea2:	2b09      	cmp	r3, #9
 8004ea4:	dd6a      	ble.n	8004f7c <UG_WindowResize+0x12c>

      /* ... and if everything is OK move the window! */
      wnd->xs = xs;
 8004ea6:	f8a4 800e 	strh.w	r8, [r4, #14]
      wnd->ys = ys;
 8004eaa:	8227      	strh	r7, [r4, #16]
      wnd->xe = xe;
 8004eac:	f8a4 9012 	strh.w	r9, [r4, #18]
      wnd->ye = ye;
 8004eb0:	f8a4 a014 	strh.w	sl, [r4, #20]

      if ( (wnd->state & WND_STATE_VISIBLE) && (gui->active_window == wnd) )
 8004eb4:	f012 0f08 	tst.w	r2, #8
 8004eb8:	d063      	beq.n	8004f82 <UG_WindowResize+0x132>
 8004eba:	4b33      	ldr	r3, [pc, #204]	; (8004f88 <UG_WindowResize+0x138>)
 8004ebc:	681a      	ldr	r2, [r3, #0]
 8004ebe:	6953      	ldr	r3, [r2, #20]
 8004ec0:	429c      	cmp	r4, r3
 8004ec2:	d003      	beq.n	8004ecc <UG_WindowResize+0x7c>
         if ( !(pos > xmax) ) UG_FillFrame(pos, wnd->ys,xmax,wnd->ye,gui->desktop_color);

         wnd->state &= ~WND_STATE_REDRAW_TITLE;
         wnd->state |= WND_STATE_UPDATE;
      }
      return UG_RESULT_OK;
 8004ec4:	2000      	movs	r0, #0
   }
   return UG_RESULT_FAIL;
}
 8004ec6:	b002      	add	sp, #8
 8004ec8:	e8bd 87f0 	ldmia.w	sp!, {r4, r5, r6, r7, r8, r9, sl, pc}
         if ( wnd->ys ) UG_FillFrame(0, 0, xmax,wnd->ys-1,gui->desktop_color);
 8004ecc:	b9a7      	cbnz	r7, 8004ef8 <UG_WindowResize+0xa8>
         pos = wnd->ye+1;
 8004ece:	8aa1      	ldrh	r1, [r4, #20]
 8004ed0:	3101      	adds	r1, #1
 8004ed2:	b209      	sxth	r1, r1
         if ( !(pos > ymax) ) UG_FillFrame(0, pos, xmax,ymax,gui->desktop_color);
 8004ed4:	428e      	cmp	r6, r1
 8004ed6:	da1a      	bge.n	8004f0e <UG_WindowResize+0xbe>
         if ( wnd->xs ) UG_FillFrame(0, wnd->ys, wnd->xs-1,wnd->ye,gui->desktop_color);
 8004ed8:	f9b4 300e 	ldrsh.w	r3, [r4, #14]
 8004edc:	bb13      	cbnz	r3, 8004f24 <UG_WindowResize+0xd4>
         pos = wnd->xe+1;
 8004ede:	8a60      	ldrh	r0, [r4, #18]
 8004ee0:	3001      	adds	r0, #1
 8004ee2:	b200      	sxth	r0, r0
         if ( !(pos > xmax) ) UG_FillFrame(pos, wnd->ys,xmax,wnd->ye,gui->desktop_color);
 8004ee4:	4285      	cmp	r5, r0
 8004ee6:	da2d      	bge.n	8004f44 <UG_WindowResize+0xf4>
         wnd->state &= ~WND_STATE_REDRAW_TITLE;
 8004ee8:	7a23      	ldrb	r3, [r4, #8]
 8004eea:	f003 03bf 	and.w	r3, r3, #191	; 0xbf
         wnd->state |= WND_STATE_UPDATE;
 8004eee:	f043 0320 	orr.w	r3, r3, #32
 8004ef2:	7223      	strb	r3, [r4, #8]
      return UG_RESULT_OK;
 8004ef4:	2000      	movs	r0, #0
 8004ef6:	e7e6      	b.n	8004ec6 <UG_WindowResize+0x76>
         if ( wnd->ys ) UG_FillFrame(0, 0, xmax,wnd->ys-1,gui->desktop_color);
 8004ef8:	1e4b      	subs	r3, r1, #1
 8004efa:	f8b2 2046 	ldrh.w	r2, [r2, #70]	; 0x46
 8004efe:	9200      	str	r2, [sp, #0]
 8004f00:	b21b      	sxth	r3, r3
 8004f02:	462a      	mov	r2, r5
 8004f04:	2100      	movs	r1, #0
 8004f06:	4608      	mov	r0, r1
 8004f08:	f7ff f9fc 	bl	8004304 <UG_FillFrame>
 8004f0c:	e7df      	b.n	8004ece <UG_WindowResize+0x7e>
         if ( !(pos > ymax) ) UG_FillFrame(0, pos, xmax,ymax,gui->desktop_color);
 8004f0e:	4b1e      	ldr	r3, [pc, #120]	; (8004f88 <UG_WindowResize+0x138>)
 8004f10:	681b      	ldr	r3, [r3, #0]
 8004f12:	f8b3 3046 	ldrh.w	r3, [r3, #70]	; 0x46
 8004f16:	9300      	str	r3, [sp, #0]
 8004f18:	4633      	mov	r3, r6
 8004f1a:	462a      	mov	r2, r5
 8004f1c:	2000      	movs	r0, #0
 8004f1e:	f7ff f9f1 	bl	8004304 <UG_FillFrame>
 8004f22:	e7d9      	b.n	8004ed8 <UG_WindowResize+0x88>
         if ( wnd->xs ) UG_FillFrame(0, wnd->ys, wnd->xs-1,wnd->ye,gui->desktop_color);
 8004f24:	b29b      	uxth	r3, r3
 8004f26:	1e5a      	subs	r2, r3, #1
 8004f28:	4b17      	ldr	r3, [pc, #92]	; (8004f88 <UG_WindowResize+0x138>)
 8004f2a:	6818      	ldr	r0, [r3, #0]
 8004f2c:	f9b4 3014 	ldrsh.w	r3, [r4, #20]
 8004f30:	f9b4 1010 	ldrsh.w	r1, [r4, #16]
 8004f34:	f8b0 0046 	ldrh.w	r0, [r0, #70]	; 0x46
 8004f38:	9000      	str	r0, [sp, #0]
 8004f3a:	b212      	sxth	r2, r2
 8004f3c:	2000      	movs	r0, #0
 8004f3e:	f7ff f9e1 	bl	8004304 <UG_FillFrame>
 8004f42:	e7cc      	b.n	8004ede <UG_WindowResize+0x8e>
         if ( !(pos > xmax) ) UG_FillFrame(pos, wnd->ys,xmax,wnd->ye,gui->desktop_color);
 8004f44:	4b10      	ldr	r3, [pc, #64]	; (8004f88 <UG_WindowResize+0x138>)
 8004f46:	681a      	ldr	r2, [r3, #0]
 8004f48:	f9b4 3014 	ldrsh.w	r3, [r4, #20]
 8004f4c:	f9b4 1010 	ldrsh.w	r1, [r4, #16]
 8004f50:	f8b2 2046 	ldrh.w	r2, [r2, #70]	; 0x46
 8004f54:	9200      	str	r2, [sp, #0]
 8004f56:	462a      	mov	r2, r5
 8004f58:	f7ff f9d4 	bl	8004304 <UG_FillFrame>
 8004f5c:	e7c4      	b.n	8004ee8 <UG_WindowResize+0x98>
   return UG_RESULT_FAIL;
 8004f5e:	f04f 30ff 	mov.w	r0, #4294967295
 8004f62:	e7b0      	b.n	8004ec6 <UG_WindowResize+0x76>
 8004f64:	f04f 30ff 	mov.w	r0, #4294967295
 8004f68:	e7ad      	b.n	8004ec6 <UG_WindowResize+0x76>
      if ( (xs < 0) || (ys < 0) ) return UG_RESULT_FAIL;
 8004f6a:	f04f 30ff 	mov.w	r0, #4294967295
 8004f6e:	e7aa      	b.n	8004ec6 <UG_WindowResize+0x76>
      if ( (xe > xmax) || (ye > ymax) ) return UG_RESULT_FAIL;
 8004f70:	f04f 30ff 	mov.w	r0, #4294967295
 8004f74:	e7a7      	b.n	8004ec6 <UG_WindowResize+0x76>
      if ( pos < 10 ) return UG_RESULT_FAIL;
 8004f76:	f04f 30ff 	mov.w	r0, #4294967295
 8004f7a:	e7a4      	b.n	8004ec6 <UG_WindowResize+0x76>
      if ( pos < 10 ) return UG_RESULT_FAIL;
 8004f7c:	f04f 30ff 	mov.w	r0, #4294967295
 8004f80:	e7a1      	b.n	8004ec6 <UG_WindowResize+0x76>
      return UG_RESULT_OK;
 8004f82:	2000      	movs	r0, #0
 8004f84:	e79f      	b.n	8004ec6 <UG_WindowResize+0x76>
 8004f86:	bf00      	nop
 8004f88:	20000100 	.word	0x20000100

08004f8c <UG_WindowSetBackColor>:
   return UG_RESULT_FAIL;
}

UG_RESULT UG_WindowSetBackColor( UG_WINDOW* wnd, UG_COLOR bc )
{
   if ( (wnd != NULL) && (wnd->state & WND_STATE_VALID) )
 8004f8c:	b148      	cbz	r0, 8004fa2 <UG_WindowSetBackColor+0x16>
 8004f8e:	7a03      	ldrb	r3, [r0, #8]
 8004f90:	f013 0f02 	tst.w	r3, #2
 8004f94:	d008      	beq.n	8004fa8 <UG_WindowSetBackColor+0x1c>
   {
      wnd->bc = bc;
 8004f96:	8181      	strh	r1, [r0, #12]
      wnd->state |= WND_STATE_UPDATE;
 8004f98:	f043 0320 	orr.w	r3, r3, #32
 8004f9c:	7203      	strb	r3, [r0, #8]
      return UG_RESULT_OK;
 8004f9e:	2000      	movs	r0, #0
 8004fa0:	4770      	bx	lr
   }
   return UG_RESULT_FAIL;
 8004fa2:	f04f 30ff 	mov.w	r0, #4294967295
 8004fa6:	4770      	bx	lr
 8004fa8:	f04f 30ff 	mov.w	r0, #4294967295
}
 8004fac:	4770      	bx	lr

08004fae <UG_WindowSetStyle>:
   return UG_RESULT_FAIL;
}

UG_RESULT UG_WindowSetStyle( UG_WINDOW* wnd, UG_U8 style )
{
   if ( (wnd != NULL) && (wnd->state & WND_STATE_VALID) )
 8004fae:	4603      	mov	r3, r0
 8004fb0:	b300      	cbz	r0, 8004ff4 <UG_WindowSetStyle+0x46>
 8004fb2:	7a02      	ldrb	r2, [r0, #8]
 8004fb4:	f012 0f02 	tst.w	r2, #2
 8004fb8:	d01f      	beq.n	8004ffa <UG_WindowSetStyle+0x4c>
   {
      /* 3D or 2D? */
      if ( style & WND_STYLE_3D )
 8004fba:	f011 0f01 	tst.w	r1, #1
 8004fbe:	d00f      	beq.n	8004fe0 <UG_WindowSetStyle+0x32>
      {
         wnd->style |= WND_STYLE_3D;
 8004fc0:	7d80      	ldrb	r0, [r0, #22]
 8004fc2:	f040 0001 	orr.w	r0, r0, #1
 8004fc6:	7598      	strb	r0, [r3, #22]
      else
      {
         wnd->style &= ~WND_STYLE_3D;
      }
      /* Show title-bar? */
      if ( style & WND_STYLE_SHOW_TITLE )
 8004fc8:	f011 0f02 	tst.w	r1, #2
 8004fcc:	d00d      	beq.n	8004fea <UG_WindowSetStyle+0x3c>
      {
         wnd->style |= WND_STYLE_SHOW_TITLE;
 8004fce:	7d99      	ldrb	r1, [r3, #22]
 8004fd0:	f041 0102 	orr.w	r1, r1, #2
 8004fd4:	7599      	strb	r1, [r3, #22]
      }
      else
      {
         wnd->style &= ~WND_STYLE_SHOW_TITLE;
      }
      wnd->state |= WND_STATE_UPDATE;
 8004fd6:	f042 0220 	orr.w	r2, r2, #32
 8004fda:	721a      	strb	r2, [r3, #8]
      return UG_RESULT_OK;
 8004fdc:	2000      	movs	r0, #0
 8004fde:	4770      	bx	lr
         wnd->style &= ~WND_STYLE_3D;
 8004fe0:	7d80      	ldrb	r0, [r0, #22]
 8004fe2:	f020 0001 	bic.w	r0, r0, #1
 8004fe6:	7598      	strb	r0, [r3, #22]
 8004fe8:	e7ee      	b.n	8004fc8 <UG_WindowSetStyle+0x1a>
         wnd->style &= ~WND_STYLE_SHOW_TITLE;
 8004fea:	7d99      	ldrb	r1, [r3, #22]
 8004fec:	f021 0102 	bic.w	r1, r1, #2
 8004ff0:	7599      	strb	r1, [r3, #22]
 8004ff2:	e7f0      	b.n	8004fd6 <UG_WindowSetStyle+0x28>
   }
   return UG_RESULT_FAIL;
 8004ff4:	f04f 30ff 	mov.w	r0, #4294967295
 8004ff8:	4770      	bx	lr
 8004ffa:	f04f 30ff 	mov.w	r0, #4294967295
}
 8004ffe:	4770      	bx	lr

08005000 <UG_WindowGetArea>:
   return style;
}

UG_RESULT UG_WindowGetArea( UG_WINDOW* wnd, UG_AREA* a )
{
   if ( (wnd != NULL) && (wnd->state & WND_STATE_VALID) )
 8005000:	b350      	cbz	r0, 8005058 <UG_WindowGetArea+0x58>
 8005002:	4603      	mov	r3, r0
 8005004:	7a02      	ldrb	r2, [r0, #8]
 8005006:	f012 0f02 	tst.w	r2, #2
 800500a:	d028      	beq.n	800505e <UG_WindowGetArea+0x5e>
{
 800500c:	b470      	push	{r4, r5, r6}
   {
      a->xs = wnd->xs;
 800500e:	f9b0 500e 	ldrsh.w	r5, [r0, #14]
 8005012:	800d      	strh	r5, [r1, #0]
      a->ys = wnd->ys;
 8005014:	f9b0 4010 	ldrsh.w	r4, [r0, #16]
 8005018:	804c      	strh	r4, [r1, #2]
      a->xe = wnd->xe;
 800501a:	f9b0 0012 	ldrsh.w	r0, [r0, #18]
 800501e:	8088      	strh	r0, [r1, #4]
      a->ye = wnd->ye;
 8005020:	f9b3 2014 	ldrsh.w	r2, [r3, #20]
 8005024:	80ca      	strh	r2, [r1, #6]
      if ( wnd->style & WND_STYLE_3D )
 8005026:	7d9e      	ldrb	r6, [r3, #22]
 8005028:	f016 0f01 	tst.w	r6, #1
 800502c:	d007      	beq.n	800503e <UG_WindowGetArea+0x3e>
      {
         a->xs+=3;
 800502e:	3503      	adds	r5, #3
 8005030:	800d      	strh	r5, [r1, #0]
         a->ys+=3;
 8005032:	3403      	adds	r4, #3
 8005034:	804c      	strh	r4, [r1, #2]
         a->xe-=3;
 8005036:	3803      	subs	r0, #3
 8005038:	8088      	strh	r0, [r1, #4]
         a->ye-=3;
 800503a:	3a03      	subs	r2, #3
 800503c:	80ca      	strh	r2, [r1, #6]
      }
      if ( wnd->style & WND_STYLE_SHOW_TITLE )
 800503e:	7d9a      	ldrb	r2, [r3, #22]
 8005040:	f012 0f02 	tst.w	r2, #2
 8005044:	d00e      	beq.n	8005064 <UG_WindowGetArea+0x64>
      {
         a->ys+= wnd->title.height+1;
 8005046:	f893 302c 	ldrb.w	r3, [r3, #44]	; 0x2c
 800504a:	884a      	ldrh	r2, [r1, #2]
 800504c:	4413      	add	r3, r2
 800504e:	3301      	adds	r3, #1
 8005050:	804b      	strh	r3, [r1, #2]
      }
      return UG_RESULT_OK;
 8005052:	2000      	movs	r0, #0
   }
   return UG_RESULT_FAIL;
}
 8005054:	bc70      	pop	{r4, r5, r6}
 8005056:	4770      	bx	lr
   return UG_RESULT_FAIL;
 8005058:	f04f 30ff 	mov.w	r0, #4294967295
 800505c:	4770      	bx	lr
 800505e:	f04f 30ff 	mov.w	r0, #4294967295
 8005062:	4770      	bx	lr
      return UG_RESULT_OK;
 8005064:	2000      	movs	r0, #0
 8005066:	e7f5      	b.n	8005054 <UG_WindowGetArea+0x54>

08005068 <_UG_ButtonUpdate>:
   return align;
}


void _UG_ButtonUpdate(UG_WINDOW* wnd, UG_OBJECT* obj)
{
 8005068:	b5f0      	push	{r4, r5, r6, r7, lr}
 800506a:	b08d      	sub	sp, #52	; 0x34
   UG_AREA a;
   UG_TEXT txt;
   UG_U8 d;

   /* Get object-specific data */
   btn = (UG_BUTTON*)(obj->data);
 800506c:	69cd      	ldr	r5, [r1, #28]

   /* -------------------------------------------------- */
   /* Object touch section                               */
   /* -------------------------------------------------- */
   if ( (obj->touch_state & OBJ_TOUCH_STATE_CHANGED) )
 800506e:	784b      	ldrb	r3, [r1, #1]
 8005070:	f013 0f01 	tst.w	r3, #1
 8005074:	d015      	beq.n	80050a2 <_UG_ButtonUpdate+0x3a>
   {
      /* Handle 'click' event */
      if ( obj->touch_state & OBJ_TOUCH_STATE_CLICK_ON_OBJECT )
 8005076:	f013 0f80 	tst.w	r3, #128	; 0x80
 800507a:	f040 80a6 	bne.w	80051ca <_UG_ButtonUpdate+0x162>
      {
         obj->event = BTN_EVENT_CLICKED;
         obj->state |= OBJ_STATE_UPDATE;
      }
      /* Is the button pressed down? */
      if ( obj->touch_state & OBJ_TOUCH_STATE_PRESSED_ON_OBJECT )
 800507e:	f013 0f02 	tst.w	r3, #2
 8005082:	f000 80a9 	beq.w	80051d8 <_UG_ButtonUpdate+0x170>
      {
         btn->state |= BTN_STATE_PRESSED;
 8005086:	782b      	ldrb	r3, [r5, #0]
 8005088:	f043 0301 	orr.w	r3, r3, #1
 800508c:	702b      	strb	r3, [r5, #0]
         obj->state |= OBJ_STATE_UPDATE;
 800508e:	780b      	ldrb	r3, [r1, #0]
 8005090:	f043 0320 	orr.w	r3, r3, #32
 8005094:	700b      	strb	r3, [r1, #0]
         obj->event = OBJ_EVENT_PRESSED;
 8005096:	2304      	movs	r3, #4
 8005098:	768b      	strb	r3, [r1, #26]
      {
         btn->state &= ~BTN_STATE_PRESSED;
         obj->state |= OBJ_STATE_UPDATE;
         obj->event = OBJ_EVENT_RELEASED;
      }
      obj->touch_state &= ~OBJ_TOUCH_STATE_CHANGED;
 800509a:	784b      	ldrb	r3, [r1, #1]
 800509c:	f023 0301 	bic.w	r3, r3, #1
 80050a0:	704b      	strb	r3, [r1, #1]
   }

   /* -------------------------------------------------- */
   /* Object update section                              */
   /* -------------------------------------------------- */
   if ( obj->state & OBJ_STATE_UPDATE )
 80050a2:	780b      	ldrb	r3, [r1, #0]
 80050a4:	f013 0f20 	tst.w	r3, #32
 80050a8:	f000 80e4 	beq.w	8005274 <_UG_ButtonUpdate+0x20c>
 80050ac:	460c      	mov	r4, r1
 80050ae:	4606      	mov	r6, r0
   {
      if ( obj->state & OBJ_STATE_VISIBLE )
 80050b0:	f013 0f08 	tst.w	r3, #8
 80050b4:	f000 80d6 	beq.w	8005264 <_UG_ButtonUpdate+0x1fc>
      {
         /* Full redraw necessary? */
         if ( (obj->state & OBJ_STATE_REDRAW) || (btn->state & BTN_STATE_ALWAYS_REDRAW) )
 80050b8:	f013 0f40 	tst.w	r3, #64	; 0x40
 80050bc:	d103      	bne.n	80050c6 <_UG_ButtonUpdate+0x5e>
 80050be:	782b      	ldrb	r3, [r5, #0]
 80050c0:	f013 0f02 	tst.w	r3, #2
 80050c4:	d069      	beq.n	800519a <_UG_ButtonUpdate+0x132>
         {
            UG_WindowGetArea(wnd,&a);
 80050c6:	a90a      	add	r1, sp, #40	; 0x28
 80050c8:	4630      	mov	r0, r6
 80050ca:	f7ff ff99 	bl	8005000 <UG_WindowGetArea>
            obj->a_abs.xs = obj->a_rel.xs + a.xs;
 80050ce:	8a23      	ldrh	r3, [r4, #16]
 80050d0:	f8bd 2028 	ldrh.w	r2, [sp, #40]	; 0x28
 80050d4:	4413      	add	r3, r2
 80050d6:	8123      	strh	r3, [r4, #8]
            obj->a_abs.ys = obj->a_rel.ys + a.ys;
 80050d8:	8a61      	ldrh	r1, [r4, #18]
 80050da:	f8bd 302a 	ldrh.w	r3, [sp, #42]	; 0x2a
 80050de:	4419      	add	r1, r3
 80050e0:	8161      	strh	r1, [r4, #10]
            obj->a_abs.xe = obj->a_rel.xe + a.xs;
 80050e2:	8aa1      	ldrh	r1, [r4, #20]
 80050e4:	440a      	add	r2, r1
 80050e6:	b212      	sxth	r2, r2
 80050e8:	81a2      	strh	r2, [r4, #12]
            obj->a_abs.ye = obj->a_rel.ye + a.ys;
 80050ea:	8ae1      	ldrh	r1, [r4, #22]
 80050ec:	440b      	add	r3, r1
 80050ee:	b21b      	sxth	r3, r3
 80050f0:	81e3      	strh	r3, [r4, #14]
            if ( obj->a_abs.ye > wnd->ye ) return;
 80050f2:	f9b6 1014 	ldrsh.w	r1, [r6, #20]
 80050f6:	428b      	cmp	r3, r1
 80050f8:	f300 80bc 	bgt.w	8005274 <_UG_ButtonUpdate+0x20c>
            if ( obj->a_abs.xe > wnd->xe ) return;
 80050fc:	f9b6 3012 	ldrsh.w	r3, [r6, #18]
 8005100:	429a      	cmp	r2, r3
 8005102:	f300 80b7 	bgt.w	8005274 <_UG_ButtonUpdate+0x20c>
#ifdef USE_PRERENDER_EVENT
            _UG_SendObjectPrerenderEvent(wnd, obj);
 8005106:	4621      	mov	r1, r4
 8005108:	4630      	mov	r0, r6
 800510a:	f7ff fde3 	bl	8004cd4 <_UG_SendObjectPrerenderEvent>
#endif

            /* 3D or 2D style? */
            d = ( btn->style & BTN_STYLE_3D )? 3:1;
 800510e:	786b      	ldrb	r3, [r5, #1]
 8005110:	f013 0f01 	tst.w	r3, #1
 8005114:	d06f      	beq.n	80051f6 <_UG_ButtonUpdate+0x18e>
 8005116:	2703      	movs	r7, #3

            txt.bc = btn->bc;
 8005118:	88ab      	ldrh	r3, [r5, #4]
 800511a:	f8ad 301e 	strh.w	r3, [sp, #30]
            txt.fc = btn->fc;
 800511e:	886b      	ldrh	r3, [r5, #2]
 8005120:	f8ad 301c 	strh.w	r3, [sp, #28]

            if( btn->state & BTN_STATE_PRESSED )
 8005124:	782b      	ldrb	r3, [r5, #0]
 8005126:	f013 0f01 	tst.w	r3, #1
 800512a:	d009      	beq.n	8005140 <_UG_ButtonUpdate+0xd8>
            {
               /* "toggle" style? */
               if( btn->style & BTN_STYLE_TOGGLE_COLORS )
 800512c:	786b      	ldrb	r3, [r5, #1]
 800512e:	f013 0f02 	tst.w	r3, #2
 8005132:	d062      	beq.n	80051fa <_UG_ButtonUpdate+0x192>
               {
                  /* Swap colors */
                  txt.bc = btn->fc;
 8005134:	886b      	ldrh	r3, [r5, #2]
 8005136:	f8ad 301e 	strh.w	r3, [sp, #30]
                  txt.fc = btn->bc;
 800513a:	88ab      	ldrh	r3, [r5, #4]
 800513c:	f8ad 301c 	strh.w	r3, [sp, #28]
               {
                  txt.bc = btn->abc;
                  txt.fc = btn->afc;
               }
            }
            if ( !(btn->style & BTN_STYLE_NO_FILL) )
 8005140:	786b      	ldrb	r3, [r5, #1]
 8005142:	f013 0f10 	tst.w	r3, #16
 8005146:	d062      	beq.n	800520e <_UG_ButtonUpdate+0x1a6>
               UG_FillFrame(obj->a_abs.xs+d, obj->a_abs.ys+d, obj->a_abs.xe-d, obj->a_abs.ye-d, txt.bc);

            /* Draw button text */
            txt.a.xs = obj->a_abs.xs+d;
 8005148:	8922      	ldrh	r2, [r4, #8]
 800514a:	b2bb      	uxth	r3, r7
 800514c:	441a      	add	r2, r3
 800514e:	f8ad 2014 	strh.w	r2, [sp, #20]
            txt.a.ys = obj->a_abs.ys+d;
 8005152:	8962      	ldrh	r2, [r4, #10]
 8005154:	441a      	add	r2, r3
 8005156:	f8ad 2016 	strh.w	r2, [sp, #22]
            txt.a.xe = obj->a_abs.xe-d;
 800515a:	89a2      	ldrh	r2, [r4, #12]
 800515c:	1ad2      	subs	r2, r2, r3
 800515e:	f8ad 2018 	strh.w	r2, [sp, #24]
            txt.a.ye = obj->a_abs.ye-d;
 8005162:	89e2      	ldrh	r2, [r4, #14]
 8005164:	1ad3      	subs	r3, r2, r3
 8005166:	f8ad 301a 	strh.w	r3, [sp, #26]
            txt.align = btn->align;
 800516a:	7c2b      	ldrb	r3, [r5, #16]
 800516c:	f88d 3020 	strb.w	r3, [sp, #32]
            txt.font = btn->font;
 8005170:	68eb      	ldr	r3, [r5, #12]
 8005172:	9304      	str	r3, [sp, #16]
            txt.h_space = 2;
 8005174:	2302      	movs	r3, #2
 8005176:	f8ad 3022 	strh.w	r3, [sp, #34]	; 0x22
            txt.v_space = 2;
 800517a:	f8ad 3024 	strh.w	r3, [sp, #36]	; 0x24
            txt.str = btn->str;
 800517e:	696b      	ldr	r3, [r5, #20]
 8005180:	a80c      	add	r0, sp, #48	; 0x30
 8005182:	f840 3d24 	str.w	r3, [r0, #-36]!
            _UG_PutText( &txt );
 8005186:	f7ff fb77 	bl	8004878 <_UG_PutText>
            obj->state &= ~OBJ_STATE_REDRAW;
 800518a:	7823      	ldrb	r3, [r4, #0]
 800518c:	f023 0340 	bic.w	r3, r3, #64	; 0x40
 8005190:	7023      	strb	r3, [r4, #0]
#ifdef USE_POSTRENDER_EVENT
            _UG_SendObjectPostrenderEvent(wnd, obj);
 8005192:	4621      	mov	r1, r4
 8005194:	4630      	mov	r0, r6
 8005196:	f7ff fdb1 	bl	8004cfc <_UG_SendObjectPostrenderEvent>
#endif
         }
         /* Draw button frame */
         if ( !(btn->style & BTN_STYLE_NO_BORDERS) )
 800519a:	786b      	ldrb	r3, [r5, #1]
 800519c:	f013 0f08 	tst.w	r3, #8
 80051a0:	d164      	bne.n	800526c <_UG_ButtonUpdate+0x204>
         {
             if ( btn->style & BTN_STYLE_3D )
 80051a2:	f013 0f01 	tst.w	r3, #1
 80051a6:	d04a      	beq.n	800523e <_UG_ButtonUpdate+0x1d6>
             {  /* 3D */
                _UG_DrawObjectFrame(obj->a_abs.xs,obj->a_abs.ys,obj->a_abs.xe,obj->a_abs.ye, (btn->state&BTN_STATE_PRESSED)?(UG_COLOR*)pal_button_pressed:(UG_COLOR*)pal_button_released);
 80051a8:	f9b4 0008 	ldrsh.w	r0, [r4, #8]
 80051ac:	f9b4 100a 	ldrsh.w	r1, [r4, #10]
 80051b0:	f9b4 200c 	ldrsh.w	r2, [r4, #12]
 80051b4:	f9b4 300e 	ldrsh.w	r3, [r4, #14]
 80051b8:	782d      	ldrb	r5, [r5, #0]
 80051ba:	f015 0f01 	tst.w	r5, #1
 80051be:	d03c      	beq.n	800523a <_UG_ButtonUpdate+0x1d2>
 80051c0:	4d34      	ldr	r5, [pc, #208]	; (8005294 <_UG_ButtonUpdate+0x22c>)
 80051c2:	9500      	str	r5, [sp, #0]
 80051c4:	f7ff fcf0 	bl	8004ba8 <_UG_DrawObjectFrame>
 80051c8:	e050      	b.n	800526c <_UG_ButtonUpdate+0x204>
         obj->event = BTN_EVENT_CLICKED;
 80051ca:	2201      	movs	r2, #1
 80051cc:	768a      	strb	r2, [r1, #26]
         obj->state |= OBJ_STATE_UPDATE;
 80051ce:	780a      	ldrb	r2, [r1, #0]
 80051d0:	f042 0220 	orr.w	r2, r2, #32
 80051d4:	700a      	strb	r2, [r1, #0]
 80051d6:	e752      	b.n	800507e <_UG_ButtonUpdate+0x16>
      else if ( btn->state & BTN_STATE_PRESSED )
 80051d8:	782b      	ldrb	r3, [r5, #0]
 80051da:	f013 0f01 	tst.w	r3, #1
 80051de:	f43f af5c 	beq.w	800509a <_UG_ButtonUpdate+0x32>
         btn->state &= ~BTN_STATE_PRESSED;
 80051e2:	f023 0301 	bic.w	r3, r3, #1
 80051e6:	702b      	strb	r3, [r5, #0]
         obj->state |= OBJ_STATE_UPDATE;
 80051e8:	780b      	ldrb	r3, [r1, #0]
 80051ea:	f043 0320 	orr.w	r3, r3, #32
 80051ee:	700b      	strb	r3, [r1, #0]
         obj->event = OBJ_EVENT_RELEASED;
 80051f0:	2305      	movs	r3, #5
 80051f2:	768b      	strb	r3, [r1, #26]
 80051f4:	e751      	b.n	800509a <_UG_ButtonUpdate+0x32>
            d = ( btn->style & BTN_STYLE_3D )? 3:1;
 80051f6:	2701      	movs	r7, #1
 80051f8:	e78e      	b.n	8005118 <_UG_ButtonUpdate+0xb0>
               else if ( btn->style & BTN_STYLE_USE_ALTERNATE_COLORS )
 80051fa:	f013 0f04 	tst.w	r3, #4
 80051fe:	d09f      	beq.n	8005140 <_UG_ButtonUpdate+0xd8>
                  txt.bc = btn->abc;
 8005200:	892b      	ldrh	r3, [r5, #8]
 8005202:	f8ad 301e 	strh.w	r3, [sp, #30]
                  txt.fc = btn->afc;
 8005206:	88eb      	ldrh	r3, [r5, #6]
 8005208:	f8ad 301c 	strh.w	r3, [sp, #28]
 800520c:	e798      	b.n	8005140 <_UG_ButtonUpdate+0xd8>
               UG_FillFrame(obj->a_abs.xs+d, obj->a_abs.ys+d, obj->a_abs.xe-d, obj->a_abs.ye-d, txt.bc);
 800520e:	8920      	ldrh	r0, [r4, #8]
 8005210:	b2bb      	uxth	r3, r7
 8005212:	4418      	add	r0, r3
 8005214:	8961      	ldrh	r1, [r4, #10]
 8005216:	4419      	add	r1, r3
 8005218:	89a2      	ldrh	r2, [r4, #12]
 800521a:	1ad2      	subs	r2, r2, r3
 800521c:	f8b4 e00e 	ldrh.w	lr, [r4, #14]
 8005220:	ebae 0303 	sub.w	r3, lr, r3
 8005224:	f8bd e01e 	ldrh.w	lr, [sp, #30]
 8005228:	f8cd e000 	str.w	lr, [sp]
 800522c:	b21b      	sxth	r3, r3
 800522e:	b212      	sxth	r2, r2
 8005230:	b209      	sxth	r1, r1
 8005232:	b200      	sxth	r0, r0
 8005234:	f7ff f866 	bl	8004304 <UG_FillFrame>
 8005238:	e786      	b.n	8005148 <_UG_ButtonUpdate+0xe0>
                _UG_DrawObjectFrame(obj->a_abs.xs,obj->a_abs.ys,obj->a_abs.xe,obj->a_abs.ye, (btn->state&BTN_STATE_PRESSED)?(UG_COLOR*)pal_button_pressed:(UG_COLOR*)pal_button_released);
 800523a:	4d17      	ldr	r5, [pc, #92]	; (8005298 <_UG_ButtonUpdate+0x230>)
 800523c:	e7c1      	b.n	80051c2 <_UG_ButtonUpdate+0x15a>
             }
             else
             {  /* 2D */
                 UG_DrawFrame(obj->a_abs.xs,obj->a_abs.ys,obj->a_abs.xe,obj->a_abs.ye,(btn->state&BTN_STATE_PRESSED)?btn->abc:btn->afc);
 800523e:	f9b4 0008 	ldrsh.w	r0, [r4, #8]
 8005242:	f9b4 100a 	ldrsh.w	r1, [r4, #10]
 8005246:	f9b4 200c 	ldrsh.w	r2, [r4, #12]
 800524a:	f9b4 300e 	ldrsh.w	r3, [r4, #14]
 800524e:	782e      	ldrb	r6, [r5, #0]
 8005250:	f016 0f01 	tst.w	r6, #1
 8005254:	d004      	beq.n	8005260 <_UG_ButtonUpdate+0x1f8>
 8005256:	892d      	ldrh	r5, [r5, #8]
 8005258:	9500      	str	r5, [sp, #0]
 800525a:	f7ff f925 	bl	80044a8 <UG_DrawFrame>
 800525e:	e005      	b.n	800526c <_UG_ButtonUpdate+0x204>
 8005260:	88ed      	ldrh	r5, [r5, #6]
 8005262:	e7f9      	b.n	8005258 <_UG_ButtonUpdate+0x1f0>
             }
         }
      }
      else
      {
          if ( !(btn->style & BTN_STYLE_NO_FILL) )
 8005264:	786b      	ldrb	r3, [r5, #1]
 8005266:	f013 0f10 	tst.w	r3, #16
 800526a:	d005      	beq.n	8005278 <_UG_ButtonUpdate+0x210>
            UG_FillFrame(obj->a_abs.xs, obj->a_abs.ys, obj->a_abs.xe, obj->a_abs.ye, wnd->bc);
      }
      obj->state &= ~OBJ_STATE_UPDATE;
 800526c:	7823      	ldrb	r3, [r4, #0]
 800526e:	f023 0320 	bic.w	r3, r3, #32
 8005272:	7023      	strb	r3, [r4, #0]
   }
}
 8005274:	b00d      	add	sp, #52	; 0x34
 8005276:	bdf0      	pop	{r4, r5, r6, r7, pc}
            UG_FillFrame(obj->a_abs.xs, obj->a_abs.ys, obj->a_abs.xe, obj->a_abs.ye, wnd->bc);
 8005278:	f9b1 300e 	ldrsh.w	r3, [r1, #14]
 800527c:	f9b1 200c 	ldrsh.w	r2, [r1, #12]
 8005280:	f9b1 100a 	ldrsh.w	r1, [r1, #10]
 8005284:	f9b4 0008 	ldrsh.w	r0, [r4, #8]
 8005288:	89b5      	ldrh	r5, [r6, #12]
 800528a:	9500      	str	r5, [sp, #0]
 800528c:	f7ff f83a 	bl	8004304 <UG_FillFrame>
 8005290:	e7ec      	b.n	800526c <_UG_ButtonUpdate+0x204>
 8005292:	bf00      	nop
 8005294:	0800ff58 	.word	0x0800ff58
 8005298:	0800ff70 	.word	0x0800ff70

0800529c <_UG_TextboxUpdate>:
   }
   return align;
}

void _UG_TextboxUpdate(UG_WINDOW* wnd, UG_OBJECT* obj)
{
 800529c:	b5f0      	push	{r4, r5, r6, r7, lr}
 800529e:	b08d      	sub	sp, #52	; 0x34
   UG_TEXTBOX* txb;
   UG_AREA a;
   UG_TEXT txt;

   /* Get object-specific data */
   txb = (UG_TEXTBOX*)(obj->data);
 80052a0:	69ce      	ldr	r6, [r1, #28]
   /* Textbox doesn't support touch */

   /* -------------------------------------------------- */
   /* Object update section                              */
   /* -------------------------------------------------- */
   if ( obj->state & OBJ_STATE_UPDATE )
 80052a2:	780b      	ldrb	r3, [r1, #0]
 80052a4:	f013 0f20 	tst.w	r3, #32
 80052a8:	d00b      	beq.n	80052c2 <_UG_TextboxUpdate+0x26>
 80052aa:	460c      	mov	r4, r1
 80052ac:	4605      	mov	r5, r0
   {
      if ( obj->state & OBJ_STATE_VISIBLE )
 80052ae:	f013 0f08 	tst.w	r3, #8
 80052b2:	d066      	beq.n	8005382 <_UG_TextboxUpdate+0xe6>
      {
         /* Full redraw necessary? */
         if ( obj->state & OBJ_STATE_REDRAW )
 80052b4:	f013 0f40 	tst.w	r3, #64	; 0x40
 80052b8:	d105      	bne.n	80052c6 <_UG_TextboxUpdate+0x2a>
      }
      else
      {
         UG_FillFrame(obj->a_abs.xs, obj->a_abs.ys, obj->a_abs.xe, obj->a_abs.ye, wnd->bc);
      }
      obj->state &= ~OBJ_STATE_UPDATE;
 80052ba:	7823      	ldrb	r3, [r4, #0]
 80052bc:	f023 0320 	bic.w	r3, r3, #32
 80052c0:	7023      	strb	r3, [r4, #0]
   }
}
 80052c2:	b00d      	add	sp, #52	; 0x34
 80052c4:	bdf0      	pop	{r4, r5, r6, r7, pc}
            UG_WindowGetArea(wnd,&a);
 80052c6:	a90a      	add	r1, sp, #40	; 0x28
 80052c8:	f7ff fe9a 	bl	8005000 <UG_WindowGetArea>
            obj->a_abs.xs = obj->a_rel.xs + a.xs;
 80052cc:	8a23      	ldrh	r3, [r4, #16]
 80052ce:	f8bd 2028 	ldrh.w	r2, [sp, #40]	; 0x28
 80052d2:	4413      	add	r3, r2
 80052d4:	8123      	strh	r3, [r4, #8]
            obj->a_abs.ys = obj->a_rel.ys + a.ys;
 80052d6:	8a61      	ldrh	r1, [r4, #18]
 80052d8:	f8bd 302a 	ldrh.w	r3, [sp, #42]	; 0x2a
 80052dc:	4419      	add	r1, r3
 80052de:	8161      	strh	r1, [r4, #10]
            obj->a_abs.xe = obj->a_rel.xe + a.xs;
 80052e0:	8aa1      	ldrh	r1, [r4, #20]
 80052e2:	440a      	add	r2, r1
 80052e4:	b212      	sxth	r2, r2
 80052e6:	81a2      	strh	r2, [r4, #12]
            obj->a_abs.ye = obj->a_rel.ye + a.ys;
 80052e8:	8ae1      	ldrh	r1, [r4, #22]
 80052ea:	440b      	add	r3, r1
 80052ec:	b21b      	sxth	r3, r3
 80052ee:	81e3      	strh	r3, [r4, #14]
            if ( obj->a_abs.ye >= wnd->ye ) return;
 80052f0:	f9b5 1014 	ldrsh.w	r1, [r5, #20]
 80052f4:	428b      	cmp	r3, r1
 80052f6:	dae4      	bge.n	80052c2 <_UG_TextboxUpdate+0x26>
            if ( obj->a_abs.xe >= wnd->xe ) return;
 80052f8:	f9b5 3012 	ldrsh.w	r3, [r5, #18]
 80052fc:	429a      	cmp	r2, r3
 80052fe:	dae0      	bge.n	80052c2 <_UG_TextboxUpdate+0x26>
            _UG_SendObjectPrerenderEvent(wnd, obj);
 8005300:	4621      	mov	r1, r4
 8005302:	4628      	mov	r0, r5
 8005304:	f7ff fce6 	bl	8004cd4 <_UG_SendObjectPrerenderEvent>
            txt.bc = txb->bc;
 8005308:	89b7      	ldrh	r7, [r6, #12]
 800530a:	f8ad 701e 	strh.w	r7, [sp, #30]
            txt.fc = txb->fc;
 800530e:	8973      	ldrh	r3, [r6, #10]
 8005310:	f8ad 301c 	strh.w	r3, [sp, #28]
            UG_FillFrame(obj->a_abs.xs, obj->a_abs.ys, obj->a_abs.xe, obj->a_abs.ye, txt.bc);
 8005314:	f9b4 300e 	ldrsh.w	r3, [r4, #14]
 8005318:	f9b4 200c 	ldrsh.w	r2, [r4, #12]
 800531c:	f9b4 100a 	ldrsh.w	r1, [r4, #10]
 8005320:	f9b4 0008 	ldrsh.w	r0, [r4, #8]
 8005324:	9700      	str	r7, [sp, #0]
 8005326:	f7fe ffed 	bl	8004304 <UG_FillFrame>
            txt.a.xs = obj->a_abs.xs;
 800532a:	f9b4 3008 	ldrsh.w	r3, [r4, #8]
 800532e:	f8ad 3014 	strh.w	r3, [sp, #20]
            txt.a.ys = obj->a_abs.ys;
 8005332:	f9b4 300a 	ldrsh.w	r3, [r4, #10]
 8005336:	f8ad 3016 	strh.w	r3, [sp, #22]
            txt.a.xe = obj->a_abs.xe;
 800533a:	f9b4 300c 	ldrsh.w	r3, [r4, #12]
 800533e:	f8ad 3018 	strh.w	r3, [sp, #24]
            txt.a.ye = obj->a_abs.ye;
 8005342:	f9b4 300e 	ldrsh.w	r3, [r4, #14]
 8005346:	f8ad 301a 	strh.w	r3, [sp, #26]
            txt.align = txb->align;
 800534a:	7bb3      	ldrb	r3, [r6, #14]
 800534c:	f88d 3020 	strb.w	r3, [sp, #32]
            txt.font = txb->font;
 8005350:	6873      	ldr	r3, [r6, #4]
 8005352:	9304      	str	r3, [sp, #16]
            txt.h_space = txb->h_space;
 8005354:	f996 300f 	ldrsb.w	r3, [r6, #15]
 8005358:	f8ad 3022 	strh.w	r3, [sp, #34]	; 0x22
            txt.v_space = txb->v_space;
 800535c:	f996 3010 	ldrsb.w	r3, [r6, #16]
 8005360:	f8ad 3024 	strh.w	r3, [sp, #36]	; 0x24
            txt.str = txb->str;
 8005364:	6833      	ldr	r3, [r6, #0]
 8005366:	a80c      	add	r0, sp, #48	; 0x30
 8005368:	f840 3d24 	str.w	r3, [r0, #-36]!
            _UG_PutText( &txt );
 800536c:	f7ff fa84 	bl	8004878 <_UG_PutText>
            obj->state &= ~OBJ_STATE_REDRAW;
 8005370:	7823      	ldrb	r3, [r4, #0]
 8005372:	f023 0340 	bic.w	r3, r3, #64	; 0x40
 8005376:	7023      	strb	r3, [r4, #0]
            _UG_SendObjectPostrenderEvent(wnd, obj);
 8005378:	4621      	mov	r1, r4
 800537a:	4628      	mov	r0, r5
 800537c:	f7ff fcbe 	bl	8004cfc <_UG_SendObjectPostrenderEvent>
 8005380:	e79b      	b.n	80052ba <_UG_TextboxUpdate+0x1e>
         UG_FillFrame(obj->a_abs.xs, obj->a_abs.ys, obj->a_abs.xe, obj->a_abs.ye, wnd->bc);
 8005382:	f9b1 300e 	ldrsh.w	r3, [r1, #14]
 8005386:	f9b1 200c 	ldrsh.w	r2, [r1, #12]
 800538a:	f9b1 100a 	ldrsh.w	r1, [r1, #10]
 800538e:	f9b4 0008 	ldrsh.w	r0, [r4, #8]
 8005392:	89ad      	ldrh	r5, [r5, #12]
 8005394:	9500      	str	r5, [sp, #0]
 8005396:	f7fe ffb5 	bl	8004304 <UG_FillFrame>
 800539a:	e78e      	b.n	80052ba <_UG_TextboxUpdate+0x1e>

0800539c <_UG_WindowDrawTitle>:
   if ( (wnd != NULL) && (wnd->state & WND_STATE_VALID) )
 800539c:	2800      	cmp	r0, #0
 800539e:	d06c      	beq.n	800547a <_UG_WindowDrawTitle+0xde>
{
 80053a0:	e92d 41f0 	stmdb	sp!, {r4, r5, r6, r7, r8, lr}
 80053a4:	b08a      	sub	sp, #40	; 0x28
 80053a6:	4604      	mov	r4, r0
   if ( (wnd != NULL) && (wnd->state & WND_STATE_VALID) )
 80053a8:	7a02      	ldrb	r2, [r0, #8]
 80053aa:	f012 0f02 	tst.w	r2, #2
 80053ae:	d067      	beq.n	8005480 <_UG_WindowDrawTitle+0xe4>
      xs = wnd->xs;
 80053b0:	f9b0 600e 	ldrsh.w	r6, [r0, #14]
      ys = wnd->ys;
 80053b4:	f9b0 8010 	ldrsh.w	r8, [r0, #16]
      xe = wnd->xe;
 80053b8:	f9b0 7012 	ldrsh.w	r7, [r0, #18]
      if ( wnd->style & WND_STYLE_3D )
 80053bc:	7d82      	ldrb	r2, [r0, #22]
 80053be:	f012 0f01 	tst.w	r2, #1
 80053c2:	d007      	beq.n	80053d4 <_UG_WindowDrawTitle+0x38>
         xs+=3;
 80053c4:	3603      	adds	r6, #3
 80053c6:	b236      	sxth	r6, r6
         ys+=3;
 80053c8:	f108 0803 	add.w	r8, r8, #3
 80053cc:	fa0f f888 	sxth.w	r8, r8
         xe-=3;
 80053d0:	3f03      	subs	r7, #3
 80053d2:	b23f      	sxth	r7, r7
      if ( wnd == gui->active_window )
 80053d4:	4a2c      	ldr	r2, [pc, #176]	; (8005488 <_UG_WindowDrawTitle+0xec>)
 80053d6:	6812      	ldr	r2, [r2, #0]
 80053d8:	6952      	ldr	r2, [r2, #20]
 80053da:	4294      	cmp	r4, r2
 80053dc:	d046      	beq.n	800546c <_UG_WindowDrawTitle+0xd0>
         txt.bc = wnd->title.ibc;
 80053de:	8d62      	ldrh	r2, [r4, #42]	; 0x2a
 80053e0:	f8ad 201e 	strh.w	r2, [sp, #30]
         txt.fc = wnd->title.ifc;
 80053e4:	8d22      	ldrh	r2, [r4, #40]	; 0x28
 80053e6:	f8ad 201c 	strh.w	r2, [sp, #28]
      UG_FillFrame(xs,ys,xe,ys+wnd->title.height-1,txt.bc);
 80053ea:	f894 302c 	ldrb.w	r3, [r4, #44]	; 0x2c
 80053ee:	fa1f f588 	uxth.w	r5, r8
 80053f2:	442b      	add	r3, r5
 80053f4:	b29b      	uxth	r3, r3
 80053f6:	3b01      	subs	r3, #1
 80053f8:	f8bd 201e 	ldrh.w	r2, [sp, #30]
 80053fc:	9200      	str	r2, [sp, #0]
 80053fe:	b21b      	sxth	r3, r3
 8005400:	463a      	mov	r2, r7
 8005402:	4641      	mov	r1, r8
 8005404:	4630      	mov	r0, r6
 8005406:	f7fe ff7d 	bl	8004304 <UG_FillFrame>
      txt.str = wnd->title.str;
 800540a:	69a3      	ldr	r3, [r4, #24]
 800540c:	9303      	str	r3, [sp, #12]
      txt.font = wnd->title.font;
 800540e:	69e3      	ldr	r3, [r4, #28]
 8005410:	9304      	str	r3, [sp, #16]
      txt.a.xs = xs+3;
 8005412:	1cf3      	adds	r3, r6, #3
 8005414:	f8ad 3014 	strh.w	r3, [sp, #20]
      txt.a.ys = ys;
 8005418:	f8ad 8016 	strh.w	r8, [sp, #22]
      txt.a.xe = xe;
 800541c:	f8ad 7018 	strh.w	r7, [sp, #24]
      txt.a.ye = ys+wnd->title.height-1;
 8005420:	f894 302c 	ldrb.w	r3, [r4, #44]	; 0x2c
 8005424:	442b      	add	r3, r5
 8005426:	b29b      	uxth	r3, r3
 8005428:	3b01      	subs	r3, #1
 800542a:	f8ad 301a 	strh.w	r3, [sp, #26]
      txt.align = wnd->title.align;
 800542e:	f894 3022 	ldrb.w	r3, [r4, #34]	; 0x22
 8005432:	f88d 3020 	strb.w	r3, [sp, #32]
      txt.h_space = wnd->title.h_space;
 8005436:	f994 3020 	ldrsb.w	r3, [r4, #32]
 800543a:	f8ad 3022 	strh.w	r3, [sp, #34]	; 0x22
      txt.v_space = wnd->title.v_space;
 800543e:	f994 3021 	ldrsb.w	r3, [r4, #33]	; 0x21
 8005442:	f8ad 3024 	strh.w	r3, [sp, #36]	; 0x24
      _UG_PutText( &txt );
 8005446:	a803      	add	r0, sp, #12
 8005448:	f7ff fa16 	bl	8004878 <_UG_PutText>
      UG_DrawLine(xs,ys+wnd->title.height,xe,ys+wnd->title.height,pal_window[11]);
 800544c:	f894 102c 	ldrb.w	r1, [r4, #44]	; 0x2c
 8005450:	4429      	add	r1, r5
 8005452:	b209      	sxth	r1, r1
 8005454:	f649 5313 	movw	r3, #40211	; 0x9d13
 8005458:	9300      	str	r3, [sp, #0]
 800545a:	460b      	mov	r3, r1
 800545c:	463a      	mov	r2, r7
 800545e:	4630      	mov	r0, r6
 8005460:	f7fe ff9c 	bl	800439c <UG_DrawLine>
      return UG_RESULT_OK;
 8005464:	2000      	movs	r0, #0
}
 8005466:	b00a      	add	sp, #40	; 0x28
 8005468:	e8bd 81f0 	ldmia.w	sp!, {r4, r5, r6, r7, r8, pc}
         txt.bc = wnd->title.bc;
 800546c:	8ce2      	ldrh	r2, [r4, #38]	; 0x26
 800546e:	f8ad 201e 	strh.w	r2, [sp, #30]
         txt.fc = wnd->title.fc;
 8005472:	8ca2      	ldrh	r2, [r4, #36]	; 0x24
 8005474:	f8ad 201c 	strh.w	r2, [sp, #28]
 8005478:	e7b7      	b.n	80053ea <_UG_WindowDrawTitle+0x4e>
   return UG_RESULT_FAIL;
 800547a:	f04f 30ff 	mov.w	r0, #4294967295
 800547e:	4770      	bx	lr
 8005480:	f04f 30ff 	mov.w	r0, #4294967295
 8005484:	e7ef      	b.n	8005466 <_UG_WindowDrawTitle+0xca>
 8005486:	bf00      	nop
 8005488:	20000100 	.word	0x20000100

0800548c <_UG_WindowUpdate>:
{
 800548c:	e92d 41f0 	stmdb	sp!, {r4, r5, r6, r7, r8, lr}
 8005490:	b082      	sub	sp, #8
   xs = wnd->xs;
 8005492:	f9b0 600e 	ldrsh.w	r6, [r0, #14]
   ys = wnd->ys;
 8005496:	f9b0 5010 	ldrsh.w	r5, [r0, #16]
   xe = wnd->xe;
 800549a:	f9b0 7012 	ldrsh.w	r7, [r0, #18]
   ye = wnd->ye;
 800549e:	f9b0 8014 	ldrsh.w	r8, [r0, #20]
   wnd->state &= ~WND_STATE_UPDATE;
 80054a2:	7a03      	ldrb	r3, [r0, #8]
 80054a4:	f003 03df 	and.w	r3, r3, #223	; 0xdf
 80054a8:	7203      	strb	r3, [r0, #8]
   if ( wnd->state & WND_STATE_VISIBLE )
 80054aa:	f013 0f08 	tst.w	r3, #8
 80054ae:	d04b      	beq.n	8005548 <_UG_WindowUpdate+0xbc>
 80054b0:	4604      	mov	r4, r0
      if ( (wnd->style & WND_STYLE_3D) && !(wnd->state & WND_STATE_REDRAW_TITLE) )
 80054b2:	7d82      	ldrb	r2, [r0, #22]
 80054b4:	f012 0f01 	tst.w	r2, #1
 80054b8:	d002      	beq.n	80054c0 <_UG_WindowUpdate+0x34>
 80054ba:	f013 0f40 	tst.w	r3, #64	; 0x40
 80054be:	d01a      	beq.n	80054f6 <_UG_WindowUpdate+0x6a>
      if ( wnd->style & WND_STYLE_SHOW_TITLE )
 80054c0:	7da3      	ldrb	r3, [r4, #22]
 80054c2:	f013 0f02 	tst.w	r3, #2
 80054c6:	d00b      	beq.n	80054e0 <_UG_WindowUpdate+0x54>
         _UG_WindowDrawTitle( wnd );
 80054c8:	4620      	mov	r0, r4
 80054ca:	f7ff ff67 	bl	800539c <_UG_WindowDrawTitle>
         ys += wnd->title.height+1;
 80054ce:	f894 302c 	ldrb.w	r3, [r4, #44]	; 0x2c
 80054d2:	441d      	add	r5, r3
 80054d4:	3501      	adds	r5, #1
 80054d6:	b22d      	sxth	r5, r5
         if ( wnd->state & WND_STATE_REDRAW_TITLE )
 80054d8:	7a23      	ldrb	r3, [r4, #8]
 80054da:	f013 0f40 	tst.w	r3, #64	; 0x40
 80054de:	d11d      	bne.n	800551c <_UG_WindowUpdate+0x90>
      UG_FillFrame(xs,ys,xe,ye,wnd->bc);
 80054e0:	89a3      	ldrh	r3, [r4, #12]
 80054e2:	9300      	str	r3, [sp, #0]
 80054e4:	4643      	mov	r3, r8
 80054e6:	463a      	mov	r2, r7
 80054e8:	4629      	mov	r1, r5
 80054ea:	4630      	mov	r0, r6
 80054ec:	f7fe ff0a 	bl	8004304 <UG_FillFrame>
      objcnt = wnd->objcnt;
 80054f0:	7826      	ldrb	r6, [r4, #0]
      for(i=0; i<objcnt; i++)
 80054f2:	2300      	movs	r3, #0
 80054f4:	e018      	b.n	8005528 <_UG_WindowUpdate+0x9c>
         _UG_DrawObjectFrame(xs,ys,xe,ye,(UG_COLOR*)pal_window);
 80054f6:	4b1b      	ldr	r3, [pc, #108]	; (8005564 <_UG_WindowUpdate+0xd8>)
 80054f8:	9300      	str	r3, [sp, #0]
 80054fa:	4643      	mov	r3, r8
 80054fc:	463a      	mov	r2, r7
 80054fe:	4629      	mov	r1, r5
 8005500:	4630      	mov	r0, r6
 8005502:	f7ff fb51 	bl	8004ba8 <_UG_DrawObjectFrame>
         xs+=3;
 8005506:	3603      	adds	r6, #3
 8005508:	b236      	sxth	r6, r6
         ys+=3;
 800550a:	3503      	adds	r5, #3
 800550c:	b22d      	sxth	r5, r5
         xe-=3;
 800550e:	3f03      	subs	r7, #3
 8005510:	b23f      	sxth	r7, r7
         ye-=3;
 8005512:	f1a8 0803 	sub.w	r8, r8, #3
 8005516:	fa0f f888 	sxth.w	r8, r8
 800551a:	e7d1      	b.n	80054c0 <_UG_WindowUpdate+0x34>
            wnd->state &= ~WND_STATE_REDRAW_TITLE;
 800551c:	f023 0340 	bic.w	r3, r3, #64	; 0x40
 8005520:	7223      	strb	r3, [r4, #8]
            return;
 8005522:	e01c      	b.n	800555e <_UG_WindowUpdate+0xd2>
      for(i=0; i<objcnt; i++)
 8005524:	3301      	adds	r3, #1
 8005526:	b29b      	uxth	r3, r3
 8005528:	42b3      	cmp	r3, r6
 800552a:	d218      	bcs.n	800555e <_UG_WindowUpdate+0xd2>
         obj = (UG_OBJECT*)&wnd->objlst[i];
 800552c:	6860      	ldr	r0, [r4, #4]
 800552e:	0159      	lsls	r1, r3, #5
         if ( !(obj->state & OBJ_STATE_FREE) && (obj->state & OBJ_STATE_VALID) && (obj->state & OBJ_STATE_VISIBLE) ) obj->state |= (OBJ_STATE_UPDATE | OBJ_STATE_REDRAW);
 8005530:	5c42      	ldrb	r2, [r0, r1]
 8005532:	f002 0503 	and.w	r5, r2, #3
 8005536:	2d02      	cmp	r5, #2
 8005538:	d1f4      	bne.n	8005524 <_UG_WindowUpdate+0x98>
 800553a:	f012 0f08 	tst.w	r2, #8
 800553e:	d0f1      	beq.n	8005524 <_UG_WindowUpdate+0x98>
 8005540:	f042 0260 	orr.w	r2, r2, #96	; 0x60
 8005544:	5442      	strb	r2, [r0, r1]
 8005546:	e7ed      	b.n	8005524 <_UG_WindowUpdate+0x98>
      UG_FillFrame(wnd->xs,wnd->xs,wnd->xe,wnd->ye,gui->desktop_color);
 8005548:	4b07      	ldr	r3, [pc, #28]	; (8005568 <_UG_WindowUpdate+0xdc>)
 800554a:	681b      	ldr	r3, [r3, #0]
 800554c:	f8b3 3046 	ldrh.w	r3, [r3, #70]	; 0x46
 8005550:	9300      	str	r3, [sp, #0]
 8005552:	4643      	mov	r3, r8
 8005554:	463a      	mov	r2, r7
 8005556:	4631      	mov	r1, r6
 8005558:	4630      	mov	r0, r6
 800555a:	f7fe fed3 	bl	8004304 <UG_FillFrame>
}
 800555e:	b002      	add	sp, #8
 8005560:	e8bd 81f0 	ldmia.w	sp!, {r4, r5, r6, r7, r8, pc}
 8005564:	0800ff88 	.word	0x0800ff88
 8005568:	20000100 	.word	0x20000100

0800556c <UG_Update>:
{
 800556c:	b510      	push	{r4, lr}
   if ( gui->state & UG_SATUS_WAIT_FOR_UPDATE ) gui->state &= ~UG_SATUS_WAIT_FOR_UPDATE;
 800556e:	4b2a      	ldr	r3, [pc, #168]	; (8005618 <UG_Update+0xac>)
 8005570:	681b      	ldr	r3, [r3, #0]
 8005572:	f893 2048 	ldrb.w	r2, [r3, #72]	; 0x48
 8005576:	f012 0f01 	tst.w	r2, #1
 800557a:	d003      	beq.n	8005584 <UG_Update+0x18>
 800557c:	f022 0201 	bic.w	r2, r2, #1
 8005580:	f883 2048 	strb.w	r2, [r3, #72]	; 0x48
   if ( gui->next_window != gui->active_window )
 8005584:	691a      	ldr	r2, [r3, #16]
 8005586:	6958      	ldr	r0, [r3, #20]
 8005588:	4282      	cmp	r2, r0
 800558a:	d01f      	beq.n	80055cc <UG_Update+0x60>
      if ( gui->next_window != NULL )
 800558c:	b1f2      	cbz	r2, 80055cc <UG_Update+0x60>
         gui->last_window = gui->active_window;
 800558e:	6198      	str	r0, [r3, #24]
         gui->active_window = gui->next_window;
 8005590:	615a      	str	r2, [r3, #20]
         if ((gui->last_window != NULL) && (gui->last_window->style & WND_STYLE_SHOW_TITLE) && (gui->last_window->state & WND_STATE_VISIBLE) )
 8005592:	b178      	cbz	r0, 80055b4 <UG_Update+0x48>
 8005594:	7d83      	ldrb	r3, [r0, #22]
 8005596:	f013 0f02 	tst.w	r3, #2
 800559a:	d00b      	beq.n	80055b4 <UG_Update+0x48>
 800559c:	7a03      	ldrb	r3, [r0, #8]
 800559e:	f013 0f08 	tst.w	r3, #8
 80055a2:	d007      	beq.n	80055b4 <UG_Update+0x48>
            if ( (gui->last_window->xs != gui->active_window->xs) || (gui->last_window->xe != gui->active_window->xe) || (gui->last_window->ys != gui->active_window->ys) || (gui->last_window->ye != gui->active_window->ye) )
 80055a4:	f9b0 100e 	ldrsh.w	r1, [r0, #14]
 80055a8:	f9b2 300e 	ldrsh.w	r3, [r2, #14]
 80055ac:	4299      	cmp	r1, r3
 80055ae:	d01a      	beq.n	80055e6 <UG_Update+0x7a>
               _UG_WindowDrawTitle( gui->last_window );
 80055b0:	f7ff fef4 	bl	800539c <_UG_WindowDrawTitle>
         gui->active_window->state &= ~WND_STATE_REDRAW_TITLE;
 80055b4:	4b18      	ldr	r3, [pc, #96]	; (8005618 <UG_Update+0xac>)
 80055b6:	681a      	ldr	r2, [r3, #0]
 80055b8:	6951      	ldr	r1, [r2, #20]
 80055ba:	7a0b      	ldrb	r3, [r1, #8]
 80055bc:	f023 0340 	bic.w	r3, r3, #64	; 0x40
 80055c0:	720b      	strb	r3, [r1, #8]
         gui->active_window->state |= WND_STATE_UPDATE | WND_STATE_VISIBLE;
 80055c2:	6952      	ldr	r2, [r2, #20]
 80055c4:	7a13      	ldrb	r3, [r2, #8]
 80055c6:	f043 0328 	orr.w	r3, r3, #40	; 0x28
 80055ca:	7213      	strb	r3, [r2, #8]
   if ( gui->active_window != NULL )
 80055cc:	4b12      	ldr	r3, [pc, #72]	; (8005618 <UG_Update+0xac>)
 80055ce:	681b      	ldr	r3, [r3, #0]
 80055d0:	695c      	ldr	r4, [r3, #20]
 80055d2:	b13c      	cbz	r4, 80055e4 <UG_Update+0x78>
      if ( wnd->state & WND_STATE_UPDATE )
 80055d4:	7a23      	ldrb	r3, [r4, #8]
 80055d6:	f013 0f20 	tst.w	r3, #32
 80055da:	d10f      	bne.n	80055fc <UG_Update+0x90>
      if ( wnd->state & WND_STATE_VISIBLE )
 80055dc:	7a23      	ldrb	r3, [r4, #8]
 80055de:	f013 0f08 	tst.w	r3, #8
 80055e2:	d10f      	bne.n	8005604 <UG_Update+0x98>
 80055e4:	bd10      	pop	{r4, pc}
            if ( (gui->last_window->xs != gui->active_window->xs) || (gui->last_window->xe != gui->active_window->xe) || (gui->last_window->ys != gui->active_window->ys) || (gui->last_window->ye != gui->active_window->ye) )
 80055e6:	6901      	ldr	r1, [r0, #16]
 80055e8:	6913      	ldr	r3, [r2, #16]
 80055ea:	4299      	cmp	r1, r3
 80055ec:	d1e0      	bne.n	80055b0 <UG_Update+0x44>
 80055ee:	f9b0 1014 	ldrsh.w	r1, [r0, #20]
 80055f2:	f9b2 3014 	ldrsh.w	r3, [r2, #20]
 80055f6:	4299      	cmp	r1, r3
 80055f8:	d1da      	bne.n	80055b0 <UG_Update+0x44>
 80055fa:	e7db      	b.n	80055b4 <UG_Update+0x48>
         _UG_WindowUpdate( wnd );
 80055fc:	4620      	mov	r0, r4
 80055fe:	f7ff ff45 	bl	800548c <_UG_WindowUpdate>
 8005602:	e7eb      	b.n	80055dc <UG_Update+0x70>
         _UG_ProcessTouchData( wnd );
 8005604:	4620      	mov	r0, r4
 8005606:	f7ff fa17 	bl	8004a38 <_UG_ProcessTouchData>
         _UG_UpdateObjects( wnd );
 800560a:	4620      	mov	r0, r4
 800560c:	f7ff fa72 	bl	8004af4 <_UG_UpdateObjects>
         _UG_HandleEvents( wnd );
 8005610:	4620      	mov	r0, r4
 8005612:	f7ff fa9d 	bl	8004b50 <_UG_HandleEvents>
}
 8005616:	e7e5      	b.n	80055e4 <UG_Update+0x78>
 8005618:	20000100 	.word	0x20000100

0800561c <UG_ButtonCreate>:
{
 800561c:	b5f8      	push	{r3, r4, r5, r6, r7, lr}
 800561e:	4605      	mov	r5, r0
 8005620:	460c      	mov	r4, r1
 8005622:	4616      	mov	r6, r2
 8005624:	461f      	mov	r7, r3
   obj = _UG_GetFreeObject( wnd );
 8005626:	f7ff f9d7 	bl	80049d8 <_UG_GetFreeObject>
   if ( obj == NULL ) return UG_RESULT_FAIL;
 800562a:	2800      	cmp	r0, #0
 800562c:	d038      	beq.n	80056a0 <UG_ButtonCreate+0x84>
 800562e:	4603      	mov	r3, r0
   btn->state = BTN_STATE_RELEASED;
 8005630:	2200      	movs	r2, #0
 8005632:	7022      	strb	r2, [r4, #0]
   btn->bc = wnd->bc;
 8005634:	89aa      	ldrh	r2, [r5, #12]
 8005636:	80a2      	strh	r2, [r4, #4]
   btn->fc = wnd->fc;
 8005638:	896a      	ldrh	r2, [r5, #10]
 800563a:	8062      	strh	r2, [r4, #2]
   btn->abc = wnd->bc;
 800563c:	89aa      	ldrh	r2, [r5, #12]
 800563e:	8122      	strh	r2, [r4, #8]
   btn->afc = wnd->fc;
 8005640:	896a      	ldrh	r2, [r5, #10]
 8005642:	80e2      	strh	r2, [r4, #6]
   btn->style = BTN_STYLE_3D;
 8005644:	2201      	movs	r2, #1
 8005646:	7062      	strb	r2, [r4, #1]
   btn->align = ALIGN_CENTER;
 8005648:	2212      	movs	r2, #18
 800564a:	7422      	strb	r2, [r4, #16]
   if (gui != NULL) btn->font = &gui->font;
 800564c:	4a16      	ldr	r2, [pc, #88]	; (80056a8 <UG_ButtonCreate+0x8c>)
 800564e:	6812      	ldr	r2, [r2, #0]
 8005650:	b31a      	cbz	r2, 800569a <UG_ButtonCreate+0x7e>
 8005652:	322c      	adds	r2, #44	; 0x2c
 8005654:	60e2      	str	r2, [r4, #12]
   btn->str = "-";
 8005656:	4a15      	ldr	r2, [pc, #84]	; (80056ac <UG_ButtonCreate+0x90>)
 8005658:	6162      	str	r2, [r4, #20]
   obj->update = _UG_ButtonUpdate;
 800565a:	4a15      	ldr	r2, [pc, #84]	; (80056b0 <UG_ButtonCreate+0x94>)
 800565c:	605a      	str	r2, [r3, #4]
   obj->touch_state = OBJ_TOUCH_STATE_INIT;
 800565e:	2000      	movs	r0, #0
 8005660:	7058      	strb	r0, [r3, #1]
   obj->type = OBJ_TYPE_BUTTON;
 8005662:	2201      	movs	r2, #1
 8005664:	761a      	strb	r2, [r3, #24]
   obj->event = OBJ_EVENT_NONE;
 8005666:	7698      	strb	r0, [r3, #26]
   obj->a_rel.xs = xs;
 8005668:	821f      	strh	r7, [r3, #16]
   obj->a_rel.ys = ys;
 800566a:	f9bd 2018 	ldrsh.w	r2, [sp, #24]
 800566e:	825a      	strh	r2, [r3, #18]
   obj->a_rel.xe = xe;
 8005670:	f9bd 201c 	ldrsh.w	r2, [sp, #28]
 8005674:	829a      	strh	r2, [r3, #20]
   obj->a_rel.ye = ye;
 8005676:	f9bd 2020 	ldrsh.w	r2, [sp, #32]
 800567a:	82da      	strh	r2, [r3, #22]
   obj->a_abs.xs = -1;
 800567c:	f64f 72ff 	movw	r2, #65535	; 0xffff
 8005680:	811a      	strh	r2, [r3, #8]
   obj->a_abs.ys = -1;
 8005682:	815a      	strh	r2, [r3, #10]
   obj->a_abs.xe = -1;
 8005684:	819a      	strh	r2, [r3, #12]
   obj->a_abs.ye = -1;
 8005686:	81da      	strh	r2, [r3, #14]
   obj->id = id;
 8005688:	765e      	strb	r6, [r3, #25]
   obj->state |= OBJ_STATE_VISIBLE | OBJ_STATE_REDRAW | OBJ_STATE_VALID | OBJ_STATE_TOUCH_ENABLE;
 800568a:	781a      	ldrb	r2, [r3, #0]
 800568c:	f042 02ca 	orr.w	r2, r2, #202	; 0xca
   obj->data = (void*)btn;
 8005690:	61dc      	str	r4, [r3, #28]
   obj->state &= ~OBJ_STATE_FREE;
 8005692:	f022 0201 	bic.w	r2, r2, #1
 8005696:	701a      	strb	r2, [r3, #0]
   return UG_RESULT_OK;
 8005698:	bdf8      	pop	{r3, r4, r5, r6, r7, pc}
   else btn->font = NULL;
 800569a:	2200      	movs	r2, #0
 800569c:	60e2      	str	r2, [r4, #12]
 800569e:	e7da      	b.n	8005656 <UG_ButtonCreate+0x3a>
   if ( obj == NULL ) return UG_RESULT_FAIL;
 80056a0:	f04f 30ff 	mov.w	r0, #4294967295
}
 80056a4:	bdf8      	pop	{r3, r4, r5, r6, r7, pc}
 80056a6:	bf00      	nop
 80056a8:	20000100 	.word	0x20000100
 80056ac:	0800df54 	.word	0x0800df54
 80056b0:	08005069 	.word	0x08005069

080056b4 <UG_ButtonSetBackColor>:
{
 80056b4:	b510      	push	{r4, lr}
 80056b6:	4614      	mov	r4, r2
   obj = _UG_SearchObject( wnd, OBJ_TYPE_BUTTON, id );
 80056b8:	460a      	mov	r2, r1
 80056ba:	2101      	movs	r1, #1
 80056bc:	f7ff f9a1 	bl	8004a02 <_UG_SearchObject>
   if ( obj == NULL ) return UG_RESULT_FAIL;
 80056c0:	b138      	cbz	r0, 80056d2 <UG_ButtonSetBackColor+0x1e>
   btn = (UG_BUTTON*)(obj->data);
 80056c2:	69c2      	ldr	r2, [r0, #28]
   btn->bc = bc;
 80056c4:	8094      	strh	r4, [r2, #4]
   obj->state |= OBJ_STATE_UPDATE | OBJ_STATE_REDRAW;
 80056c6:	7802      	ldrb	r2, [r0, #0]
 80056c8:	f042 0260 	orr.w	r2, r2, #96	; 0x60
 80056cc:	7002      	strb	r2, [r0, #0]
   return UG_RESULT_OK;
 80056ce:	2000      	movs	r0, #0
 80056d0:	bd10      	pop	{r4, pc}
   if ( obj == NULL ) return UG_RESULT_FAIL;
 80056d2:	f04f 30ff 	mov.w	r0, #4294967295
}
 80056d6:	bd10      	pop	{r4, pc}

080056d8 <UG_ButtonSetText>:
{
 80056d8:	b510      	push	{r4, lr}
 80056da:	4614      	mov	r4, r2
   obj = _UG_SearchObject( wnd, OBJ_TYPE_BUTTON, id );
 80056dc:	460a      	mov	r2, r1
 80056de:	2101      	movs	r1, #1
 80056e0:	f7ff f98f 	bl	8004a02 <_UG_SearchObject>
   if ( obj == NULL ) return UG_RESULT_FAIL;
 80056e4:	b138      	cbz	r0, 80056f6 <UG_ButtonSetText+0x1e>
   btn = (UG_BUTTON*)(obj->data);
 80056e6:	69c2      	ldr	r2, [r0, #28]
   btn->str = (char *)str;
 80056e8:	6154      	str	r4, [r2, #20]
   obj->state |= OBJ_STATE_UPDATE | OBJ_STATE_REDRAW;
 80056ea:	7802      	ldrb	r2, [r0, #0]
 80056ec:	f042 0260 	orr.w	r2, r2, #96	; 0x60
 80056f0:	7002      	strb	r2, [r0, #0]
   return UG_RESULT_OK;
 80056f2:	2000      	movs	r0, #0
 80056f4:	bd10      	pop	{r4, pc}
   if ( obj == NULL ) return UG_RESULT_FAIL;
 80056f6:	f04f 30ff 	mov.w	r0, #4294967295
}
 80056fa:	bd10      	pop	{r4, pc}

080056fc <UG_ButtonSetFont>:
{
 80056fc:	b510      	push	{r4, lr}
 80056fe:	4614      	mov	r4, r2
   obj = _UG_SearchObject( wnd, OBJ_TYPE_BUTTON, id );
 8005700:	460a      	mov	r2, r1
 8005702:	2101      	movs	r1, #1
 8005704:	f7ff f97d 	bl	8004a02 <_UG_SearchObject>
   if ( obj == NULL ) return UG_RESULT_FAIL;
 8005708:	b138      	cbz	r0, 800571a <UG_ButtonSetFont+0x1e>
   btn = (UG_BUTTON*)(obj->data);
 800570a:	69c2      	ldr	r2, [r0, #28]
   btn->font = font;
 800570c:	60d4      	str	r4, [r2, #12]
   obj->state |= OBJ_STATE_UPDATE | OBJ_STATE_REDRAW;
 800570e:	7802      	ldrb	r2, [r0, #0]
 8005710:	f042 0260 	orr.w	r2, r2, #96	; 0x60
 8005714:	7002      	strb	r2, [r0, #0]
   return UG_RESULT_OK;
 8005716:	2000      	movs	r0, #0
 8005718:	bd10      	pop	{r4, pc}
   if ( obj == NULL ) return UG_RESULT_FAIL;
 800571a:	f04f 30ff 	mov.w	r0, #4294967295
}
 800571e:	bd10      	pop	{r4, pc}

08005720 <UG_TextboxCreate>:
{
 8005720:	b5f8      	push	{r3, r4, r5, r6, r7, lr}
 8005722:	4605      	mov	r5, r0
 8005724:	460c      	mov	r4, r1
 8005726:	4616      	mov	r6, r2
 8005728:	461f      	mov	r7, r3
   obj = _UG_GetFreeObject( wnd );
 800572a:	f7ff f955 	bl	80049d8 <_UG_GetFreeObject>
   if ( obj == NULL ) return UG_RESULT_FAIL;
 800572e:	2800      	cmp	r0, #0
 8005730:	d033      	beq.n	800579a <UG_TextboxCreate+0x7a>
 8005732:	4603      	mov	r3, r0
   txb->str = NULL;
 8005734:	2200      	movs	r2, #0
 8005736:	6022      	str	r2, [r4, #0]
   if (gui != NULL) txb->font = &gui->font;
 8005738:	4a19      	ldr	r2, [pc, #100]	; (80057a0 <UG_TextboxCreate+0x80>)
 800573a:	6812      	ldr	r2, [r2, #0]
 800573c:	b352      	cbz	r2, 8005794 <UG_TextboxCreate+0x74>
 800573e:	322c      	adds	r2, #44	; 0x2c
 8005740:	6062      	str	r2, [r4, #4]
   txb->style = 0; /* reserved */
 8005742:	2000      	movs	r0, #0
 8005744:	7220      	strb	r0, [r4, #8]
   txb->fc = wnd->fc;
 8005746:	896a      	ldrh	r2, [r5, #10]
 8005748:	8162      	strh	r2, [r4, #10]
   txb->bc = wnd->bc;
 800574a:	89aa      	ldrh	r2, [r5, #12]
 800574c:	81a2      	strh	r2, [r4, #12]
   txb->align = ALIGN_CENTER;
 800574e:	2212      	movs	r2, #18
 8005750:	73a2      	strb	r2, [r4, #14]
   txb->h_space = 0;
 8005752:	73e0      	strb	r0, [r4, #15]
   txb->v_space = 0;
 8005754:	7420      	strb	r0, [r4, #16]
   obj->update = _UG_TextboxUpdate;
 8005756:	4a13      	ldr	r2, [pc, #76]	; (80057a4 <UG_TextboxCreate+0x84>)
 8005758:	605a      	str	r2, [r3, #4]
   obj->touch_state = OBJ_TOUCH_STATE_INIT;
 800575a:	7058      	strb	r0, [r3, #1]
   obj->type = OBJ_TYPE_TEXTBOX;
 800575c:	2202      	movs	r2, #2
 800575e:	761a      	strb	r2, [r3, #24]
   obj->event = OBJ_EVENT_NONE;
 8005760:	7698      	strb	r0, [r3, #26]
   obj->a_rel.xs = xs;
 8005762:	821f      	strh	r7, [r3, #16]
   obj->a_rel.ys = ys;
 8005764:	f9bd 2018 	ldrsh.w	r2, [sp, #24]
 8005768:	825a      	strh	r2, [r3, #18]
   obj->a_rel.xe = xe;
 800576a:	f9bd 201c 	ldrsh.w	r2, [sp, #28]
 800576e:	829a      	strh	r2, [r3, #20]
   obj->a_rel.ye = ye;
 8005770:	f9bd 2020 	ldrsh.w	r2, [sp, #32]
 8005774:	82da      	strh	r2, [r3, #22]
   obj->a_abs.xs = -1;
 8005776:	f64f 72ff 	movw	r2, #65535	; 0xffff
 800577a:	811a      	strh	r2, [r3, #8]
   obj->a_abs.ys = -1;
 800577c:	815a      	strh	r2, [r3, #10]
   obj->a_abs.xe = -1;
 800577e:	819a      	strh	r2, [r3, #12]
   obj->a_abs.ye = -1;
 8005780:	81da      	strh	r2, [r3, #14]
   obj->id = id;
 8005782:	765e      	strb	r6, [r3, #25]
   obj->state |= OBJ_STATE_VISIBLE | OBJ_STATE_REDRAW | OBJ_STATE_VALID;
 8005784:	781a      	ldrb	r2, [r3, #0]
 8005786:	f042 024a 	orr.w	r2, r2, #74	; 0x4a
   obj->data = (void*)txb;
 800578a:	61dc      	str	r4, [r3, #28]
   obj->state &= ~OBJ_STATE_FREE;
 800578c:	f022 0201 	bic.w	r2, r2, #1
 8005790:	701a      	strb	r2, [r3, #0]
   return UG_RESULT_OK;
 8005792:	bdf8      	pop	{r3, r4, r5, r6, r7, pc}
   else txb->font = NULL;
 8005794:	2200      	movs	r2, #0
 8005796:	6062      	str	r2, [r4, #4]
 8005798:	e7d3      	b.n	8005742 <UG_TextboxCreate+0x22>
   if ( obj == NULL ) return UG_RESULT_FAIL;
 800579a:	f04f 30ff 	mov.w	r0, #4294967295
}
 800579e:	bdf8      	pop	{r3, r4, r5, r6, r7, pc}
 80057a0:	20000100 	.word	0x20000100
 80057a4:	0800529d 	.word	0x0800529d

080057a8 <UG_TextboxSetBackColor>:
{
 80057a8:	b510      	push	{r4, lr}
 80057aa:	4614      	mov	r4, r2
   obj = _UG_SearchObject( wnd, OBJ_TYPE_TEXTBOX, id );
 80057ac:	460a      	mov	r2, r1
 80057ae:	2102      	movs	r1, #2
 80057b0:	f7ff f927 	bl	8004a02 <_UG_SearchObject>
   if ( obj == NULL ) return UG_RESULT_FAIL;
 80057b4:	b138      	cbz	r0, 80057c6 <UG_TextboxSetBackColor+0x1e>
   txb = (UG_TEXTBOX*)(obj->data);
 80057b6:	69c2      	ldr	r2, [r0, #28]
   txb->bc = bc;
 80057b8:	8194      	strh	r4, [r2, #12]
   obj->state |= OBJ_STATE_UPDATE | OBJ_STATE_REDRAW;
 80057ba:	7802      	ldrb	r2, [r0, #0]
 80057bc:	f042 0260 	orr.w	r2, r2, #96	; 0x60
 80057c0:	7002      	strb	r2, [r0, #0]
   return UG_RESULT_OK;
 80057c2:	2000      	movs	r0, #0
 80057c4:	bd10      	pop	{r4, pc}
   if ( obj == NULL ) return UG_RESULT_FAIL;
 80057c6:	f04f 30ff 	mov.w	r0, #4294967295
}
 80057ca:	bd10      	pop	{r4, pc}

080057cc <UG_TextboxSetText>:
{
 80057cc:	b510      	push	{r4, lr}
 80057ce:	4614      	mov	r4, r2
   obj = _UG_SearchObject( wnd, OBJ_TYPE_TEXTBOX, id );
 80057d0:	460a      	mov	r2, r1
 80057d2:	2102      	movs	r1, #2
 80057d4:	f7ff f915 	bl	8004a02 <_UG_SearchObject>
   if ( obj == NULL ) return UG_RESULT_FAIL;
 80057d8:	b138      	cbz	r0, 80057ea <UG_TextboxSetText+0x1e>
   txb = (UG_TEXTBOX*)(obj->data);
 80057da:	69c2      	ldr	r2, [r0, #28]
   txb->str = (char *)str;
 80057dc:	6014      	str	r4, [r2, #0]
   obj->state |= OBJ_STATE_UPDATE | OBJ_STATE_REDRAW;
 80057de:	7802      	ldrb	r2, [r0, #0]
 80057e0:	f042 0260 	orr.w	r2, r2, #96	; 0x60
 80057e4:	7002      	strb	r2, [r0, #0]
   return UG_RESULT_OK;
 80057e6:	2000      	movs	r0, #0
 80057e8:	bd10      	pop	{r4, pc}
   if ( obj == NULL ) return UG_RESULT_FAIL;
 80057ea:	f04f 30ff 	mov.w	r0, #4294967295
}
 80057ee:	bd10      	pop	{r4, pc}

080057f0 <UG_TextboxSetFont>:
{
 80057f0:	b510      	push	{r4, lr}
 80057f2:	4614      	mov	r4, r2
   obj = _UG_SearchObject( wnd, OBJ_TYPE_TEXTBOX, id );
 80057f4:	460a      	mov	r2, r1
 80057f6:	2102      	movs	r1, #2
 80057f8:	f7ff f903 	bl	8004a02 <_UG_SearchObject>
   if ( obj == NULL ) return UG_RESULT_FAIL;
 80057fc:	b138      	cbz	r0, 800580e <UG_TextboxSetFont+0x1e>
   txb = (UG_TEXTBOX*)(obj->data);
 80057fe:	69c2      	ldr	r2, [r0, #28]
   txb->font = font;
 8005800:	6054      	str	r4, [r2, #4]
   obj->state |= OBJ_STATE_UPDATE | OBJ_STATE_REDRAW;
 8005802:	7802      	ldrb	r2, [r0, #0]
 8005804:	f042 0260 	orr.w	r2, r2, #96	; 0x60
 8005808:	7002      	strb	r2, [r0, #0]
   return UG_RESULT_OK;
 800580a:	2000      	movs	r0, #0
 800580c:	bd10      	pop	{r4, pc}
   if ( obj == NULL ) return UG_RESULT_FAIL;
 800580e:	f04f 30ff 	mov.w	r0, #4294967295
}
 8005812:	bd10      	pop	{r4, pc}

08005814 <UG_TextboxSetAlignment>:
{
 8005814:	b510      	push	{r4, lr}
 8005816:	4614      	mov	r4, r2
   obj = _UG_SearchObject( wnd, OBJ_TYPE_TEXTBOX, id );
 8005818:	460a      	mov	r2, r1
 800581a:	2102      	movs	r1, #2
 800581c:	f7ff f8f1 	bl	8004a02 <_UG_SearchObject>
   if ( obj == NULL ) return UG_RESULT_FAIL;
 8005820:	b138      	cbz	r0, 8005832 <UG_TextboxSetAlignment+0x1e>
   txb = (UG_TEXTBOX*)(obj->data);
 8005822:	69c2      	ldr	r2, [r0, #28]
   txb->align = align;
 8005824:	7394      	strb	r4, [r2, #14]
   obj->state |= OBJ_STATE_UPDATE | OBJ_STATE_REDRAW;
 8005826:	7802      	ldrb	r2, [r0, #0]
 8005828:	f042 0260 	orr.w	r2, r2, #96	; 0x60
 800582c:	7002      	strb	r2, [r0, #0]
   return UG_RESULT_OK;
 800582e:	2000      	movs	r0, #0
 8005830:	bd10      	pop	{r4, pc}
   if ( obj == NULL ) return UG_RESULT_FAIL;
 8005832:	f04f 30ff 	mov.w	r0, #4294967295
}
 8005836:	bd10      	pop	{r4, pc}

08005838 <drawGridHoriz>:
	int32_t i, j;

	pFrame = (uint16_t (*)[LCD_WIDTH])LCD_DRAW_BUFFER_UGUI;

	/* Draw horizontal grid lines */
	for(i = MENUBAR_HEIGHT; i < LCD_HEIGHT - MENUBAR_HEIGHT; i += (LCD_HEIGHT - 2*MENUBAR_HEIGHT)/GRID_VERT_DIVS){
 8005838:	200f      	movs	r0, #15
 800583a:	e00d      	b.n	8005858 <drawGridHoriz+0x20>
		for(j = 0; j < LCD_WIDTH; j += GRID_DOT_SPACING){
				pFrame[i][j] = GRID_COLOR;
 800583c:	ebc0 1200 	rsb	r2, r0, r0, lsl #4
 8005840:	0191      	lsls	r1, r2, #6
 8005842:	4a10      	ldr	r2, [pc, #64]	; (8005884 <drawGridHoriz+0x4c>)
 8005844:	440a      	add	r2, r1
 8005846:	f64a 5155 	movw	r1, #44373	; 0xad55
 800584a:	f822 1013 	strh.w	r1, [r2, r3, lsl #1]
		for(j = 0; j < LCD_WIDTH; j += GRID_DOT_SPACING){
 800584e:	330a      	adds	r3, #10
 8005850:	f5b3 7ff0 	cmp.w	r3, #480	; 0x1e0
 8005854:	dbf2      	blt.n	800583c <drawGridHoriz+0x4>
	for(i = MENUBAR_HEIGHT; i < LCD_HEIGHT - MENUBAR_HEIGHT; i += (LCD_HEIGHT - 2*MENUBAR_HEIGHT)/GRID_VERT_DIVS){
 8005856:	3030      	adds	r0, #48	; 0x30
 8005858:	f5b0 7f80 	cmp.w	r0, #256	; 0x100
 800585c:	dc01      	bgt.n	8005862 <drawGridHoriz+0x2a>
 800585e:	2300      	movs	r3, #0
 8005860:	e7f6      	b.n	8005850 <drawGridHoriz+0x18>
			}
	}

	if(chDispMode == CHDISPMODE_SPLIT){
 8005862:	4b09      	ldr	r3, [pc, #36]	; (8005888 <drawGridHoriz+0x50>)
 8005864:	781b      	ldrb	r3, [r3, #0]
 8005866:	b90b      	cbnz	r3, 800586c <drawGridHoriz+0x34>
 8005868:	2300      	movs	r3, #0
 800586a:	e006      	b.n	800587a <drawGridHoriz+0x42>
 800586c:	4770      	bx	lr
		/* Draw separator between the two channels */
		i = 135;
		for(j = 0; j < LCD_WIDTH; j += 1){
			pFrame[i][j] = CH_SEPARATOR_COLOR;
 800586e:	f64f 71ff 	movw	r1, #65535	; 0xffff
 8005872:	4a06      	ldr	r2, [pc, #24]	; (800588c <drawGridHoriz+0x54>)
 8005874:	f822 1013 	strh.w	r1, [r2, r3, lsl #1]
		for(j = 0; j < LCD_WIDTH; j += 1){
 8005878:	3301      	adds	r3, #1
 800587a:	f5b3 7ff0 	cmp.w	r3, #480	; 0x1e0
 800587e:	dbf6      	blt.n	800586e <drawGridHoriz+0x36>
 8005880:	4770      	bx	lr
 8005882:	bf00      	nop
 8005884:	c0200000 	.word	0xc0200000
 8005888:	200000bc 	.word	0x200000bc
 800588c:	c021fa40 	.word	0xc021fa40

08005890 <drawGridVerti>:
	int32_t i, j;

	pFrame = (uint16_t (*)[LCD_WIDTH])LCD_DRAW_BUFFER_UGUI;

	/* Draw vertical grid lines */
	for(j = LCD_WIDTH/GRID_HORZ_DIVS - 1; j < LCD_WIDTH - 1; j += LCD_WIDTH/GRID_HORZ_DIVS){
 8005890:	202f      	movs	r0, #47	; 0x2f
 8005892:	e00d      	b.n	80058b0 <drawGridVerti+0x20>
		for(i = MENUBAR_HEIGHT; i < LCD_HEIGHT - MENUBAR_HEIGHT; i += GRID_DOT_SPACING){
			pFrame[i][j] = GRID_COLOR;
 8005894:	ebc3 1203 	rsb	r2, r3, r3, lsl #4
 8005898:	0191      	lsls	r1, r2, #6
 800589a:	4a08      	ldr	r2, [pc, #32]	; (80058bc <drawGridVerti+0x2c>)
 800589c:	440a      	add	r2, r1
 800589e:	f64a 5155 	movw	r1, #44373	; 0xad55
 80058a2:	f822 1010 	strh.w	r1, [r2, r0, lsl #1]
		for(i = MENUBAR_HEIGHT; i < LCD_HEIGHT - MENUBAR_HEIGHT; i += GRID_DOT_SPACING){
 80058a6:	330a      	adds	r3, #10
 80058a8:	f5b3 7f80 	cmp.w	r3, #256	; 0x100
 80058ac:	ddf2      	ble.n	8005894 <drawGridVerti+0x4>
	for(j = LCD_WIDTH/GRID_HORZ_DIVS - 1; j < LCD_WIDTH - 1; j += LCD_WIDTH/GRID_HORZ_DIVS){
 80058ae:	3030      	adds	r0, #48	; 0x30
 80058b0:	f5b0 7fef 	cmp.w	r0, #478	; 0x1de
 80058b4:	dc01      	bgt.n	80058ba <drawGridVerti+0x2a>
 80058b6:	230f      	movs	r3, #15
 80058b8:	e7f6      	b.n	80058a8 <drawGridVerti+0x18>
		}
	}
}
 80058ba:	4770      	bx	lr
 80058bc:	c0200000 	.word	0xc0200000

080058c0 <window_2_callback>:
	}
}

/* Callback function for window 2 (bottom menubar) */
static void window_2_callback(UG_MESSAGE* msg)
{
 80058c0:	4770      	bx	lr
	...

080058c4 <window_5_callback>:
static void window_5_callback(UG_MESSAGE* msg)
{
	Measure_TypeDef* measPtr;
	uint8_t wind3BtnID;

	if (msg->type == MSG_TYPE_OBJECT)
 80058c4:	7803      	ldrb	r3, [r0, #0]
 80058c6:	2b02      	cmp	r3, #2
 80058c8:	d000      	beq.n	80058cc <window_5_callback+0x8>
 80058ca:	4770      	bx	lr
	{
	  if (msg->id == OBJ_TYPE_BUTTON)
 80058cc:	7843      	ldrb	r3, [r0, #1]
 80058ce:	2b01      	cmp	r3, #1
 80058d0:	d1fb      	bne.n	80058ca <window_5_callback+0x6>
	  {
		  if(msg->event == OBJ_EVENT_PRESSED)
 80058d2:	78c3      	ldrb	r3, [r0, #3]
 80058d4:	2b04      	cmp	r3, #4
 80058d6:	d1f8      	bne.n	80058ca <window_5_callback+0x6>
{
 80058d8:	b570      	push	{r4, r5, r6, lr}
		  {
			 /* change which measure's settings */
			 if(wind5OpenedBy == MEASURE1){
 80058da:	4b2c      	ldr	r3, [pc, #176]	; (800598c <window_5_callback+0xc8>)
 80058dc:	781b      	ldrb	r3, [r3, #0]
 80058de:	2b01      	cmp	r3, #1
 80058e0:	d026      	beq.n	8005930 <window_5_callback+0x6c>
				 measPtr = &measure1;
				 wind3BtnID = BTN_ID_0;
			 }
			 else if(wind5OpenedBy == MEASURE2){
 80058e2:	2b02      	cmp	r3, #2
 80058e4:	d027      	beq.n	8005936 <window_5_callback+0x72>
				 measPtr = &measure2;
				 wind3BtnID = BTN_ID_1;
			 }
			 else if(wind5OpenedBy == MEASURE3){
 80058e6:	2b03      	cmp	r3, #3
 80058e8:	d01f      	beq.n	800592a <window_5_callback+0x66>
				 measPtr = &measure3;
				 wind3BtnID = BTN_ID_2;
			 }
			 else{
				 measPtr = &measure4;
				 wind3BtnID = BTN_ID_3;
 80058ea:	2603      	movs	r6, #3
				 measPtr = &measure4;
 80058ec:	4c28      	ldr	r4, [pc, #160]	; (8005990 <window_5_callback+0xcc>)
			 }

			 switch(msg->sub_id)
 80058ee:	7883      	ldrb	r3, [r0, #2]
 80058f0:	b323      	cbz	r3, 800593c <window_5_callback+0x78>
 80058f2:	2b01      	cmp	r3, #1
 80058f4:	d02b      	beq.n	800594e <window_5_callback+0x8a>
						 measPtr->param = measPtr->param + 1;
					 break;
			 }

			 /* update button text and colors according to chosen setting */
			 UG_ButtonSetText(&window_5, BTN_ID_0, (measPtr->src == CHANNEL1) ? "CH1" : "CH2");
 80058f6:	7823      	ldrb	r3, [r4, #0]
 80058f8:	2b01      	cmp	r3, #1
 80058fa:	d031      	beq.n	8005960 <window_5_callback+0x9c>
 80058fc:	4a25      	ldr	r2, [pc, #148]	; (8005994 <window_5_callback+0xd0>)
 80058fe:	4d26      	ldr	r5, [pc, #152]	; (8005998 <window_5_callback+0xd4>)
 8005900:	2100      	movs	r1, #0
 8005902:	4628      	mov	r0, r5
 8005904:	f7ff fee8 	bl	80056d8 <UG_ButtonSetText>
			 UG_ButtonSetText(&window_5, BTN_ID_1, measParamTexts[measPtr->param]);
 8005908:	7862      	ldrb	r2, [r4, #1]
 800590a:	eb02 0282 	add.w	r2, r2, r2, lsl #2
 800590e:	4b23      	ldr	r3, [pc, #140]	; (800599c <window_5_callback+0xd8>)
 8005910:	441a      	add	r2, r3
 8005912:	2101      	movs	r1, #1
 8005914:	4628      	mov	r0, r5
 8005916:	f7ff fedf 	bl	80056d8 <UG_ButtonSetText>

			 UG_ButtonSetBackColor(&window_3, wind3BtnID, (measPtr->param == MEAS_NONE) ? INACTIVE_ICON_COLOR : ((measPtr->src == CHANNEL1) ? CH1_COLOR : CH2_COLOR));
 800591a:	7863      	ldrb	r3, [r4, #1]
 800591c:	b32b      	cbz	r3, 800596a <window_5_callback+0xa6>
 800591e:	7823      	ldrb	r3, [r4, #0]
 8005920:	2b01      	cmp	r3, #1
 8005922:	d01f      	beq.n	8005964 <window_5_callback+0xa0>
 8005924:	f240 72ff 	movw	r2, #2047	; 0x7ff
 8005928:	e021      	b.n	800596e <window_5_callback+0xaa>
				 wind3BtnID = BTN_ID_2;
 800592a:	2602      	movs	r6, #2
				 measPtr = &measure3;
 800592c:	4c1c      	ldr	r4, [pc, #112]	; (80059a0 <window_5_callback+0xdc>)
 800592e:	e7de      	b.n	80058ee <window_5_callback+0x2a>
				 wind3BtnID = BTN_ID_0;
 8005930:	2600      	movs	r6, #0
				 measPtr = &measure1;
 8005932:	4c1c      	ldr	r4, [pc, #112]	; (80059a4 <window_5_callback+0xe0>)
 8005934:	e7db      	b.n	80058ee <window_5_callback+0x2a>
				 wind3BtnID = BTN_ID_1;
 8005936:	2601      	movs	r6, #1
				 measPtr = &measure2;
 8005938:	4c1b      	ldr	r4, [pc, #108]	; (80059a8 <window_5_callback+0xe4>)
 800593a:	e7d8      	b.n	80058ee <window_5_callback+0x2a>
			 		 if(measPtr->src == CHANNEL1)
 800593c:	7823      	ldrb	r3, [r4, #0]
 800593e:	2b01      	cmp	r3, #1
 8005940:	d002      	beq.n	8005948 <window_5_callback+0x84>
						measPtr->src = CHANNEL1;
 8005942:	2301      	movs	r3, #1
 8005944:	7023      	strb	r3, [r4, #0]
 8005946:	e7d6      	b.n	80058f6 <window_5_callback+0x32>
			 			measPtr->src = CHANNEL2;
 8005948:	2302      	movs	r3, #2
 800594a:	7023      	strb	r3, [r4, #0]
 800594c:	e7d3      	b.n	80058f6 <window_5_callback+0x32>
					 if(measPtr->param == MEAS_VAVG)
 800594e:	7863      	ldrb	r3, [r4, #1]
 8005950:	2b07      	cmp	r3, #7
 8005952:	d002      	beq.n	800595a <window_5_callback+0x96>
						 measPtr->param = measPtr->param + 1;
 8005954:	3301      	adds	r3, #1
 8005956:	7063      	strb	r3, [r4, #1]
 8005958:	e7cd      	b.n	80058f6 <window_5_callback+0x32>
						 measPtr->param = MEAS_NONE;
 800595a:	2300      	movs	r3, #0
 800595c:	7063      	strb	r3, [r4, #1]
 800595e:	e7ca      	b.n	80058f6 <window_5_callback+0x32>
			 UG_ButtonSetText(&window_5, BTN_ID_0, (measPtr->src == CHANNEL1) ? "CH1" : "CH2");
 8005960:	4a12      	ldr	r2, [pc, #72]	; (80059ac <window_5_callback+0xe8>)
 8005962:	e7cc      	b.n	80058fe <window_5_callback+0x3a>
			 UG_ButtonSetBackColor(&window_3, wind3BtnID, (measPtr->param == MEAS_NONE) ? INACTIVE_ICON_COLOR : ((measPtr->src == CHANNEL1) ? CH1_COLOR : CH2_COLOR));
 8005964:	f44f 62fc 	mov.w	r2, #2016	; 0x7e0
 8005968:	e001      	b.n	800596e <window_5_callback+0xaa>
 800596a:	f247 4212 	movw	r2, #29714	; 0x7412
 800596e:	4d10      	ldr	r5, [pc, #64]	; (80059b0 <window_5_callback+0xec>)
 8005970:	4631      	mov	r1, r6
 8005972:	4628      	mov	r0, r5
 8005974:	f7ff fe9e 	bl	80056b4 <UG_ButtonSetBackColor>
			 UG_ButtonSetText(&window_3, wind3BtnID, measParamTexts[measPtr->param]);
 8005978:	7862      	ldrb	r2, [r4, #1]
 800597a:	eb02 0282 	add.w	r2, r2, r2, lsl #2
 800597e:	4b07      	ldr	r3, [pc, #28]	; (800599c <window_5_callback+0xd8>)
 8005980:	441a      	add	r2, r3
 8005982:	4631      	mov	r1, r6
 8005984:	4628      	mov	r0, r5
 8005986:	f7ff fea7 	bl	80056d8 <UG_ButtonSetText>
 800598a:	bd70      	pop	{r4, r5, r6, pc}
 800598c:	20000162 	.word	0x20000162
 8005990:	20000bcc 	.word	0x20000bcc
 8005994:	0801038c 	.word	0x0801038c
 8005998:	20003318 	.word	0x20003318
 800599c:	0800d130 	.word	0x0800d130
 80059a0:	20000bc4 	.word	0x20000bc4
 80059a4:	20000bc0 	.word	0x20000bc0
 80059a8:	20000bc8 	.word	0x20000bc8
 80059ac:	08010388 	.word	0x08010388
 80059b0:	20003994 	.word	0x20003994

080059b4 <selectField>:
  * @param  field: field to operate on
  * @param  sel: 1=highlight, 0=de-highlight.
  * @retval None
  */
static void selectField(uint8_t field, uint8_t sel)
{
 80059b4:	b538      	push	{r3, r4, r5, lr}
	const UG_FONT* font;

	if(sel == 1)
 80059b6:	2901      	cmp	r1, #1
 80059b8:	d00b      	beq.n	80059d2 <selectField+0x1e>
		font = &FONT_7X12;	/* enlarge font to highlight */
	else
		font = &FONT_6X8;
 80059ba:	4c2b      	ldr	r4, [pc, #172]	; (8005a68 <selectField+0xb4>)

	switch(field)
 80059bc:	3801      	subs	r0, #1
 80059be:	280a      	cmp	r0, #10
 80059c0:	d850      	bhi.n	8005a64 <selectField+0xb0>
 80059c2:	e8df f000 	tbb	[pc, r0]
 80059c6:	0e08      	.short	0x0e08
 80059c8:	2c261a14 	.word	0x2c261a14
 80059cc:	443e3832 	.word	0x443e3832
 80059d0:	4a          	.byte	0x4a
 80059d1:	00          	.byte	0x00
		font = &FONT_7X12;	/* enlarge font to highlight */
 80059d2:	4c26      	ldr	r4, [pc, #152]	; (8005a6c <selectField+0xb8>)
 80059d4:	e7f2      	b.n	80059bc <selectField+0x8>
	{
		case FLD_NONE:
			break;

		case FLD_CH1_VSCALE:
			UG_TextboxSetFont(&window_1, TXB_ID_0, font);
 80059d6:	4622      	mov	r2, r4
 80059d8:	2100      	movs	r1, #0
 80059da:	4825      	ldr	r0, [pc, #148]	; (8005a70 <selectField+0xbc>)
 80059dc:	f7ff ff08 	bl	80057f0 <UG_TextboxSetFont>
			break;
 80059e0:	bd38      	pop	{r3, r4, r5, pc}

		case FLD_CH2_VSCALE:
			UG_TextboxSetFont(&window_1, TXB_ID_1, font);
 80059e2:	4622      	mov	r2, r4
 80059e4:	2101      	movs	r1, #1
 80059e6:	4822      	ldr	r0, [pc, #136]	; (8005a70 <selectField+0xbc>)
 80059e8:	f7ff ff02 	bl	80057f0 <UG_TextboxSetFont>
			break;
 80059ec:	bd38      	pop	{r3, r4, r5, pc}

		case FLD_TSCALE:
			UG_TextboxSetFont(&window_1, TXB_ID_2, font);
 80059ee:	4622      	mov	r2, r4
 80059f0:	2102      	movs	r1, #2
 80059f2:	481f      	ldr	r0, [pc, #124]	; (8005a70 <selectField+0xbc>)
 80059f4:	f7ff fefc 	bl	80057f0 <UG_TextboxSetFont>
			break;
 80059f8:	bd38      	pop	{r3, r4, r5, pc}

		case FLD_TRIGSRC:
			UG_TextboxSetFont(&window_1, TXB_ID_3, font);
 80059fa:	4d1d      	ldr	r5, [pc, #116]	; (8005a70 <selectField+0xbc>)
 80059fc:	4622      	mov	r2, r4
 80059fe:	2103      	movs	r1, #3
 8005a00:	4628      	mov	r0, r5
 8005a02:	f7ff fef5 	bl	80057f0 <UG_TextboxSetFont>
			UG_TextboxSetFont(&window_1, TXB_ID_4, font);
 8005a06:	4622      	mov	r2, r4
 8005a08:	2104      	movs	r1, #4
 8005a0a:	4628      	mov	r0, r5
 8005a0c:	f7ff fef0 	bl	80057f0 <UG_TextboxSetFont>
			break;
 8005a10:	bd38      	pop	{r3, r4, r5, pc}

		case FLD_TRIGTYPE:
			UG_TextboxSetFont(&window_1, TXB_ID_3, font);
 8005a12:	4622      	mov	r2, r4
 8005a14:	2103      	movs	r1, #3
 8005a16:	4816      	ldr	r0, [pc, #88]	; (8005a70 <selectField+0xbc>)
 8005a18:	f7ff feea 	bl	80057f0 <UG_TextboxSetFont>
			break;
 8005a1c:	bd38      	pop	{r3, r4, r5, pc}

		case FLD_TRIGLVL:
			UG_TextboxSetFont(&window_1, TXB_ID_4, font);
 8005a1e:	4622      	mov	r2, r4
 8005a20:	2104      	movs	r1, #4
 8005a22:	4813      	ldr	r0, [pc, #76]	; (8005a70 <selectField+0xbc>)
 8005a24:	f7ff fee4 	bl	80057f0 <UG_TextboxSetFont>
			break;
 8005a28:	bd38      	pop	{r3, r4, r5, pc}

		case FLD_TRIGMODE:
			UG_TextboxSetFont(&window_1, TXB_ID_5, font);
 8005a2a:	4622      	mov	r2, r4
 8005a2c:	2105      	movs	r1, #5
 8005a2e:	4810      	ldr	r0, [pc, #64]	; (8005a70 <selectField+0xbc>)
 8005a30:	f7ff fede 	bl	80057f0 <UG_TextboxSetFont>
			break;
 8005a34:	bd38      	pop	{r3, r4, r5, pc}

		case FLD_RUNSTOP:
			UG_TextboxSetFont(&window_1, TXB_ID_6, font);
 8005a36:	4622      	mov	r2, r4
 8005a38:	2106      	movs	r1, #6
 8005a3a:	480d      	ldr	r0, [pc, #52]	; (8005a70 <selectField+0xbc>)
 8005a3c:	f7ff fed8 	bl	80057f0 <UG_TextboxSetFont>
			break;
 8005a40:	bd38      	pop	{r3, r4, r5, pc}

		case FLD_CH1_VOFF:
			UG_TextboxSetFont(&window_2, TXB_ID_0, font);
 8005a42:	4622      	mov	r2, r4
 8005a44:	2100      	movs	r1, #0
 8005a46:	480b      	ldr	r0, [pc, #44]	; (8005a74 <selectField+0xc0>)
 8005a48:	f7ff fed2 	bl	80057f0 <UG_TextboxSetFont>
			break;
 8005a4c:	bd38      	pop	{r3, r4, r5, pc}

		case FLD_CH2_VOFF:
			UG_TextboxSetFont(&window_2, TXB_ID_1, font);
 8005a4e:	4622      	mov	r2, r4
 8005a50:	2101      	movs	r1, #1
 8005a52:	4808      	ldr	r0, [pc, #32]	; (8005a74 <selectField+0xc0>)
 8005a54:	f7ff fecc 	bl	80057f0 <UG_TextboxSetFont>
			break;
 8005a58:	bd38      	pop	{r3, r4, r5, pc}

		case FLD_TOFF:
			UG_TextboxSetFont(&window_2, TXB_ID_2, font);
 8005a5a:	4622      	mov	r2, r4
 8005a5c:	2102      	movs	r1, #2
 8005a5e:	4805      	ldr	r0, [pc, #20]	; (8005a74 <selectField+0xc0>)
 8005a60:	f7ff fec6 	bl	80057f0 <UG_TextboxSetFont>
 8005a64:	bd38      	pop	{r3, r4, r5, pc}
 8005a66:	bf00      	nop
 8005a68:	0800df18 	.word	0x0800df18
 8005a6c:	0800df2c 	.word	0x0800df2c
 8005a70:	20003750 	.word	0x20003750
 8005a74:	2000371c 	.word	0x2000371c

08005a78 <drawGrid>:
{
 8005a78:	b508      	push	{r3, lr}
	drawGridHoriz();
 8005a7a:	f7ff fedd 	bl	8005838 <drawGridHoriz>
	drawGridVerti();
 8005a7e:	f7ff ff07 	bl	8005890 <drawGridVerti>
 8005a82:	bd08      	pop	{r3, pc}

08005a84 <initUI>:
{
 8005a84:	e92d 4ff0 	stmdb	sp!, {r4, r5, r6, r7, r8, r9, sl, fp, lr}
 8005a88:	b085      	sub	sp, #20
	UG_WindowCreate(&window_1, obj_buff_wnd_1, UGUI_MAX_OBJECTS, window_1_callback);
 8005a8a:	4ee4      	ldr	r6, [pc, #912]	; (8005e1c <initUI+0x398>)
 8005a8c:	4be4      	ldr	r3, [pc, #912]	; (8005e20 <initUI+0x39c>)
 8005a8e:	220a      	movs	r2, #10
 8005a90:	49e4      	ldr	r1, [pc, #912]	; (8005e24 <initUI+0x3a0>)
 8005a92:	4630      	mov	r0, r6
 8005a94:	f7ff f974 	bl	8004d80 <UG_WindowCreate>
	UG_WindowSetStyle(&window_1, WND_STYLE_2D | WND_STYLE_HIDE_TITLE);
 8005a98:	2100      	movs	r1, #0
 8005a9a:	4630      	mov	r0, r6
 8005a9c:	f7ff fa87 	bl	8004fae <UG_WindowSetStyle>
	UG_WindowResize(&window_1, 0, 0, LCD_WIDTH - 1, MENUBAR_HEIGHT - 1);
 8005aa0:	240e      	movs	r4, #14
 8005aa2:	9400      	str	r4, [sp, #0]
 8005aa4:	f240 13df 	movw	r3, #479	; 0x1df
 8005aa8:	2200      	movs	r2, #0
 8005aaa:	4611      	mov	r1, r2
 8005aac:	4630      	mov	r0, r6
 8005aae:	f7ff f9cf 	bl	8004e50 <UG_WindowResize>
	UG_WindowSetBackColor(&window_1, C_KHAKI);
 8005ab2:	f64e 7131 	movw	r1, #61233	; 0xef31
 8005ab6:	4630      	mov	r0, r6
 8005ab8:	f7ff fa68 	bl	8004f8c <UG_WindowSetBackColor>
	UG_ButtonCreate(&window_1, &button1_0, BTN_ID_0, 427, 0, 474, MENUBAR_HEIGHT - 1);
 8005abc:	9402      	str	r4, [sp, #8]
 8005abe:	f44f 73ed 	mov.w	r3, #474	; 0x1da
 8005ac2:	9301      	str	r3, [sp, #4]
 8005ac4:	2500      	movs	r5, #0
 8005ac6:	9500      	str	r5, [sp, #0]
 8005ac8:	f240 13ab 	movw	r3, #427	; 0x1ab
 8005acc:	462a      	mov	r2, r5
 8005ace:	49d6      	ldr	r1, [pc, #856]	; (8005e28 <initUI+0x3a4>)
 8005ad0:	4630      	mov	r0, r6
 8005ad2:	f7ff fda3 	bl	800561c <UG_ButtonCreate>
	UG_ButtonSetFont(&window_1, BTN_ID_0, &FONT_6X8);
 8005ad6:	4fd5      	ldr	r7, [pc, #852]	; (8005e2c <initUI+0x3a8>)
 8005ad8:	463a      	mov	r2, r7
 8005ada:	4629      	mov	r1, r5
 8005adc:	4630      	mov	r0, r6
 8005ade:	f7ff fe0d 	bl	80056fc <UG_ButtonSetFont>
	UG_ButtonSetBackColor(&window_1, BTN_ID_0, C_ORANGE);
 8005ae2:	f64f 5220 	movw	r2, #64800	; 0xfd20
 8005ae6:	4629      	mov	r1, r5
 8005ae8:	4630      	mov	r0, r6
 8005aea:	f7ff fde3 	bl	80056b4 <UG_ButtonSetBackColor>
	UG_ButtonSetText(&window_1, BTN_ID_0, "MENU");
 8005aee:	4ad0      	ldr	r2, [pc, #832]	; (8005e30 <initUI+0x3ac>)
 8005af0:	4629      	mov	r1, r5
 8005af2:	4630      	mov	r0, r6
 8005af4:	f7ff fdf0 	bl	80056d8 <UG_ButtonSetText>
	UG_TextboxCreate(&window_1, &txtb1_0, TXB_ID_0, WIND1_ICON_SPACING, 1, WIND1_ICON_SPACING + WIND1_ICON_WIDTH - 1, MENUBAR_HEIGHT - 2);	/* CH1 vertical scale */
 8005af8:	f04f 080d 	mov.w	r8, #13
 8005afc:	f8cd 8008 	str.w	r8, [sp, #8]
 8005b00:	f04f 0b3b 	mov.w	fp, #59	; 0x3b
 8005b04:	f8cd b004 	str.w	fp, [sp, #4]
 8005b08:	2401      	movs	r4, #1
 8005b0a:	9400      	str	r4, [sp, #0]
 8005b0c:	230a      	movs	r3, #10
 8005b0e:	462a      	mov	r2, r5
 8005b10:	49c8      	ldr	r1, [pc, #800]	; (8005e34 <initUI+0x3b0>)
 8005b12:	4630      	mov	r0, r6
 8005b14:	f7ff fe04 	bl	8005720 <UG_TextboxCreate>
	UG_TextboxSetFont(&window_1, TXB_ID_0, &FONT_6X8);
 8005b18:	463a      	mov	r2, r7
 8005b1a:	4629      	mov	r1, r5
 8005b1c:	4630      	mov	r0, r6
 8005b1e:	f7ff fe67 	bl	80057f0 <UG_TextboxSetFont>
	UG_TextboxSetBackColor(&window_1, TXB_ID_0, CH1_COLOR);
 8005b22:	f44f 62fc 	mov.w	r2, #2016	; 0x7e0
 8005b26:	4629      	mov	r1, r5
 8005b28:	4630      	mov	r0, r6
 8005b2a:	f7ff fe3d 	bl	80057a8 <UG_TextboxSetBackColor>
	UG_TextboxSetText(&window_1, TXB_ID_0, "1V");
 8005b2e:	f8df 935c 	ldr.w	r9, [pc, #860]	; 8005e8c <initUI+0x408>
 8005b32:	464a      	mov	r2, r9
 8005b34:	4629      	mov	r1, r5
 8005b36:	4630      	mov	r0, r6
 8005b38:	f7ff fe48 	bl	80057cc <UG_TextboxSetText>
	UG_TextboxCreate(&window_1, &txtb1_1, TXB_ID_1, 2*WIND1_ICON_SPACING + WIND1_ICON_WIDTH, 1, 2*WIND1_ICON_SPACING + 2*WIND1_ICON_WIDTH - 1, MENUBAR_HEIGHT - 2);	/* CH2 vertical scale */
 8005b3c:	f8cd 8008 	str.w	r8, [sp, #8]
 8005b40:	f04f 0a77 	mov.w	sl, #119	; 0x77
 8005b44:	f8cd a004 	str.w	sl, [sp, #4]
 8005b48:	9400      	str	r4, [sp, #0]
 8005b4a:	2346      	movs	r3, #70	; 0x46
 8005b4c:	4622      	mov	r2, r4
 8005b4e:	49ba      	ldr	r1, [pc, #744]	; (8005e38 <initUI+0x3b4>)
 8005b50:	4630      	mov	r0, r6
 8005b52:	f7ff fde5 	bl	8005720 <UG_TextboxCreate>
	UG_TextboxSetFont(&window_1, TXB_ID_1, &FONT_6X8);
 8005b56:	463a      	mov	r2, r7
 8005b58:	4621      	mov	r1, r4
 8005b5a:	4630      	mov	r0, r6
 8005b5c:	f7ff fe48 	bl	80057f0 <UG_TextboxSetFont>
	UG_TextboxSetBackColor(&window_1, TXB_ID_1, CH2_COLOR);
 8005b60:	f240 72ff 	movw	r2, #2047	; 0x7ff
 8005b64:	4621      	mov	r1, r4
 8005b66:	4630      	mov	r0, r6
 8005b68:	f7ff fe1e 	bl	80057a8 <UG_TextboxSetBackColor>
	UG_TextboxSetText(&window_1, TXB_ID_1, "1V");
 8005b6c:	464a      	mov	r2, r9
 8005b6e:	4621      	mov	r1, r4
 8005b70:	4630      	mov	r0, r6
 8005b72:	f7ff fe2b 	bl	80057cc <UG_TextboxSetText>
	UG_TextboxCreate(&window_1, &txtb1_2, TXB_ID_2, 3*WIND1_ICON_SPACING + 2*WIND1_ICON_WIDTH, 1, 3*WIND1_ICON_SPACING + 3*WIND1_ICON_WIDTH - 1, MENUBAR_HEIGHT - 2);	/* Time scale */
 8005b76:	f8cd 8008 	str.w	r8, [sp, #8]
 8005b7a:	f04f 09b3 	mov.w	r9, #179	; 0xb3
 8005b7e:	f8cd 9004 	str.w	r9, [sp, #4]
 8005b82:	9400      	str	r4, [sp, #0]
 8005b84:	2382      	movs	r3, #130	; 0x82
 8005b86:	2202      	movs	r2, #2
 8005b88:	49ac      	ldr	r1, [pc, #688]	; (8005e3c <initUI+0x3b8>)
 8005b8a:	4630      	mov	r0, r6
 8005b8c:	f7ff fdc8 	bl	8005720 <UG_TextboxCreate>
	UG_TextboxSetFont(&window_1, TXB_ID_2, &FONT_6X8);
 8005b90:	463a      	mov	r2, r7
 8005b92:	2102      	movs	r1, #2
 8005b94:	4630      	mov	r0, r6
 8005b96:	f7ff fe2b 	bl	80057f0 <UG_TextboxSetFont>
	UG_TextboxSetBackColor(&window_1, TXB_ID_2, TBASE_ICON_COLOR);
 8005b9a:	f64f 72e0 	movw	r2, #65504	; 0xffe0
 8005b9e:	2102      	movs	r1, #2
 8005ba0:	4630      	mov	r0, r6
 8005ba2:	f7ff fe01 	bl	80057a8 <UG_TextboxSetBackColor>
	UG_TextboxSetText(&window_1, TXB_ID_2, "1ms");
 8005ba6:	4aa6      	ldr	r2, [pc, #664]	; (8005e40 <initUI+0x3bc>)
 8005ba8:	2102      	movs	r1, #2
 8005baa:	4630      	mov	r0, r6
 8005bac:	f7ff fe0e 	bl	80057cc <UG_TextboxSetText>
	UG_TextboxCreate(&window_1, &txtb1_3, TXB_ID_3, 4*WIND1_ICON_SPACING + 3*WIND1_ICON_WIDTH, 1, 4*WIND1_ICON_SPACING + 4*WIND1_ICON_WIDTH + WIND1_ICON_SPACING/2 - 1, MENUBAR_HEIGHT - 2);	/* Trigger type */
 8005bb0:	f8cd 8008 	str.w	r8, [sp, #8]
 8005bb4:	23f4      	movs	r3, #244	; 0xf4
 8005bb6:	9301      	str	r3, [sp, #4]
 8005bb8:	9400      	str	r4, [sp, #0]
 8005bba:	23be      	movs	r3, #190	; 0xbe
 8005bbc:	2203      	movs	r2, #3
 8005bbe:	49a1      	ldr	r1, [pc, #644]	; (8005e44 <initUI+0x3c0>)
 8005bc0:	4630      	mov	r0, r6
 8005bc2:	f7ff fdad 	bl	8005720 <UG_TextboxCreate>
	UG_TextboxSetFont(&window_1, TXB_ID_3, &FONT_6X8);
 8005bc6:	463a      	mov	r2, r7
 8005bc8:	2103      	movs	r1, #3
 8005bca:	4630      	mov	r0, r6
 8005bcc:	f7ff fe10 	bl	80057f0 <UG_TextboxSetFont>
	UG_TextboxSetBackColor(&window_1, TXB_ID_3, CH1_COLOR);
 8005bd0:	f44f 62fc 	mov.w	r2, #2016	; 0x7e0
 8005bd4:	2103      	movs	r1, #3
 8005bd6:	4630      	mov	r0, r6
 8005bd8:	f7ff fde6 	bl	80057a8 <UG_TextboxSetBackColor>
	UG_TextboxSetText(&window_1, TXB_ID_3, "Trg:R");
 8005bdc:	4a9a      	ldr	r2, [pc, #616]	; (8005e48 <initUI+0x3c4>)
 8005bde:	2103      	movs	r1, #3
 8005be0:	4630      	mov	r0, r6
 8005be2:	f7ff fdf3 	bl	80057cc <UG_TextboxSetText>
	UG_TextboxCreate(&window_1, &txtb1_4, TXB_ID_4, 5*WIND1_ICON_SPACING + 4*WIND1_ICON_WIDTH - WIND1_ICON_SPACING/2, 1, 5*WIND1_ICON_SPACING + 5*WIND1_ICON_WIDTH - 1, MENUBAR_HEIGHT - 2);	/* Trigger level */
 8005be6:	f8cd 8008 	str.w	r8, [sp, #8]
 8005bea:	f240 132b 	movw	r3, #299	; 0x12b
 8005bee:	9301      	str	r3, [sp, #4]
 8005bf0:	9400      	str	r4, [sp, #0]
 8005bf2:	23f5      	movs	r3, #245	; 0xf5
 8005bf4:	2204      	movs	r2, #4
 8005bf6:	4995      	ldr	r1, [pc, #596]	; (8005e4c <initUI+0x3c8>)
 8005bf8:	4630      	mov	r0, r6
 8005bfa:	f7ff fd91 	bl	8005720 <UG_TextboxCreate>
	UG_TextboxSetFont(&window_1, TXB_ID_4, &FONT_6X8);
 8005bfe:	463a      	mov	r2, r7
 8005c00:	2104      	movs	r1, #4
 8005c02:	4630      	mov	r0, r6
 8005c04:	f7ff fdf4 	bl	80057f0 <UG_TextboxSetFont>
	UG_TextboxSetBackColor(&window_1, TXB_ID_4, CH1_COLOR);
 8005c08:	f44f 62fc 	mov.w	r2, #2016	; 0x7e0
 8005c0c:	2104      	movs	r1, #4
 8005c0e:	4630      	mov	r0, r6
 8005c10:	f7ff fdca 	bl	80057a8 <UG_TextboxSetBackColor>
	UG_TextboxSetText(&window_1, TXB_ID_4, "1.63V");
 8005c14:	4a8e      	ldr	r2, [pc, #568]	; (8005e50 <initUI+0x3cc>)
 8005c16:	2104      	movs	r1, #4
 8005c18:	4630      	mov	r0, r6
 8005c1a:	f7ff fdd7 	bl	80057cc <UG_TextboxSetText>
	UG_TextboxCreate(&window_1, &txtb1_5, TXB_ID_5, 6*WIND1_ICON_SPACING + 5*WIND1_ICON_WIDTH, 1, 6*WIND1_ICON_SPACING + 6*WIND1_ICON_WIDTH - 1, MENUBAR_HEIGHT - 2);	/* Trigger Mode */
 8005c1e:	f8cd 8008 	str.w	r8, [sp, #8]
 8005c22:	f240 1367 	movw	r3, #359	; 0x167
 8005c26:	9301      	str	r3, [sp, #4]
 8005c28:	9400      	str	r4, [sp, #0]
 8005c2a:	f44f 739b 	mov.w	r3, #310	; 0x136
 8005c2e:	2205      	movs	r2, #5
 8005c30:	4988      	ldr	r1, [pc, #544]	; (8005e54 <initUI+0x3d0>)
 8005c32:	4630      	mov	r0, r6
 8005c34:	f7ff fd74 	bl	8005720 <UG_TextboxCreate>
	UG_TextboxSetFont(&window_1, TXB_ID_5, &FONT_6X8);
 8005c38:	463a      	mov	r2, r7
 8005c3a:	2105      	movs	r1, #5
 8005c3c:	4630      	mov	r0, r6
 8005c3e:	f7ff fdd7 	bl	80057f0 <UG_TextboxSetFont>
	UG_TextboxSetBackColor(&window_1, TXB_ID_5, MODE_ICON_COLOR);
 8005c42:	f64b 22ba 	movw	r2, #47802	; 0xbaba
 8005c46:	2105      	movs	r1, #5
 8005c48:	4630      	mov	r0, r6
 8005c4a:	f7ff fdad 	bl	80057a8 <UG_TextboxSetBackColor>
	UG_TextboxSetText(&window_1, TXB_ID_5, "AUTO");
 8005c4e:	4a82      	ldr	r2, [pc, #520]	; (8005e58 <initUI+0x3d4>)
 8005c50:	2105      	movs	r1, #5
 8005c52:	4630      	mov	r0, r6
 8005c54:	f7ff fdba 	bl	80057cc <UG_TextboxSetText>
	UG_TextboxCreate(&window_1, &txtb1_6, TXB_ID_6, 7*WIND1_ICON_SPACING + 6*WIND1_ICON_WIDTH, 1, 7*WIND1_ICON_SPACING + 7*WIND1_ICON_WIDTH - 1, MENUBAR_HEIGHT - 2);	/* Run/Stop icon */
 8005c58:	f8cd 8008 	str.w	r8, [sp, #8]
 8005c5c:	f240 13a3 	movw	r3, #419	; 0x1a3
 8005c60:	9301      	str	r3, [sp, #4]
 8005c62:	9400      	str	r4, [sp, #0]
 8005c64:	f44f 73b9 	mov.w	r3, #370	; 0x172
 8005c68:	2206      	movs	r2, #6
 8005c6a:	497c      	ldr	r1, [pc, #496]	; (8005e5c <initUI+0x3d8>)
 8005c6c:	4630      	mov	r0, r6
 8005c6e:	f7ff fd57 	bl	8005720 <UG_TextboxCreate>
	UG_TextboxSetFont(&window_1, TXB_ID_6, &FONT_6X8);
 8005c72:	463a      	mov	r2, r7
 8005c74:	2106      	movs	r1, #6
 8005c76:	4630      	mov	r0, r6
 8005c78:	f7ff fdba 	bl	80057f0 <UG_TextboxSetFont>
	UG_TextboxSetBackColor(&window_1, TXB_ID_6, RUNSTOP_ICON_COLOR_RUN);
 8005c7c:	f649 6266 	movw	r2, #40550	; 0x9e66
 8005c80:	2106      	movs	r1, #6
 8005c82:	4630      	mov	r0, r6
 8005c84:	f7ff fd90 	bl	80057a8 <UG_TextboxSetBackColor>
	UG_TextboxSetText(&window_1, TXB_ID_6, "RUN");
 8005c88:	4a75      	ldr	r2, [pc, #468]	; (8005e60 <initUI+0x3dc>)
 8005c8a:	2106      	movs	r1, #6
 8005c8c:	4630      	mov	r0, r6
 8005c8e:	f7ff fd9d 	bl	80057cc <UG_TextboxSetText>
	UG_WindowCreate(&window_2, obj_buff_wnd_2, UGUI_MAX_OBJECTS, window_2_callback);
 8005c92:	4e74      	ldr	r6, [pc, #464]	; (8005e64 <initUI+0x3e0>)
 8005c94:	4b74      	ldr	r3, [pc, #464]	; (8005e68 <initUI+0x3e4>)
 8005c96:	220a      	movs	r2, #10
 8005c98:	4974      	ldr	r1, [pc, #464]	; (8005e6c <initUI+0x3e8>)
 8005c9a:	4630      	mov	r0, r6
 8005c9c:	f7ff f870 	bl	8004d80 <UG_WindowCreate>
	UG_WindowSetStyle(&window_2, WND_STYLE_2D | WND_STYLE_HIDE_TITLE);
 8005ca0:	4629      	mov	r1, r5
 8005ca2:	4630      	mov	r0, r6
 8005ca4:	f7ff f983 	bl	8004fae <UG_WindowSetStyle>
	UG_WindowResize(&window_2, 0, LCD_HEIGHT - MENUBAR_HEIGHT, LCD_WIDTH - 1, LCD_HEIGHT - 1);
 8005ca8:	f240 130f 	movw	r3, #271	; 0x10f
 8005cac:	9300      	str	r3, [sp, #0]
 8005cae:	f240 13df 	movw	r3, #479	; 0x1df
 8005cb2:	f240 1201 	movw	r2, #257	; 0x101
 8005cb6:	4629      	mov	r1, r5
 8005cb8:	4630      	mov	r0, r6
 8005cba:	f7ff f8c9 	bl	8004e50 <UG_WindowResize>
	UG_WindowSetBackColor(&window_2, C_KHAKI);
 8005cbe:	f64e 7131 	movw	r1, #61233	; 0xef31
 8005cc2:	4630      	mov	r0, r6
 8005cc4:	f7ff f962 	bl	8004f8c <UG_WindowSetBackColor>
	UG_TextboxCreate(&window_2, &txtb2_0, TXB_ID_0, WIND1_ICON_SPACING, 1, WIND1_ICON_SPACING + WIND1_ICON_WIDTH - 1, MENUBAR_HEIGHT - 2);	/* CH1 vertical offset */
 8005cc8:	f8cd 8008 	str.w	r8, [sp, #8]
 8005ccc:	f8cd b004 	str.w	fp, [sp, #4]
 8005cd0:	9400      	str	r4, [sp, #0]
 8005cd2:	230a      	movs	r3, #10
 8005cd4:	462a      	mov	r2, r5
 8005cd6:	4966      	ldr	r1, [pc, #408]	; (8005e70 <initUI+0x3ec>)
 8005cd8:	4630      	mov	r0, r6
 8005cda:	f7ff fd21 	bl	8005720 <UG_TextboxCreate>
	UG_TextboxSetFont(&window_2, TXB_ID_0, &FONT_6X8);
 8005cde:	463a      	mov	r2, r7
 8005ce0:	4629      	mov	r1, r5
 8005ce2:	4630      	mov	r0, r6
 8005ce4:	f7ff fd84 	bl	80057f0 <UG_TextboxSetFont>
	UG_TextboxSetBackColor(&window_2, TXB_ID_0, CH1_COLOR);
 8005ce8:	f44f 62fc 	mov.w	r2, #2016	; 0x7e0
 8005cec:	4629      	mov	r1, r5
 8005cee:	4630      	mov	r0, r6
 8005cf0:	f7ff fd5a 	bl	80057a8 <UG_TextboxSetBackColor>
	UG_TextboxSetText(&window_2, TXB_ID_0, "0V");
 8005cf4:	f8df b198 	ldr.w	fp, [pc, #408]	; 8005e90 <initUI+0x40c>
 8005cf8:	465a      	mov	r2, fp
 8005cfa:	4629      	mov	r1, r5
 8005cfc:	4630      	mov	r0, r6
 8005cfe:	f7ff fd65 	bl	80057cc <UG_TextboxSetText>
	UG_TextboxCreate(&window_2, &txtb2_1, TXB_ID_1, 2*WIND1_ICON_SPACING + WIND1_ICON_WIDTH, 1, 2*WIND1_ICON_SPACING + 2*WIND1_ICON_WIDTH - 1, MENUBAR_HEIGHT - 2);	/* CH2 vertical offset */
 8005d02:	f8cd 8008 	str.w	r8, [sp, #8]
 8005d06:	f8cd a004 	str.w	sl, [sp, #4]
 8005d0a:	9400      	str	r4, [sp, #0]
 8005d0c:	2346      	movs	r3, #70	; 0x46
 8005d0e:	4622      	mov	r2, r4
 8005d10:	4958      	ldr	r1, [pc, #352]	; (8005e74 <initUI+0x3f0>)
 8005d12:	4630      	mov	r0, r6
 8005d14:	f7ff fd04 	bl	8005720 <UG_TextboxCreate>
	UG_TextboxSetFont(&window_2, TXB_ID_1, &FONT_6X8);
 8005d18:	463a      	mov	r2, r7
 8005d1a:	4621      	mov	r1, r4
 8005d1c:	4630      	mov	r0, r6
 8005d1e:	f7ff fd67 	bl	80057f0 <UG_TextboxSetFont>
	UG_TextboxSetBackColor(&window_2, TXB_ID_1, CH2_COLOR);
 8005d22:	f240 72ff 	movw	r2, #2047	; 0x7ff
 8005d26:	4621      	mov	r1, r4
 8005d28:	4630      	mov	r0, r6
 8005d2a:	f7ff fd3d 	bl	80057a8 <UG_TextboxSetBackColor>
	UG_TextboxSetText(&window_2, TXB_ID_1, "0V");
 8005d2e:	465a      	mov	r2, fp
 8005d30:	4621      	mov	r1, r4
 8005d32:	4630      	mov	r0, r6
 8005d34:	f7ff fd4a 	bl	80057cc <UG_TextboxSetText>
	UG_TextboxCreate(&window_2, &txtb2_2, TXB_ID_2, 3*WIND1_ICON_SPACING + 2*WIND1_ICON_WIDTH, 1, 3*WIND1_ICON_SPACING + 3*WIND1_ICON_WIDTH - 1, MENUBAR_HEIGHT - 2);	/* Horizontal offset */
 8005d38:	f8cd 8008 	str.w	r8, [sp, #8]
 8005d3c:	f8cd 9004 	str.w	r9, [sp, #4]
 8005d40:	9400      	str	r4, [sp, #0]
 8005d42:	2382      	movs	r3, #130	; 0x82
 8005d44:	2202      	movs	r2, #2
 8005d46:	494c      	ldr	r1, [pc, #304]	; (8005e78 <initUI+0x3f4>)
 8005d48:	4630      	mov	r0, r6
 8005d4a:	f7ff fce9 	bl	8005720 <UG_TextboxCreate>
	UG_TextboxSetFont(&window_2, TXB_ID_2, &FONT_6X8);
 8005d4e:	463a      	mov	r2, r7
 8005d50:	2102      	movs	r1, #2
 8005d52:	4630      	mov	r0, r6
 8005d54:	f7ff fd4c 	bl	80057f0 <UG_TextboxSetFont>
	UG_TextboxSetBackColor(&window_2, TXB_ID_2, TOFFSET_ICON_COLOR);
 8005d58:	f64f 72e0 	movw	r2, #65504	; 0xffe0
 8005d5c:	2102      	movs	r1, #2
 8005d5e:	4630      	mov	r0, r6
 8005d60:	f7ff fd22 	bl	80057a8 <UG_TextboxSetBackColor>
	UG_TextboxSetText(&window_2, TXB_ID_2, "0us");
 8005d64:	4a45      	ldr	r2, [pc, #276]	; (8005e7c <initUI+0x3f8>)
 8005d66:	2102      	movs	r1, #2
 8005d68:	4630      	mov	r0, r6
 8005d6a:	f7ff fd2f 	bl	80057cc <UG_TextboxSetText>
	UG_TextboxCreate(&window_2, &txtb2_3, TXB_ID_3, 4*WIND1_ICON_SPACING + 3*WIND1_ICON_WIDTH, 1, 4*WIND1_ICON_SPACING + 3*WIND1_ICON_WIDTH + MEASURE_ICON_WIDTH - 1, MENUBAR_HEIGHT - 2);	/* Measurement 1 */
 8005d6e:	f8cd 8008 	str.w	r8, [sp, #8]
 8005d72:	23fe      	movs	r3, #254	; 0xfe
 8005d74:	9301      	str	r3, [sp, #4]
 8005d76:	9400      	str	r4, [sp, #0]
 8005d78:	23be      	movs	r3, #190	; 0xbe
 8005d7a:	2203      	movs	r2, #3
 8005d7c:	4940      	ldr	r1, [pc, #256]	; (8005e80 <initUI+0x3fc>)
 8005d7e:	4630      	mov	r0, r6
 8005d80:	f7ff fcce 	bl	8005720 <UG_TextboxCreate>
	UG_TextboxSetFont(&window_2, TXB_ID_3, &FONT_6X8);
 8005d84:	463a      	mov	r2, r7
 8005d86:	2103      	movs	r1, #3
 8005d88:	4630      	mov	r0, r6
 8005d8a:	f7ff fd31 	bl	80057f0 <UG_TextboxSetFont>
	UG_TextboxSetBackColor(&window_2, TXB_ID_3, INACTIVE_ICON_COLOR);
 8005d8e:	f247 4212 	movw	r2, #29714	; 0x7412
 8005d92:	2103      	movs	r1, #3
 8005d94:	4630      	mov	r0, r6
 8005d96:	f7ff fd07 	bl	80057a8 <UG_TextboxSetBackColor>
	UG_TextboxSetText(&window_2, TXB_ID_3, "--");
 8005d9a:	f8df 90f8 	ldr.w	r9, [pc, #248]	; 8005e94 <initUI+0x410>
 8005d9e:	464a      	mov	r2, r9
 8005da0:	2103      	movs	r1, #3
 8005da2:	4630      	mov	r0, r6
 8005da4:	f7ff fd12 	bl	80057cc <UG_TextboxSetText>
	UG_TextboxCreate(&window_2, &txtb2_4, TXB_ID_4, 5*WIND1_ICON_SPACING + 3*WIND1_ICON_WIDTH + MEASURE_ICON_WIDTH, 1, 5*WIND1_ICON_SPACING + 3*WIND1_ICON_WIDTH + 2*MEASURE_ICON_WIDTH - 1, MENUBAR_HEIGHT - 2);	/* Measurement 2 */
 8005da8:	f8cd 8008 	str.w	r8, [sp, #8]
 8005dac:	f240 1349 	movw	r3, #329	; 0x149
 8005db0:	9301      	str	r3, [sp, #4]
 8005db2:	9400      	str	r4, [sp, #0]
 8005db4:	f240 1309 	movw	r3, #265	; 0x109
 8005db8:	2204      	movs	r2, #4
 8005dba:	4932      	ldr	r1, [pc, #200]	; (8005e84 <initUI+0x400>)
 8005dbc:	4630      	mov	r0, r6
 8005dbe:	f7ff fcaf 	bl	8005720 <UG_TextboxCreate>
	UG_TextboxSetFont(&window_2, TXB_ID_4, &FONT_6X8);
 8005dc2:	463a      	mov	r2, r7
 8005dc4:	2104      	movs	r1, #4
 8005dc6:	4630      	mov	r0, r6
 8005dc8:	f7ff fd12 	bl	80057f0 <UG_TextboxSetFont>
	UG_TextboxSetBackColor(&window_2, TXB_ID_4, INACTIVE_ICON_COLOR);
 8005dcc:	f247 4212 	movw	r2, #29714	; 0x7412
 8005dd0:	2104      	movs	r1, #4
 8005dd2:	4630      	mov	r0, r6
 8005dd4:	f7ff fce8 	bl	80057a8 <UG_TextboxSetBackColor>
	UG_TextboxSetText(&window_2, TXB_ID_4, "--");
 8005dd8:	464a      	mov	r2, r9
 8005dda:	2104      	movs	r1, #4
 8005ddc:	4630      	mov	r0, r6
 8005dde:	f7ff fcf5 	bl	80057cc <UG_TextboxSetText>
	UG_TextboxCreate(&window_2, &txtb2_5, TXB_ID_5, 6*WIND1_ICON_SPACING + 3*WIND1_ICON_WIDTH + 2*MEASURE_ICON_WIDTH, 1, 6*WIND1_ICON_SPACING + 3*WIND1_ICON_WIDTH + 3*MEASURE_ICON_WIDTH - 1, MENUBAR_HEIGHT - 2);	/* Measurement 3 */
 8005de2:	f8cd 8008 	str.w	r8, [sp, #8]
 8005de6:	f44f 73ca 	mov.w	r3, #404	; 0x194
 8005dea:	9301      	str	r3, [sp, #4]
 8005dec:	9400      	str	r4, [sp, #0]
 8005dee:	f44f 73aa 	mov.w	r3, #340	; 0x154
 8005df2:	2205      	movs	r2, #5
 8005df4:	4924      	ldr	r1, [pc, #144]	; (8005e88 <initUI+0x404>)
 8005df6:	4630      	mov	r0, r6
 8005df8:	f7ff fc92 	bl	8005720 <UG_TextboxCreate>
	UG_TextboxSetFont(&window_2, TXB_ID_5, &FONT_6X8);
 8005dfc:	463a      	mov	r2, r7
 8005dfe:	2105      	movs	r1, #5
 8005e00:	4630      	mov	r0, r6
 8005e02:	f7ff fcf5 	bl	80057f0 <UG_TextboxSetFont>
	UG_TextboxSetBackColor(&window_2, TXB_ID_5, INACTIVE_ICON_COLOR);
 8005e06:	f247 4212 	movw	r2, #29714	; 0x7412
 8005e0a:	2105      	movs	r1, #5
 8005e0c:	4630      	mov	r0, r6
 8005e0e:	f7ff fccb 	bl	80057a8 <UG_TextboxSetBackColor>
	UG_TextboxSetText(&window_2, TXB_ID_5, "--");
 8005e12:	464a      	mov	r2, r9
 8005e14:	2105      	movs	r1, #5
 8005e16:	4630      	mov	r0, r6
 8005e18:	e03e      	b.n	8005e98 <initUI+0x414>
 8005e1a:	bf00      	nop
 8005e1c:	20003750 	.word	0x20003750
 8005e20:	08006719 	.word	0x08006719
 8005e24:	20003418 	.word	0x20003418
 8005e28:	20003850 	.word	0x20003850
 8005e2c:	0800df18 	.word	0x0800df18
 8005e30:	080100c8 	.word	0x080100c8
 8005e34:	200037ac 	.word	0x200037ac
 8005e38:	20003a14 	.word	0x20003a14
 8005e3c:	200033c4 	.word	0x200033c4
 8005e40:	080100d4 	.word	0x080100d4
 8005e44:	20003980 	.word	0x20003980
 8005e48:	080100d8 	.word	0x080100d8
 8005e4c:	20003944 	.word	0x20003944
 8005e50:	080100e0 	.word	0x080100e0
 8005e54:	2000383c 	.word	0x2000383c
 8005e58:	080100e8 	.word	0x080100e8
 8005e5c:	20003868 	.word	0x20003868
 8005e60:	080100f0 	.word	0x080100f0
 8005e64:	2000371c 	.word	0x2000371c
 8005e68:	080058c1 	.word	0x080058c1
 8005e6c:	20003168 	.word	0x20003168
 8005e70:	20003404 	.word	0x20003404
 8005e74:	2000396c 	.word	0x2000396c
 8005e78:	20003798 	.word	0x20003798
 8005e7c:	080100f8 	.word	0x080100f8
 8005e80:	200035c8 	.word	0x200035c8
 8005e84:	20003154 	.word	0x20003154
 8005e88:	200033f0 	.word	0x200033f0
 8005e8c:	080100d0 	.word	0x080100d0
 8005e90:	080100f4 	.word	0x080100f4
 8005e94:	080100fc 	.word	0x080100fc
 8005e98:	f7ff fc98 	bl	80057cc <UG_TextboxSetText>
	UG_TextboxCreate(&window_2, &txtb2_6, TXB_ID_6, 7*WIND1_ICON_SPACING + 3*WIND1_ICON_WIDTH + 3*MEASURE_ICON_WIDTH - 1, 1, 7*WIND1_ICON_SPACING + 3*WIND1_ICON_WIDTH + 4*MEASURE_ICON_WIDTH - 2, MENUBAR_HEIGHT - 2);	/* Measurement 4 */
 8005e9c:	f8cd 8008 	str.w	r8, [sp, #8]
 8005ea0:	f44f 73ef 	mov.w	r3, #478	; 0x1de
 8005ea4:	9301      	str	r3, [sp, #4]
 8005ea6:	9400      	str	r4, [sp, #0]
 8005ea8:	f44f 73cf 	mov.w	r3, #414	; 0x19e
 8005eac:	2206      	movs	r2, #6
 8005eae:	49e2      	ldr	r1, [pc, #904]	; (8006238 <initUI+0x7b4>)
 8005eb0:	4630      	mov	r0, r6
 8005eb2:	f7ff fc35 	bl	8005720 <UG_TextboxCreate>
	UG_TextboxSetFont(&window_2, TXB_ID_6, &FONT_6X8);
 8005eb6:	463a      	mov	r2, r7
 8005eb8:	2106      	movs	r1, #6
 8005eba:	4630      	mov	r0, r6
 8005ebc:	f7ff fc98 	bl	80057f0 <UG_TextboxSetFont>
	UG_TextboxSetBackColor(&window_2, TXB_ID_6, INACTIVE_ICON_COLOR);
 8005ec0:	f247 4212 	movw	r2, #29714	; 0x7412
 8005ec4:	2106      	movs	r1, #6
 8005ec6:	4630      	mov	r0, r6
 8005ec8:	f7ff fc6e 	bl	80057a8 <UG_TextboxSetBackColor>
	UG_TextboxSetText(&window_2, TXB_ID_6, "--");
 8005ecc:	464a      	mov	r2, r9
 8005ece:	2106      	movs	r1, #6
 8005ed0:	4630      	mov	r0, r6
 8005ed2:	f7ff fc7b 	bl	80057cc <UG_TextboxSetText>
	drawGrid();
 8005ed6:	f7ff fdcf 	bl	8005a78 <drawGrid>
	UG_WindowCreate(&window_3, obj_buff_wnd_3, UGUI_MAX_OBJECTS, window_3_callback);
 8005eda:	4ed8      	ldr	r6, [pc, #864]	; (800623c <initUI+0x7b8>)
 8005edc:	4bd8      	ldr	r3, [pc, #864]	; (8006240 <initUI+0x7bc>)
 8005ede:	220a      	movs	r2, #10
 8005ee0:	49d8      	ldr	r1, [pc, #864]	; (8006244 <initUI+0x7c0>)
 8005ee2:	4630      	mov	r0, r6
 8005ee4:	f7fe ff4c 	bl	8004d80 <UG_WindowCreate>
	UG_WindowSetStyle(&window_3, WND_STYLE_3D | WND_STYLE_HIDE_TITLE);
 8005ee8:	4621      	mov	r1, r4
 8005eea:	4630      	mov	r0, r6
 8005eec:	f7ff f85f 	bl	8004fae <UG_WindowSetStyle>
	UG_WindowResize(&window_3, LCD_WIDTH - WIND3_WIDTH, MENUBAR_HEIGHT + 10, LCD_WIDTH - 1, LCD_HEIGHT - MENUBAR_HEIGHT - 11);
 8005ef0:	f04f 0bf6 	mov.w	fp, #246	; 0xf6
 8005ef4:	f8cd b000 	str.w	fp, [sp]
 8005ef8:	f240 13df 	movw	r3, #479	; 0x1df
 8005efc:	2219      	movs	r2, #25
 8005efe:	f44f 71c8 	mov.w	r1, #400	; 0x190
 8005f02:	4630      	mov	r0, r6
 8005f04:	f7fe ffa4 	bl	8004e50 <UG_WindowResize>
	UG_WindowSetBackColor(&window_3, C_WHITE);
 8005f08:	f64f 71ff 	movw	r1, #65535	; 0xffff
 8005f0c:	4630      	mov	r0, r6
 8005f0e:	f7ff f83d 	bl	8004f8c <UG_WindowSetBackColor>
	UG_TextboxCreate(&window_3, &txtb3_0, TXB_ID_0, 1, 1, WIND3_WIDTH - 8, MENUBAR_HEIGHT);		/* Menu heading */
 8005f12:	230f      	movs	r3, #15
 8005f14:	9302      	str	r3, [sp, #8]
 8005f16:	2348      	movs	r3, #72	; 0x48
 8005f18:	9301      	str	r3, [sp, #4]
 8005f1a:	9400      	str	r4, [sp, #0]
 8005f1c:	4623      	mov	r3, r4
 8005f1e:	462a      	mov	r2, r5
 8005f20:	49c9      	ldr	r1, [pc, #804]	; (8006248 <initUI+0x7c4>)
 8005f22:	4630      	mov	r0, r6
 8005f24:	f7ff fbfc 	bl	8005720 <UG_TextboxCreate>
	UG_TextboxSetFont(&window_3, TXB_ID_0, &FONT_8X12);
 8005f28:	4ac8      	ldr	r2, [pc, #800]	; (800624c <initUI+0x7c8>)
 8005f2a:	4629      	mov	r1, r5
 8005f2c:	4630      	mov	r0, r6
 8005f2e:	f7ff fc5f 	bl	80057f0 <UG_TextboxSetFont>
	UG_TextboxSetBackColor(&window_3, TXB_ID_0, C_MEDIUM_VIOLET_RED);
 8005f32:	f24c 02b0 	movw	r2, #49328	; 0xc0b0
 8005f36:	4629      	mov	r1, r5
 8005f38:	4630      	mov	r0, r6
 8005f3a:	f7ff fc35 	bl	80057a8 <UG_TextboxSetBackColor>
	UG_TextboxSetText(&window_3, TXB_ID_0, "MEASURE");
 8005f3e:	4ac4      	ldr	r2, [pc, #784]	; (8006250 <initUI+0x7cc>)
 8005f40:	4629      	mov	r1, r5
 8005f42:	4630      	mov	r0, r6
 8005f44:	f7ff fc42 	bl	80057cc <UG_TextboxSetText>
	UG_ButtonCreate(&window_3, &button3_0, BTN_ID_0, 6, MENUBAR_HEIGHT + WIND3_BTN_SPACING + 1, WIND3_WIDTH - 13, MENUBAR_HEIGHT + WIND3_BTN_SPACING + WIND3_BTN_HEIGHT);	/* Measure 1 */
 8005f48:	2337      	movs	r3, #55	; 0x37
 8005f4a:	9302      	str	r3, [sp, #8]
 8005f4c:	f04f 0843 	mov.w	r8, #67	; 0x43
 8005f50:	f8cd 8004 	str.w	r8, [sp, #4]
 8005f54:	f04f 0a1a 	mov.w	sl, #26
 8005f58:	f8cd a000 	str.w	sl, [sp]
 8005f5c:	2306      	movs	r3, #6
 8005f5e:	462a      	mov	r2, r5
 8005f60:	49bc      	ldr	r1, [pc, #752]	; (8006254 <initUI+0x7d0>)
 8005f62:	4630      	mov	r0, r6
 8005f64:	f7ff fb5a 	bl	800561c <UG_ButtonCreate>
	UG_ButtonSetFont(&window_3, BTN_ID_0, &FONT_6X8);
 8005f68:	463a      	mov	r2, r7
 8005f6a:	4629      	mov	r1, r5
 8005f6c:	4630      	mov	r0, r6
 8005f6e:	f7ff fbc5 	bl	80056fc <UG_ButtonSetFont>
	UG_ButtonSetBackColor(&window_3, BTN_ID_0, INACTIVE_ICON_COLOR);
 8005f72:	f247 4212 	movw	r2, #29714	; 0x7412
 8005f76:	4629      	mov	r1, r5
 8005f78:	4630      	mov	r0, r6
 8005f7a:	f7ff fb9b 	bl	80056b4 <UG_ButtonSetBackColor>
	UG_ButtonSetText(&window_3, BTN_ID_0, "None");
 8005f7e:	f8df 9334 	ldr.w	r9, [pc, #820]	; 80062b4 <initUI+0x830>
 8005f82:	464a      	mov	r2, r9
 8005f84:	4629      	mov	r1, r5
 8005f86:	4630      	mov	r0, r6
 8005f88:	f7ff fba6 	bl	80056d8 <UG_ButtonSetText>
	UG_ButtonCreate(&window_3, &button3_1, BTN_ID_1, 6, MENUBAR_HEIGHT + 2*WIND3_BTN_SPACING + WIND3_BTN_HEIGHT + 1, WIND3_WIDTH - 13, MENUBAR_HEIGHT + 2*WIND3_BTN_SPACING + 2*WIND3_BTN_HEIGHT);	/* Measure 2 */
 8005f8c:	235f      	movs	r3, #95	; 0x5f
 8005f8e:	9302      	str	r3, [sp, #8]
 8005f90:	f8cd 8004 	str.w	r8, [sp, #4]
 8005f94:	2342      	movs	r3, #66	; 0x42
 8005f96:	9300      	str	r3, [sp, #0]
 8005f98:	2306      	movs	r3, #6
 8005f9a:	4622      	mov	r2, r4
 8005f9c:	49ae      	ldr	r1, [pc, #696]	; (8006258 <initUI+0x7d4>)
 8005f9e:	4630      	mov	r0, r6
 8005fa0:	f7ff fb3c 	bl	800561c <UG_ButtonCreate>
	UG_ButtonSetFont(&window_3, BTN_ID_1, &FONT_6X8);
 8005fa4:	463a      	mov	r2, r7
 8005fa6:	4621      	mov	r1, r4
 8005fa8:	4630      	mov	r0, r6
 8005faa:	f7ff fba7 	bl	80056fc <UG_ButtonSetFont>
	UG_ButtonSetBackColor(&window_3, BTN_ID_1, INACTIVE_ICON_COLOR);
 8005fae:	f247 4212 	movw	r2, #29714	; 0x7412
 8005fb2:	4621      	mov	r1, r4
 8005fb4:	4630      	mov	r0, r6
 8005fb6:	f7ff fb7d 	bl	80056b4 <UG_ButtonSetBackColor>
	UG_ButtonSetText(&window_3, BTN_ID_1, "None");
 8005fba:	464a      	mov	r2, r9
 8005fbc:	4621      	mov	r1, r4
 8005fbe:	4630      	mov	r0, r6
 8005fc0:	f7ff fb8a 	bl	80056d8 <UG_ButtonSetText>
	UG_ButtonCreate(&window_3, &button3_2, BTN_ID_2, 6, MENUBAR_HEIGHT + 3*WIND3_BTN_SPACING + 2*WIND3_BTN_HEIGHT + 1, WIND3_WIDTH - 13, MENUBAR_HEIGHT + 3*WIND3_BTN_SPACING + 3*WIND3_BTN_HEIGHT);	/* Measure 3 */
 8005fc4:	2387      	movs	r3, #135	; 0x87
 8005fc6:	9302      	str	r3, [sp, #8]
 8005fc8:	f8cd 8004 	str.w	r8, [sp, #4]
 8005fcc:	236a      	movs	r3, #106	; 0x6a
 8005fce:	9300      	str	r3, [sp, #0]
 8005fd0:	2306      	movs	r3, #6
 8005fd2:	2202      	movs	r2, #2
 8005fd4:	49a1      	ldr	r1, [pc, #644]	; (800625c <initUI+0x7d8>)
 8005fd6:	4630      	mov	r0, r6
 8005fd8:	f7ff fb20 	bl	800561c <UG_ButtonCreate>
	UG_ButtonSetFont(&window_3, BTN_ID_2, &FONT_6X8);
 8005fdc:	463a      	mov	r2, r7
 8005fde:	2102      	movs	r1, #2
 8005fe0:	4630      	mov	r0, r6
 8005fe2:	f7ff fb8b 	bl	80056fc <UG_ButtonSetFont>
	UG_ButtonSetBackColor(&window_3, BTN_ID_2, INACTIVE_ICON_COLOR);
 8005fe6:	f247 4212 	movw	r2, #29714	; 0x7412
 8005fea:	2102      	movs	r1, #2
 8005fec:	4630      	mov	r0, r6
 8005fee:	f7ff fb61 	bl	80056b4 <UG_ButtonSetBackColor>
	UG_ButtonSetText(&window_3, BTN_ID_2, "None");
 8005ff2:	464a      	mov	r2, r9
 8005ff4:	2102      	movs	r1, #2
 8005ff6:	4630      	mov	r0, r6
 8005ff8:	f7ff fb6e 	bl	80056d8 <UG_ButtonSetText>
	UG_ButtonCreate(&window_3, &button3_3, BTN_ID_3, 6, MENUBAR_HEIGHT + 4*WIND3_BTN_SPACING + 3*WIND3_BTN_HEIGHT + 1, WIND3_WIDTH - 13, MENUBAR_HEIGHT + 4*WIND3_BTN_SPACING + 4*WIND3_BTN_HEIGHT);	/* Measure 4 */
 8005ffc:	23af      	movs	r3, #175	; 0xaf
 8005ffe:	9302      	str	r3, [sp, #8]
 8006000:	f8cd 8004 	str.w	r8, [sp, #4]
 8006004:	2392      	movs	r3, #146	; 0x92
 8006006:	9300      	str	r3, [sp, #0]
 8006008:	2306      	movs	r3, #6
 800600a:	2203      	movs	r2, #3
 800600c:	4994      	ldr	r1, [pc, #592]	; (8006260 <initUI+0x7dc>)
 800600e:	4630      	mov	r0, r6
 8006010:	f7ff fb04 	bl	800561c <UG_ButtonCreate>
	UG_ButtonSetFont(&window_3, BTN_ID_3, &FONT_6X8);
 8006014:	463a      	mov	r2, r7
 8006016:	2103      	movs	r1, #3
 8006018:	4630      	mov	r0, r6
 800601a:	f7ff fb6f 	bl	80056fc <UG_ButtonSetFont>
	UG_ButtonSetBackColor(&window_3, BTN_ID_3, INACTIVE_ICON_COLOR);
 800601e:	f247 4212 	movw	r2, #29714	; 0x7412
 8006022:	2103      	movs	r1, #3
 8006024:	4630      	mov	r0, r6
 8006026:	f7ff fb45 	bl	80056b4 <UG_ButtonSetBackColor>
	UG_ButtonSetText(&window_3, BTN_ID_3, "None");
 800602a:	464a      	mov	r2, r9
 800602c:	2103      	movs	r1, #3
 800602e:	4630      	mov	r0, r6
 8006030:	f7ff fb52 	bl	80056d8 <UG_ButtonSetText>
	UG_ButtonCreate(&window_3, &button3_4, BTN_ID_4, 38, MENUBAR_HEIGHT + 5*WIND3_BTN_SPACING + 4*WIND3_BTN_HEIGHT + 1, WIND3_WIDTH - 13, MENUBAR_HEIGHT + 5*WIND3_BTN_SPACING + 4*WIND3_BTN_HEIGHT + 25);	/* Next menu */
 8006034:	23d2      	movs	r3, #210	; 0xd2
 8006036:	9302      	str	r3, [sp, #8]
 8006038:	f8cd 8004 	str.w	r8, [sp, #4]
 800603c:	f04f 09ba 	mov.w	r9, #186	; 0xba
 8006040:	f8cd 9000 	str.w	r9, [sp]
 8006044:	2326      	movs	r3, #38	; 0x26
 8006046:	2204      	movs	r2, #4
 8006048:	4986      	ldr	r1, [pc, #536]	; (8006264 <initUI+0x7e0>)
 800604a:	4630      	mov	r0, r6
 800604c:	f7ff fae6 	bl	800561c <UG_ButtonCreate>
	UG_ButtonSetFont(&window_3, BTN_ID_4, &FONT_6X8);
 8006050:	463a      	mov	r2, r7
 8006052:	2104      	movs	r1, #4
 8006054:	4630      	mov	r0, r6
 8006056:	f7ff fb51 	bl	80056fc <UG_ButtonSetFont>
	UG_ButtonSetBackColor(&window_3, BTN_ID_4, C_MEDIUM_VIOLET_RED);
 800605a:	f24c 02b0 	movw	r2, #49328	; 0xc0b0
 800605e:	2104      	movs	r1, #4
 8006060:	4630      	mov	r0, r6
 8006062:	f7ff fb27 	bl	80056b4 <UG_ButtonSetBackColor>
	UG_ButtonSetText(&window_3, BTN_ID_4, ">");
 8006066:	4a80      	ldr	r2, [pc, #512]	; (8006268 <initUI+0x7e4>)
 8006068:	2104      	movs	r1, #4
 800606a:	4630      	mov	r0, r6
 800606c:	f7ff fb34 	bl	80056d8 <UG_ButtonSetText>
	UG_WindowCreate(&window_4, obj_buff_wnd_4, UGUI_MAX_OBJECTS, window_4_callback);
 8006070:	4e7e      	ldr	r6, [pc, #504]	; (800626c <initUI+0x7e8>)
 8006072:	4b7f      	ldr	r3, [pc, #508]	; (8006270 <initUI+0x7ec>)
 8006074:	220a      	movs	r2, #10
 8006076:	497f      	ldr	r1, [pc, #508]	; (8006274 <initUI+0x7f0>)
 8006078:	4630      	mov	r0, r6
 800607a:	f7fe fe81 	bl	8004d80 <UG_WindowCreate>
	UG_WindowSetStyle(&window_4, WND_STYLE_3D | WND_STYLE_HIDE_TITLE);
 800607e:	4621      	mov	r1, r4
 8006080:	4630      	mov	r0, r6
 8006082:	f7fe ff94 	bl	8004fae <UG_WindowSetStyle>
	UG_WindowResize(&window_4, LCD_WIDTH - WIND3_WIDTH, MENUBAR_HEIGHT + 10, LCD_WIDTH - 1, LCD_HEIGHT - MENUBAR_HEIGHT - 11);
 8006086:	f8cd b000 	str.w	fp, [sp]
 800608a:	f240 13df 	movw	r3, #479	; 0x1df
 800608e:	2219      	movs	r2, #25
 8006090:	f44f 71c8 	mov.w	r1, #400	; 0x190
 8006094:	4630      	mov	r0, r6
 8006096:	f7fe fedb 	bl	8004e50 <UG_WindowResize>
	UG_WindowSetBackColor(&window_4, C_WHITE);
 800609a:	f64f 71ff 	movw	r1, #65535	; 0xffff
 800609e:	4630      	mov	r0, r6
 80060a0:	f7fe ff74 	bl	8004f8c <UG_WindowSetBackColor>
	UG_TextboxCreate(&window_4, &txtb4_0, TXB_ID_0, 1, 1, WIND3_WIDTH - 8, MENUBAR_HEIGHT);		/* Menu heading */
 80060a4:	230f      	movs	r3, #15
 80060a6:	9302      	str	r3, [sp, #8]
 80060a8:	2348      	movs	r3, #72	; 0x48
 80060aa:	9301      	str	r3, [sp, #4]
 80060ac:	9400      	str	r4, [sp, #0]
 80060ae:	4623      	mov	r3, r4
 80060b0:	462a      	mov	r2, r5
 80060b2:	4971      	ldr	r1, [pc, #452]	; (8006278 <initUI+0x7f4>)
 80060b4:	4630      	mov	r0, r6
 80060b6:	f7ff fb33 	bl	8005720 <UG_TextboxCreate>
	UG_TextboxSetFont(&window_4, TXB_ID_0, &FONT_8X12);
 80060ba:	4a64      	ldr	r2, [pc, #400]	; (800624c <initUI+0x7c8>)
 80060bc:	4629      	mov	r1, r5
 80060be:	4630      	mov	r0, r6
 80060c0:	f7ff fb96 	bl	80057f0 <UG_TextboxSetFont>
	UG_TextboxSetBackColor(&window_4, TXB_ID_0, C_MEDIUM_VIOLET_RED);
 80060c4:	f24c 02b0 	movw	r2, #49328	; 0xc0b0
 80060c8:	4629      	mov	r1, r5
 80060ca:	4630      	mov	r0, r6
 80060cc:	f7ff fb6c 	bl	80057a8 <UG_TextboxSetBackColor>
	UG_TextboxSetText(&window_4, TXB_ID_0, "PAGE 2");
 80060d0:	4a6a      	ldr	r2, [pc, #424]	; (800627c <initUI+0x7f8>)
 80060d2:	4629      	mov	r1, r5
 80060d4:	4630      	mov	r0, r6
 80060d6:	f7ff fb79 	bl	80057cc <UG_TextboxSetText>
	UG_ButtonCreate(&window_4, &button4_0, BTN_ID_0, 6, MENUBAR_HEIGHT + WIND3_BTN_SPACING + 1, WIND3_WIDTH - 13, MENUBAR_HEIGHT + WIND3_BTN_SPACING + WIND3_BTN_HEIGHT);	/* Cursors */
 80060da:	2337      	movs	r3, #55	; 0x37
 80060dc:	9302      	str	r3, [sp, #8]
 80060de:	f8cd 8004 	str.w	r8, [sp, #4]
 80060e2:	f8cd a000 	str.w	sl, [sp]
 80060e6:	2306      	movs	r3, #6
 80060e8:	462a      	mov	r2, r5
 80060ea:	4965      	ldr	r1, [pc, #404]	; (8006280 <initUI+0x7fc>)
 80060ec:	4630      	mov	r0, r6
 80060ee:	f7ff fa95 	bl	800561c <UG_ButtonCreate>
	UG_ButtonSetFont(&window_4, BTN_ID_0, &FONT_6X8);
 80060f2:	463a      	mov	r2, r7
 80060f4:	4629      	mov	r1, r5
 80060f6:	4630      	mov	r0, r6
 80060f8:	f7ff fb00 	bl	80056fc <UG_ButtonSetFont>
	UG_ButtonSetBackColor(&window_4, BTN_ID_0, C_ORANGE);
 80060fc:	f64f 5220 	movw	r2, #64800	; 0xfd20
 8006100:	4629      	mov	r1, r5
 8006102:	4630      	mov	r0, r6
 8006104:	f7ff fad6 	bl	80056b4 <UG_ButtonSetBackColor>
	UG_ButtonSetText(&window_4, BTN_ID_0, "DispMd");
 8006108:	4a5e      	ldr	r2, [pc, #376]	; (8006284 <initUI+0x800>)
 800610a:	4629      	mov	r1, r5
 800610c:	4630      	mov	r0, r6
 800610e:	f7ff fae3 	bl	80056d8 <UG_ButtonSetText>
	UG_ButtonCreate(&window_4, &button4_1, BTN_ID_1, 6, MENUBAR_HEIGHT + 2*WIND3_BTN_SPACING + WIND3_BTN_HEIGHT + 1, WIND3_WIDTH - 13, MENUBAR_HEIGHT + 2*WIND3_BTN_SPACING + 2*WIND3_BTN_HEIGHT);	/* Math */
 8006112:	235f      	movs	r3, #95	; 0x5f
 8006114:	9302      	str	r3, [sp, #8]
 8006116:	f8cd 8004 	str.w	r8, [sp, #4]
 800611a:	2342      	movs	r3, #66	; 0x42
 800611c:	9300      	str	r3, [sp, #0]
 800611e:	2306      	movs	r3, #6
 8006120:	4622      	mov	r2, r4
 8006122:	4959      	ldr	r1, [pc, #356]	; (8006288 <initUI+0x804>)
 8006124:	4630      	mov	r0, r6
 8006126:	f7ff fa79 	bl	800561c <UG_ButtonCreate>
	UG_ButtonSetFont(&window_4, BTN_ID_1, &FONT_6X8);
 800612a:	463a      	mov	r2, r7
 800612c:	4621      	mov	r1, r4
 800612e:	4630      	mov	r0, r6
 8006130:	f7ff fae4 	bl	80056fc <UG_ButtonSetFont>
	UG_ButtonSetBackColor(&window_4, BTN_ID_1, C_ORANGE);
 8006134:	f64f 5220 	movw	r2, #64800	; 0xfd20
 8006138:	4621      	mov	r1, r4
 800613a:	4630      	mov	r0, r6
 800613c:	f7ff faba 	bl	80056b4 <UG_ButtonSetBackColor>
	UG_ButtonSetText(&window_4, BTN_ID_1, "FFT");
 8006140:	4a52      	ldr	r2, [pc, #328]	; (800628c <initUI+0x808>)
 8006142:	4621      	mov	r1, r4
 8006144:	4630      	mov	r0, r6
 8006146:	f7ff fac7 	bl	80056d8 <UG_ButtonSetText>
	UG_ButtonCreate(&window_4, &button4_2, BTN_ID_2, 6, MENUBAR_HEIGHT + 3*WIND3_BTN_SPACING + 2*WIND3_BTN_HEIGHT + 1, WIND3_WIDTH - 13, MENUBAR_HEIGHT + 3*WIND3_BTN_SPACING + 3*WIND3_BTN_HEIGHT);	/* Memory depth */
 800614a:	2387      	movs	r3, #135	; 0x87
 800614c:	9302      	str	r3, [sp, #8]
 800614e:	f8cd 8004 	str.w	r8, [sp, #4]
 8006152:	236a      	movs	r3, #106	; 0x6a
 8006154:	9300      	str	r3, [sp, #0]
 8006156:	2306      	movs	r3, #6
 8006158:	2202      	movs	r2, #2
 800615a:	494d      	ldr	r1, [pc, #308]	; (8006290 <initUI+0x80c>)
 800615c:	4630      	mov	r0, r6
 800615e:	f7ff fa5d 	bl	800561c <UG_ButtonCreate>
	UG_ButtonSetFont(&window_4, BTN_ID_2, &FONT_6X8);
 8006162:	463a      	mov	r2, r7
 8006164:	2102      	movs	r1, #2
 8006166:	4630      	mov	r0, r6
 8006168:	f7ff fac8 	bl	80056fc <UG_ButtonSetFont>
	UG_ButtonSetBackColor(&window_4, BTN_ID_2, C_ORANGE);
 800616c:	f64f 5220 	movw	r2, #64800	; 0xfd20
 8006170:	2102      	movs	r1, #2
 8006172:	4630      	mov	r0, r6
 8006174:	f7ff fa9e 	bl	80056b4 <UG_ButtonSetBackColor>
	UG_ButtonSetText(&window_4, BTN_ID_2, "Cursors");
 8006178:	4a46      	ldr	r2, [pc, #280]	; (8006294 <initUI+0x810>)
 800617a:	2102      	movs	r1, #2
 800617c:	4630      	mov	r0, r6
 800617e:	f7ff faab 	bl	80056d8 <UG_ButtonSetText>
	UG_ButtonCreate(&window_4, &button4_3, BTN_ID_3, 6, MENUBAR_HEIGHT + 4*WIND3_BTN_SPACING + 3*WIND3_BTN_HEIGHT + 1, WIND3_WIDTH - 13, MENUBAR_HEIGHT + 4*WIND3_BTN_SPACING + 4*WIND3_BTN_HEIGHT);	/* Sample rate */
 8006182:	23af      	movs	r3, #175	; 0xaf
 8006184:	9302      	str	r3, [sp, #8]
 8006186:	f8cd 8004 	str.w	r8, [sp, #4]
 800618a:	2392      	movs	r3, #146	; 0x92
 800618c:	9300      	str	r3, [sp, #0]
 800618e:	2306      	movs	r3, #6
 8006190:	2203      	movs	r2, #3
 8006192:	4941      	ldr	r1, [pc, #260]	; (8006298 <initUI+0x814>)
 8006194:	4630      	mov	r0, r6
 8006196:	f7ff fa41 	bl	800561c <UG_ButtonCreate>
	UG_ButtonSetFont(&window_4, BTN_ID_3, &FONT_6X8);
 800619a:	463a      	mov	r2, r7
 800619c:	2103      	movs	r1, #3
 800619e:	4630      	mov	r0, r6
 80061a0:	f7ff faac 	bl	80056fc <UG_ButtonSetFont>
	UG_ButtonSetBackColor(&window_4, BTN_ID_3, C_ORANGE);
 80061a4:	f64f 5220 	movw	r2, #64800	; 0xfd20
 80061a8:	2103      	movs	r1, #3
 80061aa:	4630      	mov	r0, r6
 80061ac:	f7ff fa82 	bl	80056b4 <UG_ButtonSetBackColor>
	UG_ButtonSetText(&window_4, BTN_ID_3, "Math");
 80061b0:	4a3a      	ldr	r2, [pc, #232]	; (800629c <initUI+0x818>)
 80061b2:	2103      	movs	r1, #3
 80061b4:	4630      	mov	r0, r6
 80061b6:	f7ff fa8f 	bl	80056d8 <UG_ButtonSetText>
	UG_ButtonCreate(&window_4, &button4_4, BTN_ID_4, 6, MENUBAR_HEIGHT + 5*WIND3_BTN_SPACING + 4*WIND3_BTN_HEIGHT + 1, 35, MENUBAR_HEIGHT + 5*WIND3_BTN_SPACING + 4*WIND3_BTN_HEIGHT + 25);		/* Prev menu */
 80061ba:	23d2      	movs	r3, #210	; 0xd2
 80061bc:	9302      	str	r3, [sp, #8]
 80061be:	2323      	movs	r3, #35	; 0x23
 80061c0:	9301      	str	r3, [sp, #4]
 80061c2:	f8cd 9000 	str.w	r9, [sp]
 80061c6:	2306      	movs	r3, #6
 80061c8:	2204      	movs	r2, #4
 80061ca:	4935      	ldr	r1, [pc, #212]	; (80062a0 <initUI+0x81c>)
 80061cc:	4630      	mov	r0, r6
 80061ce:	f7ff fa25 	bl	800561c <UG_ButtonCreate>
	UG_ButtonSetFont(&window_4, BTN_ID_4, &FONT_6X8);
 80061d2:	463a      	mov	r2, r7
 80061d4:	2104      	movs	r1, #4
 80061d6:	4630      	mov	r0, r6
 80061d8:	f7ff fa90 	bl	80056fc <UG_ButtonSetFont>
	UG_ButtonSetBackColor(&window_4, BTN_ID_4, C_MEDIUM_VIOLET_RED);
 80061dc:	f24c 02b0 	movw	r2, #49328	; 0xc0b0
 80061e0:	2104      	movs	r1, #4
 80061e2:	4630      	mov	r0, r6
 80061e4:	f7ff fa66 	bl	80056b4 <UG_ButtonSetBackColor>
	UG_ButtonSetText(&window_4, BTN_ID_4, "<");
 80061e8:	4a2e      	ldr	r2, [pc, #184]	; (80062a4 <initUI+0x820>)
 80061ea:	2104      	movs	r1, #4
 80061ec:	4630      	mov	r0, r6
 80061ee:	f7ff fa73 	bl	80056d8 <UG_ButtonSetText>
	UG_WindowCreate(&window_5, obj_buff_wnd_5, 4, window_5_callback);
 80061f2:	4e2d      	ldr	r6, [pc, #180]	; (80062a8 <initUI+0x824>)
 80061f4:	4b2d      	ldr	r3, [pc, #180]	; (80062ac <initUI+0x828>)
 80061f6:	2204      	movs	r2, #4
 80061f8:	492d      	ldr	r1, [pc, #180]	; (80062b0 <initUI+0x82c>)
 80061fa:	4630      	mov	r0, r6
 80061fc:	f7fe fdc0 	bl	8004d80 <UG_WindowCreate>
	UG_WindowSetStyle(&window_5, WND_STYLE_3D | WND_STYLE_HIDE_TITLE);
 8006200:	4621      	mov	r1, r4
 8006202:	4630      	mov	r0, r6
 8006204:	f7fe fed3 	bl	8004fae <UG_WindowSetStyle>
	UG_WindowResize(&window_5, WIND5_X_START, WIND5_Y_START, WIND5_X_START + WIND5_WIDTH - 1, WIND5_Y_START + WIND5_HEIGHT - 1);
 8006208:	2395      	movs	r3, #149	; 0x95
 800620a:	9300      	str	r3, [sp, #0]
 800620c:	f240 1385 	movw	r3, #389	; 0x185
 8006210:	225a      	movs	r2, #90	; 0x5a
 8006212:	21fa      	movs	r1, #250	; 0xfa
 8006214:	4630      	mov	r0, r6
 8006216:	f7fe fe1b 	bl	8004e50 <UG_WindowResize>
	UG_WindowSetBackColor(&window_5, C_WHITE);
 800621a:	f64f 71ff 	movw	r1, #65535	; 0xffff
 800621e:	4630      	mov	r0, r6
 8006220:	f7fe feb4 	bl	8004f8c <UG_WindowSetBackColor>
	UG_TextboxCreate(&window_5, &txtb5_0, TXB_ID_0, 1, 1, WIND5_BTN_WIDTH, WIND5_BTN_HEIGHT);		/* label */
 8006224:	f04f 0814 	mov.w	r8, #20
 8006228:	f8cd 8008 	str.w	r8, [sp, #8]
 800622c:	f04f 093c 	mov.w	r9, #60	; 0x3c
 8006230:	f8cd 9004 	str.w	r9, [sp, #4]
 8006234:	e040      	b.n	80062b8 <initUI+0x834>
 8006236:	bf00      	nop
 8006238:	20003958 	.word	0x20003958
 800623c:	20003994 	.word	0x20003994
 8006240:	080064f1 	.word	0x080064f1
 8006244:	200035dc 	.word	0x200035dc
 8006248:	20003784 	.word	0x20003784
 800624c:	0800df40 	.word	0x0800df40
 8006250:	08010100 	.word	0x08010100
 8006254:	2000392c 	.word	0x2000392c
 8006258:	20003300 	.word	0x20003300
 800625c:	200033ac 	.word	0x200033ac
 8006260:	2000359c 	.word	0x2000359c
 8006264:	20003914 	.word	0x20003914
 8006268:	08010110 	.word	0x08010110
 800626c:	200039c8 	.word	0x200039c8
 8006270:	0800646d 	.word	0x0800646d
 8006274:	20003a3c 	.word	0x20003a3c
 8006278:	200035b4 	.word	0x200035b4
 800627c:	08010114 	.word	0x08010114
 8006280:	2000356c 	.word	0x2000356c
 8006284:	0801011c 	.word	0x0801011c
 8006288:	200032a8 	.word	0x200032a8
 800628c:	08010124 	.word	0x08010124
 8006290:	2000387c 	.word	0x2000387c
 8006294:	08010128 	.word	0x08010128
 8006298:	200039fc 	.word	0x200039fc
 800629c:	08010130 	.word	0x08010130
 80062a0:	200033d8 	.word	0x200033d8
 80062a4:	08010138 	.word	0x08010138
 80062a8:	20003318 	.word	0x20003318
 80062ac:	080058c5 	.word	0x080058c5
 80062b0:	20003894 	.word	0x20003894
 80062b4:	08010108 	.word	0x08010108
 80062b8:	9400      	str	r4, [sp, #0]
 80062ba:	4623      	mov	r3, r4
 80062bc:	462a      	mov	r2, r5
 80062be:	495c      	ldr	r1, [pc, #368]	; (8006430 <initUI+0x9ac>)
 80062c0:	4630      	mov	r0, r6
 80062c2:	f7ff fa2d 	bl	8005720 <UG_TextboxCreate>
	UG_TextboxSetFont(&window_5, TXB_ID_0, &FONT_6X8);
 80062c6:	463a      	mov	r2, r7
 80062c8:	4629      	mov	r1, r5
 80062ca:	4630      	mov	r0, r6
 80062cc:	f7ff fa90 	bl	80057f0 <UG_TextboxSetFont>
	UG_TextboxSetAlignment(&window_5, TXB_ID_0, ALIGN_CENTER_RIGHT);
 80062d0:	4642      	mov	r2, r8
 80062d2:	4629      	mov	r1, r5
 80062d4:	4630      	mov	r0, r6
 80062d6:	f7ff fa9d 	bl	8005814 <UG_TextboxSetAlignment>
	UG_TextboxSetText(&window_5, TXB_ID_0, "source:");
 80062da:	4a56      	ldr	r2, [pc, #344]	; (8006434 <initUI+0x9b0>)
 80062dc:	4629      	mov	r1, r5
 80062de:	4630      	mov	r0, r6
 80062e0:	f7ff fa74 	bl	80057cc <UG_TextboxSetText>
	UG_TextboxCreate(&window_5, &txtb5_1, TXB_ID_1, 1, WIND5_BTN_HEIGHT + WIND5_BTN_SPACING + 1, WIND5_BTN_WIDTH, 2*WIND5_BTN_HEIGHT + WIND5_BTN_SPACING);		/* label */
 80062e4:	232d      	movs	r3, #45	; 0x2d
 80062e6:	9302      	str	r3, [sp, #8]
 80062e8:	f8cd 9004 	str.w	r9, [sp, #4]
 80062ec:	f8cd a000 	str.w	sl, [sp]
 80062f0:	4623      	mov	r3, r4
 80062f2:	4622      	mov	r2, r4
 80062f4:	4950      	ldr	r1, [pc, #320]	; (8006438 <initUI+0x9b4>)
 80062f6:	4630      	mov	r0, r6
 80062f8:	f7ff fa12 	bl	8005720 <UG_TextboxCreate>
	UG_TextboxSetFont(&window_5, TXB_ID_1, &FONT_6X8);
 80062fc:	463a      	mov	r2, r7
 80062fe:	4621      	mov	r1, r4
 8006300:	4630      	mov	r0, r6
 8006302:	f7ff fa75 	bl	80057f0 <UG_TextboxSetFont>
	UG_TextboxSetAlignment(&window_5, TXB_ID_1, ALIGN_CENTER_RIGHT);
 8006306:	4642      	mov	r2, r8
 8006308:	4621      	mov	r1, r4
 800630a:	4630      	mov	r0, r6
 800630c:	f7ff fa82 	bl	8005814 <UG_TextboxSetAlignment>
	UG_TextboxSetText(&window_5, TXB_ID_1, "param:");
 8006310:	4a4a      	ldr	r2, [pc, #296]	; (800643c <initUI+0x9b8>)
 8006312:	4621      	mov	r1, r4
 8006314:	4630      	mov	r0, r6
 8006316:	f7ff fa59 	bl	80057cc <UG_TextboxSetText>
	UG_ButtonCreate(&window_5, &button5_0, BTN_ID_0, 71, 1, 71 + WIND5_BTN_WIDTH - 1, WIND5_BTN_HEIGHT);		/* source select */
 800631a:	f8cd 8008 	str.w	r8, [sp, #8]
 800631e:	2382      	movs	r3, #130	; 0x82
 8006320:	9301      	str	r3, [sp, #4]
 8006322:	9400      	str	r4, [sp, #0]
 8006324:	2347      	movs	r3, #71	; 0x47
 8006326:	462a      	mov	r2, r5
 8006328:	4945      	ldr	r1, [pc, #276]	; (8006440 <initUI+0x9bc>)
 800632a:	4630      	mov	r0, r6
 800632c:	f7ff f976 	bl	800561c <UG_ButtonCreate>
	UG_ButtonSetFont(&window_5, BTN_ID_0, &FONT_6X8);
 8006330:	463d      	mov	r5, r7
 8006332:	463a      	mov	r2, r7
 8006334:	2100      	movs	r1, #0
 8006336:	4630      	mov	r0, r6
 8006338:	f7ff f9e0 	bl	80056fc <UG_ButtonSetFont>
	UG_ButtonSetBackColor(&window_5, BTN_ID_0, C_OLIVE);
 800633c:	f44f 4204 	mov.w	r2, #33792	; 0x8400
 8006340:	2100      	movs	r1, #0
 8006342:	4630      	mov	r0, r6
 8006344:	f7ff f9b6 	bl	80056b4 <UG_ButtonSetBackColor>
	UG_ButtonSetText(&window_5, BTN_ID_0, "CH1");
 8006348:	4a3e      	ldr	r2, [pc, #248]	; (8006444 <initUI+0x9c0>)
 800634a:	2100      	movs	r1, #0
 800634c:	4630      	mov	r0, r6
 800634e:	f7ff f9c3 	bl	80056d8 <UG_ButtonSetText>
	UG_ButtonCreate(&window_5, &button5_1, BTN_ID_1, 71, WIND5_BTN_HEIGHT + WIND5_BTN_SPACING + 1, 71 + WIND5_BTN_WIDTH - 1, 2*WIND5_BTN_HEIGHT + WIND5_BTN_SPACING);	/* measure parameter select */
 8006352:	232d      	movs	r3, #45	; 0x2d
 8006354:	9302      	str	r3, [sp, #8]
 8006356:	f04f 0882 	mov.w	r8, #130	; 0x82
 800635a:	f8cd 8004 	str.w	r8, [sp, #4]
 800635e:	f8cd a000 	str.w	sl, [sp]
 8006362:	2347      	movs	r3, #71	; 0x47
 8006364:	2201      	movs	r2, #1
 8006366:	4938      	ldr	r1, [pc, #224]	; (8006448 <initUI+0x9c4>)
 8006368:	4630      	mov	r0, r6
 800636a:	f7ff f957 	bl	800561c <UG_ButtonCreate>
	UG_ButtonSetFont(&window_5, BTN_ID_1, &FONT_6X8);
 800636e:	463a      	mov	r2, r7
 8006370:	2101      	movs	r1, #1
 8006372:	4630      	mov	r0, r6
 8006374:	f7ff f9c2 	bl	80056fc <UG_ButtonSetFont>
	UG_ButtonSetBackColor(&window_5, BTN_ID_1, C_OLIVE);
 8006378:	f44f 4204 	mov.w	r2, #33792	; 0x8400
 800637c:	2101      	movs	r1, #1
 800637e:	4630      	mov	r0, r6
 8006380:	f7ff f998 	bl	80056b4 <UG_ButtonSetBackColor>
	UG_ButtonSetText(&window_5, BTN_ID_1, "Freq");
 8006384:	4a31      	ldr	r2, [pc, #196]	; (800644c <initUI+0x9c8>)
 8006386:	2101      	movs	r1, #1
 8006388:	4630      	mov	r0, r6
 800638a:	f7ff f9a5 	bl	80056d8 <UG_ButtonSetText>
	UG_WindowCreate(&window_6, obj_buff_wnd_6, 2, window_6_callback);
 800638e:	4c30      	ldr	r4, [pc, #192]	; (8006450 <initUI+0x9cc>)
 8006390:	4b30      	ldr	r3, [pc, #192]	; (8006454 <initUI+0x9d0>)
 8006392:	2202      	movs	r2, #2
 8006394:	4930      	ldr	r1, [pc, #192]	; (8006458 <initUI+0x9d4>)
 8006396:	4620      	mov	r0, r4
 8006398:	f7fe fcf2 	bl	8004d80 <UG_WindowCreate>
	UG_WindowSetStyle(&window_6, WND_STYLE_3D | WND_STYLE_HIDE_TITLE);
 800639c:	2101      	movs	r1, #1
 800639e:	4620      	mov	r0, r4
 80063a0:	f7fe fe05 	bl	8004fae <UG_WindowSetStyle>
	UG_WindowResize(&window_6, WIND6_X_START, WIND6_Y_START, WIND6_X_START + WIND6_WIDTH - 1, WIND6_Y_START + WIND6_HEIGHT - 1);
 80063a4:	2377      	movs	r3, #119	; 0x77
 80063a6:	9300      	str	r3, [sp, #0]
 80063a8:	f240 1385 	movw	r3, #389	; 0x185
 80063ac:	225a      	movs	r2, #90	; 0x5a
 80063ae:	21fa      	movs	r1, #250	; 0xfa
 80063b0:	4620      	mov	r0, r4
 80063b2:	f7fe fd4d 	bl	8004e50 <UG_WindowResize>
	UG_WindowSetBackColor(&window_6, C_WHITE);
 80063b6:	f64f 71ff 	movw	r1, #65535	; 0xffff
 80063ba:	4620      	mov	r0, r4
 80063bc:	f7fe fde6 	bl	8004f8c <UG_WindowSetBackColor>
	UG_TextboxCreate(&window_6, &txtb6_0, TXB_ID_0, 1, 1, WIND6_BTN_WIDTH, WIND6_BTN_HEIGHT);		/* label */
 80063c0:	2714      	movs	r7, #20
 80063c2:	9702      	str	r7, [sp, #8]
 80063c4:	f8cd 9004 	str.w	r9, [sp, #4]
 80063c8:	2601      	movs	r6, #1
 80063ca:	9600      	str	r6, [sp, #0]
 80063cc:	4633      	mov	r3, r6
 80063ce:	2200      	movs	r2, #0
 80063d0:	4922      	ldr	r1, [pc, #136]	; (800645c <initUI+0x9d8>)
 80063d2:	4620      	mov	r0, r4
 80063d4:	f7ff f9a4 	bl	8005720 <UG_TextboxCreate>
	UG_TextboxSetFont(&window_6, TXB_ID_0, &FONT_6X8);
 80063d8:	462a      	mov	r2, r5
 80063da:	2100      	movs	r1, #0
 80063dc:	4620      	mov	r0, r4
 80063de:	f7ff fa07 	bl	80057f0 <UG_TextboxSetFont>
	UG_TextboxSetAlignment(&window_6, TXB_ID_0, ALIGN_CENTER_RIGHT);
 80063e2:	463a      	mov	r2, r7
 80063e4:	2100      	movs	r1, #0
 80063e6:	4620      	mov	r0, r4
 80063e8:	f7ff fa14 	bl	8005814 <UG_TextboxSetAlignment>
	UG_TextboxSetText(&window_6, TXB_ID_0, "Mode:");
 80063ec:	4a1c      	ldr	r2, [pc, #112]	; (8006460 <initUI+0x9dc>)
 80063ee:	2100      	movs	r1, #0
 80063f0:	4620      	mov	r0, r4
 80063f2:	f7ff f9eb 	bl	80057cc <UG_TextboxSetText>
	UG_ButtonCreate(&window_6, &button6_0, BTN_ID_0, 71, 1, 71 + WIND6_BTN_WIDTH - 1, WIND6_BTN_HEIGHT);		/* mode select */
 80063f6:	9702      	str	r7, [sp, #8]
 80063f8:	f8cd 8004 	str.w	r8, [sp, #4]
 80063fc:	9600      	str	r6, [sp, #0]
 80063fe:	2347      	movs	r3, #71	; 0x47
 8006400:	2200      	movs	r2, #0
 8006402:	4918      	ldr	r1, [pc, #96]	; (8006464 <initUI+0x9e0>)
 8006404:	4620      	mov	r0, r4
 8006406:	f7ff f909 	bl	800561c <UG_ButtonCreate>
	UG_ButtonSetFont(&window_6, BTN_ID_0, &FONT_6X8);
 800640a:	462a      	mov	r2, r5
 800640c:	2100      	movs	r1, #0
 800640e:	4620      	mov	r0, r4
 8006410:	f7ff f974 	bl	80056fc <UG_ButtonSetFont>
	UG_ButtonSetBackColor(&window_6, BTN_ID_0, C_OLIVE);
 8006414:	f44f 4204 	mov.w	r2, #33792	; 0x8400
 8006418:	2100      	movs	r1, #0
 800641a:	4620      	mov	r0, r4
 800641c:	f7ff f94a 	bl	80056b4 <UG_ButtonSetBackColor>
	UG_ButtonSetText(&window_6, BTN_ID_0, "Split");
 8006420:	4a11      	ldr	r2, [pc, #68]	; (8006468 <initUI+0x9e4>)
 8006422:	2100      	movs	r1, #0
 8006424:	4620      	mov	r0, r4
 8006426:	f7ff f957 	bl	80056d8 <UG_ButtonSetText>
}
 800642a:	b005      	add	sp, #20
 800642c:	e8bd 8ff0 	ldmia.w	sp!, {r4, r5, r6, r7, r8, r9, sl, fp, pc}
 8006430:	20003380 	.word	0x20003380
 8006434:	0801013c 	.word	0x0801013c
 8006438:	20003a28 	.word	0x20003a28
 800643c:	08010144 	.word	0x08010144
 8006440:	200037c0 	.word	0x200037c0
 8006444:	08010388 	.word	0x08010388
 8006448:	20003394 	.word	0x20003394
 800644c:	0801014c 	.word	0x0801014c
 8006450:	2000334c 	.word	0x2000334c
 8006454:	08007d55 	.word	0x08007d55
 8006458:	200032c0 	.word	0x200032c0
 800645c:	20003558 	.word	0x20003558
 8006460:	08010154 	.word	0x08010154
 8006464:	20003584 	.word	0x20003584
 8006468:	0801015c 	.word	0x0801015c

0800646c <window_4_callback>:
	if (msg->type == MSG_TYPE_OBJECT)
 800646c:	7803      	ldrb	r3, [r0, #0]
 800646e:	2b02      	cmp	r3, #2
 8006470:	d000      	beq.n	8006474 <window_4_callback+0x8>
 8006472:	4770      	bx	lr
	  if (msg->id == OBJ_TYPE_BUTTON)
 8006474:	7843      	ldrb	r3, [r0, #1]
 8006476:	2b01      	cmp	r3, #1
 8006478:	d1fb      	bne.n	8006472 <window_4_callback+0x6>
		  if(msg->event == OBJ_EVENT_PRESSED)
 800647a:	78c3      	ldrb	r3, [r0, #3]
 800647c:	2b04      	cmp	r3, #4
 800647e:	d1f8      	bne.n	8006472 <window_4_callback+0x6>
{
 8006480:	b500      	push	{lr}
 8006482:	b083      	sub	sp, #12
			 switch(msg->sub_id)
 8006484:	7883      	ldrb	r3, [r0, #2]
 8006486:	b123      	cbz	r3, 8006492 <window_4_callback+0x26>
 8006488:	2b04      	cmp	r3, #4
 800648a:	d017      	beq.n	80064bc <window_4_callback+0x50>
}
 800648c:	b003      	add	sp, #12
 800648e:	f85d fb04 	ldr.w	pc, [sp], #4
					if(showWindow6 == 0){
 8006492:	4b14      	ldr	r3, [pc, #80]	; (80064e4 <window_4_callback+0x78>)
 8006494:	781b      	ldrb	r3, [r3, #0]
 8006496:	b91b      	cbnz	r3, 80064a0 <window_4_callback+0x34>
						showWindow6 = 1;			/* show submenu */
 8006498:	2201      	movs	r2, #1
 800649a:	4b12      	ldr	r3, [pc, #72]	; (80064e4 <window_4_callback+0x78>)
 800649c:	701a      	strb	r2, [r3, #0]
 800649e:	e7f5      	b.n	800648c <window_4_callback+0x20>
						showWindow6 = 0;			/* close submenu */
 80064a0:	2300      	movs	r3, #0
 80064a2:	4a10      	ldr	r2, [pc, #64]	; (80064e4 <window_4_callback+0x78>)
 80064a4:	7013      	strb	r3, [r2, #0]
						fillFrameUGUI(WIND6_X_START, WIND6_Y_START, WIND6_X_START + WIND6_WIDTH - 1, WIND6_Y_START + WIND6_HEIGHT - 1, C_BLACK);
 80064a6:	9300      	str	r3, [sp, #0]
 80064a8:	2377      	movs	r3, #119	; 0x77
 80064aa:	f240 1285 	movw	r2, #389	; 0x185
 80064ae:	215a      	movs	r1, #90	; 0x5a
 80064b0:	20fa      	movs	r0, #250	; 0xfa
 80064b2:	f7fa fc03 	bl	8000cbc <fillFrameUGUI>
						drawGrid();
 80064b6:	f7ff fadf 	bl	8005a78 <drawGrid>
 80064ba:	e7e7      	b.n	800648c <window_4_callback+0x20>
			 		showWindow4 = 0;
 80064bc:	2300      	movs	r3, #0
 80064be:	4a0a      	ldr	r2, [pc, #40]	; (80064e8 <window_4_callback+0x7c>)
 80064c0:	7013      	strb	r3, [r2, #0]
					showWindow6 = 0;			/* close any window 4 sub-menus */
 80064c2:	4a08      	ldr	r2, [pc, #32]	; (80064e4 <window_4_callback+0x78>)
 80064c4:	7013      	strb	r3, [r2, #0]
					fillFrameUGUI(WIND5_X_START, WIND5_Y_START, WIND5_X_START + WIND5_WIDTH - 1, WIND5_Y_START + WIND5_HEIGHT - 1, C_BLACK);
 80064c6:	9300      	str	r3, [sp, #0]
 80064c8:	2395      	movs	r3, #149	; 0x95
 80064ca:	f240 1285 	movw	r2, #389	; 0x185
 80064ce:	215a      	movs	r1, #90	; 0x5a
 80064d0:	20fa      	movs	r0, #250	; 0xfa
 80064d2:	f7fa fbf3 	bl	8000cbc <fillFrameUGUI>
					showWindow3 = 1;			/* Go to Page 1 (Measurements) */
 80064d6:	2201      	movs	r2, #1
 80064d8:	4b04      	ldr	r3, [pc, #16]	; (80064ec <window_4_callback+0x80>)
 80064da:	701a      	strb	r2, [r3, #0]
					drawGrid();
 80064dc:	f7ff facc 	bl	8005a78 <drawGrid>
}
 80064e0:	e7d4      	b.n	800648c <window_4_callback+0x20>
 80064e2:	bf00      	nop
 80064e4:	20000161 	.word	0x20000161
 80064e8:	2000015f 	.word	0x2000015f
 80064ec:	2000015e 	.word	0x2000015e

080064f0 <window_3_callback>:
	if (msg->type == MSG_TYPE_OBJECT)
 80064f0:	7803      	ldrb	r3, [r0, #0]
 80064f2:	2b02      	cmp	r3, #2
 80064f4:	d000      	beq.n	80064f8 <window_3_callback+0x8>
 80064f6:	4770      	bx	lr
	  if (msg->id == OBJ_TYPE_BUTTON)
 80064f8:	7843      	ldrb	r3, [r0, #1]
 80064fa:	2b01      	cmp	r3, #1
 80064fc:	d1fb      	bne.n	80064f6 <window_3_callback+0x6>
		  if(msg->event == OBJ_EVENT_PRESSED)
 80064fe:	78c3      	ldrb	r3, [r0, #3]
 8006500:	2b04      	cmp	r3, #4
 8006502:	d1f8      	bne.n	80064f6 <window_3_callback+0x6>
{
 8006504:	b510      	push	{r4, lr}
 8006506:	b082      	sub	sp, #8
			 switch(msg->sub_id)
 8006508:	7883      	ldrb	r3, [r0, #2]
 800650a:	2b04      	cmp	r3, #4
 800650c:	f200 80ea 	bhi.w	80066e4 <window_3_callback+0x1f4>
 8006510:	e8df f013 	tbh	[pc, r3, lsl #1]
 8006514:	00380005 	.word	0x00380005
 8006518:	00a0006c 	.word	0x00a0006c
 800651c:	00d4      	.short	0x00d4
					if((showWindow5 == 0) || (wind5OpenedBy != MEASURE1)){
 800651e:	4b72      	ldr	r3, [pc, #456]	; (80066e8 <window_3_callback+0x1f8>)
 8006520:	781b      	ldrb	r3, [r3, #0]
 8006522:	b11b      	cbz	r3, 800652c <window_3_callback+0x3c>
 8006524:	4b71      	ldr	r3, [pc, #452]	; (80066ec <window_3_callback+0x1fc>)
 8006526:	781b      	ldrb	r3, [r3, #0]
 8006528:	2b01      	cmp	r3, #1
 800652a:	d01b      	beq.n	8006564 <window_3_callback+0x74>
						showWindow5 = 1;			/* show submenu */
 800652c:	2301      	movs	r3, #1
 800652e:	4a6e      	ldr	r2, [pc, #440]	; (80066e8 <window_3_callback+0x1f8>)
 8006530:	7013      	strb	r3, [r2, #0]
						wind5OpenedBy = MEASURE1;
 8006532:	4a6e      	ldr	r2, [pc, #440]	; (80066ec <window_3_callback+0x1fc>)
 8006534:	7013      	strb	r3, [r2, #0]
						UG_ButtonSetText(&window_5, BTN_ID_0, (measure1.src == CHANNEL1) ? "CH1" : "CH2");
 8006536:	4b6e      	ldr	r3, [pc, #440]	; (80066f0 <window_3_callback+0x200>)
 8006538:	781b      	ldrb	r3, [r3, #0]
 800653a:	2b01      	cmp	r3, #1
 800653c:	d010      	beq.n	8006560 <window_3_callback+0x70>
 800653e:	4a6d      	ldr	r2, [pc, #436]	; (80066f4 <window_3_callback+0x204>)
 8006540:	4c6d      	ldr	r4, [pc, #436]	; (80066f8 <window_3_callback+0x208>)
 8006542:	2100      	movs	r1, #0
 8006544:	4620      	mov	r0, r4
 8006546:	f7ff f8c7 	bl	80056d8 <UG_ButtonSetText>
						UG_ButtonSetText(&window_5, BTN_ID_1, measParamTexts[measure1.param]);
 800654a:	4b69      	ldr	r3, [pc, #420]	; (80066f0 <window_3_callback+0x200>)
 800654c:	785a      	ldrb	r2, [r3, #1]
 800654e:	eb02 0282 	add.w	r2, r2, r2, lsl #2
 8006552:	4b6a      	ldr	r3, [pc, #424]	; (80066fc <window_3_callback+0x20c>)
 8006554:	441a      	add	r2, r3
 8006556:	2101      	movs	r1, #1
 8006558:	4620      	mov	r0, r4
 800655a:	f7ff f8bd 	bl	80056d8 <UG_ButtonSetText>
 800655e:	e0c1      	b.n	80066e4 <window_3_callback+0x1f4>
						UG_ButtonSetText(&window_5, BTN_ID_0, (measure1.src == CHANNEL1) ? "CH1" : "CH2");
 8006560:	4a67      	ldr	r2, [pc, #412]	; (8006700 <window_3_callback+0x210>)
 8006562:	e7ed      	b.n	8006540 <window_3_callback+0x50>
						showWindow5 = 0;			/* close submenu */
 8006564:	2300      	movs	r3, #0
 8006566:	4a60      	ldr	r2, [pc, #384]	; (80066e8 <window_3_callback+0x1f8>)
 8006568:	7013      	strb	r3, [r2, #0]
						wind5OpenedBy = MEASURE_NONE;
 800656a:	4a60      	ldr	r2, [pc, #384]	; (80066ec <window_3_callback+0x1fc>)
 800656c:	7013      	strb	r3, [r2, #0]
						fillFrameUGUI(WIND5_X_START, WIND5_Y_START, WIND5_X_START + WIND5_WIDTH - 1, WIND5_Y_START + WIND5_HEIGHT - 1, C_BLACK);
 800656e:	9300      	str	r3, [sp, #0]
 8006570:	2395      	movs	r3, #149	; 0x95
 8006572:	f240 1285 	movw	r2, #389	; 0x185
 8006576:	215a      	movs	r1, #90	; 0x5a
 8006578:	20fa      	movs	r0, #250	; 0xfa
 800657a:	f7fa fb9f 	bl	8000cbc <fillFrameUGUI>
						drawGrid();
 800657e:	f7ff fa7b 	bl	8005a78 <drawGrid>
 8006582:	e0af      	b.n	80066e4 <window_3_callback+0x1f4>
					if((showWindow5 == 0) || (wind5OpenedBy != MEASURE2)){
 8006584:	4b58      	ldr	r3, [pc, #352]	; (80066e8 <window_3_callback+0x1f8>)
 8006586:	781b      	ldrb	r3, [r3, #0]
 8006588:	b11b      	cbz	r3, 8006592 <window_3_callback+0xa2>
 800658a:	4b58      	ldr	r3, [pc, #352]	; (80066ec <window_3_callback+0x1fc>)
 800658c:	781b      	ldrb	r3, [r3, #0]
 800658e:	2b02      	cmp	r3, #2
 8006590:	d01c      	beq.n	80065cc <window_3_callback+0xdc>
						showWindow5 = 1;			/* show submenu */
 8006592:	2201      	movs	r2, #1
 8006594:	4b54      	ldr	r3, [pc, #336]	; (80066e8 <window_3_callback+0x1f8>)
 8006596:	701a      	strb	r2, [r3, #0]
						wind5OpenedBy = MEASURE2;
 8006598:	2202      	movs	r2, #2
 800659a:	4b54      	ldr	r3, [pc, #336]	; (80066ec <window_3_callback+0x1fc>)
 800659c:	701a      	strb	r2, [r3, #0]
						UG_ButtonSetText(&window_5, BTN_ID_0, (measure2.src == CHANNEL1) ? "CH1" : "CH2");
 800659e:	4b59      	ldr	r3, [pc, #356]	; (8006704 <window_3_callback+0x214>)
 80065a0:	781b      	ldrb	r3, [r3, #0]
 80065a2:	2b01      	cmp	r3, #1
 80065a4:	d010      	beq.n	80065c8 <window_3_callback+0xd8>
 80065a6:	4a53      	ldr	r2, [pc, #332]	; (80066f4 <window_3_callback+0x204>)
 80065a8:	4c53      	ldr	r4, [pc, #332]	; (80066f8 <window_3_callback+0x208>)
 80065aa:	2100      	movs	r1, #0
 80065ac:	4620      	mov	r0, r4
 80065ae:	f7ff f893 	bl	80056d8 <UG_ButtonSetText>
						UG_ButtonSetText(&window_5, BTN_ID_1, measParamTexts[measure2.param]);
 80065b2:	4b54      	ldr	r3, [pc, #336]	; (8006704 <window_3_callback+0x214>)
 80065b4:	785a      	ldrb	r2, [r3, #1]
 80065b6:	eb02 0282 	add.w	r2, r2, r2, lsl #2
 80065ba:	4b50      	ldr	r3, [pc, #320]	; (80066fc <window_3_callback+0x20c>)
 80065bc:	441a      	add	r2, r3
 80065be:	2101      	movs	r1, #1
 80065c0:	4620      	mov	r0, r4
 80065c2:	f7ff f889 	bl	80056d8 <UG_ButtonSetText>
 80065c6:	e08d      	b.n	80066e4 <window_3_callback+0x1f4>
						UG_ButtonSetText(&window_5, BTN_ID_0, (measure2.src == CHANNEL1) ? "CH1" : "CH2");
 80065c8:	4a4d      	ldr	r2, [pc, #308]	; (8006700 <window_3_callback+0x210>)
 80065ca:	e7ed      	b.n	80065a8 <window_3_callback+0xb8>
						showWindow5 = 0;			/* close submenu */
 80065cc:	2300      	movs	r3, #0
 80065ce:	4a46      	ldr	r2, [pc, #280]	; (80066e8 <window_3_callback+0x1f8>)
 80065d0:	7013      	strb	r3, [r2, #0]
						wind5OpenedBy = MEASURE_NONE;
 80065d2:	4a46      	ldr	r2, [pc, #280]	; (80066ec <window_3_callback+0x1fc>)
 80065d4:	7013      	strb	r3, [r2, #0]
						fillFrameUGUI(WIND5_X_START, WIND5_Y_START, WIND5_X_START + WIND5_WIDTH - 1, WIND5_Y_START + WIND5_HEIGHT - 1, C_BLACK);
 80065d6:	9300      	str	r3, [sp, #0]
 80065d8:	2395      	movs	r3, #149	; 0x95
 80065da:	f240 1285 	movw	r2, #389	; 0x185
 80065de:	215a      	movs	r1, #90	; 0x5a
 80065e0:	20fa      	movs	r0, #250	; 0xfa
 80065e2:	f7fa fb6b 	bl	8000cbc <fillFrameUGUI>
						drawGrid();
 80065e6:	f7ff fa47 	bl	8005a78 <drawGrid>
 80065ea:	e07b      	b.n	80066e4 <window_3_callback+0x1f4>
					if((showWindow5 == 0) || (wind5OpenedBy != MEASURE3)){
 80065ec:	4b3e      	ldr	r3, [pc, #248]	; (80066e8 <window_3_callback+0x1f8>)
 80065ee:	781b      	ldrb	r3, [r3, #0]
 80065f0:	b11b      	cbz	r3, 80065fa <window_3_callback+0x10a>
 80065f2:	4b3e      	ldr	r3, [pc, #248]	; (80066ec <window_3_callback+0x1fc>)
 80065f4:	781b      	ldrb	r3, [r3, #0]
 80065f6:	2b03      	cmp	r3, #3
 80065f8:	d01c      	beq.n	8006634 <window_3_callback+0x144>
						showWindow5 = 1;			/* show submenu */
 80065fa:	2201      	movs	r2, #1
 80065fc:	4b3a      	ldr	r3, [pc, #232]	; (80066e8 <window_3_callback+0x1f8>)
 80065fe:	701a      	strb	r2, [r3, #0]
						wind5OpenedBy = MEASURE3;
 8006600:	2203      	movs	r2, #3
 8006602:	4b3a      	ldr	r3, [pc, #232]	; (80066ec <window_3_callback+0x1fc>)
 8006604:	701a      	strb	r2, [r3, #0]
						UG_ButtonSetText(&window_5, BTN_ID_0, (measure3.src == CHANNEL1) ? "CH1" : "CH2");
 8006606:	4b40      	ldr	r3, [pc, #256]	; (8006708 <window_3_callback+0x218>)
 8006608:	781b      	ldrb	r3, [r3, #0]
 800660a:	2b01      	cmp	r3, #1
 800660c:	d010      	beq.n	8006630 <window_3_callback+0x140>
 800660e:	4a39      	ldr	r2, [pc, #228]	; (80066f4 <window_3_callback+0x204>)
 8006610:	4c39      	ldr	r4, [pc, #228]	; (80066f8 <window_3_callback+0x208>)
 8006612:	2100      	movs	r1, #0
 8006614:	4620      	mov	r0, r4
 8006616:	f7ff f85f 	bl	80056d8 <UG_ButtonSetText>
						UG_ButtonSetText(&window_5, BTN_ID_1, measParamTexts[measure3.param]);
 800661a:	4b3b      	ldr	r3, [pc, #236]	; (8006708 <window_3_callback+0x218>)
 800661c:	785a      	ldrb	r2, [r3, #1]
 800661e:	eb02 0282 	add.w	r2, r2, r2, lsl #2
 8006622:	4b36      	ldr	r3, [pc, #216]	; (80066fc <window_3_callback+0x20c>)
 8006624:	441a      	add	r2, r3
 8006626:	2101      	movs	r1, #1
 8006628:	4620      	mov	r0, r4
 800662a:	f7ff f855 	bl	80056d8 <UG_ButtonSetText>
 800662e:	e059      	b.n	80066e4 <window_3_callback+0x1f4>
						UG_ButtonSetText(&window_5, BTN_ID_0, (measure3.src == CHANNEL1) ? "CH1" : "CH2");
 8006630:	4a33      	ldr	r2, [pc, #204]	; (8006700 <window_3_callback+0x210>)
 8006632:	e7ed      	b.n	8006610 <window_3_callback+0x120>
						showWindow5 = 0;			/* close submenu */
 8006634:	2300      	movs	r3, #0
 8006636:	4a2c      	ldr	r2, [pc, #176]	; (80066e8 <window_3_callback+0x1f8>)
 8006638:	7013      	strb	r3, [r2, #0]
						wind5OpenedBy = MEASURE_NONE;
 800663a:	4a2c      	ldr	r2, [pc, #176]	; (80066ec <window_3_callback+0x1fc>)
 800663c:	7013      	strb	r3, [r2, #0]
						fillFrameUGUI(WIND5_X_START, WIND5_Y_START, WIND5_X_START + WIND5_WIDTH - 1, WIND5_Y_START + WIND5_HEIGHT - 1, C_BLACK);
 800663e:	9300      	str	r3, [sp, #0]
 8006640:	2395      	movs	r3, #149	; 0x95
 8006642:	f240 1285 	movw	r2, #389	; 0x185
 8006646:	215a      	movs	r1, #90	; 0x5a
 8006648:	20fa      	movs	r0, #250	; 0xfa
 800664a:	f7fa fb37 	bl	8000cbc <fillFrameUGUI>
						drawGrid();
 800664e:	f7ff fa13 	bl	8005a78 <drawGrid>
 8006652:	e047      	b.n	80066e4 <window_3_callback+0x1f4>
					if((showWindow5 == 0) || (wind5OpenedBy != MEASURE4)){
 8006654:	4b24      	ldr	r3, [pc, #144]	; (80066e8 <window_3_callback+0x1f8>)
 8006656:	781b      	ldrb	r3, [r3, #0]
 8006658:	b11b      	cbz	r3, 8006662 <window_3_callback+0x172>
 800665a:	4b24      	ldr	r3, [pc, #144]	; (80066ec <window_3_callback+0x1fc>)
 800665c:	781b      	ldrb	r3, [r3, #0]
 800665e:	2b04      	cmp	r3, #4
 8006660:	d01c      	beq.n	800669c <window_3_callback+0x1ac>
						showWindow5 = 1;			/* show submenu */
 8006662:	2201      	movs	r2, #1
 8006664:	4b20      	ldr	r3, [pc, #128]	; (80066e8 <window_3_callback+0x1f8>)
 8006666:	701a      	strb	r2, [r3, #0]
						wind5OpenedBy = MEASURE4;
 8006668:	2204      	movs	r2, #4
 800666a:	4b20      	ldr	r3, [pc, #128]	; (80066ec <window_3_callback+0x1fc>)
 800666c:	701a      	strb	r2, [r3, #0]
						UG_ButtonSetText(&window_5, BTN_ID_0, (measure4.src == CHANNEL1) ? "CH1" : "CH2");
 800666e:	4b27      	ldr	r3, [pc, #156]	; (800670c <window_3_callback+0x21c>)
 8006670:	781b      	ldrb	r3, [r3, #0]
 8006672:	2b01      	cmp	r3, #1
 8006674:	d010      	beq.n	8006698 <window_3_callback+0x1a8>
 8006676:	4a1f      	ldr	r2, [pc, #124]	; (80066f4 <window_3_callback+0x204>)
 8006678:	4c1f      	ldr	r4, [pc, #124]	; (80066f8 <window_3_callback+0x208>)
 800667a:	2100      	movs	r1, #0
 800667c:	4620      	mov	r0, r4
 800667e:	f7ff f82b 	bl	80056d8 <UG_ButtonSetText>
						UG_ButtonSetText(&window_5, BTN_ID_1, measParamTexts[measure4.param]);
 8006682:	4b22      	ldr	r3, [pc, #136]	; (800670c <window_3_callback+0x21c>)
 8006684:	785a      	ldrb	r2, [r3, #1]
 8006686:	eb02 0282 	add.w	r2, r2, r2, lsl #2
 800668a:	4b1c      	ldr	r3, [pc, #112]	; (80066fc <window_3_callback+0x20c>)
 800668c:	441a      	add	r2, r3
 800668e:	2101      	movs	r1, #1
 8006690:	4620      	mov	r0, r4
 8006692:	f7ff f821 	bl	80056d8 <UG_ButtonSetText>
 8006696:	e025      	b.n	80066e4 <window_3_callback+0x1f4>
						UG_ButtonSetText(&window_5, BTN_ID_0, (measure4.src == CHANNEL1) ? "CH1" : "CH2");
 8006698:	4a19      	ldr	r2, [pc, #100]	; (8006700 <window_3_callback+0x210>)
 800669a:	e7ed      	b.n	8006678 <window_3_callback+0x188>
						showWindow5 = 0;			/* close submenu */
 800669c:	2300      	movs	r3, #0
 800669e:	4a12      	ldr	r2, [pc, #72]	; (80066e8 <window_3_callback+0x1f8>)
 80066a0:	7013      	strb	r3, [r2, #0]
						wind5OpenedBy = MEASURE_NONE;
 80066a2:	4a12      	ldr	r2, [pc, #72]	; (80066ec <window_3_callback+0x1fc>)
 80066a4:	7013      	strb	r3, [r2, #0]
						fillFrameUGUI(WIND5_X_START, WIND5_Y_START, WIND5_X_START + WIND5_WIDTH - 1, WIND5_Y_START + WIND5_HEIGHT - 1, C_BLACK);
 80066a6:	9300      	str	r3, [sp, #0]
 80066a8:	2395      	movs	r3, #149	; 0x95
 80066aa:	f240 1285 	movw	r2, #389	; 0x185
 80066ae:	215a      	movs	r1, #90	; 0x5a
 80066b0:	20fa      	movs	r0, #250	; 0xfa
 80066b2:	f7fa fb03 	bl	8000cbc <fillFrameUGUI>
						drawGrid();
 80066b6:	f7ff f9df 	bl	8005a78 <drawGrid>
 80066ba:	e013      	b.n	80066e4 <window_3_callback+0x1f4>
					showWindow3 = 0;
 80066bc:	2400      	movs	r4, #0
 80066be:	4b14      	ldr	r3, [pc, #80]	; (8006710 <window_3_callback+0x220>)
 80066c0:	701c      	strb	r4, [r3, #0]
					showWindow5 = 0;			/* close any window 3 sub-menus */
 80066c2:	4b09      	ldr	r3, [pc, #36]	; (80066e8 <window_3_callback+0x1f8>)
 80066c4:	701c      	strb	r4, [r3, #0]
					fillFrameUGUI(WIND5_X_START, WIND5_Y_START, WIND5_X_START + WIND5_WIDTH - 1, WIND5_Y_START + WIND5_HEIGHT - 1, C_BLACK);
 80066c6:	9400      	str	r4, [sp, #0]
 80066c8:	2395      	movs	r3, #149	; 0x95
 80066ca:	f240 1285 	movw	r2, #389	; 0x185
 80066ce:	215a      	movs	r1, #90	; 0x5a
 80066d0:	20fa      	movs	r0, #250	; 0xfa
 80066d2:	f7fa faf3 	bl	8000cbc <fillFrameUGUI>
					wind5OpenedBy = MEASURE_NONE;
 80066d6:	4b05      	ldr	r3, [pc, #20]	; (80066ec <window_3_callback+0x1fc>)
 80066d8:	701c      	strb	r4, [r3, #0]
					showWindow4 = 1;			/* Go to Page 2 */
 80066da:	2201      	movs	r2, #1
 80066dc:	4b0d      	ldr	r3, [pc, #52]	; (8006714 <window_3_callback+0x224>)
 80066de:	701a      	strb	r2, [r3, #0]
					drawGrid();
 80066e0:	f7ff f9ca 	bl	8005a78 <drawGrid>
}
 80066e4:	b002      	add	sp, #8
 80066e6:	bd10      	pop	{r4, pc}
 80066e8:	20000160 	.word	0x20000160
 80066ec:	20000162 	.word	0x20000162
 80066f0:	20000bc0 	.word	0x20000bc0
 80066f4:	0801038c 	.word	0x0801038c
 80066f8:	20003318 	.word	0x20003318
 80066fc:	0800d130 	.word	0x0800d130
 8006700:	08010388 	.word	0x08010388
 8006704:	20000bc8 	.word	0x20000bc8
 8006708:	20000bc4 	.word	0x20000bc4
 800670c:	20000bcc 	.word	0x20000bcc
 8006710:	2000015e 	.word	0x2000015e
 8006714:	2000015f 	.word	0x2000015f

08006718 <window_1_callback>:
	if (msg->type == MSG_TYPE_OBJECT)
 8006718:	7803      	ldrb	r3, [r0, #0]
 800671a:	2b02      	cmp	r3, #2
 800671c:	d000      	beq.n	8006720 <window_1_callback+0x8>
 800671e:	4770      	bx	lr
	  if (msg->id == OBJ_TYPE_BUTTON)
 8006720:	7843      	ldrb	r3, [r0, #1]
 8006722:	2b01      	cmp	r3, #1
 8006724:	d1fb      	bne.n	800671e <window_1_callback+0x6>
		  if(msg->event == OBJ_EVENT_PRESSED)
 8006726:	78c3      	ldrb	r3, [r0, #3]
 8006728:	2b04      	cmp	r3, #4
 800672a:	d1f8      	bne.n	800671e <window_1_callback+0x6>
			 switch(msg->sub_id)
 800672c:	7883      	ldrb	r3, [r0, #2]
 800672e:	2b00      	cmp	r3, #0
 8006730:	d1f5      	bne.n	800671e <window_1_callback+0x6>
					if(menu_button_state == 0){
 8006732:	4b16      	ldr	r3, [pc, #88]	; (800678c <window_1_callback+0x74>)
 8006734:	781b      	ldrb	r3, [r3, #0]
 8006736:	b92b      	cbnz	r3, 8006744 <window_1_callback+0x2c>
						showWindow3 = 1;			/* show measurement menu */
 8006738:	2301      	movs	r3, #1
 800673a:	4a15      	ldr	r2, [pc, #84]	; (8006790 <window_1_callback+0x78>)
 800673c:	7013      	strb	r3, [r2, #0]
						menu_button_state = 1;
 800673e:	4a13      	ldr	r2, [pc, #76]	; (800678c <window_1_callback+0x74>)
 8006740:	7013      	strb	r3, [r2, #0]
 8006742:	4770      	bx	lr
{
 8006744:	b510      	push	{r4, lr}
 8006746:	b082      	sub	sp, #8
						showWindow3 = 0;			/* close menus and sub-menus */
 8006748:	2400      	movs	r4, #0
 800674a:	4b11      	ldr	r3, [pc, #68]	; (8006790 <window_1_callback+0x78>)
 800674c:	701c      	strb	r4, [r3, #0]
						showWindow4 = 0;
 800674e:	4b11      	ldr	r3, [pc, #68]	; (8006794 <window_1_callback+0x7c>)
 8006750:	701c      	strb	r4, [r3, #0]
						showWindow5 = 0;
 8006752:	4b11      	ldr	r3, [pc, #68]	; (8006798 <window_1_callback+0x80>)
 8006754:	701c      	strb	r4, [r3, #0]
						showWindow6 = 0;
 8006756:	4b11      	ldr	r3, [pc, #68]	; (800679c <window_1_callback+0x84>)
 8006758:	701c      	strb	r4, [r3, #0]
						wind5OpenedBy = MEASURE_NONE;
 800675a:	4b11      	ldr	r3, [pc, #68]	; (80067a0 <window_1_callback+0x88>)
 800675c:	701c      	strb	r4, [r3, #0]
						menu_button_state = 0;
 800675e:	4b0b      	ldr	r3, [pc, #44]	; (800678c <window_1_callback+0x74>)
 8006760:	701c      	strb	r4, [r3, #0]
						fillFrameUGUI(LCD_WIDTH - WIND3_WIDTH, MENUBAR_HEIGHT + 10, LCD_WIDTH - 1, LCD_HEIGHT - MENUBAR_HEIGHT - 11, C_BLACK);	/* clear menu area */
 8006762:	9400      	str	r4, [sp, #0]
 8006764:	23f6      	movs	r3, #246	; 0xf6
 8006766:	f240 12df 	movw	r2, #479	; 0x1df
 800676a:	2119      	movs	r1, #25
 800676c:	f44f 70c8 	mov.w	r0, #400	; 0x190
 8006770:	f7fa faa4 	bl	8000cbc <fillFrameUGUI>
						fillFrameUGUI(WIND5_X_START, WIND5_Y_START, WIND5_X_START + WIND5_WIDTH, WIND5_Y_START + WIND5_HEIGHT, C_BLACK);	/* clear window 5 area */
 8006774:	9400      	str	r4, [sp, #0]
 8006776:	2396      	movs	r3, #150	; 0x96
 8006778:	f44f 72c3 	mov.w	r2, #390	; 0x186
 800677c:	215a      	movs	r1, #90	; 0x5a
 800677e:	20fa      	movs	r0, #250	; 0xfa
 8006780:	f7fa fa9c 	bl	8000cbc <fillFrameUGUI>
						drawGrid();
 8006784:	f7ff f978 	bl	8005a78 <drawGrid>
}
 8006788:	b002      	add	sp, #8
 800678a:	bd10      	pop	{r4, pc}
 800678c:	2000015d 	.word	0x2000015d
 8006790:	2000015e 	.word	0x2000015e
 8006794:	2000015f 	.word	0x2000015f
 8006798:	20000160 	.word	0x20000160
 800679c:	20000161 	.word	0x20000161
 80067a0:	20000162 	.word	0x20000162
 80067a4:	00000000 	.word	0x00000000

080067a8 <voltsToStr>:
{
 80067a8:	b530      	push	{r4, r5, lr}
 80067aa:	b083      	sub	sp, #12
 80067ac:	460c      	mov	r4, r1
	volts = (val * 3.3) / 255;
 80067ae:	f7f9 fe85 	bl	80004bc <__aeabi_i2d>
 80067b2:	a33f      	add	r3, pc, #252	; (adr r3, 80068b0 <voltsToStr+0x108>)
 80067b4:	e9d3 2300 	ldrd	r2, r3, [r3]
 80067b8:	f7f9 fee6 	bl	8000588 <__aeabi_dmul>
 80067bc:	a33e      	add	r3, pc, #248	; (adr r3, 80068b8 <voltsToStr+0x110>)
 80067be:	e9d3 2300 	ldrd	r2, r3, [r3]
 80067c2:	f7fa f80b 	bl	80007dc <__aeabi_ddiv>
 80067c6:	f7fa f9c1 	bl	8000b4c <__aeabi_d2f>
 80067ca:	ee07 0a90 	vmov	s15, r0
	if(volts < 1){
 80067ce:	eeb7 7a00 	vmov.f32	s14, #112	; 0x3f800000  1.0
 80067d2:	eef4 7ac7 	vcmpe.f32	s15, s14
 80067d6:	eef1 fa10 	vmrs	APSR_nzcv, fpscr
 80067da:	d41b      	bmi.n	8006814 <voltsToStr+0x6c>
		gcvt(volts, 3, buf2);
 80067dc:	f7f9 fe80 	bl	80004e0 <__aeabi_f2d>
 80067e0:	ec41 0b10 	vmov	d0, r0, r1
 80067e4:	4669      	mov	r1, sp
 80067e6:	2003      	movs	r0, #3
 80067e8:	f003 fdcc 	bl	800a384 <gcvt>
		len = strlen(buf2);
 80067ec:	4668      	mov	r0, sp
 80067ee:	f7f9 fd0b 	bl	8000208 <strlen>
 80067f2:	b2c0      	uxtb	r0, r0
		if(len == 3)
 80067f4:	2803      	cmp	r0, #3
 80067f6:	d040      	beq.n	800687a <voltsToStr+0xd2>
		else if(len == 1)
 80067f8:	2801      	cmp	r0, #1
 80067fa:	d045      	beq.n	8006888 <voltsToStr+0xe0>
		strcat(buf, buf2);
 80067fc:	4669      	mov	r1, sp
 80067fe:	4620      	mov	r0, r4
 8006800:	f003 fe32 	bl	800a468 <strcat>
		strcat(buf, "V");
 8006804:	4620      	mov	r0, r4
 8006806:	f7f9 fcff 	bl	8000208 <strlen>
 800680a:	4b23      	ldr	r3, [pc, #140]	; (8006898 <voltsToStr+0xf0>)
 800680c:	881b      	ldrh	r3, [r3, #0]
 800680e:	5223      	strh	r3, [r4, r0]
}
 8006810:	b003      	add	sp, #12
 8006812:	bd30      	pop	{r4, r5, pc}
		itoa(volts*1000, buf2, 10);
 8006814:	ed9f 7a21 	vldr	s14, [pc, #132]	; 800689c <voltsToStr+0xf4>
 8006818:	ee67 7a87 	vmul.f32	s15, s15, s14
 800681c:	220a      	movs	r2, #10
 800681e:	4669      	mov	r1, sp
 8006820:	eefd 7ae7 	vcvt.s32.f32	s15, s15
 8006824:	ee17 0a90 	vmov	r0, s15
 8006828:	f003 fe14 	bl	800a454 <itoa>
		len = strlen(buf2);
 800682c:	4668      	mov	r0, sp
 800682e:	f7f9 fceb 	bl	8000208 <strlen>
 8006832:	b2c0      	uxtb	r0, r0
		if(len == 1)
 8006834:	2801      	cmp	r0, #1
 8006836:	d00f      	beq.n	8006858 <voltsToStr+0xb0>
		else if(len == 2)
 8006838:	2802      	cmp	r0, #2
 800683a:	d017      	beq.n	800686c <voltsToStr+0xc4>
		strcat(buf, buf2);
 800683c:	4669      	mov	r1, sp
 800683e:	4620      	mov	r0, r4
 8006840:	f003 fe12 	bl	800a468 <strcat>
		strcat(buf, "mV");
 8006844:	4620      	mov	r0, r4
 8006846:	f7f9 fcdf 	bl	8000208 <strlen>
 800684a:	1822      	adds	r2, r4, r0
 800684c:	4b14      	ldr	r3, [pc, #80]	; (80068a0 <voltsToStr+0xf8>)
 800684e:	8819      	ldrh	r1, [r3, #0]
 8006850:	789b      	ldrb	r3, [r3, #2]
 8006852:	5221      	strh	r1, [r4, r0]
 8006854:	7093      	strb	r3, [r2, #2]
 8006856:	e7db      	b.n	8006810 <voltsToStr+0x68>
			strcat(buf, "  ");
 8006858:	4620      	mov	r0, r4
 800685a:	f7f9 fcd5 	bl	8000208 <strlen>
 800685e:	1822      	adds	r2, r4, r0
 8006860:	4b10      	ldr	r3, [pc, #64]	; (80068a4 <voltsToStr+0xfc>)
 8006862:	8819      	ldrh	r1, [r3, #0]
 8006864:	789b      	ldrb	r3, [r3, #2]
 8006866:	5221      	strh	r1, [r4, r0]
 8006868:	7093      	strb	r3, [r2, #2]
 800686a:	e7e7      	b.n	800683c <voltsToStr+0x94>
			strcat(buf, " ");
 800686c:	4620      	mov	r0, r4
 800686e:	f7f9 fccb 	bl	8000208 <strlen>
 8006872:	4b0d      	ldr	r3, [pc, #52]	; (80068a8 <voltsToStr+0x100>)
 8006874:	881b      	ldrh	r3, [r3, #0]
 8006876:	5223      	strh	r3, [r4, r0]
 8006878:	e7e0      	b.n	800683c <voltsToStr+0x94>
			strcat(buf, " ");
 800687a:	4620      	mov	r0, r4
 800687c:	f7f9 fcc4 	bl	8000208 <strlen>
 8006880:	4b09      	ldr	r3, [pc, #36]	; (80068a8 <voltsToStr+0x100>)
 8006882:	881b      	ldrh	r3, [r3, #0]
 8006884:	5223      	strh	r3, [r4, r0]
 8006886:	e7b9      	b.n	80067fc <voltsToStr+0x54>
			strcat(buf, "   ");
 8006888:	4620      	mov	r0, r4
 800688a:	f7f9 fcbd 	bl	8000208 <strlen>
 800688e:	4603      	mov	r3, r0
 8006890:	4a06      	ldr	r2, [pc, #24]	; (80068ac <voltsToStr+0x104>)
 8006892:	6810      	ldr	r0, [r2, #0]
 8006894:	50e0      	str	r0, [r4, r3]
 8006896:	e7b1      	b.n	80067fc <voltsToStr+0x54>
 8006898:	080100e4 	.word	0x080100e4
 800689c:	447a0000 	.word	0x447a0000
 80068a0:	08010380 	.word	0x08010380
 80068a4:	0801037c 	.word	0x0801037c
 80068a8:	080100b4 	.word	0x080100b4
 80068ac:	08010384 	.word	0x08010384
 80068b0:	66666666 	.word	0x66666666
 80068b4:	400a6666 	.word	0x400a6666
 80068b8:	00000000 	.word	0x00000000
 80068bc:	406fe000 	.word	0x406fe000

080068c0 <hertzToStr>:
{
 80068c0:	b530      	push	{r4, r5, lr}
 80068c2:	b083      	sub	sp, #12
 80068c4:	4604      	mov	r4, r0
	if(freq < 1000){
 80068c6:	eddf 7a43 	vldr	s15, [pc, #268]	; 80069d4 <hertzToStr+0x114>
 80068ca:	eeb4 0ae7 	vcmpe.f32	s0, s15
 80068ce:	eef1 fa10 	vmrs	APSR_nzcv, fpscr
 80068d2:	d53e      	bpl.n	8006952 <hertzToStr+0x92>
		itoa(freq, buf2, 10);
 80068d4:	220a      	movs	r2, #10
 80068d6:	4669      	mov	r1, sp
 80068d8:	eefd 7ac0 	vcvt.s32.f32	s15, s0
 80068dc:	ee17 0a90 	vmov	r0, s15
 80068e0:	f003 fdb8 	bl	800a454 <itoa>
		len = strlen(buf2);
 80068e4:	4668      	mov	r0, sp
 80068e6:	f7f9 fc8f 	bl	8000208 <strlen>
 80068ea:	b2c0      	uxtb	r0, r0
		if(len == 1)
 80068ec:	2801      	cmp	r0, #1
 80068ee:	d012      	beq.n	8006916 <hertzToStr+0x56>
		else if(len == 2)
 80068f0:	2802      	cmp	r0, #2
 80068f2:	d01b      	beq.n	800692c <hertzToStr+0x6c>
		else if(len == 3)
 80068f4:	2803      	cmp	r0, #3
 80068f6:	d024      	beq.n	8006942 <hertzToStr+0x82>
		strcat(buf, buf2);
 80068f8:	4669      	mov	r1, sp
 80068fa:	4620      	mov	r0, r4
 80068fc:	f003 fdb4 	bl	800a468 <strcat>
		strcat(buf, "Hz");
 8006900:	4620      	mov	r0, r4
 8006902:	f7f9 fc81 	bl	8000208 <strlen>
 8006906:	1822      	adds	r2, r4, r0
 8006908:	4b33      	ldr	r3, [pc, #204]	; (80069d8 <hertzToStr+0x118>)
 800690a:	8819      	ldrh	r1, [r3, #0]
 800690c:	789b      	ldrb	r3, [r3, #2]
 800690e:	5221      	strh	r1, [r4, r0]
 8006910:	7093      	strb	r3, [r2, #2]
}
 8006912:	b003      	add	sp, #12
 8006914:	bd30      	pop	{r4, r5, pc}
			strcat(buf, "     ");
 8006916:	4620      	mov	r0, r4
 8006918:	f7f9 fc76 	bl	8000208 <strlen>
 800691c:	4602      	mov	r2, r0
 800691e:	1821      	adds	r1, r4, r0
 8006920:	4b2e      	ldr	r3, [pc, #184]	; (80069dc <hertzToStr+0x11c>)
 8006922:	6818      	ldr	r0, [r3, #0]
 8006924:	50a0      	str	r0, [r4, r2]
 8006926:	889b      	ldrh	r3, [r3, #4]
 8006928:	808b      	strh	r3, [r1, #4]
 800692a:	e7e5      	b.n	80068f8 <hertzToStr+0x38>
			strcat(buf, "    ");
 800692c:	4620      	mov	r0, r4
 800692e:	f7f9 fc6b 	bl	8000208 <strlen>
 8006932:	4602      	mov	r2, r0
 8006934:	1821      	adds	r1, r4, r0
 8006936:	4b2a      	ldr	r3, [pc, #168]	; (80069e0 <hertzToStr+0x120>)
 8006938:	6818      	ldr	r0, [r3, #0]
 800693a:	50a0      	str	r0, [r4, r2]
 800693c:	791b      	ldrb	r3, [r3, #4]
 800693e:	710b      	strb	r3, [r1, #4]
 8006940:	e7da      	b.n	80068f8 <hertzToStr+0x38>
			strcat(buf, "   ");
 8006942:	4620      	mov	r0, r4
 8006944:	f7f9 fc60 	bl	8000208 <strlen>
 8006948:	4603      	mov	r3, r0
 800694a:	4a26      	ldr	r2, [pc, #152]	; (80069e4 <hertzToStr+0x124>)
 800694c:	6810      	ldr	r0, [r2, #0]
 800694e:	50e0      	str	r0, [r4, r3]
 8006950:	e7d2      	b.n	80068f8 <hertzToStr+0x38>
		gcvt(Khz, 4, buf2);
 8006952:	eddf 7a20 	vldr	s15, [pc, #128]	; 80069d4 <hertzToStr+0x114>
 8006956:	ee80 7a27 	vdiv.f32	s14, s0, s15
 800695a:	ee17 0a10 	vmov	r0, s14
 800695e:	f7f9 fdbf 	bl	80004e0 <__aeabi_f2d>
 8006962:	ec41 0b10 	vmov	d0, r0, r1
 8006966:	4669      	mov	r1, sp
 8006968:	2004      	movs	r0, #4
 800696a:	f003 fd0b 	bl	800a384 <gcvt>
		len = strlen(buf2);
 800696e:	4668      	mov	r0, sp
 8006970:	f7f9 fc4a 	bl	8000208 <strlen>
 8006974:	b2c0      	uxtb	r0, r0
		if(len == 1)
 8006976:	2801      	cmp	r0, #1
 8006978:	d00f      	beq.n	800699a <hertzToStr+0xda>
		else if(len == 3)
 800697a:	2803      	cmp	r0, #3
 800697c:	d018      	beq.n	80069b0 <hertzToStr+0xf0>
		else if(len == 4)
 800697e:	2804      	cmp	r0, #4
 8006980:	d020      	beq.n	80069c4 <hertzToStr+0x104>
		strcat(buf, buf2);
 8006982:	4669      	mov	r1, sp
 8006984:	4620      	mov	r0, r4
 8006986:	f003 fd6f 	bl	800a468 <strcat>
		strcat(buf, "KHz");
 800698a:	4620      	mov	r0, r4
 800698c:	f7f9 fc3c 	bl	8000208 <strlen>
 8006990:	4603      	mov	r3, r0
 8006992:	4a15      	ldr	r2, [pc, #84]	; (80069e8 <hertzToStr+0x128>)
 8006994:	6810      	ldr	r0, [r2, #0]
 8006996:	50e0      	str	r0, [r4, r3]
}
 8006998:	e7bb      	b.n	8006912 <hertzToStr+0x52>
			strcat(buf, "    ");
 800699a:	4620      	mov	r0, r4
 800699c:	f7f9 fc34 	bl	8000208 <strlen>
 80069a0:	4602      	mov	r2, r0
 80069a2:	1821      	adds	r1, r4, r0
 80069a4:	4b0e      	ldr	r3, [pc, #56]	; (80069e0 <hertzToStr+0x120>)
 80069a6:	6818      	ldr	r0, [r3, #0]
 80069a8:	50a0      	str	r0, [r4, r2]
 80069aa:	791b      	ldrb	r3, [r3, #4]
 80069ac:	710b      	strb	r3, [r1, #4]
 80069ae:	e7e8      	b.n	8006982 <hertzToStr+0xc2>
			strcat(buf, "  ");
 80069b0:	4620      	mov	r0, r4
 80069b2:	f7f9 fc29 	bl	8000208 <strlen>
 80069b6:	1822      	adds	r2, r4, r0
 80069b8:	4b0c      	ldr	r3, [pc, #48]	; (80069ec <hertzToStr+0x12c>)
 80069ba:	8819      	ldrh	r1, [r3, #0]
 80069bc:	789b      	ldrb	r3, [r3, #2]
 80069be:	5221      	strh	r1, [r4, r0]
 80069c0:	7093      	strb	r3, [r2, #2]
 80069c2:	e7de      	b.n	8006982 <hertzToStr+0xc2>
			strcat(buf, " ");
 80069c4:	4620      	mov	r0, r4
 80069c6:	f7f9 fc1f 	bl	8000208 <strlen>
 80069ca:	4b09      	ldr	r3, [pc, #36]	; (80069f0 <hertzToStr+0x130>)
 80069cc:	881b      	ldrh	r3, [r3, #0]
 80069ce:	5223      	strh	r3, [r4, r0]
 80069d0:	e7d7      	b.n	8006982 <hertzToStr+0xc2>
 80069d2:	bf00      	nop
 80069d4:	447a0000 	.word	0x447a0000
 80069d8:	080100c0 	.word	0x080100c0
 80069dc:	080100b0 	.word	0x080100b0
 80069e0:	080100b8 	.word	0x080100b8
 80069e4:	08010384 	.word	0x08010384
 80069e8:	080100c4 	.word	0x080100c4
 80069ec:	0801037c 	.word	0x0801037c
 80069f0:	080100b4 	.word	0x080100b4

080069f4 <secToStr>:
{
 80069f4:	b538      	push	{r3, r4, r5, lr}
 80069f6:	ed2d 8b02 	vpush	{d8}
 80069fa:	4604      	mov	r4, r0
	t = t * 1000000;	/* convert to usec */
 80069fc:	ed9f 8a39 	vldr	s16, [pc, #228]	; 8006ae4 <secToStr+0xf0>
 8006a00:	ee20 8a08 	vmul.f32	s16, s0, s16
	if(abs(t) < 100){
 8006a04:	eefd 7ac8 	vcvt.s32.f32	s15, s16
 8006a08:	ee17 0a90 	vmov	r0, s15
 8006a0c:	f100 0363 	add.w	r3, r0, #99	; 0x63
 8006a10:	2bc6      	cmp	r3, #198	; 0xc6
 8006a12:	d828      	bhi.n	8006a66 <secToStr+0x72>
		gcvt((int32_t)(t*100)/100.0f, 3 + (t < -10), buf);
 8006a14:	ed9f 7a34 	vldr	s14, [pc, #208]	; 8006ae8 <secToStr+0xf4>
 8006a18:	ee68 7a07 	vmul.f32	s15, s16, s14
 8006a1c:	eefd 7ae7 	vcvt.s32.f32	s15, s15
 8006a20:	eef8 7ae7 	vcvt.f32.s32	s15, s15
 8006a24:	eec7 6a87 	vdiv.f32	s13, s15, s14
 8006a28:	ee16 0a90 	vmov	r0, s13
 8006a2c:	f7f9 fd58 	bl	80004e0 <__aeabi_f2d>
 8006a30:	ec41 0b10 	vmov	d0, r0, r1
 8006a34:	eefa 7a04 	vmov.f32	s15, #164	; 0xc1200000 -10.0
 8006a38:	eeb4 8ae7 	vcmpe.f32	s16, s15
 8006a3c:	eef1 fa10 	vmrs	APSR_nzcv, fpscr
 8006a40:	d40f      	bmi.n	8006a62 <secToStr+0x6e>
 8006a42:	2003      	movs	r0, #3
 8006a44:	4621      	mov	r1, r4
 8006a46:	f003 fc9d 	bl	800a384 <gcvt>
		strcat(buf, "us");
 8006a4a:	4620      	mov	r0, r4
 8006a4c:	f7f9 fbdc 	bl	8000208 <strlen>
 8006a50:	1822      	adds	r2, r4, r0
 8006a52:	4b26      	ldr	r3, [pc, #152]	; (8006aec <secToStr+0xf8>)
 8006a54:	8819      	ldrh	r1, [r3, #0]
 8006a56:	789b      	ldrb	r3, [r3, #2]
 8006a58:	5221      	strh	r1, [r4, r0]
 8006a5a:	7093      	strb	r3, [r2, #2]
}
 8006a5c:	ecbd 8b02 	vpop	{d8}
 8006a60:	bd38      	pop	{r3, r4, r5, pc}
		gcvt((int32_t)(t*100)/100.0f, 3 + (t < -10), buf);
 8006a62:	2004      	movs	r0, #4
 8006a64:	e7ee      	b.n	8006a44 <secToStr+0x50>
	else if(abs(t) < 1000){
 8006a66:	f200 32e7 	addw	r2, r0, #999	; 0x3e7
 8006a6a:	f240 73ce 	movw	r3, #1998	; 0x7ce
 8006a6e:	429a      	cmp	r2, r3
 8006a70:	d928      	bls.n	8006ac4 <secToStr+0xd0>
		t = t/1000;		/* convert to msec */
 8006a72:	eddf 7a1f 	vldr	s15, [pc, #124]	; 8006af0 <secToStr+0xfc>
 8006a76:	eec8 8a27 	vdiv.f32	s17, s16, s15
		gcvt((int32_t)(t*100)/100.0f, 3 + (t < -10), buf);
 8006a7a:	ed9f 7a1b 	vldr	s14, [pc, #108]	; 8006ae8 <secToStr+0xf4>
 8006a7e:	ee68 7a87 	vmul.f32	s15, s17, s14
 8006a82:	eefd 7ae7 	vcvt.s32.f32	s15, s15
 8006a86:	eef8 7ae7 	vcvt.f32.s32	s15, s15
 8006a8a:	eec7 6a87 	vdiv.f32	s13, s15, s14
 8006a8e:	ee16 0a90 	vmov	r0, s13
 8006a92:	f7f9 fd25 	bl	80004e0 <__aeabi_f2d>
 8006a96:	ec41 0b10 	vmov	d0, r0, r1
 8006a9a:	eefa 7a04 	vmov.f32	s15, #164	; 0xc1200000 -10.0
 8006a9e:	eef4 8ae7 	vcmpe.f32	s17, s15
 8006aa2:	eef1 fa10 	vmrs	APSR_nzcv, fpscr
 8006aa6:	d51b      	bpl.n	8006ae0 <secToStr+0xec>
 8006aa8:	2004      	movs	r0, #4
 8006aaa:	4621      	mov	r1, r4
 8006aac:	f003 fc6a 	bl	800a384 <gcvt>
		strcat(buf, "ms");
 8006ab0:	4620      	mov	r0, r4
 8006ab2:	f7f9 fba9 	bl	8000208 <strlen>
 8006ab6:	1822      	adds	r2, r4, r0
 8006ab8:	4b0e      	ldr	r3, [pc, #56]	; (8006af4 <secToStr+0x100>)
 8006aba:	8819      	ldrh	r1, [r3, #0]
 8006abc:	789b      	ldrb	r3, [r3, #2]
 8006abe:	5221      	strh	r1, [r4, r0]
 8006ac0:	7093      	strb	r3, [r2, #2]
}
 8006ac2:	e7cb      	b.n	8006a5c <secToStr+0x68>
		itoa(t, buf, 10);
 8006ac4:	220a      	movs	r2, #10
 8006ac6:	4621      	mov	r1, r4
 8006ac8:	f003 fcc4 	bl	800a454 <itoa>
		strcat(buf, "us");
 8006acc:	4620      	mov	r0, r4
 8006ace:	f7f9 fb9b 	bl	8000208 <strlen>
 8006ad2:	1822      	adds	r2, r4, r0
 8006ad4:	4b05      	ldr	r3, [pc, #20]	; (8006aec <secToStr+0xf8>)
 8006ad6:	8819      	ldrh	r1, [r3, #0]
 8006ad8:	789b      	ldrb	r3, [r3, #2]
 8006ada:	5221      	strh	r1, [r4, r0]
 8006adc:	7093      	strb	r3, [r2, #2]
 8006ade:	e7bd      	b.n	8006a5c <secToStr+0x68>
		gcvt((int32_t)(t*100)/100.0f, 3 + (t < -10), buf);
 8006ae0:	2003      	movs	r0, #3
 8006ae2:	e7e2      	b.n	8006aaa <secToStr+0xb6>
 8006ae4:	49742400 	.word	0x49742400
 8006ae8:	42c80000 	.word	0x42c80000
 8006aec:	08010164 	.word	0x08010164
 8006af0:	447a0000 	.word	0x447a0000
 8006af4:	08010168 	.word	0x08010168

08006af8 <switchNextWindow>:
{
 8006af8:	b508      	push	{r3, lr}
	if(currWind == WINDOW1){
 8006afa:	4b24      	ldr	r3, [pc, #144]	; (8006b8c <switchNextWindow+0x94>)
 8006afc:	781b      	ldrb	r3, [r3, #0]
 8006afe:	2b01      	cmp	r3, #1
 8006b00:	d00c      	beq.n	8006b1c <switchNextWindow+0x24>
	else if(currWind == WINDOW2){
 8006b02:	2b02      	cmp	r3, #2
 8006b04:	d011      	beq.n	8006b2a <switchNextWindow+0x32>
	else if((currWind == WINDOW3) && showWindow5){
 8006b06:	2b03      	cmp	r3, #3
 8006b08:	d02a      	beq.n	8006b60 <switchNextWindow+0x68>
	else if((currWind == WINDOW4) && showWindow6){
 8006b0a:	2b04      	cmp	r3, #4
 8006b0c:	d033      	beq.n	8006b76 <switchNextWindow+0x7e>
		UG_WindowShow(&window_1);	/* top menubar */
 8006b0e:	4820      	ldr	r0, [pc, #128]	; (8006b90 <switchNextWindow+0x98>)
 8006b10:	f7fe f98c 	bl	8004e2c <UG_WindowShow>
		currWind = WINDOW1;
 8006b14:	2201      	movs	r2, #1
 8006b16:	4b1d      	ldr	r3, [pc, #116]	; (8006b8c <switchNextWindow+0x94>)
 8006b18:	701a      	strb	r2, [r3, #0]
 8006b1a:	bd08      	pop	{r3, pc}
		UG_WindowShow(&window_2);	/* bottom menubar */
 8006b1c:	481d      	ldr	r0, [pc, #116]	; (8006b94 <switchNextWindow+0x9c>)
 8006b1e:	f7fe f985 	bl	8004e2c <UG_WindowShow>
		currWind = WINDOW2;
 8006b22:	2202      	movs	r2, #2
 8006b24:	4b19      	ldr	r3, [pc, #100]	; (8006b8c <switchNextWindow+0x94>)
 8006b26:	701a      	strb	r2, [r3, #0]
 8006b28:	bd08      	pop	{r3, pc}
		if(showWindow3){
 8006b2a:	4b1b      	ldr	r3, [pc, #108]	; (8006b98 <switchNextWindow+0xa0>)
 8006b2c:	781b      	ldrb	r3, [r3, #0]
 8006b2e:	b94b      	cbnz	r3, 8006b44 <switchNextWindow+0x4c>
		else if(showWindow4){			/* menu page 2 */
 8006b30:	4b1a      	ldr	r3, [pc, #104]	; (8006b9c <switchNextWindow+0xa4>)
 8006b32:	781b      	ldrb	r3, [r3, #0]
 8006b34:	b16b      	cbz	r3, 8006b52 <switchNextWindow+0x5a>
			UG_WindowShow(&window_4);
 8006b36:	481a      	ldr	r0, [pc, #104]	; (8006ba0 <switchNextWindow+0xa8>)
 8006b38:	f7fe f978 	bl	8004e2c <UG_WindowShow>
			currWind = WINDOW4;
 8006b3c:	2204      	movs	r2, #4
 8006b3e:	4b13      	ldr	r3, [pc, #76]	; (8006b8c <switchNextWindow+0x94>)
 8006b40:	701a      	strb	r2, [r3, #0]
 8006b42:	bd08      	pop	{r3, pc}
			UG_WindowShow(&window_3);	/* menu page 1 */
 8006b44:	4817      	ldr	r0, [pc, #92]	; (8006ba4 <switchNextWindow+0xac>)
 8006b46:	f7fe f971 	bl	8004e2c <UG_WindowShow>
			currWind = WINDOW3;
 8006b4a:	2203      	movs	r2, #3
 8006b4c:	4b0f      	ldr	r3, [pc, #60]	; (8006b8c <switchNextWindow+0x94>)
 8006b4e:	701a      	strb	r2, [r3, #0]
 8006b50:	bd08      	pop	{r3, pc}
			UG_WindowShow(&window_1);
 8006b52:	480f      	ldr	r0, [pc, #60]	; (8006b90 <switchNextWindow+0x98>)
 8006b54:	f7fe f96a 	bl	8004e2c <UG_WindowShow>
			currWind = WINDOW1;
 8006b58:	2201      	movs	r2, #1
 8006b5a:	4b0c      	ldr	r3, [pc, #48]	; (8006b8c <switchNextWindow+0x94>)
 8006b5c:	701a      	strb	r2, [r3, #0]
 8006b5e:	bd08      	pop	{r3, pc}
	else if((currWind == WINDOW3) && showWindow5){
 8006b60:	4a11      	ldr	r2, [pc, #68]	; (8006ba8 <switchNextWindow+0xb0>)
 8006b62:	7812      	ldrb	r2, [r2, #0]
 8006b64:	2a00      	cmp	r2, #0
 8006b66:	d0d0      	beq.n	8006b0a <switchNextWindow+0x12>
		UG_WindowShow(&window_5);
 8006b68:	4810      	ldr	r0, [pc, #64]	; (8006bac <switchNextWindow+0xb4>)
 8006b6a:	f7fe f95f 	bl	8004e2c <UG_WindowShow>
		currWind = WINDOW5;
 8006b6e:	2205      	movs	r2, #5
 8006b70:	4b06      	ldr	r3, [pc, #24]	; (8006b8c <switchNextWindow+0x94>)
 8006b72:	701a      	strb	r2, [r3, #0]
 8006b74:	bd08      	pop	{r3, pc}
	else if((currWind == WINDOW4) && showWindow6){
 8006b76:	4b0e      	ldr	r3, [pc, #56]	; (8006bb0 <switchNextWindow+0xb8>)
 8006b78:	781b      	ldrb	r3, [r3, #0]
 8006b7a:	2b00      	cmp	r3, #0
 8006b7c:	d0c7      	beq.n	8006b0e <switchNextWindow+0x16>
		UG_WindowShow(&window_6);
 8006b7e:	480d      	ldr	r0, [pc, #52]	; (8006bb4 <switchNextWindow+0xbc>)
 8006b80:	f7fe f954 	bl	8004e2c <UG_WindowShow>
		currWind = WINDOW6;
 8006b84:	2206      	movs	r2, #6
 8006b86:	4b01      	ldr	r3, [pc, #4]	; (8006b8c <switchNextWindow+0x94>)
 8006b88:	701a      	strb	r2, [r3, #0]
 8006b8a:	bd08      	pop	{r3, pc}
 8006b8c:	20000020 	.word	0x20000020
 8006b90:	20003750 	.word	0x20003750
 8006b94:	2000371c 	.word	0x2000371c
 8006b98:	2000015e 	.word	0x2000015e
 8006b9c:	2000015f 	.word	0x2000015f
 8006ba0:	200039c8 	.word	0x200039c8
 8006ba4:	20003994 	.word	0x20003994
 8006ba8:	20000160 	.word	0x20000160
 8006bac:	20003318 	.word	0x20003318
 8006bb0:	20000161 	.word	0x20000161
 8006bb4:	2000334c 	.word	0x2000334c

08006bb8 <DisplayMeasurements>:
{
 8006bb8:	b510      	push	{r4, lr}
 8006bba:	b082      	sub	sp, #8
	if(measure1.param != MEAS_NONE){
 8006bbc:	4bbd      	ldr	r3, [pc, #756]	; (8006eb4 <DisplayMeasurements+0x2fc>)
 8006bbe:	7859      	ldrb	r1, [r3, #1]
 8006bc0:	2900      	cmp	r1, #0
 8006bc2:	f000 811d 	beq.w	8006e00 <DisplayMeasurements+0x248>
		if(measure1.param == MEAS_FREQ){
 8006bc6:	2901      	cmp	r1, #1
 8006bc8:	f000 80da 	beq.w	8006d80 <DisplayMeasurements+0x1c8>
		else if(measure1.param == MEAS_DUTY){
 8006bcc:	2902      	cmp	r1, #2
 8006bce:	f000 80f2 	beq.w	8006db6 <DisplayMeasurements+0x1fe>
			strcpy(buf1, measParamTexts[measure1.param]);
 8006bd2:	eb01 0181 	add.w	r1, r1, r1, lsl #2
 8006bd6:	4cb8      	ldr	r4, [pc, #736]	; (8006eb8 <DisplayMeasurements+0x300>)
 8006bd8:	4bb8      	ldr	r3, [pc, #736]	; (8006ebc <DisplayMeasurements+0x304>)
 8006bda:	4419      	add	r1, r3
 8006bdc:	4620      	mov	r0, r4
 8006bde:	f003 fc52 	bl	800a486 <strcpy>
			strcat(buf1, ":");
 8006be2:	4620      	mov	r0, r4
 8006be4:	f7f9 fb10 	bl	8000208 <strlen>
 8006be8:	4bb5      	ldr	r3, [pc, #724]	; (8006ec0 <DisplayMeasurements+0x308>)
 8006bea:	881b      	ldrh	r3, [r3, #0]
 8006bec:	5223      	strh	r3, [r4, r0]
			voltsToStr(calcMeasure(measure1.src, measure1.param), buf1 + 5);
 8006bee:	4bb1      	ldr	r3, [pc, #708]	; (8006eb4 <DisplayMeasurements+0x2fc>)
 8006bf0:	7859      	ldrb	r1, [r3, #1]
 8006bf2:	7818      	ldrb	r0, [r3, #0]
 8006bf4:	f7fc f9ba 	bl	8002f6c <calcMeasure>
 8006bf8:	eefc 7ac0 	vcvt.u32.f32	s15, s0
 8006bfc:	edcd 7a01 	vstr	s15, [sp, #4]
 8006c00:	1d61      	adds	r1, r4, #5
 8006c02:	f89d 0004 	ldrb.w	r0, [sp, #4]
 8006c06:	f7ff fdcf 	bl	80067a8 <voltsToStr>
		UG_TextboxSetBackColor(&window_2, TXB_ID_3, (measure1.src == CHANNEL1) ? CH1_COLOR : CH2_COLOR);
 8006c0a:	4baa      	ldr	r3, [pc, #680]	; (8006eb4 <DisplayMeasurements+0x2fc>)
 8006c0c:	781b      	ldrb	r3, [r3, #0]
 8006c0e:	2b01      	cmp	r3, #1
 8006c10:	f000 80f3 	beq.w	8006dfa <DisplayMeasurements+0x242>
 8006c14:	f240 72ff 	movw	r2, #2047	; 0x7ff
 8006c18:	4caa      	ldr	r4, [pc, #680]	; (8006ec4 <DisplayMeasurements+0x30c>)
 8006c1a:	2103      	movs	r1, #3
 8006c1c:	4620      	mov	r0, r4
 8006c1e:	f7fe fdc3 	bl	80057a8 <UG_TextboxSetBackColor>
		UG_TextboxSetText(&window_2, TXB_ID_3, buf1);
 8006c22:	4aa5      	ldr	r2, [pc, #660]	; (8006eb8 <DisplayMeasurements+0x300>)
 8006c24:	2103      	movs	r1, #3
 8006c26:	4620      	mov	r0, r4
 8006c28:	f7fe fdd0 	bl	80057cc <UG_TextboxSetText>
	if(measure2.param != MEAS_NONE){
 8006c2c:	4ba6      	ldr	r3, [pc, #664]	; (8006ec8 <DisplayMeasurements+0x310>)
 8006c2e:	7859      	ldrb	r1, [r3, #1]
 8006c30:	2900      	cmp	r1, #0
 8006c32:	f000 8132 	beq.w	8006e9a <DisplayMeasurements+0x2e2>
		if(measure2.param == MEAS_FREQ){
 8006c36:	2901      	cmp	r1, #1
 8006c38:	f000 80ef 	beq.w	8006e1a <DisplayMeasurements+0x262>
		else if(measure2.param == MEAS_DUTY){
 8006c3c:	2902      	cmp	r1, #2
 8006c3e:	f000 8107 	beq.w	8006e50 <DisplayMeasurements+0x298>
			strcpy(buf2, measParamTexts[measure2.param]);
 8006c42:	eb01 0181 	add.w	r1, r1, r1, lsl #2
 8006c46:	4ca1      	ldr	r4, [pc, #644]	; (8006ecc <DisplayMeasurements+0x314>)
 8006c48:	4b9c      	ldr	r3, [pc, #624]	; (8006ebc <DisplayMeasurements+0x304>)
 8006c4a:	4419      	add	r1, r3
 8006c4c:	4620      	mov	r0, r4
 8006c4e:	f003 fc1a 	bl	800a486 <strcpy>
			strcat(buf2, ":");
 8006c52:	4620      	mov	r0, r4
 8006c54:	f7f9 fad8 	bl	8000208 <strlen>
 8006c58:	4b99      	ldr	r3, [pc, #612]	; (8006ec0 <DisplayMeasurements+0x308>)
 8006c5a:	881b      	ldrh	r3, [r3, #0]
 8006c5c:	5223      	strh	r3, [r4, r0]
			voltsToStr(calcMeasure(measure2.src, measure2.param), buf2 + 5);
 8006c5e:	4b9a      	ldr	r3, [pc, #616]	; (8006ec8 <DisplayMeasurements+0x310>)
 8006c60:	7859      	ldrb	r1, [r3, #1]
 8006c62:	7818      	ldrb	r0, [r3, #0]
 8006c64:	f7fc f982 	bl	8002f6c <calcMeasure>
 8006c68:	eefc 7ac0 	vcvt.u32.f32	s15, s0
 8006c6c:	edcd 7a01 	vstr	s15, [sp, #4]
 8006c70:	1d61      	adds	r1, r4, #5
 8006c72:	f89d 0004 	ldrb.w	r0, [sp, #4]
 8006c76:	f7ff fd97 	bl	80067a8 <voltsToStr>
		UG_TextboxSetBackColor(&window_2, TXB_ID_4, (measure2.src == CHANNEL1) ? CH1_COLOR : CH2_COLOR);
 8006c7a:	4b93      	ldr	r3, [pc, #588]	; (8006ec8 <DisplayMeasurements+0x310>)
 8006c7c:	781b      	ldrb	r3, [r3, #0]
 8006c7e:	2b01      	cmp	r3, #1
 8006c80:	f000 8108 	beq.w	8006e94 <DisplayMeasurements+0x2dc>
 8006c84:	f240 72ff 	movw	r2, #2047	; 0x7ff
 8006c88:	4c8e      	ldr	r4, [pc, #568]	; (8006ec4 <DisplayMeasurements+0x30c>)
 8006c8a:	2104      	movs	r1, #4
 8006c8c:	4620      	mov	r0, r4
 8006c8e:	f7fe fd8b 	bl	80057a8 <UG_TextboxSetBackColor>
		UG_TextboxSetText(&window_2, TXB_ID_4, buf2);
 8006c92:	4a8e      	ldr	r2, [pc, #568]	; (8006ecc <DisplayMeasurements+0x314>)
 8006c94:	2104      	movs	r1, #4
 8006c96:	4620      	mov	r0, r4
 8006c98:	f7fe fd98 	bl	80057cc <UG_TextboxSetText>
	if(measure3.param != MEAS_NONE){
 8006c9c:	4b8c      	ldr	r3, [pc, #560]	; (8006ed0 <DisplayMeasurements+0x318>)
 8006c9e:	7859      	ldrb	r1, [r3, #1]
 8006ca0:	2900      	cmp	r1, #0
 8006ca2:	f000 8167 	beq.w	8006f74 <DisplayMeasurements+0x3bc>
		if(measure3.param == MEAS_FREQ){
 8006ca6:	2901      	cmp	r1, #1
 8006ca8:	f000 8124 	beq.w	8006ef4 <DisplayMeasurements+0x33c>
		else if(measure3.param == MEAS_DUTY){
 8006cac:	2902      	cmp	r1, #2
 8006cae:	f000 813c 	beq.w	8006f2a <DisplayMeasurements+0x372>
			strcpy(buf3, measParamTexts[measure3.param]);
 8006cb2:	eb01 0181 	add.w	r1, r1, r1, lsl #2
 8006cb6:	4c87      	ldr	r4, [pc, #540]	; (8006ed4 <DisplayMeasurements+0x31c>)
 8006cb8:	4b80      	ldr	r3, [pc, #512]	; (8006ebc <DisplayMeasurements+0x304>)
 8006cba:	4419      	add	r1, r3
 8006cbc:	4620      	mov	r0, r4
 8006cbe:	f003 fbe2 	bl	800a486 <strcpy>
			strcat(buf3, ":");
 8006cc2:	4620      	mov	r0, r4
 8006cc4:	f7f9 faa0 	bl	8000208 <strlen>
 8006cc8:	4b7d      	ldr	r3, [pc, #500]	; (8006ec0 <DisplayMeasurements+0x308>)
 8006cca:	881b      	ldrh	r3, [r3, #0]
 8006ccc:	5223      	strh	r3, [r4, r0]
			voltsToStr(calcMeasure(measure3.src, measure3.param), buf3 + 5);
 8006cce:	4b80      	ldr	r3, [pc, #512]	; (8006ed0 <DisplayMeasurements+0x318>)
 8006cd0:	7859      	ldrb	r1, [r3, #1]
 8006cd2:	7818      	ldrb	r0, [r3, #0]
 8006cd4:	f7fc f94a 	bl	8002f6c <calcMeasure>
 8006cd8:	eefc 7ac0 	vcvt.u32.f32	s15, s0
 8006cdc:	edcd 7a01 	vstr	s15, [sp, #4]
 8006ce0:	1d61      	adds	r1, r4, #5
 8006ce2:	f89d 0004 	ldrb.w	r0, [sp, #4]
 8006ce6:	f7ff fd5f 	bl	80067a8 <voltsToStr>
		UG_TextboxSetBackColor(&window_2, TXB_ID_5, (measure3.src == CHANNEL1) ? CH1_COLOR : CH2_COLOR);
 8006cea:	4b79      	ldr	r3, [pc, #484]	; (8006ed0 <DisplayMeasurements+0x318>)
 8006cec:	781b      	ldrb	r3, [r3, #0]
 8006cee:	2b01      	cmp	r3, #1
 8006cf0:	f000 813d 	beq.w	8006f6e <DisplayMeasurements+0x3b6>
 8006cf4:	f240 72ff 	movw	r2, #2047	; 0x7ff
 8006cf8:	4c72      	ldr	r4, [pc, #456]	; (8006ec4 <DisplayMeasurements+0x30c>)
 8006cfa:	2105      	movs	r1, #5
 8006cfc:	4620      	mov	r0, r4
 8006cfe:	f7fe fd53 	bl	80057a8 <UG_TextboxSetBackColor>
		UG_TextboxSetText(&window_2, TXB_ID_5, buf3);
 8006d02:	4a74      	ldr	r2, [pc, #464]	; (8006ed4 <DisplayMeasurements+0x31c>)
 8006d04:	2105      	movs	r1, #5
 8006d06:	4620      	mov	r0, r4
 8006d08:	f7fe fd60 	bl	80057cc <UG_TextboxSetText>
	if(measure4.param != MEAS_NONE){
 8006d0c:	4b72      	ldr	r3, [pc, #456]	; (8006ed8 <DisplayMeasurements+0x320>)
 8006d0e:	7859      	ldrb	r1, [r3, #1]
 8006d10:	2900      	cmp	r1, #0
 8006d12:	f000 817c 	beq.w	800700e <DisplayMeasurements+0x456>
		if(measure4.param == MEAS_FREQ){
 8006d16:	2901      	cmp	r1, #1
 8006d18:	f000 8139 	beq.w	8006f8e <DisplayMeasurements+0x3d6>
		else if(measure4.param == MEAS_DUTY){
 8006d1c:	2902      	cmp	r1, #2
 8006d1e:	f000 8151 	beq.w	8006fc4 <DisplayMeasurements+0x40c>
			strcpy(buf4, measParamTexts[measure4.param]);
 8006d22:	eb01 0181 	add.w	r1, r1, r1, lsl #2
 8006d26:	4c6d      	ldr	r4, [pc, #436]	; (8006edc <DisplayMeasurements+0x324>)
 8006d28:	4b64      	ldr	r3, [pc, #400]	; (8006ebc <DisplayMeasurements+0x304>)
 8006d2a:	4419      	add	r1, r3
 8006d2c:	4620      	mov	r0, r4
 8006d2e:	f003 fbaa 	bl	800a486 <strcpy>
			strcat(buf4, ":");
 8006d32:	4620      	mov	r0, r4
 8006d34:	f7f9 fa68 	bl	8000208 <strlen>
 8006d38:	4b61      	ldr	r3, [pc, #388]	; (8006ec0 <DisplayMeasurements+0x308>)
 8006d3a:	881b      	ldrh	r3, [r3, #0]
 8006d3c:	5223      	strh	r3, [r4, r0]
			voltsToStr(calcMeasure(measure4.src, measure4.param), buf4 + 5);
 8006d3e:	4b66      	ldr	r3, [pc, #408]	; (8006ed8 <DisplayMeasurements+0x320>)
 8006d40:	7859      	ldrb	r1, [r3, #1]
 8006d42:	7818      	ldrb	r0, [r3, #0]
 8006d44:	f7fc f912 	bl	8002f6c <calcMeasure>
 8006d48:	eefc 7ac0 	vcvt.u32.f32	s15, s0
 8006d4c:	edcd 7a01 	vstr	s15, [sp, #4]
 8006d50:	1d61      	adds	r1, r4, #5
 8006d52:	f89d 0004 	ldrb.w	r0, [sp, #4]
 8006d56:	f7ff fd27 	bl	80067a8 <voltsToStr>
		UG_TextboxSetBackColor(&window_2, TXB_ID_6, (measure4.src == CHANNEL1) ? CH1_COLOR : CH2_COLOR);
 8006d5a:	4b5f      	ldr	r3, [pc, #380]	; (8006ed8 <DisplayMeasurements+0x320>)
 8006d5c:	781b      	ldrb	r3, [r3, #0]
 8006d5e:	2b01      	cmp	r3, #1
 8006d60:	f000 8152 	beq.w	8007008 <DisplayMeasurements+0x450>
 8006d64:	f240 72ff 	movw	r2, #2047	; 0x7ff
 8006d68:	4c56      	ldr	r4, [pc, #344]	; (8006ec4 <DisplayMeasurements+0x30c>)
 8006d6a:	2106      	movs	r1, #6
 8006d6c:	4620      	mov	r0, r4
 8006d6e:	f7fe fd1b 	bl	80057a8 <UG_TextboxSetBackColor>
		UG_TextboxSetText(&window_2, TXB_ID_6, buf4);
 8006d72:	4a5a      	ldr	r2, [pc, #360]	; (8006edc <DisplayMeasurements+0x324>)
 8006d74:	2106      	movs	r1, #6
 8006d76:	4620      	mov	r0, r4
 8006d78:	f7fe fd28 	bl	80057cc <UG_TextboxSetText>
}
 8006d7c:	b002      	add	sp, #8
 8006d7e:	bd10      	pop	{r4, pc}
			strcpy(buf1, "F:");
 8006d80:	4a4d      	ldr	r2, [pc, #308]	; (8006eb8 <DisplayMeasurements+0x300>)
 8006d82:	4614      	mov	r4, r2
 8006d84:	4b56      	ldr	r3, [pc, #344]	; (8006ee0 <DisplayMeasurements+0x328>)
 8006d86:	681b      	ldr	r3, [r3, #0]
 8006d88:	f824 3b02 	strh.w	r3, [r4], #2
 8006d8c:	0c1b      	lsrs	r3, r3, #16
 8006d8e:	7093      	strb	r3, [r2, #2]
			hertzToStr(calcMeasure(measure1.src, MEAS_FREQ) * samprateVals[tscale], buf1 + 2);
 8006d90:	4b48      	ldr	r3, [pc, #288]	; (8006eb4 <DisplayMeasurements+0x2fc>)
 8006d92:	7818      	ldrb	r0, [r3, #0]
 8006d94:	f7fc f8ea 	bl	8002f6c <calcMeasure>
 8006d98:	4b52      	ldr	r3, [pc, #328]	; (8006ee4 <DisplayMeasurements+0x32c>)
 8006d9a:	781a      	ldrb	r2, [r3, #0]
 8006d9c:	4b52      	ldr	r3, [pc, #328]	; (8006ee8 <DisplayMeasurements+0x330>)
 8006d9e:	f853 3022 	ldr.w	r3, [r3, r2, lsl #2]
 8006da2:	ee07 3a90 	vmov	s15, r3
 8006da6:	eef8 7a67 	vcvt.f32.u32	s15, s15
 8006daa:	4620      	mov	r0, r4
 8006dac:	ee27 0a80 	vmul.f32	s0, s15, s0
 8006db0:	f7ff fd86 	bl	80068c0 <hertzToStr>
 8006db4:	e729      	b.n	8006c0a <DisplayMeasurements+0x52>
			strcpy(buf1, measParamTexts[measure1.param]);
 8006db6:	eb01 0181 	add.w	r1, r1, r1, lsl #2
 8006dba:	4c3f      	ldr	r4, [pc, #252]	; (8006eb8 <DisplayMeasurements+0x300>)
 8006dbc:	4b3f      	ldr	r3, [pc, #252]	; (8006ebc <DisplayMeasurements+0x304>)
 8006dbe:	4419      	add	r1, r3
 8006dc0:	4620      	mov	r0, r4
 8006dc2:	f003 fb60 	bl	800a486 <strcpy>
			strcat(buf1, ":");
 8006dc6:	4620      	mov	r0, r4
 8006dc8:	f7f9 fa1e 	bl	8000208 <strlen>
 8006dcc:	4b3c      	ldr	r3, [pc, #240]	; (8006ec0 <DisplayMeasurements+0x308>)
 8006dce:	881b      	ldrh	r3, [r3, #0]
 8006dd0:	5223      	strh	r3, [r4, r0]
			itoa(calcMeasure(measure1.src, measure1.param), buf1 + 5, 10);
 8006dd2:	4b38      	ldr	r3, [pc, #224]	; (8006eb4 <DisplayMeasurements+0x2fc>)
 8006dd4:	7859      	ldrb	r1, [r3, #1]
 8006dd6:	7818      	ldrb	r0, [r3, #0]
 8006dd8:	f7fc f8c8 	bl	8002f6c <calcMeasure>
 8006ddc:	220a      	movs	r2, #10
 8006dde:	1d61      	adds	r1, r4, #5
 8006de0:	eefd 7ac0 	vcvt.s32.f32	s15, s0
 8006de4:	ee17 0a90 	vmov	r0, s15
 8006de8:	f003 fb34 	bl	800a454 <itoa>
			strcat(buf1, "%");
 8006dec:	4620      	mov	r0, r4
 8006dee:	f7f9 fa0b 	bl	8000208 <strlen>
 8006df2:	4b3e      	ldr	r3, [pc, #248]	; (8006eec <DisplayMeasurements+0x334>)
 8006df4:	881b      	ldrh	r3, [r3, #0]
 8006df6:	5223      	strh	r3, [r4, r0]
 8006df8:	e707      	b.n	8006c0a <DisplayMeasurements+0x52>
		UG_TextboxSetBackColor(&window_2, TXB_ID_3, (measure1.src == CHANNEL1) ? CH1_COLOR : CH2_COLOR);
 8006dfa:	f44f 62fc 	mov.w	r2, #2016	; 0x7e0
 8006dfe:	e70b      	b.n	8006c18 <DisplayMeasurements+0x60>
		UG_TextboxSetBackColor(&window_2, TXB_ID_3, INACTIVE_ICON_COLOR);
 8006e00:	4c30      	ldr	r4, [pc, #192]	; (8006ec4 <DisplayMeasurements+0x30c>)
 8006e02:	f247 4212 	movw	r2, #29714	; 0x7412
 8006e06:	2103      	movs	r1, #3
 8006e08:	4620      	mov	r0, r4
 8006e0a:	f7fe fccd 	bl	80057a8 <UG_TextboxSetBackColor>
		UG_TextboxSetText(&window_2, TXB_ID_3, "--");
 8006e0e:	4a38      	ldr	r2, [pc, #224]	; (8006ef0 <DisplayMeasurements+0x338>)
 8006e10:	2103      	movs	r1, #3
 8006e12:	4620      	mov	r0, r4
 8006e14:	f7fe fcda 	bl	80057cc <UG_TextboxSetText>
 8006e18:	e708      	b.n	8006c2c <DisplayMeasurements+0x74>
			strcpy(buf2, "F:");
 8006e1a:	4a2c      	ldr	r2, [pc, #176]	; (8006ecc <DisplayMeasurements+0x314>)
 8006e1c:	4614      	mov	r4, r2
 8006e1e:	4b30      	ldr	r3, [pc, #192]	; (8006ee0 <DisplayMeasurements+0x328>)
 8006e20:	681b      	ldr	r3, [r3, #0]
 8006e22:	f824 3b02 	strh.w	r3, [r4], #2
 8006e26:	0c1b      	lsrs	r3, r3, #16
 8006e28:	7093      	strb	r3, [r2, #2]
			hertzToStr(calcMeasure(measure2.src, MEAS_FREQ) * samprateVals[tscale], buf2 + 2);
 8006e2a:	4b27      	ldr	r3, [pc, #156]	; (8006ec8 <DisplayMeasurements+0x310>)
 8006e2c:	7818      	ldrb	r0, [r3, #0]
 8006e2e:	f7fc f89d 	bl	8002f6c <calcMeasure>
 8006e32:	4b2c      	ldr	r3, [pc, #176]	; (8006ee4 <DisplayMeasurements+0x32c>)
 8006e34:	781a      	ldrb	r2, [r3, #0]
 8006e36:	4b2c      	ldr	r3, [pc, #176]	; (8006ee8 <DisplayMeasurements+0x330>)
 8006e38:	f853 3022 	ldr.w	r3, [r3, r2, lsl #2]
 8006e3c:	ee07 3a90 	vmov	s15, r3
 8006e40:	eef8 7a67 	vcvt.f32.u32	s15, s15
 8006e44:	4620      	mov	r0, r4
 8006e46:	ee27 0a80 	vmul.f32	s0, s15, s0
 8006e4a:	f7ff fd39 	bl	80068c0 <hertzToStr>
 8006e4e:	e714      	b.n	8006c7a <DisplayMeasurements+0xc2>
			strcpy(buf2, measParamTexts[measure2.param]);
 8006e50:	eb01 0181 	add.w	r1, r1, r1, lsl #2
 8006e54:	4c1d      	ldr	r4, [pc, #116]	; (8006ecc <DisplayMeasurements+0x314>)
 8006e56:	4b19      	ldr	r3, [pc, #100]	; (8006ebc <DisplayMeasurements+0x304>)
 8006e58:	4419      	add	r1, r3
 8006e5a:	4620      	mov	r0, r4
 8006e5c:	f003 fb13 	bl	800a486 <strcpy>
			strcat(buf2, ":");
 8006e60:	4620      	mov	r0, r4
 8006e62:	f7f9 f9d1 	bl	8000208 <strlen>
 8006e66:	4b16      	ldr	r3, [pc, #88]	; (8006ec0 <DisplayMeasurements+0x308>)
 8006e68:	881b      	ldrh	r3, [r3, #0]
 8006e6a:	5223      	strh	r3, [r4, r0]
			itoa(calcMeasure(measure2.src, measure2.param), buf2 + 5, 10);
 8006e6c:	4b16      	ldr	r3, [pc, #88]	; (8006ec8 <DisplayMeasurements+0x310>)
 8006e6e:	7859      	ldrb	r1, [r3, #1]
 8006e70:	7818      	ldrb	r0, [r3, #0]
 8006e72:	f7fc f87b 	bl	8002f6c <calcMeasure>
 8006e76:	220a      	movs	r2, #10
 8006e78:	1d61      	adds	r1, r4, #5
 8006e7a:	eefd 7ac0 	vcvt.s32.f32	s15, s0
 8006e7e:	ee17 0a90 	vmov	r0, s15
 8006e82:	f003 fae7 	bl	800a454 <itoa>
			strcat(buf2, "%");
 8006e86:	4620      	mov	r0, r4
 8006e88:	f7f9 f9be 	bl	8000208 <strlen>
 8006e8c:	4b17      	ldr	r3, [pc, #92]	; (8006eec <DisplayMeasurements+0x334>)
 8006e8e:	881b      	ldrh	r3, [r3, #0]
 8006e90:	5223      	strh	r3, [r4, r0]
 8006e92:	e6f2      	b.n	8006c7a <DisplayMeasurements+0xc2>
		UG_TextboxSetBackColor(&window_2, TXB_ID_4, (measure2.src == CHANNEL1) ? CH1_COLOR : CH2_COLOR);
 8006e94:	f44f 62fc 	mov.w	r2, #2016	; 0x7e0
 8006e98:	e6f6      	b.n	8006c88 <DisplayMeasurements+0xd0>
		UG_TextboxSetBackColor(&window_2, TXB_ID_4, INACTIVE_ICON_COLOR);
 8006e9a:	4c0a      	ldr	r4, [pc, #40]	; (8006ec4 <DisplayMeasurements+0x30c>)
 8006e9c:	f247 4212 	movw	r2, #29714	; 0x7412
 8006ea0:	2104      	movs	r1, #4
 8006ea2:	4620      	mov	r0, r4
 8006ea4:	f7fe fc80 	bl	80057a8 <UG_TextboxSetBackColor>
		UG_TextboxSetText(&window_2, TXB_ID_4, "--");
 8006ea8:	4a11      	ldr	r2, [pc, #68]	; (8006ef0 <DisplayMeasurements+0x338>)
 8006eaa:	2104      	movs	r1, #4
 8006eac:	4620      	mov	r0, r4
 8006eae:	f7fe fc8d 	bl	80057cc <UG_TextboxSetText>
 8006eb2:	e6f3      	b.n	8006c9c <DisplayMeasurements+0xe4>
 8006eb4:	20000bc0 	.word	0x20000bc0
 8006eb8:	2000010c 	.word	0x2000010c
 8006ebc:	0800d130 	.word	0x0800d130
 8006ec0:	08010158 	.word	0x08010158
 8006ec4:	2000371c 	.word	0x2000371c
 8006ec8:	20000bc8 	.word	0x20000bc8
 8006ecc:	20000118 	.word	0x20000118
 8006ed0:	20000bc4 	.word	0x20000bc4
 8006ed4:	20000124 	.word	0x20000124
 8006ed8:	20000bcc 	.word	0x20000bcc
 8006edc:	20000130 	.word	0x20000130
 8006ee0:	0800ffa0 	.word	0x0800ffa0
 8006ee4:	20000009 	.word	0x20000009
 8006ee8:	0800bf60 	.word	0x0800bf60
 8006eec:	0800ffa4 	.word	0x0800ffa4
 8006ef0:	080100fc 	.word	0x080100fc
			strcpy(buf3, "F:");
 8006ef4:	4a4c      	ldr	r2, [pc, #304]	; (8007028 <DisplayMeasurements+0x470>)
 8006ef6:	4614      	mov	r4, r2
 8006ef8:	4b4c      	ldr	r3, [pc, #304]	; (800702c <DisplayMeasurements+0x474>)
 8006efa:	681b      	ldr	r3, [r3, #0]
 8006efc:	f824 3b02 	strh.w	r3, [r4], #2
 8006f00:	0c1b      	lsrs	r3, r3, #16
 8006f02:	7093      	strb	r3, [r2, #2]
			hertzToStr(calcMeasure(measure3.src, MEAS_FREQ) * samprateVals[tscale], buf3 + 2);
 8006f04:	4b4a      	ldr	r3, [pc, #296]	; (8007030 <DisplayMeasurements+0x478>)
 8006f06:	7818      	ldrb	r0, [r3, #0]
 8006f08:	f7fc f830 	bl	8002f6c <calcMeasure>
 8006f0c:	4b49      	ldr	r3, [pc, #292]	; (8007034 <DisplayMeasurements+0x47c>)
 8006f0e:	781a      	ldrb	r2, [r3, #0]
 8006f10:	4b49      	ldr	r3, [pc, #292]	; (8007038 <DisplayMeasurements+0x480>)
 8006f12:	f853 3022 	ldr.w	r3, [r3, r2, lsl #2]
 8006f16:	ee07 3a90 	vmov	s15, r3
 8006f1a:	eef8 7a67 	vcvt.f32.u32	s15, s15
 8006f1e:	4620      	mov	r0, r4
 8006f20:	ee27 0a80 	vmul.f32	s0, s15, s0
 8006f24:	f7ff fccc 	bl	80068c0 <hertzToStr>
 8006f28:	e6df      	b.n	8006cea <DisplayMeasurements+0x132>
			strcpy(buf3, measParamTexts[measure3.param]);
 8006f2a:	eb01 0181 	add.w	r1, r1, r1, lsl #2
 8006f2e:	4c3e      	ldr	r4, [pc, #248]	; (8007028 <DisplayMeasurements+0x470>)
 8006f30:	4b42      	ldr	r3, [pc, #264]	; (800703c <DisplayMeasurements+0x484>)
 8006f32:	4419      	add	r1, r3
 8006f34:	4620      	mov	r0, r4
 8006f36:	f003 faa6 	bl	800a486 <strcpy>
			strcat(buf3, ":");
 8006f3a:	4620      	mov	r0, r4
 8006f3c:	f7f9 f964 	bl	8000208 <strlen>
 8006f40:	4b3f      	ldr	r3, [pc, #252]	; (8007040 <DisplayMeasurements+0x488>)
 8006f42:	881b      	ldrh	r3, [r3, #0]
 8006f44:	5223      	strh	r3, [r4, r0]
			itoa(calcMeasure(measure3.src, measure3.param), buf3 + 5, 10);
 8006f46:	4b3a      	ldr	r3, [pc, #232]	; (8007030 <DisplayMeasurements+0x478>)
 8006f48:	7859      	ldrb	r1, [r3, #1]
 8006f4a:	7818      	ldrb	r0, [r3, #0]
 8006f4c:	f7fc f80e 	bl	8002f6c <calcMeasure>
 8006f50:	220a      	movs	r2, #10
 8006f52:	1d61      	adds	r1, r4, #5
 8006f54:	eefd 7ac0 	vcvt.s32.f32	s15, s0
 8006f58:	ee17 0a90 	vmov	r0, s15
 8006f5c:	f003 fa7a 	bl	800a454 <itoa>
			strcat(buf3, "%");
 8006f60:	4620      	mov	r0, r4
 8006f62:	f7f9 f951 	bl	8000208 <strlen>
 8006f66:	4b37      	ldr	r3, [pc, #220]	; (8007044 <DisplayMeasurements+0x48c>)
 8006f68:	881b      	ldrh	r3, [r3, #0]
 8006f6a:	5223      	strh	r3, [r4, r0]
 8006f6c:	e6bd      	b.n	8006cea <DisplayMeasurements+0x132>
		UG_TextboxSetBackColor(&window_2, TXB_ID_5, (measure3.src == CHANNEL1) ? CH1_COLOR : CH2_COLOR);
 8006f6e:	f44f 62fc 	mov.w	r2, #2016	; 0x7e0
 8006f72:	e6c1      	b.n	8006cf8 <DisplayMeasurements+0x140>
		UG_TextboxSetBackColor(&window_2, TXB_ID_5, INACTIVE_ICON_COLOR);
 8006f74:	4c34      	ldr	r4, [pc, #208]	; (8007048 <DisplayMeasurements+0x490>)
 8006f76:	f247 4212 	movw	r2, #29714	; 0x7412
 8006f7a:	2105      	movs	r1, #5
 8006f7c:	4620      	mov	r0, r4
 8006f7e:	f7fe fc13 	bl	80057a8 <UG_TextboxSetBackColor>
		UG_TextboxSetText(&window_2, TXB_ID_5, "--");
 8006f82:	4a32      	ldr	r2, [pc, #200]	; (800704c <DisplayMeasurements+0x494>)
 8006f84:	2105      	movs	r1, #5
 8006f86:	4620      	mov	r0, r4
 8006f88:	f7fe fc20 	bl	80057cc <UG_TextboxSetText>
 8006f8c:	e6be      	b.n	8006d0c <DisplayMeasurements+0x154>
			strcpy(buf4, "F:");
 8006f8e:	4a30      	ldr	r2, [pc, #192]	; (8007050 <DisplayMeasurements+0x498>)
 8006f90:	4614      	mov	r4, r2
 8006f92:	4b26      	ldr	r3, [pc, #152]	; (800702c <DisplayMeasurements+0x474>)
 8006f94:	681b      	ldr	r3, [r3, #0]
 8006f96:	f824 3b02 	strh.w	r3, [r4], #2
 8006f9a:	0c1b      	lsrs	r3, r3, #16
 8006f9c:	7093      	strb	r3, [r2, #2]
			hertzToStr(calcMeasure(measure4.src, MEAS_FREQ) * samprateVals[tscale], buf4 + 2);
 8006f9e:	4b2d      	ldr	r3, [pc, #180]	; (8007054 <DisplayMeasurements+0x49c>)
 8006fa0:	7818      	ldrb	r0, [r3, #0]
 8006fa2:	f7fb ffe3 	bl	8002f6c <calcMeasure>
 8006fa6:	4b23      	ldr	r3, [pc, #140]	; (8007034 <DisplayMeasurements+0x47c>)
 8006fa8:	781a      	ldrb	r2, [r3, #0]
 8006faa:	4b23      	ldr	r3, [pc, #140]	; (8007038 <DisplayMeasurements+0x480>)
 8006fac:	f853 3022 	ldr.w	r3, [r3, r2, lsl #2]
 8006fb0:	ee07 3a90 	vmov	s15, r3
 8006fb4:	eef8 7a67 	vcvt.f32.u32	s15, s15
 8006fb8:	4620      	mov	r0, r4
 8006fba:	ee27 0a80 	vmul.f32	s0, s15, s0
 8006fbe:	f7ff fc7f 	bl	80068c0 <hertzToStr>
 8006fc2:	e6ca      	b.n	8006d5a <DisplayMeasurements+0x1a2>
			strcpy(buf4, measParamTexts[measure4.param]);
 8006fc4:	eb01 0181 	add.w	r1, r1, r1, lsl #2
 8006fc8:	4c21      	ldr	r4, [pc, #132]	; (8007050 <DisplayMeasurements+0x498>)
 8006fca:	4b1c      	ldr	r3, [pc, #112]	; (800703c <DisplayMeasurements+0x484>)
 8006fcc:	4419      	add	r1, r3
 8006fce:	4620      	mov	r0, r4
 8006fd0:	f003 fa59 	bl	800a486 <strcpy>
			strcat(buf4, ":");
 8006fd4:	4620      	mov	r0, r4
 8006fd6:	f7f9 f917 	bl	8000208 <strlen>
 8006fda:	4b19      	ldr	r3, [pc, #100]	; (8007040 <DisplayMeasurements+0x488>)
 8006fdc:	881b      	ldrh	r3, [r3, #0]
 8006fde:	5223      	strh	r3, [r4, r0]
			itoa(calcMeasure(measure4.src, measure4.param), buf4 + 5, 10);
 8006fe0:	4b1c      	ldr	r3, [pc, #112]	; (8007054 <DisplayMeasurements+0x49c>)
 8006fe2:	7859      	ldrb	r1, [r3, #1]
 8006fe4:	7818      	ldrb	r0, [r3, #0]
 8006fe6:	f7fb ffc1 	bl	8002f6c <calcMeasure>
 8006fea:	220a      	movs	r2, #10
 8006fec:	1d61      	adds	r1, r4, #5
 8006fee:	eefd 7ac0 	vcvt.s32.f32	s15, s0
 8006ff2:	ee17 0a90 	vmov	r0, s15
 8006ff6:	f003 fa2d 	bl	800a454 <itoa>
			strcat(buf4, "%");
 8006ffa:	4620      	mov	r0, r4
 8006ffc:	f7f9 f904 	bl	8000208 <strlen>
 8007000:	4b10      	ldr	r3, [pc, #64]	; (8007044 <DisplayMeasurements+0x48c>)
 8007002:	881b      	ldrh	r3, [r3, #0]
 8007004:	5223      	strh	r3, [r4, r0]
 8007006:	e6a8      	b.n	8006d5a <DisplayMeasurements+0x1a2>
		UG_TextboxSetBackColor(&window_2, TXB_ID_6, (measure4.src == CHANNEL1) ? CH1_COLOR : CH2_COLOR);
 8007008:	f44f 62fc 	mov.w	r2, #2016	; 0x7e0
 800700c:	e6ac      	b.n	8006d68 <DisplayMeasurements+0x1b0>
		UG_TextboxSetBackColor(&window_2, TXB_ID_6, INACTIVE_ICON_COLOR);
 800700e:	4c0e      	ldr	r4, [pc, #56]	; (8007048 <DisplayMeasurements+0x490>)
 8007010:	f247 4212 	movw	r2, #29714	; 0x7412
 8007014:	2106      	movs	r1, #6
 8007016:	4620      	mov	r0, r4
 8007018:	f7fe fbc6 	bl	80057a8 <UG_TextboxSetBackColor>
		UG_TextboxSetText(&window_2, TXB_ID_6, "--");
 800701c:	4a0b      	ldr	r2, [pc, #44]	; (800704c <DisplayMeasurements+0x494>)
 800701e:	2106      	movs	r1, #6
 8007020:	4620      	mov	r0, r4
 8007022:	f7fe fbd3 	bl	80057cc <UG_TextboxSetText>
	return;
 8007026:	e6a9      	b.n	8006d7c <DisplayMeasurements+0x1c4>
 8007028:	20000124 	.word	0x20000124
 800702c:	0800ffa0 	.word	0x0800ffa0
 8007030:	20000bc4 	.word	0x20000bc4
 8007034:	20000009 	.word	0x20000009
 8007038:	0800bf60 	.word	0x0800bf60
 800703c:	0800d130 	.word	0x0800d130
 8007040:	08010158 	.word	0x08010158
 8007044:	0800ffa4 	.word	0x0800ffa4
 8007048:	2000371c 	.word	0x2000371c
 800704c:	080100fc 	.word	0x080100fc
 8007050:	20000130 	.word	0x20000130
 8007054:	20000bcc 	.word	0x20000bcc

08007058 <goToField>:
{
 8007058:	b538      	push	{r3, r4, r5, lr}
 800705a:	4604      	mov	r4, r0
	selectField(currField, 0);		/* de-select current field */
 800705c:	4d05      	ldr	r5, [pc, #20]	; (8007074 <goToField+0x1c>)
 800705e:	2100      	movs	r1, #0
 8007060:	7828      	ldrb	r0, [r5, #0]
 8007062:	f7fe fca7 	bl	80059b4 <selectField>
	currField = field;
 8007066:	702c      	strb	r4, [r5, #0]
	selectField(currField, 1);		/* select next field */
 8007068:	2101      	movs	r1, #1
 800706a:	4620      	mov	r0, r4
 800706c:	f7fe fca2 	bl	80059b4 <selectField>
 8007070:	bd38      	pop	{r3, r4, r5, pc}
 8007072:	bf00      	nop
 8007074:	2000015c 	.word	0x2000015c

08007078 <switchNextField>:
{
 8007078:	b510      	push	{r4, lr}
	selectField(currField, 0);		/* de-select current field */
 800707a:	4c0b      	ldr	r4, [pc, #44]	; (80070a8 <switchNextField+0x30>)
 800707c:	2100      	movs	r1, #0
 800707e:	7820      	ldrb	r0, [r4, #0]
 8007080:	f7fe fc98 	bl	80059b4 <selectField>
	currField = (currField + 1) % FLD_MAXVALS;
 8007084:	7823      	ldrb	r3, [r4, #0]
 8007086:	3301      	adds	r3, #1
 8007088:	4a08      	ldr	r2, [pc, #32]	; (80070ac <switchNextField+0x34>)
 800708a:	fb82 1203 	smull	r1, r2, r2, r3
 800708e:	17d8      	asrs	r0, r3, #31
 8007090:	ebc0 0062 	rsb	r0, r0, r2, asr #1
 8007094:	eb00 0040 	add.w	r0, r0, r0, lsl #1
 8007098:	0082      	lsls	r2, r0, #2
 800709a:	1a98      	subs	r0, r3, r2
 800709c:	b2c0      	uxtb	r0, r0
 800709e:	7020      	strb	r0, [r4, #0]
	selectField(currField, 1);		/* select next field */
 80070a0:	2101      	movs	r1, #1
 80070a2:	f7fe fc87 	bl	80059b4 <selectField>
 80070a6:	bd10      	pop	{r4, pc}
 80070a8:	2000015c 	.word	0x2000015c
 80070ac:	2aaaaaab 	.word	0x2aaaaaab

080070b0 <changeFieldValue>:
  * @brief  Change value of a field in the top/bottom menubar.
  * @param  dir: 0=increment, 1=decrement, 2=redraw cursors
  * @retval None
  */
void changeFieldValue(uint8_t dir)
{
 80070b0:	b5f8      	push	{r3, r4, r5, r6, r7, lr}
 80070b2:	4604      	mov	r4, r0
			toffCurPosPrev = TOFF_INITVAL - TOFF_CURSOR_WIDTH/2 + 1;
	int32_t temp, trigCurPos, ch1offCurPos, ch2offCurPos, toffCurPos, i, j;
	__IO uint16_t (*pFrame)[LCD_WIDTH] = (__IO uint16_t (*)[LCD_WIDTH])LCD_DRAW_BUFFER_UGUI;

	/* increment/decrement value of the current field */
	switch(currField)
 80070b4:	4b96      	ldr	r3, [pc, #600]	; (8007310 <changeFieldValue+0x260>)
 80070b6:	781b      	ldrb	r3, [r3, #0]
 80070b8:	3b01      	subs	r3, #1
 80070ba:	2b0a      	cmp	r3, #10
 80070bc:	d828      	bhi.n	8007110 <changeFieldValue+0x60>
 80070be:	e8df f013 	tbh	[pc, r3, lsl #1]
 80070c2:	000b      	.short	0x000b
 80070c4:	00600043 	.word	0x00600043
 80070c8:	00ab007d 	.word	0x00ab007d
 80070cc:	010700c8 	.word	0x010700c8
 80070d0:	01940120 	.word	0x01940120
 80070d4:	023201e3 	.word	0x023201e3
	{
		case FLD_NONE:
			break;

		case FLD_CH1_VSCALE:
			vscale1 += dir?(vscale1==0?0:-1):(vscale1==VSCALE_MAXVALS-1?0:1);
 80070d8:	b120      	cbz	r0, 80070e4 <changeFieldValue+0x34>
 80070da:	4b8e      	ldr	r3, [pc, #568]	; (8007314 <changeFieldValue+0x264>)
 80070dc:	781b      	ldrb	r3, [r3, #0]
 80070de:	b133      	cbz	r3, 80070ee <changeFieldValue+0x3e>
 80070e0:	23ff      	movs	r3, #255	; 0xff
 80070e2:	e004      	b.n	80070ee <changeFieldValue+0x3e>
 80070e4:	4b8b      	ldr	r3, [pc, #556]	; (8007314 <changeFieldValue+0x264>)
 80070e6:	781b      	ldrb	r3, [r3, #0]
 80070e8:	3b07      	subs	r3, #7
 80070ea:	bf18      	it	ne
 80070ec:	2301      	movne	r3, #1
 80070ee:	4a89      	ldr	r2, [pc, #548]	; (8007314 <changeFieldValue+0x264>)
 80070f0:	7811      	ldrb	r1, [r2, #0]
 80070f2:	440b      	add	r3, r1
 80070f4:	b2db      	uxtb	r3, r3
 80070f6:	7013      	strb	r3, [r2, #0]
			UG_TextboxSetText(&window_1, TXB_ID_0, vscaleDispVals[vscale1]);
 80070f8:	eb03 0343 	add.w	r3, r3, r3, lsl #1
 80070fc:	005a      	lsls	r2, r3, #1
 80070fe:	4b86      	ldr	r3, [pc, #536]	; (8007318 <changeFieldValue+0x268>)
 8007100:	441a      	add	r2, r3
 8007102:	2100      	movs	r1, #0
 8007104:	4885      	ldr	r0, [pc, #532]	; (800731c <changeFieldValue+0x26c>)
 8007106:	f7fe fb61 	bl	80057cc <UG_TextboxSetText>
			vscale1Changed = 1;
 800710a:	2201      	movs	r2, #1
 800710c:	4b84      	ldr	r3, [pc, #528]	; (8007320 <changeFieldValue+0x270>)
 800710e:	701a      	strb	r2, [r3, #0]
		default:
			break;
	}

	/* if trig source changed, clear off the existing trigger cursor */
	if(currField == FLD_TRIGSRC){
 8007110:	4b7f      	ldr	r3, [pc, #508]	; (8007310 <changeFieldValue+0x260>)
 8007112:	781d      	ldrb	r5, [r3, #0]
 8007114:	2d04      	cmp	r5, #4
 8007116:	f000 8356 	beq.w	80077c6 <changeFieldValue+0x716>
			for(j = 0; j < CURSOR_LENGTH; j++)
				pFrame[i][j] = trigCursorImg[i-trigCurPosPrev][j] ? CH1_COLOR : C_BLACK;
	}

	/* redraw cursors, first clear existing ones */
	if(dir == 2){
 800711a:	2c02      	cmp	r4, #2
 800711c:	f000 8377 	beq.w	800780e <changeFieldValue+0x75e>
			for(j = 0; j < CURSOR_LENGTH; j++)
				pFrame[i][j] = C_BLACK;
	}

	/* Update the positions of ch1 cursors, if required */
	if(currField == FLD_CH1_VSCALE || currField == FLD_TRIGSRC ||
 8007120:	2d04      	cmp	r5, #4
 8007122:	bf18      	it	ne
 8007124:	2d01      	cmpne	r5, #1
 8007126:	f000 83bc 	beq.w	80078a2 <changeFieldValue+0x7f2>
 800712a:	2d06      	cmp	r5, #6
 800712c:	f000 83b2 	beq.w	8007894 <changeFieldValue+0x7e4>
			(currField == FLD_TRIGLVL && trigsrcVals[trigsrc] == TRIGSRC_CH1) || currField == FLD_CH1_VOFF ||
 8007130:	2d09      	cmp	r5, #9
 8007132:	f000 83b6 	beq.w	80078a2 <changeFieldValue+0x7f2>
			(chDispMode == CHDISPMODE_MERGE && (currField == FLD_CH2_VSCALE ||
 8007136:	4b7b      	ldr	r3, [pc, #492]	; (8007324 <changeFieldValue+0x274>)
 8007138:	781b      	ldrb	r3, [r3, #0]
			(currField == FLD_TRIGLVL && trigsrcVals[trigsrc] == TRIGSRC_CH1) || currField == FLD_CH1_VOFF ||
 800713a:	2b01      	cmp	r3, #1
 800713c:	f000 83bc 	beq.w	80078b8 <changeFieldValue+0x808>
			(currField == FLD_TRIGLVL && trigsrcVals[trigsrc] == TRIGSRC_CH2) || currField == FLD_CH2_VOFF)) ||
 8007140:	2c02      	cmp	r4, #2
 8007142:	f040 84ba 	bne.w	8007aba <changeFieldValue+0xa0a>
 8007146:	e3ac      	b.n	80078a2 <changeFieldValue+0x7f2>
			vscale2 += dir?(vscale2==0?0:-1):(vscale2==VSCALE_MAXVALS-1?0:1);
 8007148:	b120      	cbz	r0, 8007154 <changeFieldValue+0xa4>
 800714a:	4b77      	ldr	r3, [pc, #476]	; (8007328 <changeFieldValue+0x278>)
 800714c:	781b      	ldrb	r3, [r3, #0]
 800714e:	b133      	cbz	r3, 800715e <changeFieldValue+0xae>
 8007150:	23ff      	movs	r3, #255	; 0xff
 8007152:	e004      	b.n	800715e <changeFieldValue+0xae>
 8007154:	4b74      	ldr	r3, [pc, #464]	; (8007328 <changeFieldValue+0x278>)
 8007156:	781b      	ldrb	r3, [r3, #0]
 8007158:	3b07      	subs	r3, #7
 800715a:	bf18      	it	ne
 800715c:	2301      	movne	r3, #1
 800715e:	4a72      	ldr	r2, [pc, #456]	; (8007328 <changeFieldValue+0x278>)
 8007160:	7811      	ldrb	r1, [r2, #0]
 8007162:	440b      	add	r3, r1
 8007164:	b2db      	uxtb	r3, r3
 8007166:	7013      	strb	r3, [r2, #0]
			UG_TextboxSetText(&window_1, TXB_ID_1, vscaleDispVals[vscale2]);
 8007168:	eb03 0343 	add.w	r3, r3, r3, lsl #1
 800716c:	005a      	lsls	r2, r3, #1
 800716e:	4b6a      	ldr	r3, [pc, #424]	; (8007318 <changeFieldValue+0x268>)
 8007170:	441a      	add	r2, r3
 8007172:	2101      	movs	r1, #1
 8007174:	4869      	ldr	r0, [pc, #420]	; (800731c <changeFieldValue+0x26c>)
 8007176:	f7fe fb29 	bl	80057cc <UG_TextboxSetText>
			vscale2Changed = 1;
 800717a:	2201      	movs	r2, #1
 800717c:	4b6b      	ldr	r3, [pc, #428]	; (800732c <changeFieldValue+0x27c>)
 800717e:	701a      	strb	r2, [r3, #0]
			break;
 8007180:	e7c6      	b.n	8007110 <changeFieldValue+0x60>
			tscale += dir?(tscale==0?0:-1):(tscale==TSCALE_MAXVALS-1?0:1);
 8007182:	b120      	cbz	r0, 800718e <changeFieldValue+0xde>
 8007184:	4b6a      	ldr	r3, [pc, #424]	; (8007330 <changeFieldValue+0x280>)
 8007186:	781b      	ldrb	r3, [r3, #0]
 8007188:	b133      	cbz	r3, 8007198 <changeFieldValue+0xe8>
 800718a:	23ff      	movs	r3, #255	; 0xff
 800718c:	e004      	b.n	8007198 <changeFieldValue+0xe8>
 800718e:	4b68      	ldr	r3, [pc, #416]	; (8007330 <changeFieldValue+0x280>)
 8007190:	781b      	ldrb	r3, [r3, #0]
 8007192:	3b06      	subs	r3, #6
 8007194:	bf18      	it	ne
 8007196:	2301      	movne	r3, #1
 8007198:	4d65      	ldr	r5, [pc, #404]	; (8007330 <changeFieldValue+0x280>)
 800719a:	782a      	ldrb	r2, [r5, #0]
 800719c:	4413      	add	r3, r2
 800719e:	b2da      	uxtb	r2, r3
 80071a0:	702a      	strb	r2, [r5, #0]
			UG_TextboxSetText(&window_1, TXB_ID_2, tscaleDispVals[tscale]);
 80071a2:	ebc2 02c2 	rsb	r2, r2, r2, lsl #3
 80071a6:	4b63      	ldr	r3, [pc, #396]	; (8007334 <changeFieldValue+0x284>)
 80071a8:	441a      	add	r2, r3
 80071aa:	2102      	movs	r1, #2
 80071ac:	485b      	ldr	r0, [pc, #364]	; (800731c <changeFieldValue+0x26c>)
 80071ae:	f7fe fb0d 	bl	80057cc <UG_TextboxSetText>
			TimADC_init(tscale);
 80071b2:	f995 0000 	ldrsb.w	r0, [r5]
 80071b6:	f7fa f81f 	bl	80011f8 <TimADC_init>
			break;
 80071ba:	e7a9      	b.n	8007110 <changeFieldValue+0x60>
			trigsrc += dir?(trigsrc==0?0:-1):(trigsrc==TRIGSRC_MAXVALS-1?0:1);
 80071bc:	b120      	cbz	r0, 80071c8 <changeFieldValue+0x118>
 80071be:	4b5e      	ldr	r3, [pc, #376]	; (8007338 <changeFieldValue+0x288>)
 80071c0:	781b      	ldrb	r3, [r3, #0]
 80071c2:	b13b      	cbz	r3, 80071d4 <changeFieldValue+0x124>
 80071c4:	23ff      	movs	r3, #255	; 0xff
 80071c6:	e005      	b.n	80071d4 <changeFieldValue+0x124>
 80071c8:	4b5b      	ldr	r3, [pc, #364]	; (8007338 <changeFieldValue+0x288>)
 80071ca:	781b      	ldrb	r3, [r3, #0]
 80071cc:	f113 33ff 	adds.w	r3, r3, #4294967295
 80071d0:	bf18      	it	ne
 80071d2:	2301      	movne	r3, #1
 80071d4:	4a58      	ldr	r2, [pc, #352]	; (8007338 <changeFieldValue+0x288>)
 80071d6:	7811      	ldrb	r1, [r2, #0]
 80071d8:	440b      	add	r3, r1
 80071da:	7013      	strb	r3, [r2, #0]
			if(chDispMode == CHDISPMODE_SNGL)
 80071dc:	4b51      	ldr	r3, [pc, #324]	; (8007324 <changeFieldValue+0x274>)
 80071de:	781b      	ldrb	r3, [r3, #0]
 80071e0:	2b02      	cmp	r3, #2
 80071e2:	d012      	beq.n	800720a <changeFieldValue+0x15a>
			if(trigsrcVals[trigsrc] == TRIGSRC_CH1)
 80071e4:	4b54      	ldr	r3, [pc, #336]	; (8007338 <changeFieldValue+0x288>)
 80071e6:	781b      	ldrb	r3, [r3, #0]
 80071e8:	4a54      	ldr	r2, [pc, #336]	; (800733c <changeFieldValue+0x28c>)
 80071ea:	5cd3      	ldrb	r3, [r2, r3]
 80071ec:	b98b      	cbnz	r3, 8007212 <changeFieldValue+0x162>
				color = CH1_COLOR;
 80071ee:	f44f 65fc 	mov.w	r5, #2016	; 0x7e0
			UG_TextboxSetBackColor(&window_1, TXB_ID_3, color);
 80071f2:	4e4a      	ldr	r6, [pc, #296]	; (800731c <changeFieldValue+0x26c>)
 80071f4:	462a      	mov	r2, r5
 80071f6:	2103      	movs	r1, #3
 80071f8:	4630      	mov	r0, r6
 80071fa:	f7fe fad5 	bl	80057a8 <UG_TextboxSetBackColor>
			UG_TextboxSetBackColor(&window_1, TXB_ID_4, color);
 80071fe:	462a      	mov	r2, r5
 8007200:	2104      	movs	r1, #4
 8007202:	4630      	mov	r0, r6
 8007204:	f7fe fad0 	bl	80057a8 <UG_TextboxSetBackColor>
			break;
 8007208:	e782      	b.n	8007110 <changeFieldValue+0x60>
				trigsrc = 0;
 800720a:	2200      	movs	r2, #0
 800720c:	4b4a      	ldr	r3, [pc, #296]	; (8007338 <changeFieldValue+0x288>)
 800720e:	701a      	strb	r2, [r3, #0]
 8007210:	e7e8      	b.n	80071e4 <changeFieldValue+0x134>
				color = CH2_COLOR;
 8007212:	f240 75ff 	movw	r5, #2047	; 0x7ff
 8007216:	e7ec      	b.n	80071f2 <changeFieldValue+0x142>
			trigtype += dir?(trigtype==0?0:-1):(trigtype==TRIGTYPE_MAXVALS-1?0:1);
 8007218:	b120      	cbz	r0, 8007224 <changeFieldValue+0x174>
 800721a:	4b49      	ldr	r3, [pc, #292]	; (8007340 <changeFieldValue+0x290>)
 800721c:	781b      	ldrb	r3, [r3, #0]
 800721e:	b133      	cbz	r3, 800722e <changeFieldValue+0x17e>
 8007220:	23ff      	movs	r3, #255	; 0xff
 8007222:	e004      	b.n	800722e <changeFieldValue+0x17e>
 8007224:	4b46      	ldr	r3, [pc, #280]	; (8007340 <changeFieldValue+0x290>)
 8007226:	781b      	ldrb	r3, [r3, #0]
 8007228:	3b02      	subs	r3, #2
 800722a:	bf18      	it	ne
 800722c:	2301      	movne	r3, #1
 800722e:	4a44      	ldr	r2, [pc, #272]	; (8007340 <changeFieldValue+0x290>)
 8007230:	7811      	ldrb	r1, [r2, #0]
 8007232:	440b      	add	r3, r1
 8007234:	b2db      	uxtb	r3, r3
 8007236:	7013      	strb	r3, [r2, #0]
			strcpy(bufw1tb3 + 4, trigtypeDispVals[trigtype]);
 8007238:	4d42      	ldr	r5, [pc, #264]	; (8007344 <changeFieldValue+0x294>)
 800723a:	4943      	ldr	r1, [pc, #268]	; (8007348 <changeFieldValue+0x298>)
 800723c:	eb01 0183 	add.w	r1, r1, r3, lsl #2
 8007240:	1d28      	adds	r0, r5, #4
 8007242:	f003 f920 	bl	800a486 <strcpy>
			UG_TextboxSetText(&window_1, TXB_ID_3, bufw1tb3);
 8007246:	462a      	mov	r2, r5
 8007248:	2103      	movs	r1, #3
 800724a:	4834      	ldr	r0, [pc, #208]	; (800731c <changeFieldValue+0x26c>)
 800724c:	f7fe fabe 	bl	80057cc <UG_TextboxSetText>
			break;
 8007250:	e75e      	b.n	8007110 <changeFieldValue+0x60>
			triglvl += dir?(triglvl==0?0:-3):(triglvl==255?0:3);
 8007252:	b120      	cbz	r0, 800725e <changeFieldValue+0x1ae>
 8007254:	4b3d      	ldr	r3, [pc, #244]	; (800734c <changeFieldValue+0x29c>)
 8007256:	781b      	ldrb	r3, [r3, #0]
 8007258:	b133      	cbz	r3, 8007268 <changeFieldValue+0x1b8>
 800725a:	23fd      	movs	r3, #253	; 0xfd
 800725c:	e004      	b.n	8007268 <changeFieldValue+0x1b8>
 800725e:	4b3b      	ldr	r3, [pc, #236]	; (800734c <changeFieldValue+0x29c>)
 8007260:	781b      	ldrb	r3, [r3, #0]
 8007262:	2bff      	cmp	r3, #255	; 0xff
 8007264:	d032      	beq.n	80072cc <changeFieldValue+0x21c>
 8007266:	2303      	movs	r3, #3
 8007268:	4a38      	ldr	r2, [pc, #224]	; (800734c <changeFieldValue+0x29c>)
 800726a:	7811      	ldrb	r1, [r2, #0]
 800726c:	440b      	add	r3, r1
 800726e:	b2db      	uxtb	r3, r3
 8007270:	7013      	strb	r3, [r2, #0]
			gcvt((int32_t)((3.3f*(float32_t)triglvl/(float32_t)255)*100)/100.0f, 3, bufw1tb4);
 8007272:	ee07 3a90 	vmov	s15, r3
 8007276:	eef8 7a67 	vcvt.f32.u32	s15, s15
 800727a:	ed9f 7a35 	vldr	s14, [pc, #212]	; 8007350 <changeFieldValue+0x2a0>
 800727e:	ee67 7a87 	vmul.f32	s15, s15, s14
 8007282:	eddf 6a34 	vldr	s13, [pc, #208]	; 8007354 <changeFieldValue+0x2a4>
 8007286:	ee87 7aa6 	vdiv.f32	s14, s15, s13
 800728a:	eddf 6a33 	vldr	s13, [pc, #204]	; 8007358 <changeFieldValue+0x2a8>
 800728e:	ee67 7a26 	vmul.f32	s15, s14, s13
 8007292:	eefd 7ae7 	vcvt.s32.f32	s15, s15
 8007296:	eef8 7ae7 	vcvt.f32.s32	s15, s15
 800729a:	4d30      	ldr	r5, [pc, #192]	; (800735c <changeFieldValue+0x2ac>)
 800729c:	ee87 7aa6 	vdiv.f32	s14, s15, s13
 80072a0:	ee17 0a10 	vmov	r0, s14
 80072a4:	f7f9 f91c 	bl	80004e0 <__aeabi_f2d>
 80072a8:	ec41 0b10 	vmov	d0, r0, r1
 80072ac:	4629      	mov	r1, r5
 80072ae:	2003      	movs	r0, #3
 80072b0:	f003 f868 	bl	800a384 <gcvt>
			strcat(bufw1tb4, "V");
 80072b4:	4628      	mov	r0, r5
 80072b6:	f7f8 ffa7 	bl	8000208 <strlen>
 80072ba:	4b29      	ldr	r3, [pc, #164]	; (8007360 <changeFieldValue+0x2b0>)
 80072bc:	881b      	ldrh	r3, [r3, #0]
 80072be:	522b      	strh	r3, [r5, r0]
			UG_TextboxSetText(&window_1, TXB_ID_4, bufw1tb4);
 80072c0:	462a      	mov	r2, r5
 80072c2:	2104      	movs	r1, #4
 80072c4:	4815      	ldr	r0, [pc, #84]	; (800731c <changeFieldValue+0x26c>)
 80072c6:	f7fe fa81 	bl	80057cc <UG_TextboxSetText>
			break;
 80072ca:	e721      	b.n	8007110 <changeFieldValue+0x60>
			triglvl += dir?(triglvl==0?0:-3):(triglvl==255?0:3);
 80072cc:	4603      	mov	r3, r0
 80072ce:	e7cb      	b.n	8007268 <changeFieldValue+0x1b8>
			trigmode += dir?(trigmode==0?0:-1):(trigmode==TRIGMODE_MAXVALS-1?0:1);
 80072d0:	b120      	cbz	r0, 80072dc <changeFieldValue+0x22c>
 80072d2:	4b24      	ldr	r3, [pc, #144]	; (8007364 <changeFieldValue+0x2b4>)
 80072d4:	781b      	ldrb	r3, [r3, #0]
 80072d6:	b133      	cbz	r3, 80072e6 <changeFieldValue+0x236>
 80072d8:	23ff      	movs	r3, #255	; 0xff
 80072da:	e004      	b.n	80072e6 <changeFieldValue+0x236>
 80072dc:	4b21      	ldr	r3, [pc, #132]	; (8007364 <changeFieldValue+0x2b4>)
 80072de:	781b      	ldrb	r3, [r3, #0]
 80072e0:	3b02      	subs	r3, #2
 80072e2:	bf18      	it	ne
 80072e4:	2301      	movne	r3, #1
 80072e6:	491f      	ldr	r1, [pc, #124]	; (8007364 <changeFieldValue+0x2b4>)
 80072e8:	780a      	ldrb	r2, [r1, #0]
 80072ea:	4413      	add	r3, r2
 80072ec:	b2da      	uxtb	r2, r3
 80072ee:	700a      	strb	r2, [r1, #0]
			UG_TextboxSetText(&window_1, TXB_ID_5, trigmodeDispVals[trigmode]);
 80072f0:	eb02 0282 	add.w	r2, r2, r2, lsl #2
 80072f4:	4b1c      	ldr	r3, [pc, #112]	; (8007368 <changeFieldValue+0x2b8>)
 80072f6:	441a      	add	r2, r3
 80072f8:	2105      	movs	r1, #5
 80072fa:	4808      	ldr	r0, [pc, #32]	; (800731c <changeFieldValue+0x26c>)
 80072fc:	f7fe fa66 	bl	80057cc <UG_TextboxSetText>
			break;
 8007300:	e706      	b.n	8007110 <changeFieldValue+0x60>
			runstop += dir?(runstop==0?0:-1):(runstop==RUNSTOP_MAXVALS-1?0:1);
 8007302:	b3a8      	cbz	r0, 8007370 <changeFieldValue+0x2c0>
 8007304:	4b19      	ldr	r3, [pc, #100]	; (800736c <changeFieldValue+0x2bc>)
 8007306:	781b      	ldrb	r3, [r3, #0]
 8007308:	b3c3      	cbz	r3, 800737c <changeFieldValue+0x2cc>
 800730a:	23ff      	movs	r3, #255	; 0xff
 800730c:	e036      	b.n	800737c <changeFieldValue+0x2cc>
 800730e:	bf00      	nop
 8007310:	2000015c 	.word	0x2000015c
 8007314:	2000000a 	.word	0x2000000a
 8007318:	0800bfd8 	.word	0x0800bfd8
 800731c:	20003750 	.word	0x20003750
 8007320:	200000cb 	.word	0x200000cb
 8007324:	200000bc 	.word	0x200000bc
 8007328:	2000000b 	.word	0x2000000b
 800732c:	200000cc 	.word	0x200000cc
 8007330:	20000009 	.word	0x20000009
 8007334:	0800bfa4 	.word	0x0800bfa4
 8007338:	200000c2 	.word	0x200000c2
 800733c:	0800bf90 	.word	0x0800bf90
 8007340:	200000c3 	.word	0x200000c3
 8007344:	20000010 	.word	0x20000010
 8007348:	0800bf94 	.word	0x0800bf94
 800734c:	20000008 	.word	0x20000008
 8007350:	40533333 	.word	0x40533333
 8007354:	437f0000 	.word	0x437f0000
 8007358:	42c80000 	.word	0x42c80000
 800735c:	2000013c 	.word	0x2000013c
 8007360:	080100e4 	.word	0x080100e4
 8007364:	200000c1 	.word	0x200000c1
 8007368:	0800bf7c 	.word	0x0800bf7c
 800736c:	200000be 	.word	0x200000be
 8007370:	4bb0      	ldr	r3, [pc, #704]	; (8007634 <changeFieldValue+0x584>)
 8007372:	781b      	ldrb	r3, [r3, #0]
 8007374:	f113 33ff 	adds.w	r3, r3, #4294967295
 8007378:	bf18      	it	ne
 800737a:	2301      	movne	r3, #1
 800737c:	4dad      	ldr	r5, [pc, #692]	; (8007634 <changeFieldValue+0x584>)
 800737e:	782a      	ldrb	r2, [r5, #0]
 8007380:	4413      	add	r3, r2
 8007382:	b2da      	uxtb	r2, r3
 8007384:	702a      	strb	r2, [r5, #0]
			UG_TextboxSetText(&window_1, TXB_ID_6, runstopDispVals[runstop]);
 8007386:	eb02 0282 	add.w	r2, r2, r2, lsl #2
 800738a:	4bab      	ldr	r3, [pc, #684]	; (8007638 <changeFieldValue+0x588>)
 800738c:	441a      	add	r2, r3
 800738e:	2106      	movs	r1, #6
 8007390:	48aa      	ldr	r0, [pc, #680]	; (800763c <changeFieldValue+0x58c>)
 8007392:	f7fe fa1b 	bl	80057cc <UG_TextboxSetText>
			if(runstopVals[runstop] == RUNSTOP_RUN){
 8007396:	782b      	ldrb	r3, [r5, #0]
 8007398:	4aa9      	ldr	r2, [pc, #676]	; (8007640 <changeFieldValue+0x590>)
 800739a:	5cd3      	ldrb	r3, [r2, r3]
 800739c:	b1d3      	cbz	r3, 80073d4 <changeFieldValue+0x324>
				CH1_ADC_DMA_STREAM->CR &= ~0x01;		/* disable ch1 stream and confirm */
 800739e:	4aa9      	ldr	r2, [pc, #676]	; (8007644 <changeFieldValue+0x594>)
 80073a0:	6813      	ldr	r3, [r2, #0]
 80073a2:	f023 0301 	bic.w	r3, r3, #1
 80073a6:	6013      	str	r3, [r2, #0]
				while(CH1_ADC_DMA_STREAM->CR & 0x01);
 80073a8:	4ba6      	ldr	r3, [pc, #664]	; (8007644 <changeFieldValue+0x594>)
 80073aa:	681b      	ldr	r3, [r3, #0]
 80073ac:	f013 0f01 	tst.w	r3, #1
 80073b0:	d1fa      	bne.n	80073a8 <changeFieldValue+0x2f8>
				CH2_ADC_DMA_STREAM->CR &= ~0x01;		/* disable ch2 stream and confirm */
 80073b2:	4aa5      	ldr	r2, [pc, #660]	; (8007648 <changeFieldValue+0x598>)
 80073b4:	6813      	ldr	r3, [r2, #0]
 80073b6:	f023 0301 	bic.w	r3, r3, #1
 80073ba:	6013      	str	r3, [r2, #0]
				while(CH2_ADC_DMA_STREAM->CR & 0x01);
 80073bc:	4ba2      	ldr	r3, [pc, #648]	; (8007648 <changeFieldValue+0x598>)
 80073be:	681b      	ldr	r3, [r3, #0]
 80073c0:	f013 0f01 	tst.w	r3, #1
 80073c4:	d1fa      	bne.n	80073bc <changeFieldValue+0x30c>
				UG_TextboxSetBackColor(&window_1, TXB_ID_6, RUNSTOP_ICON_COLOR_STP);
 80073c6:	f64f 3209 	movw	r2, #64265	; 0xfb09
 80073ca:	2106      	movs	r1, #6
 80073cc:	489b      	ldr	r0, [pc, #620]	; (800763c <changeFieldValue+0x58c>)
 80073ce:	f7fe f9eb 	bl	80057a8 <UG_TextboxSetBackColor>
 80073d2:	e69d      	b.n	8007110 <changeFieldValue+0x60>
				ADC_Ch1_reinit();
 80073d4:	f7fa f848 	bl	8001468 <ADC_Ch1_reinit>
				ADC_Ch2_reinit();
 80073d8:	f7fa f8fe 	bl	80015d8 <ADC_Ch2_reinit>
				UG_TextboxSetBackColor(&window_1, TXB_ID_6, RUNSTOP_ICON_COLOR_RUN);
 80073dc:	f649 6266 	movw	r2, #40550	; 0x9e66
 80073e0:	2106      	movs	r1, #6
 80073e2:	4896      	ldr	r0, [pc, #600]	; (800763c <changeFieldValue+0x58c>)
 80073e4:	f7fe f9e0 	bl	80057a8 <UG_TextboxSetBackColor>
 80073e8:	e692      	b.n	8007110 <changeFieldValue+0x60>
			voff1 += dir?(voff1==-255?0:-3):(voff1==255?0:3);
 80073ea:	2800      	cmp	r0, #0
 80073ec:	d041      	beq.n	8007472 <changeFieldValue+0x3c2>
 80073ee:	4b97      	ldr	r3, [pc, #604]	; (800764c <changeFieldValue+0x59c>)
 80073f0:	f9b3 3000 	ldrsh.w	r3, [r3]
 80073f4:	f113 0fff 	cmn.w	r3, #255	; 0xff
 80073f8:	d039      	beq.n	800746e <changeFieldValue+0x3be>
 80073fa:	f64f 73fd 	movw	r3, #65533	; 0xfffd
 80073fe:	4a93      	ldr	r2, [pc, #588]	; (800764c <changeFieldValue+0x59c>)
 8007400:	8815      	ldrh	r5, [r2, #0]
 8007402:	442b      	add	r3, r5
 8007404:	b21d      	sxth	r5, r3
 8007406:	8015      	strh	r5, [r2, #0]
			gcvt((int32_t)((3.3f*(float32_t)voff1/(float32_t)255)*100)/100.0f, 3 + (voff1 < -1), bufw2tb0);
 8007408:	ee07 5a90 	vmov	s15, r5
 800740c:	eeb8 7ae7 	vcvt.f32.s32	s14, s15
 8007410:	eddf 7a8f 	vldr	s15, [pc, #572]	; 8007650 <changeFieldValue+0x5a0>
 8007414:	ee27 7a27 	vmul.f32	s14, s14, s15
 8007418:	eddf 6a8e 	vldr	s13, [pc, #568]	; 8007654 <changeFieldValue+0x5a4>
 800741c:	eec7 7a26 	vdiv.f32	s15, s14, s13
 8007420:	ed9f 7a8d 	vldr	s14, [pc, #564]	; 8007658 <changeFieldValue+0x5a8>
 8007424:	ee67 7a87 	vmul.f32	s15, s15, s14
 8007428:	eefd 7ae7 	vcvt.s32.f32	s15, s15
 800742c:	eef8 7ae7 	vcvt.f32.s32	s15, s15
 8007430:	eec7 6a87 	vdiv.f32	s13, s15, s14
 8007434:	ee16 0a90 	vmov	r0, s13
 8007438:	f7f9 f852 	bl	80004e0 <__aeabi_f2d>
 800743c:	ec41 0b10 	vmov	d0, r0, r1
 8007440:	f1b5 3fff 	cmp.w	r5, #4294967295
 8007444:	db1e      	blt.n	8007484 <changeFieldValue+0x3d4>
 8007446:	2003      	movs	r0, #3
 8007448:	4d84      	ldr	r5, [pc, #528]	; (800765c <changeFieldValue+0x5ac>)
 800744a:	4629      	mov	r1, r5
 800744c:	f002 ff9a 	bl	800a384 <gcvt>
			strcat(bufw2tb0, "V");
 8007450:	4628      	mov	r0, r5
 8007452:	f7f8 fed9 	bl	8000208 <strlen>
 8007456:	4b82      	ldr	r3, [pc, #520]	; (8007660 <changeFieldValue+0x5b0>)
 8007458:	881b      	ldrh	r3, [r3, #0]
 800745a:	522b      	strh	r3, [r5, r0]
			UG_TextboxSetText(&window_2, TXB_ID_0, bufw2tb0);
 800745c:	462a      	mov	r2, r5
 800745e:	2100      	movs	r1, #0
 8007460:	4880      	ldr	r0, [pc, #512]	; (8007664 <changeFieldValue+0x5b4>)
 8007462:	f7fe f9b3 	bl	80057cc <UG_TextboxSetText>
			voff1Changed = 1;
 8007466:	2201      	movs	r2, #1
 8007468:	4b7f      	ldr	r3, [pc, #508]	; (8007668 <changeFieldValue+0x5b8>)
 800746a:	701a      	strb	r2, [r3, #0]
			break;
 800746c:	e650      	b.n	8007110 <changeFieldValue+0x60>
			voff1 += dir?(voff1==-255?0:-3):(voff1==255?0:3);
 800746e:	2300      	movs	r3, #0
 8007470:	e7c5      	b.n	80073fe <changeFieldValue+0x34e>
 8007472:	4b76      	ldr	r3, [pc, #472]	; (800764c <changeFieldValue+0x59c>)
 8007474:	f9b3 3000 	ldrsh.w	r3, [r3]
 8007478:	2bff      	cmp	r3, #255	; 0xff
 800747a:	d001      	beq.n	8007480 <changeFieldValue+0x3d0>
 800747c:	2303      	movs	r3, #3
 800747e:	e7be      	b.n	80073fe <changeFieldValue+0x34e>
 8007480:	2300      	movs	r3, #0
 8007482:	e7bc      	b.n	80073fe <changeFieldValue+0x34e>
			gcvt((int32_t)((3.3f*(float32_t)voff1/(float32_t)255)*100)/100.0f, 3 + (voff1 < -1), bufw2tb0);
 8007484:	2004      	movs	r0, #4
 8007486:	e7df      	b.n	8007448 <changeFieldValue+0x398>
			voff2 += dir?(voff2==-255?0:-3):(voff2==255?0:3);
 8007488:	2800      	cmp	r0, #0
 800748a:	d041      	beq.n	8007510 <changeFieldValue+0x460>
 800748c:	4b77      	ldr	r3, [pc, #476]	; (800766c <changeFieldValue+0x5bc>)
 800748e:	f9b3 3000 	ldrsh.w	r3, [r3]
 8007492:	f113 0fff 	cmn.w	r3, #255	; 0xff
 8007496:	d039      	beq.n	800750c <changeFieldValue+0x45c>
 8007498:	f64f 73fd 	movw	r3, #65533	; 0xfffd
 800749c:	4a73      	ldr	r2, [pc, #460]	; (800766c <changeFieldValue+0x5bc>)
 800749e:	8815      	ldrh	r5, [r2, #0]
 80074a0:	442b      	add	r3, r5
 80074a2:	b21d      	sxth	r5, r3
 80074a4:	8015      	strh	r5, [r2, #0]
			gcvt((int32_t)((3.3f*(float32_t)voff2/(float32_t)255)*100)/100.0f, 3 + (voff2 < -1), bufw2tb1);
 80074a6:	ee07 5a90 	vmov	s15, r5
 80074aa:	eeb8 7ae7 	vcvt.f32.s32	s14, s15
 80074ae:	eddf 7a68 	vldr	s15, [pc, #416]	; 8007650 <changeFieldValue+0x5a0>
 80074b2:	ee27 7a27 	vmul.f32	s14, s14, s15
 80074b6:	eddf 6a67 	vldr	s13, [pc, #412]	; 8007654 <changeFieldValue+0x5a4>
 80074ba:	eec7 7a26 	vdiv.f32	s15, s14, s13
 80074be:	ed9f 7a66 	vldr	s14, [pc, #408]	; 8007658 <changeFieldValue+0x5a8>
 80074c2:	ee67 7a87 	vmul.f32	s15, s15, s14
 80074c6:	eefd 7ae7 	vcvt.s32.f32	s15, s15
 80074ca:	eef8 7ae7 	vcvt.f32.s32	s15, s15
 80074ce:	eec7 6a87 	vdiv.f32	s13, s15, s14
 80074d2:	ee16 0a90 	vmov	r0, s13
 80074d6:	f7f9 f803 	bl	80004e0 <__aeabi_f2d>
 80074da:	ec41 0b10 	vmov	d0, r0, r1
 80074de:	f1b5 3fff 	cmp.w	r5, #4294967295
 80074e2:	db1e      	blt.n	8007522 <changeFieldValue+0x472>
 80074e4:	2003      	movs	r0, #3
 80074e6:	4d62      	ldr	r5, [pc, #392]	; (8007670 <changeFieldValue+0x5c0>)
 80074e8:	4629      	mov	r1, r5
 80074ea:	f002 ff4b 	bl	800a384 <gcvt>
			strcat(bufw2tb1, "V");
 80074ee:	4628      	mov	r0, r5
 80074f0:	f7f8 fe8a 	bl	8000208 <strlen>
 80074f4:	4b5a      	ldr	r3, [pc, #360]	; (8007660 <changeFieldValue+0x5b0>)
 80074f6:	881b      	ldrh	r3, [r3, #0]
 80074f8:	522b      	strh	r3, [r5, r0]
			UG_TextboxSetText(&window_2, TXB_ID_1, bufw2tb1);
 80074fa:	462a      	mov	r2, r5
 80074fc:	2101      	movs	r1, #1
 80074fe:	4859      	ldr	r0, [pc, #356]	; (8007664 <changeFieldValue+0x5b4>)
 8007500:	f7fe f964 	bl	80057cc <UG_TextboxSetText>
			voff2Changed = 1;
 8007504:	2201      	movs	r2, #1
 8007506:	4b5b      	ldr	r3, [pc, #364]	; (8007674 <changeFieldValue+0x5c4>)
 8007508:	701a      	strb	r2, [r3, #0]
			break;
 800750a:	e601      	b.n	8007110 <changeFieldValue+0x60>
			voff2 += dir?(voff2==-255?0:-3):(voff2==255?0:3);
 800750c:	2300      	movs	r3, #0
 800750e:	e7c5      	b.n	800749c <changeFieldValue+0x3ec>
 8007510:	4b56      	ldr	r3, [pc, #344]	; (800766c <changeFieldValue+0x5bc>)
 8007512:	f9b3 3000 	ldrsh.w	r3, [r3]
 8007516:	2bff      	cmp	r3, #255	; 0xff
 8007518:	d001      	beq.n	800751e <changeFieldValue+0x46e>
 800751a:	2303      	movs	r3, #3
 800751c:	e7be      	b.n	800749c <changeFieldValue+0x3ec>
 800751e:	2300      	movs	r3, #0
 8007520:	e7bc      	b.n	800749c <changeFieldValue+0x3ec>
			gcvt((int32_t)((3.3f*(float32_t)voff2/(float32_t)255)*100)/100.0f, 3 + (voff2 < -1), bufw2tb1);
 8007522:	2004      	movs	r0, #4
 8007524:	e7df      	b.n	80074e6 <changeFieldValue+0x436>
			toff += dir?(toff==TOFF_LIMIT?0:-6):(toff==ADC_TRIGBUF_SIZE-TOFF_LIMIT?0:6);
 8007526:	b338      	cbz	r0, 8007578 <changeFieldValue+0x4c8>
 8007528:	4b53      	ldr	r3, [pc, #332]	; (8007678 <changeFieldValue+0x5c8>)
 800752a:	881b      	ldrh	r3, [r3, #0]
 800752c:	2b3c      	cmp	r3, #60	; 0x3c
 800752e:	d021      	beq.n	8007574 <changeFieldValue+0x4c4>
 8007530:	f64f 73fa 	movw	r3, #65530	; 0xfffa
 8007534:	4a50      	ldr	r2, [pc, #320]	; (8007678 <changeFieldValue+0x5c8>)
 8007536:	8811      	ldrh	r1, [r2, #0]
 8007538:	440b      	add	r3, r1
 800753a:	b29b      	uxth	r3, r3
 800753c:	8013      	strh	r3, [r2, #0]
			secToStr((float32_t)(toff-240)/(float32_t)samprateVals[tscale], bufw2tb2);
 800753e:	3bf0      	subs	r3, #240	; 0xf0
 8007540:	ee07 3a90 	vmov	s15, r3
 8007544:	eef8 7ae7 	vcvt.f32.s32	s15, s15
 8007548:	4b4c      	ldr	r3, [pc, #304]	; (800767c <changeFieldValue+0x5cc>)
 800754a:	781a      	ldrb	r2, [r3, #0]
 800754c:	4b4c      	ldr	r3, [pc, #304]	; (8007680 <changeFieldValue+0x5d0>)
 800754e:	f853 3022 	ldr.w	r3, [r3, r2, lsl #2]
 8007552:	ee00 3a10 	vmov	s0, r3
 8007556:	eeb8 0a40 	vcvt.f32.u32	s0, s0
 800755a:	4d4a      	ldr	r5, [pc, #296]	; (8007684 <changeFieldValue+0x5d4>)
 800755c:	4628      	mov	r0, r5
 800755e:	ee87 0a80 	vdiv.f32	s0, s15, s0
 8007562:	f7ff fa47 	bl	80069f4 <secToStr>
			UG_TextboxSetText(&window_2, TXB_ID_2, bufw2tb2);
 8007566:	462a      	mov	r2, r5
 8007568:	2102      	movs	r1, #2
 800756a:	483e      	ldr	r0, [pc, #248]	; (8007664 <changeFieldValue+0x5b4>)
 800756c:	f7fe f92e 	bl	80057cc <UG_TextboxSetText>
			for(i = MENUBAR_HEIGHT; i < MENUBAR_HEIGHT + TOFF_CURSOR_LENGTH; i++)
 8007570:	200f      	movs	r0, #15
 8007572:	e018      	b.n	80075a6 <changeFieldValue+0x4f6>
			toff += dir?(toff==TOFF_LIMIT?0:-6):(toff==ADC_TRIGBUF_SIZE-TOFF_LIMIT?0:6);
 8007574:	2300      	movs	r3, #0
 8007576:	e7dd      	b.n	8007534 <changeFieldValue+0x484>
 8007578:	4b3f      	ldr	r3, [pc, #252]	; (8007678 <changeFieldValue+0x5c8>)
 800757a:	881b      	ldrh	r3, [r3, #0]
 800757c:	f5b3 7fd2 	cmp.w	r3, #420	; 0x1a4
 8007580:	d001      	beq.n	8007586 <changeFieldValue+0x4d6>
 8007582:	2306      	movs	r3, #6
 8007584:	e7d6      	b.n	8007534 <changeFieldValue+0x484>
 8007586:	2300      	movs	r3, #0
 8007588:	e7d4      	b.n	8007534 <changeFieldValue+0x484>
					pFrame[i][j] = C_BLACK;
 800758a:	ebc0 1200 	rsb	r2, r0, r0, lsl #4
 800758e:	0191      	lsls	r1, r2, #6
 8007590:	4a3d      	ldr	r2, [pc, #244]	; (8007688 <changeFieldValue+0x5d8>)
 8007592:	440a      	add	r2, r1
 8007594:	2100      	movs	r1, #0
 8007596:	f822 1013 	strh.w	r1, [r2, r3, lsl #1]
				for(j = toffCurPosPrev; j < toffCurPosPrev + TOFF_CURSOR_WIDTH; j++)
 800759a:	3301      	adds	r3, #1
 800759c:	f105 020a 	add.w	r2, r5, #10
 80075a0:	4293      	cmp	r3, r2
 80075a2:	dbf2      	blt.n	800758a <changeFieldValue+0x4da>
			for(i = MENUBAR_HEIGHT; i < MENUBAR_HEIGHT + TOFF_CURSOR_LENGTH; i++)
 80075a4:	3001      	adds	r0, #1
 80075a6:	2818      	cmp	r0, #24
 80075a8:	dc03      	bgt.n	80075b2 <changeFieldValue+0x502>
				for(j = toffCurPosPrev; j < toffCurPosPrev + TOFF_CURSOR_WIDTH; j++)
 80075aa:	4b38      	ldr	r3, [pc, #224]	; (800768c <changeFieldValue+0x5dc>)
 80075ac:	681d      	ldr	r5, [r3, #0]
 80075ae:	462b      	mov	r3, r5
 80075b0:	e7f4      	b.n	800759c <changeFieldValue+0x4ec>
			toffCurPos = toff - TOFF_CURSOR_WIDTH/2 + 1;
 80075b2:	4b31      	ldr	r3, [pc, #196]	; (8007678 <changeFieldValue+0x5c8>)
 80075b4:	f8b3 e000 	ldrh.w	lr, [r3]
 80075b8:	f1ae 0c04 	sub.w	ip, lr, #4
			for(i = MENUBAR_HEIGHT; i < MENUBAR_HEIGHT + TOFF_CURSOR_LENGTH; i++)
 80075bc:	260f      	movs	r6, #15
 80075be:	e01c      	b.n	80075fa <changeFieldValue+0x54a>
					pFrame[i][j] = toffCursorImg[i-MENUBAR_HEIGHT][j-toffCurPos] ? TOFF_CURSOR_COLOR : C_BLACK;
 80075c0:	2300      	movs	r3, #0
 80075c2:	f821 3012 	strh.w	r3, [r1, r2, lsl #1]
				for(j = toffCurPos; j < toffCurPos + TOFF_CURSOR_WIDTH; j++)
 80075c6:	3201      	adds	r2, #1
 80075c8:	f10e 0306 	add.w	r3, lr, #6
 80075cc:	429a      	cmp	r2, r3
 80075ce:	da13      	bge.n	80075f8 <changeFieldValue+0x548>
					pFrame[i][j] = toffCursorImg[i-MENUBAR_HEIGHT][j-toffCurPos] ? TOFF_CURSOR_COLOR : C_BLACK;
 80075d0:	ebc6 1106 	rsb	r1, r6, r6, lsl #4
 80075d4:	018b      	lsls	r3, r1, #6
 80075d6:	492c      	ldr	r1, [pc, #176]	; (8007688 <changeFieldValue+0x5d8>)
 80075d8:	4419      	add	r1, r3
 80075da:	f1a6 030f 	sub.w	r3, r6, #15
 80075de:	eba2 000c 	sub.w	r0, r2, ip
 80075e2:	eb03 0383 	add.w	r3, r3, r3, lsl #2
 80075e6:	005f      	lsls	r7, r3, #1
 80075e8:	4d29      	ldr	r5, [pc, #164]	; (8007690 <changeFieldValue+0x5e0>)
 80075ea:	443d      	add	r5, r7
 80075ec:	5c2b      	ldrb	r3, [r5, r0]
 80075ee:	2b00      	cmp	r3, #0
 80075f0:	d0e6      	beq.n	80075c0 <changeFieldValue+0x510>
 80075f2:	f64d 531b 	movw	r3, #56603	; 0xdd1b
 80075f6:	e7e4      	b.n	80075c2 <changeFieldValue+0x512>
			for(i = MENUBAR_HEIGHT; i < MENUBAR_HEIGHT + TOFF_CURSOR_LENGTH; i++)
 80075f8:	3601      	adds	r6, #1
 80075fa:	2e18      	cmp	r6, #24
 80075fc:	dc01      	bgt.n	8007602 <changeFieldValue+0x552>
 80075fe:	4662      	mov	r2, ip
 8007600:	e7e2      	b.n	80075c8 <changeFieldValue+0x518>
			toffCurPosPrev = toffCurPos;
 8007602:	4b22      	ldr	r3, [pc, #136]	; (800768c <changeFieldValue+0x5dc>)
 8007604:	f8c3 c000 	str.w	ip, [r3]
			if(staticMode){
 8007608:	4b22      	ldr	r3, [pc, #136]	; (8007694 <changeFieldValue+0x5e4>)
 800760a:	781b      	ldrb	r3, [r3, #0]
 800760c:	2b00      	cmp	r3, #0
 800760e:	d073      	beq.n	80076f8 <changeFieldValue+0x648>
				toffStm += dir ? -6: 6;
 8007610:	b16c      	cbz	r4, 800762e <changeFieldValue+0x57e>
 8007612:	f06f 0305 	mvn.w	r3, #5
 8007616:	4a20      	ldr	r2, [pc, #128]	; (8007698 <changeFieldValue+0x5e8>)
 8007618:	6811      	ldr	r1, [r2, #0]
 800761a:	440b      	add	r3, r1
 800761c:	6013      	str	r3, [r2, #0]
				toff = (toffStm < TOFF_LIMIT) ? TOFF_LIMIT : (toffStm > ADC_TRIGBUF_SIZE - TOFF_LIMIT ? ADC_TRIGBUF_SIZE - TOFF_LIMIT : toff);
 800761e:	2b3b      	cmp	r3, #59	; 0x3b
 8007620:	dd3c      	ble.n	800769c <changeFieldValue+0x5ec>
 8007622:	f5b3 7fd2 	cmp.w	r3, #420	; 0x1a4
 8007626:	dc6d      	bgt.n	8007704 <changeFieldValue+0x654>
 8007628:	4a13      	ldr	r2, [pc, #76]	; (8007678 <changeFieldValue+0x5c8>)
 800762a:	8812      	ldrh	r2, [r2, #0]
 800762c:	e037      	b.n	800769e <changeFieldValue+0x5ee>
				toffStm += dir ? -6: 6;
 800762e:	2306      	movs	r3, #6
 8007630:	e7f1      	b.n	8007616 <changeFieldValue+0x566>
 8007632:	bf00      	nop
 8007634:	200000be 	.word	0x200000be
 8007638:	0800bf50 	.word	0x0800bf50
 800763c:	20003750 	.word	0x20003750
 8007640:	0800bf5c 	.word	0x0800bf5c
 8007644:	40026410 	.word	0x40026410
 8007648:	40026428 	.word	0x40026428
 800764c:	200000c4 	.word	0x200000c4
 8007650:	40533333 	.word	0x40533333
 8007654:	437f0000 	.word	0x437f0000
 8007658:	42c80000 	.word	0x42c80000
 800765c:	20000144 	.word	0x20000144
 8007660:	080100e4 	.word	0x080100e4
 8007664:	2000371c 	.word	0x2000371c
 8007668:	200000c6 	.word	0x200000c6
 800766c:	200000c8 	.word	0x200000c8
 8007670:	2000014c 	.word	0x2000014c
 8007674:	200000ca 	.word	0x200000ca
 8007678:	20000000 	.word	0x20000000
 800767c:	20000009 	.word	0x20000009
 8007680:	0800bf60 	.word	0x0800bf60
 8007684:	20000154 	.word	0x20000154
 8007688:	c0200000 	.word	0xc0200000
 800768c:	20000024 	.word	0x20000024
 8007690:	0801016c 	.word	0x0801016c
 8007694:	200000bf 	.word	0x200000bf
 8007698:	20000004 	.word	0x20000004
				toff = (toffStm < TOFF_LIMIT) ? TOFF_LIMIT : (toffStm > ADC_TRIGBUF_SIZE - TOFF_LIMIT ? ADC_TRIGBUF_SIZE - TOFF_LIMIT : toff);
 800769c:	223c      	movs	r2, #60	; 0x3c
 800769e:	49ba      	ldr	r1, [pc, #744]	; (8007988 <changeFieldValue+0x8d8>)
 80076a0:	800a      	strh	r2, [r1, #0]
				if(toffStm < TOFF_LIMIT || toffStm > ADC_TRIGBUF_SIZE - TOFF_LIMIT){
 80076a2:	3b3c      	subs	r3, #60	; 0x3c
 80076a4:	f5b3 7fb4 	cmp.w	r3, #360	; 0x168
 80076a8:	d841      	bhi.n	800772e <changeFieldValue+0x67e>
				toffCurPosPrev = toffCurPos = toff - TOFF_CURSOR_WIDTH/2 + 1;
 80076aa:	4bb7      	ldr	r3, [pc, #732]	; (8007988 <changeFieldValue+0x8d8>)
 80076ac:	881e      	ldrh	r6, [r3, #0]
 80076ae:	1f37      	subs	r7, r6, #4
 80076b0:	4bb6      	ldr	r3, [pc, #728]	; (800798c <changeFieldValue+0x8dc>)
 80076b2:	601f      	str	r7, [r3, #0]
				if(toffStm < TOFF_LIMIT){
 80076b4:	4bb6      	ldr	r3, [pc, #728]	; (8007990 <changeFieldValue+0x8e0>)
 80076b6:	681b      	ldr	r3, [r3, #0]
 80076b8:	2b3b      	cmp	r3, #59	; 0x3b
 80076ba:	dd5c      	ble.n	8007776 <changeFieldValue+0x6c6>
				else if(toffStm > ADC_TRIGBUF_SIZE - TOFF_LIMIT){
 80076bc:	f5b3 7fd2 	cmp.w	r3, #420	; 0x1a4
 80076c0:	dc7e      	bgt.n	80077c0 <changeFieldValue+0x710>
				secToStr((float32_t)(toffStm-240)/(float32_t)samprateVals[tscale], bufw2tb2);
 80076c2:	4bb3      	ldr	r3, [pc, #716]	; (8007990 <changeFieldValue+0x8e0>)
 80076c4:	681b      	ldr	r3, [r3, #0]
 80076c6:	3bf0      	subs	r3, #240	; 0xf0
 80076c8:	ee07 3a90 	vmov	s15, r3
 80076cc:	eef8 7ae7 	vcvt.f32.s32	s15, s15
 80076d0:	4bb0      	ldr	r3, [pc, #704]	; (8007994 <changeFieldValue+0x8e4>)
 80076d2:	781a      	ldrb	r2, [r3, #0]
 80076d4:	4bb0      	ldr	r3, [pc, #704]	; (8007998 <changeFieldValue+0x8e8>)
 80076d6:	f853 3022 	ldr.w	r3, [r3, r2, lsl #2]
 80076da:	ee00 3a10 	vmov	s0, r3
 80076de:	eeb8 0a40 	vcvt.f32.u32	s0, s0
 80076e2:	4dae      	ldr	r5, [pc, #696]	; (800799c <changeFieldValue+0x8ec>)
 80076e4:	4628      	mov	r0, r5
 80076e6:	ee87 0a80 	vdiv.f32	s0, s15, s0
 80076ea:	f7ff f983 	bl	80069f4 <secToStr>
				UG_TextboxSetText(&window_2, TXB_ID_2, bufw2tb2);
 80076ee:	462a      	mov	r2, r5
 80076f0:	2102      	movs	r1, #2
 80076f2:	48ab      	ldr	r0, [pc, #684]	; (80079a0 <changeFieldValue+0x8f0>)
 80076f4:	f7fe f86a 	bl	80057cc <UG_TextboxSetText>
			drawGridVerti();
 80076f8:	f7fe f8ca 	bl	8005890 <drawGridVerti>
			toffChanged = 1;
 80076fc:	2201      	movs	r2, #1
 80076fe:	4ba9      	ldr	r3, [pc, #676]	; (80079a4 <changeFieldValue+0x8f4>)
 8007700:	701a      	strb	r2, [r3, #0]
			break;
 8007702:	e505      	b.n	8007110 <changeFieldValue+0x60>
				toff = (toffStm < TOFF_LIMIT) ? TOFF_LIMIT : (toffStm > ADC_TRIGBUF_SIZE - TOFF_LIMIT ? ADC_TRIGBUF_SIZE - TOFF_LIMIT : toff);
 8007704:	f44f 72d2 	mov.w	r2, #420	; 0x1a4
 8007708:	e7c9      	b.n	800769e <changeFieldValue+0x5ee>
							pFrame[i][j] = C_BLACK;
 800770a:	ebc0 1200 	rsb	r2, r0, r0, lsl #4
 800770e:	0191      	lsls	r1, r2, #6
 8007710:	4aa5      	ldr	r2, [pc, #660]	; (80079a8 <changeFieldValue+0x8f8>)
 8007712:	440a      	add	r2, r1
 8007714:	2100      	movs	r1, #0
 8007716:	f822 1013 	strh.w	r1, [r2, r3, lsl #1]
						for(j = toffCurPos; j < toffCurPos + TOFF_CURSOR_WIDTH; j++)
 800771a:	3301      	adds	r3, #1
 800771c:	f10e 0206 	add.w	r2, lr, #6
 8007720:	4293      	cmp	r3, r2
 8007722:	dbf2      	blt.n	800770a <changeFieldValue+0x65a>
					for(i = MENUBAR_HEIGHT; i < MENUBAR_HEIGHT + TOFF_CURSOR_LENGTH; i++)
 8007724:	3001      	adds	r0, #1
 8007726:	2818      	cmp	r0, #24
 8007728:	dcbf      	bgt.n	80076aa <changeFieldValue+0x5fa>
 800772a:	4663      	mov	r3, ip
 800772c:	e7f6      	b.n	800771c <changeFieldValue+0x66c>
 800772e:	200f      	movs	r0, #15
 8007730:	e7f9      	b.n	8007726 <changeFieldValue+0x676>
							pFrame[i][j] = toffLeftCursorImg[i-MENUBAR_HEIGHT][j-toffCurPos] ? TOFF_CURSOR_COLOR : C_BLACK;
 8007732:	2300      	movs	r3, #0
 8007734:	f821 3012 	strh.w	r3, [r1, r2, lsl #1]
						for(j = toffCurPos; j < toffCurPos + TOFF_CURSOR_WIDTH; j++)
 8007738:	3201      	adds	r2, #1
 800773a:	1db3      	adds	r3, r6, #6
 800773c:	429a      	cmp	r2, r3
 800773e:	da13      	bge.n	8007768 <changeFieldValue+0x6b8>
							pFrame[i][j] = toffLeftCursorImg[i-MENUBAR_HEIGHT][j-toffCurPos] ? TOFF_CURSOR_COLOR : C_BLACK;
 8007740:	ebce 110e 	rsb	r1, lr, lr, lsl #4
 8007744:	018b      	lsls	r3, r1, #6
 8007746:	4998      	ldr	r1, [pc, #608]	; (80079a8 <changeFieldValue+0x8f8>)
 8007748:	4419      	add	r1, r3
 800774a:	f1ae 030f 	sub.w	r3, lr, #15
 800774e:	1bd0      	subs	r0, r2, r7
 8007750:	eb03 0383 	add.w	r3, r3, r3, lsl #2
 8007754:	ea4f 0c43 	mov.w	ip, r3, lsl #1
 8007758:	4d94      	ldr	r5, [pc, #592]	; (80079ac <changeFieldValue+0x8fc>)
 800775a:	4465      	add	r5, ip
 800775c:	5c2b      	ldrb	r3, [r5, r0]
 800775e:	2b00      	cmp	r3, #0
 8007760:	d0e7      	beq.n	8007732 <changeFieldValue+0x682>
 8007762:	f64d 531b 	movw	r3, #56603	; 0xdd1b
 8007766:	e7e5      	b.n	8007734 <changeFieldValue+0x684>
					for(i = MENUBAR_HEIGHT; i < MENUBAR_HEIGHT + TOFF_CURSOR_LENGTH; i++)
 8007768:	f10e 0e01 	add.w	lr, lr, #1
 800776c:	f1be 0f18 	cmp.w	lr, #24
 8007770:	dca7      	bgt.n	80076c2 <changeFieldValue+0x612>
 8007772:	463a      	mov	r2, r7
 8007774:	e7e1      	b.n	800773a <changeFieldValue+0x68a>
 8007776:	f04f 0e0f 	mov.w	lr, #15
 800777a:	e7f7      	b.n	800776c <changeFieldValue+0x6bc>
							pFrame[i][j] = toffRightCursorImg[i-MENUBAR_HEIGHT][j-toffCurPos] ? TOFF_CURSOR_COLOR : C_BLACK;
 800777c:	2300      	movs	r3, #0
 800777e:	f825 3010 	strh.w	r3, [r5, r0, lsl #1]
						for(j = toffCurPos; j < toffCurPos + TOFF_CURSOR_WIDTH; j++)
 8007782:	3001      	adds	r0, #1
 8007784:	1db3      	adds	r3, r6, #6
 8007786:	4298      	cmp	r0, r3
 8007788:	da13      	bge.n	80077b2 <changeFieldValue+0x702>
							pFrame[i][j] = toffRightCursorImg[i-MENUBAR_HEIGHT][j-toffCurPos] ? TOFF_CURSOR_COLOR : C_BLACK;
 800778a:	ebce 120e 	rsb	r2, lr, lr, lsl #4
 800778e:	0193      	lsls	r3, r2, #6
 8007790:	4d85      	ldr	r5, [pc, #532]	; (80079a8 <changeFieldValue+0x8f8>)
 8007792:	441d      	add	r5, r3
 8007794:	f1ae 030f 	sub.w	r3, lr, #15
 8007798:	1bc2      	subs	r2, r0, r7
 800779a:	eb03 0383 	add.w	r3, r3, r3, lsl #2
 800779e:	ea4f 0c43 	mov.w	ip, r3, lsl #1
 80077a2:	4983      	ldr	r1, [pc, #524]	; (80079b0 <changeFieldValue+0x900>)
 80077a4:	4461      	add	r1, ip
 80077a6:	5c8b      	ldrb	r3, [r1, r2]
 80077a8:	2b00      	cmp	r3, #0
 80077aa:	d0e7      	beq.n	800777c <changeFieldValue+0x6cc>
 80077ac:	f64d 531b 	movw	r3, #56603	; 0xdd1b
 80077b0:	e7e5      	b.n	800777e <changeFieldValue+0x6ce>
					for(i = MENUBAR_HEIGHT; i < MENUBAR_HEIGHT + TOFF_CURSOR_LENGTH; i++)
 80077b2:	f10e 0e01 	add.w	lr, lr, #1
 80077b6:	f1be 0f18 	cmp.w	lr, #24
 80077ba:	dc82      	bgt.n	80076c2 <changeFieldValue+0x612>
 80077bc:	4638      	mov	r0, r7
 80077be:	e7e1      	b.n	8007784 <changeFieldValue+0x6d4>
 80077c0:	f04f 0e0f 	mov.w	lr, #15
 80077c4:	e7f7      	b.n	80077b6 <changeFieldValue+0x706>
		for(i = trigCurPosPrev; i < trigCurPosPrev + CURSOR_WIDTH; i++)
 80077c6:	4b7b      	ldr	r3, [pc, #492]	; (80079b4 <changeFieldValue+0x904>)
 80077c8:	681f      	ldr	r7, [r3, #0]
 80077ca:	463e      	mov	r6, r7
 80077cc:	e018      	b.n	8007800 <changeFieldValue+0x750>
				pFrame[i][j] = trigCursorImg[i-trigCurPosPrev][j] ? CH1_COLOR : C_BLACK;
 80077ce:	2300      	movs	r3, #0
 80077d0:	f821 3012 	strh.w	r3, [r1, r2, lsl #1]
			for(j = 0; j < CURSOR_LENGTH; j++)
 80077d4:	3201      	adds	r2, #1
 80077d6:	2a0c      	cmp	r2, #12
 80077d8:	dc11      	bgt.n	80077fe <changeFieldValue+0x74e>
				pFrame[i][j] = trigCursorImg[i-trigCurPosPrev][j] ? CH1_COLOR : C_BLACK;
 80077da:	ebc6 1106 	rsb	r1, r6, r6, lsl #4
 80077de:	018b      	lsls	r3, r1, #6
 80077e0:	4971      	ldr	r1, [pc, #452]	; (80079a8 <changeFieldValue+0x8f8>)
 80077e2:	4419      	add	r1, r3
 80077e4:	1bf3      	subs	r3, r6, r7
 80077e6:	eb03 0043 	add.w	r0, r3, r3, lsl #1
 80077ea:	eb03 0380 	add.w	r3, r3, r0, lsl #2
 80077ee:	4872      	ldr	r0, [pc, #456]	; (80079b8 <changeFieldValue+0x908>)
 80077f0:	4403      	add	r3, r0
 80077f2:	5c9b      	ldrb	r3, [r3, r2]
 80077f4:	2b00      	cmp	r3, #0
 80077f6:	d0ea      	beq.n	80077ce <changeFieldValue+0x71e>
 80077f8:	f44f 63fc 	mov.w	r3, #2016	; 0x7e0
 80077fc:	e7e8      	b.n	80077d0 <changeFieldValue+0x720>
		for(i = trigCurPosPrev; i < trigCurPosPrev + CURSOR_WIDTH; i++)
 80077fe:	3601      	adds	r6, #1
 8007800:	f107 030a 	add.w	r3, r7, #10
 8007804:	429e      	cmp	r6, r3
 8007806:	f6bf ac88 	bge.w	800711a <changeFieldValue+0x6a>
 800780a:	2200      	movs	r2, #0
 800780c:	e7e3      	b.n	80077d6 <changeFieldValue+0x726>
		for(i = trigCurPosPrev; i < trigCurPosPrev + CURSOR_WIDTH; i++)
 800780e:	4b69      	ldr	r3, [pc, #420]	; (80079b4 <changeFieldValue+0x904>)
 8007810:	681e      	ldr	r6, [r3, #0]
 8007812:	4630      	mov	r0, r6
 8007814:	e00b      	b.n	800782e <changeFieldValue+0x77e>
				pFrame[i][j] = C_BLACK;
 8007816:	ebc0 1200 	rsb	r2, r0, r0, lsl #4
 800781a:	0191      	lsls	r1, r2, #6
 800781c:	4a62      	ldr	r2, [pc, #392]	; (80079a8 <changeFieldValue+0x8f8>)
 800781e:	440a      	add	r2, r1
 8007820:	2100      	movs	r1, #0
 8007822:	f822 1013 	strh.w	r1, [r2, r3, lsl #1]
			for(j = 0; j < CURSOR_LENGTH; j++)
 8007826:	3301      	adds	r3, #1
 8007828:	2b0c      	cmp	r3, #12
 800782a:	ddf4      	ble.n	8007816 <changeFieldValue+0x766>
		for(i = trigCurPosPrev; i < trigCurPosPrev + CURSOR_WIDTH; i++)
 800782c:	3001      	adds	r0, #1
 800782e:	f106 030a 	add.w	r3, r6, #10
 8007832:	4298      	cmp	r0, r3
 8007834:	da01      	bge.n	800783a <changeFieldValue+0x78a>
 8007836:	2300      	movs	r3, #0
 8007838:	e7f6      	b.n	8007828 <changeFieldValue+0x778>
		for(i = ch1offCurPosPrev; i < ch1offCurPosPrev + CURSOR_WIDTH; i++)
 800783a:	4b60      	ldr	r3, [pc, #384]	; (80079bc <changeFieldValue+0x90c>)
 800783c:	681e      	ldr	r6, [r3, #0]
 800783e:	4630      	mov	r0, r6
 8007840:	e00b      	b.n	800785a <changeFieldValue+0x7aa>
				pFrame[i][j] = C_BLACK;
 8007842:	ebc0 1200 	rsb	r2, r0, r0, lsl #4
 8007846:	0191      	lsls	r1, r2, #6
 8007848:	4a57      	ldr	r2, [pc, #348]	; (80079a8 <changeFieldValue+0x8f8>)
 800784a:	440a      	add	r2, r1
 800784c:	2100      	movs	r1, #0
 800784e:	f822 1013 	strh.w	r1, [r2, r3, lsl #1]
			for(j = 0; j < CURSOR_LENGTH; j++)
 8007852:	3301      	adds	r3, #1
 8007854:	2b0c      	cmp	r3, #12
 8007856:	ddf4      	ble.n	8007842 <changeFieldValue+0x792>
		for(i = ch1offCurPosPrev; i < ch1offCurPosPrev + CURSOR_WIDTH; i++)
 8007858:	3001      	adds	r0, #1
 800785a:	f106 030a 	add.w	r3, r6, #10
 800785e:	4298      	cmp	r0, r3
 8007860:	da01      	bge.n	8007866 <changeFieldValue+0x7b6>
 8007862:	2300      	movs	r3, #0
 8007864:	e7f6      	b.n	8007854 <changeFieldValue+0x7a4>
		for(i = ch2offCurPosPrev; i < ch2offCurPosPrev + CURSOR_WIDTH; i++)
 8007866:	4b56      	ldr	r3, [pc, #344]	; (80079c0 <changeFieldValue+0x910>)
 8007868:	681e      	ldr	r6, [r3, #0]
 800786a:	4630      	mov	r0, r6
 800786c:	e00b      	b.n	8007886 <changeFieldValue+0x7d6>
				pFrame[i][j] = C_BLACK;
 800786e:	ebc0 1200 	rsb	r2, r0, r0, lsl #4
 8007872:	0191      	lsls	r1, r2, #6
 8007874:	4a4c      	ldr	r2, [pc, #304]	; (80079a8 <changeFieldValue+0x8f8>)
 8007876:	440a      	add	r2, r1
 8007878:	2100      	movs	r1, #0
 800787a:	f822 1013 	strh.w	r1, [r2, r3, lsl #1]
			for(j = 0; j < CURSOR_LENGTH; j++)
 800787e:	3301      	adds	r3, #1
 8007880:	2b0c      	cmp	r3, #12
 8007882:	ddf4      	ble.n	800786e <changeFieldValue+0x7be>
		for(i = ch2offCurPosPrev; i < ch2offCurPosPrev + CURSOR_WIDTH; i++)
 8007884:	3001      	adds	r0, #1
 8007886:	f106 030a 	add.w	r3, r6, #10
 800788a:	4298      	cmp	r0, r3
 800788c:	f6bf ac48 	bge.w	8007120 <changeFieldValue+0x70>
 8007890:	2300      	movs	r3, #0
 8007892:	e7f5      	b.n	8007880 <changeFieldValue+0x7d0>
			(currField == FLD_TRIGLVL && trigsrcVals[trigsrc] == TRIGSRC_CH1) || currField == FLD_CH1_VOFF ||
 8007894:	4b4b      	ldr	r3, [pc, #300]	; (80079c4 <changeFieldValue+0x914>)
 8007896:	781b      	ldrb	r3, [r3, #0]
 8007898:	4a4b      	ldr	r2, [pc, #300]	; (80079c8 <changeFieldValue+0x918>)
 800789a:	5cd3      	ldrb	r3, [r2, r3]
 800789c:	2b00      	cmp	r3, #0
 800789e:	f47f ac47 	bne.w	8007130 <changeFieldValue+0x80>
			dir == 2){

		if(trigsrcVals[trigsrc] == TRIGSRC_CH1){
 80078a2:	4b48      	ldr	r3, [pc, #288]	; (80079c4 <changeFieldValue+0x914>)
 80078a4:	781b      	ldrb	r3, [r3, #0]
 80078a6:	4a48      	ldr	r2, [pc, #288]	; (80079c8 <changeFieldValue+0x918>)
 80078a8:	5cd3      	ldrb	r3, [r2, r3]
 80078aa:	2b00      	cmp	r3, #0
 80078ac:	f040 80a1 	bne.w	80079f2 <changeFieldValue+0x942>
			/* clear previous trigger cursor and redraw */
			for(i = trigCurPosPrev; i < trigCurPosPrev + CURSOR_WIDTH; i++)
 80078b0:	4b40      	ldr	r3, [pc, #256]	; (80079b4 <changeFieldValue+0x904>)
 80078b2:	681d      	ldr	r5, [r3, #0]
 80078b4:	4628      	mov	r0, r5
 80078b6:	e01a      	b.n	80078ee <changeFieldValue+0x83e>
			(chDispMode == CHDISPMODE_MERGE && (currField == FLD_CH2_VSCALE ||
 80078b8:	2d02      	cmp	r5, #2
 80078ba:	d0f2      	beq.n	80078a2 <changeFieldValue+0x7f2>
 80078bc:	2d06      	cmp	r5, #6
 80078be:	d003      	beq.n	80078c8 <changeFieldValue+0x818>
			(currField == FLD_TRIGLVL && trigsrcVals[trigsrc] == TRIGSRC_CH2) || currField == FLD_CH2_VOFF)) ||
 80078c0:	2d0a      	cmp	r5, #10
 80078c2:	f47f ac3d 	bne.w	8007140 <changeFieldValue+0x90>
 80078c6:	e7ec      	b.n	80078a2 <changeFieldValue+0x7f2>
 80078c8:	4b3e      	ldr	r3, [pc, #248]	; (80079c4 <changeFieldValue+0x914>)
 80078ca:	781b      	ldrb	r3, [r3, #0]
 80078cc:	4a3e      	ldr	r2, [pc, #248]	; (80079c8 <changeFieldValue+0x918>)
 80078ce:	5cd3      	ldrb	r3, [r2, r3]
 80078d0:	2b01      	cmp	r3, #1
 80078d2:	d1f5      	bne.n	80078c0 <changeFieldValue+0x810>
 80078d4:	e7e5      	b.n	80078a2 <changeFieldValue+0x7f2>
				for(j = 0; j < CURSOR_LENGTH; j++)
					pFrame[i][j] = C_BLACK;
 80078d6:	ebc0 1200 	rsb	r2, r0, r0, lsl #4
 80078da:	0191      	lsls	r1, r2, #6
 80078dc:	4a32      	ldr	r2, [pc, #200]	; (80079a8 <changeFieldValue+0x8f8>)
 80078de:	440a      	add	r2, r1
 80078e0:	2100      	movs	r1, #0
 80078e2:	f822 1013 	strh.w	r1, [r2, r3, lsl #1]
				for(j = 0; j < CURSOR_LENGTH; j++)
 80078e6:	3301      	adds	r3, #1
 80078e8:	2b0c      	cmp	r3, #12
 80078ea:	ddf4      	ble.n	80078d6 <changeFieldValue+0x826>
			for(i = trigCurPosPrev; i < trigCurPosPrev + CURSOR_WIDTH; i++)
 80078ec:	3001      	adds	r0, #1
 80078ee:	f105 030a 	add.w	r3, r5, #10
 80078f2:	4298      	cmp	r0, r3
 80078f4:	da01      	bge.n	80078fa <changeFieldValue+0x84a>
 80078f6:	2300      	movs	r3, #0
 80078f8:	e7f6      	b.n	80078e8 <changeFieldValue+0x838>

			temp = (float32_t)(voff1 + triglvl)/vscaleVals[vscale1];
 80078fa:	4b34      	ldr	r3, [pc, #208]	; (80079cc <changeFieldValue+0x91c>)
 80078fc:	f9b3 3000 	ldrsh.w	r3, [r3]
 8007900:	4a33      	ldr	r2, [pc, #204]	; (80079d0 <changeFieldValue+0x920>)
 8007902:	7812      	ldrb	r2, [r2, #0]
 8007904:	4413      	add	r3, r2
 8007906:	ee07 3a90 	vmov	s15, r3
 800790a:	eeb8 7ae7 	vcvt.f32.s32	s14, s15
 800790e:	4b31      	ldr	r3, [pc, #196]	; (80079d4 <changeFieldValue+0x924>)
 8007910:	781a      	ldrb	r2, [r3, #0]
 8007912:	4b31      	ldr	r3, [pc, #196]	; (80079d8 <changeFieldValue+0x928>)
 8007914:	eb03 0382 	add.w	r3, r3, r2, lsl #2
 8007918:	edd3 6a00 	vldr	s13, [r3]
 800791c:	eec7 7a26 	vdiv.f32	s15, s14, s13
 8007920:	eefd 7ae7 	vcvt.s32.f32	s15, s15
 8007924:	ee17 6a90 	vmov	r6, s15
			if(chDispMode == CHDISPMODE_SPLIT){
 8007928:	4b2c      	ldr	r3, [pc, #176]	; (80079dc <changeFieldValue+0x92c>)
 800792a:	781b      	ldrb	r3, [r3, #0]
 800792c:	b943      	cbnz	r3, 8007940 <changeFieldValue+0x890>
				if(temp > CHDISPMODE_SPLIT_SIGMAX)	temp = CHDISPMODE_SPLIT_SIGMAX;
 800792e:	2e77      	cmp	r6, #119	; 0x77
 8007930:	dc0a      	bgt.n	8007948 <changeFieldValue+0x898>
			}
			else{
				if(temp > CHDISPMODE_MERGE_SIGMAX)	temp = CHDISPMODE_MERGE_SIGMAX;
			}
			if(temp < 0)  temp = 0;
 8007932:	2e00      	cmp	r6, #0
 8007934:	db0a      	blt.n	800794c <changeFieldValue+0x89c>
			if(chDispMode == CHDISPMODE_SPLIT)
 8007936:	b95b      	cbnz	r3, 8007950 <changeFieldValue+0x8a0>
				trigCurPos = CHDISPMODE_SPLIT_CH1BOT - temp - CURSOR_WIDTH/2 + 1;
 8007938:	f1c6 0682 	rsb	r6, r6, #130	; 0x82
			else
				trigCurPos = CHDISPMODE_MERGE_CHBOT - temp - CURSOR_WIDTH/2 + 1;
			for(i = trigCurPos; i < trigCurPos + CURSOR_WIDTH; i++)
 800793c:	4635      	mov	r5, r6
 800793e:	e050      	b.n	80079e2 <changeFieldValue+0x932>
				if(temp > CHDISPMODE_MERGE_SIGMAX)	temp = CHDISPMODE_MERGE_SIGMAX;
 8007940:	2eef      	cmp	r6, #239	; 0xef
 8007942:	ddf6      	ble.n	8007932 <changeFieldValue+0x882>
 8007944:	26ef      	movs	r6, #239	; 0xef
 8007946:	e7f4      	b.n	8007932 <changeFieldValue+0x882>
				if(temp > CHDISPMODE_SPLIT_SIGMAX)	temp = CHDISPMODE_SPLIT_SIGMAX;
 8007948:	2677      	movs	r6, #119	; 0x77
 800794a:	e7f2      	b.n	8007932 <changeFieldValue+0x882>
			if(temp < 0)  temp = 0;
 800794c:	2600      	movs	r6, #0
 800794e:	e7f2      	b.n	8007936 <changeFieldValue+0x886>
				trigCurPos = CHDISPMODE_MERGE_CHBOT - temp - CURSOR_WIDTH/2 + 1;
 8007950:	f1c6 06fa 	rsb	r6, r6, #250	; 0xfa
 8007954:	e7f2      	b.n	800793c <changeFieldValue+0x88c>
				for(j = 0; j < CURSOR_LENGTH; j++)
					pFrame[i][j] = trigCursorImg[i-trigCurPos][j] ? CH1_COLOR : C_BLACK;
 8007956:	2300      	movs	r3, #0
 8007958:	f821 3012 	strh.w	r3, [r1, r2, lsl #1]
				for(j = 0; j < CURSOR_LENGTH; j++)
 800795c:	3201      	adds	r2, #1
 800795e:	2a0c      	cmp	r2, #12
 8007960:	dc3e      	bgt.n	80079e0 <changeFieldValue+0x930>
					pFrame[i][j] = trigCursorImg[i-trigCurPos][j] ? CH1_COLOR : C_BLACK;
 8007962:	ebc5 1105 	rsb	r1, r5, r5, lsl #4
 8007966:	018b      	lsls	r3, r1, #6
 8007968:	490f      	ldr	r1, [pc, #60]	; (80079a8 <changeFieldValue+0x8f8>)
 800796a:	4419      	add	r1, r3
 800796c:	1bab      	subs	r3, r5, r6
 800796e:	eb03 0043 	add.w	r0, r3, r3, lsl #1
 8007972:	eb03 0380 	add.w	r3, r3, r0, lsl #2
 8007976:	4810      	ldr	r0, [pc, #64]	; (80079b8 <changeFieldValue+0x908>)
 8007978:	4403      	add	r3, r0
 800797a:	5c9b      	ldrb	r3, [r3, r2]
 800797c:	2b00      	cmp	r3, #0
 800797e:	d0ea      	beq.n	8007956 <changeFieldValue+0x8a6>
 8007980:	f44f 63fc 	mov.w	r3, #2016	; 0x7e0
 8007984:	e7e8      	b.n	8007958 <changeFieldValue+0x8a8>
 8007986:	bf00      	nop
 8007988:	20000000 	.word	0x20000000
 800798c:	20000024 	.word	0x20000024
 8007990:	20000004 	.word	0x20000004
 8007994:	20000009 	.word	0x20000009
 8007998:	0800bf60 	.word	0x0800bf60
 800799c:	20000154 	.word	0x20000154
 80079a0:	2000371c 	.word	0x2000371c
 80079a4:	200000c0 	.word	0x200000c0
 80079a8:	c0200000 	.word	0xc0200000
 80079ac:	080101f0 	.word	0x080101f0
 80079b0:	08010274 	.word	0x08010274
 80079b4:	20000028 	.word	0x20000028
 80079b8:	080102f8 	.word	0x080102f8
 80079bc:	20000018 	.word	0x20000018
 80079c0:	2000001c 	.word	0x2000001c
 80079c4:	200000c2 	.word	0x200000c2
 80079c8:	0800bf90 	.word	0x0800bf90
 80079cc:	200000c4 	.word	0x200000c4
 80079d0:	20000008 	.word	0x20000008
 80079d4:	2000000a 	.word	0x2000000a
 80079d8:	0800c008 	.word	0x0800c008
 80079dc:	200000bc 	.word	0x200000bc
			for(i = trigCurPos; i < trigCurPos + CURSOR_WIDTH; i++)
 80079e0:	3501      	adds	r5, #1
 80079e2:	f106 030a 	add.w	r3, r6, #10
 80079e6:	429d      	cmp	r5, r3
 80079e8:	da01      	bge.n	80079ee <changeFieldValue+0x93e>
 80079ea:	2200      	movs	r2, #0
 80079ec:	e7b7      	b.n	800795e <changeFieldValue+0x8ae>

			trigCurPosPrev = trigCurPos;
 80079ee:	4bae      	ldr	r3, [pc, #696]	; (8007ca8 <changeFieldValue+0xbf8>)
 80079f0:	601e      	str	r6, [r3, #0]
		}

		/* clear previous offset cursor and redraw */
		for(i = ch1offCurPosPrev; i < ch1offCurPosPrev + CURSOR_WIDTH; i++)
 80079f2:	4bae      	ldr	r3, [pc, #696]	; (8007cac <changeFieldValue+0xbfc>)
 80079f4:	681d      	ldr	r5, [r3, #0]
 80079f6:	4628      	mov	r0, r5
 80079f8:	e00b      	b.n	8007a12 <changeFieldValue+0x962>
			for(j = 0; j < CURSOR_LENGTH; j++)
				pFrame[i][j] = C_BLACK;
 80079fa:	ebc0 1200 	rsb	r2, r0, r0, lsl #4
 80079fe:	0191      	lsls	r1, r2, #6
 8007a00:	4aab      	ldr	r2, [pc, #684]	; (8007cb0 <changeFieldValue+0xc00>)
 8007a02:	440a      	add	r2, r1
 8007a04:	2100      	movs	r1, #0
 8007a06:	f822 1013 	strh.w	r1, [r2, r3, lsl #1]
			for(j = 0; j < CURSOR_LENGTH; j++)
 8007a0a:	3301      	adds	r3, #1
 8007a0c:	2b0c      	cmp	r3, #12
 8007a0e:	ddf4      	ble.n	80079fa <changeFieldValue+0x94a>
		for(i = ch1offCurPosPrev; i < ch1offCurPosPrev + CURSOR_WIDTH; i++)
 8007a10:	3001      	adds	r0, #1
 8007a12:	f105 030a 	add.w	r3, r5, #10
 8007a16:	4298      	cmp	r0, r3
 8007a18:	da01      	bge.n	8007a1e <changeFieldValue+0x96e>
 8007a1a:	2300      	movs	r3, #0
 8007a1c:	e7f6      	b.n	8007a0c <changeFieldValue+0x95c>

		temp = (float32_t)(voff1)/vscaleVals[vscale1];
 8007a1e:	4ba5      	ldr	r3, [pc, #660]	; (8007cb4 <changeFieldValue+0xc04>)
 8007a20:	f9b3 3000 	ldrsh.w	r3, [r3]
 8007a24:	ee07 3a10 	vmov	s14, r3
 8007a28:	eeb8 7ac7 	vcvt.f32.s32	s14, s14
 8007a2c:	4ba2      	ldr	r3, [pc, #648]	; (8007cb8 <changeFieldValue+0xc08>)
 8007a2e:	781a      	ldrb	r2, [r3, #0]
 8007a30:	4ba2      	ldr	r3, [pc, #648]	; (8007cbc <changeFieldValue+0xc0c>)
 8007a32:	eb03 0382 	add.w	r3, r3, r2, lsl #2
 8007a36:	edd3 6a00 	vldr	s13, [r3]
 8007a3a:	eec7 7a26 	vdiv.f32	s15, s14, s13
 8007a3e:	eefd 7ae7 	vcvt.s32.f32	s15, s15
 8007a42:	ee17 6a90 	vmov	r6, s15
		if(chDispMode == CHDISPMODE_SPLIT){
 8007a46:	4b9e      	ldr	r3, [pc, #632]	; (8007cc0 <changeFieldValue+0xc10>)
 8007a48:	781b      	ldrb	r3, [r3, #0]
 8007a4a:	b943      	cbnz	r3, 8007a5e <changeFieldValue+0x9ae>
			if(temp > CHDISPMODE_SPLIT_SIGMAX)	temp = CHDISPMODE_SPLIT_SIGMAX;
 8007a4c:	2e77      	cmp	r6, #119	; 0x77
 8007a4e:	dc0a      	bgt.n	8007a66 <changeFieldValue+0x9b6>
		}
		else{
			if(temp > CHDISPMODE_MERGE_SIGMAX)	temp = CHDISPMODE_MERGE_SIGMAX;
		}
		if(temp < 0)  temp = 0;
 8007a50:	2e00      	cmp	r6, #0
 8007a52:	db0a      	blt.n	8007a6a <changeFieldValue+0x9ba>
		if(chDispMode == CHDISPMODE_SPLIT)
 8007a54:	b95b      	cbnz	r3, 8007a6e <changeFieldValue+0x9be>
			ch1offCurPos = CHDISPMODE_SPLIT_CH1BOT - temp - CURSOR_WIDTH/2 + 1;
 8007a56:	f1c6 0682 	rsb	r6, r6, #130	; 0x82
		else
			ch1offCurPos = CHDISPMODE_MERGE_CHBOT - temp - CURSOR_WIDTH/2 + 1;
		for(i = ch1offCurPos; i < ch1offCurPos + CURSOR_WIDTH; i++)
 8007a5a:	4635      	mov	r5, r6
 8007a5c:	e023      	b.n	8007aa6 <changeFieldValue+0x9f6>
			if(temp > CHDISPMODE_MERGE_SIGMAX)	temp = CHDISPMODE_MERGE_SIGMAX;
 8007a5e:	2eef      	cmp	r6, #239	; 0xef
 8007a60:	ddf6      	ble.n	8007a50 <changeFieldValue+0x9a0>
 8007a62:	26ef      	movs	r6, #239	; 0xef
 8007a64:	e7f4      	b.n	8007a50 <changeFieldValue+0x9a0>
			if(temp > CHDISPMODE_SPLIT_SIGMAX)	temp = CHDISPMODE_SPLIT_SIGMAX;
 8007a66:	2677      	movs	r6, #119	; 0x77
 8007a68:	e7f2      	b.n	8007a50 <changeFieldValue+0x9a0>
		if(temp < 0)  temp = 0;
 8007a6a:	2600      	movs	r6, #0
 8007a6c:	e7f2      	b.n	8007a54 <changeFieldValue+0x9a4>
			ch1offCurPos = CHDISPMODE_MERGE_CHBOT - temp - CURSOR_WIDTH/2 + 1;
 8007a6e:	f1c6 06fa 	rsb	r6, r6, #250	; 0xfa
 8007a72:	e7f2      	b.n	8007a5a <changeFieldValue+0x9aa>
			for(j = 0; j < CURSOR_LENGTH; j++)
				pFrame[i][j] = ch1RefCursorImg[i-ch1offCurPos][j] ? CH1_COLOR : C_BLACK;
 8007a74:	2300      	movs	r3, #0
 8007a76:	f821 3012 	strh.w	r3, [r1, r2, lsl #1]
			for(j = 0; j < CURSOR_LENGTH; j++)
 8007a7a:	3201      	adds	r2, #1
 8007a7c:	2a0c      	cmp	r2, #12
 8007a7e:	dc11      	bgt.n	8007aa4 <changeFieldValue+0x9f4>
				pFrame[i][j] = ch1RefCursorImg[i-ch1offCurPos][j] ? CH1_COLOR : C_BLACK;
 8007a80:	ebc5 1105 	rsb	r1, r5, r5, lsl #4
 8007a84:	018b      	lsls	r3, r1, #6
 8007a86:	498a      	ldr	r1, [pc, #552]	; (8007cb0 <changeFieldValue+0xc00>)
 8007a88:	4419      	add	r1, r3
 8007a8a:	1bab      	subs	r3, r5, r6
 8007a8c:	eb03 0043 	add.w	r0, r3, r3, lsl #1
 8007a90:	eb03 0380 	add.w	r3, r3, r0, lsl #2
 8007a94:	488b      	ldr	r0, [pc, #556]	; (8007cc4 <changeFieldValue+0xc14>)
 8007a96:	4403      	add	r3, r0
 8007a98:	5c9b      	ldrb	r3, [r3, r2]
 8007a9a:	2b00      	cmp	r3, #0
 8007a9c:	d0ea      	beq.n	8007a74 <changeFieldValue+0x9c4>
 8007a9e:	f44f 63fc 	mov.w	r3, #2016	; 0x7e0
 8007aa2:	e7e8      	b.n	8007a76 <changeFieldValue+0x9c6>
		for(i = ch1offCurPos; i < ch1offCurPos + CURSOR_WIDTH; i++)
 8007aa4:	3501      	adds	r5, #1
 8007aa6:	f106 030a 	add.w	r3, r6, #10
 8007aaa:	429d      	cmp	r5, r3
 8007aac:	da01      	bge.n	8007ab2 <changeFieldValue+0xa02>
 8007aae:	2200      	movs	r2, #0
 8007ab0:	e7e4      	b.n	8007a7c <changeFieldValue+0x9cc>

		ch1offCurPosPrev = ch1offCurPos;
 8007ab2:	4b7e      	ldr	r3, [pc, #504]	; (8007cac <changeFieldValue+0xbfc>)
 8007ab4:	601e      	str	r6, [r3, #0]

		drawGridHoriz();
 8007ab6:	f7fd febf 	bl	8005838 <drawGridHoriz>
	}

	/* Update the positions of ch2 cursors, if required */
	if((currField == FLD_CH2_VSCALE || currField == FLD_TRIGSRC ||
 8007aba:	4b83      	ldr	r3, [pc, #524]	; (8007cc8 <changeFieldValue+0xc18>)
 8007abc:	781b      	ldrb	r3, [r3, #0]
 8007abe:	2b04      	cmp	r3, #4
 8007ac0:	bf18      	it	ne
 8007ac2:	2b02      	cmpne	r3, #2
 8007ac4:	d00a      	beq.n	8007adc <changeFieldValue+0xa2c>
 8007ac6:	2b06      	cmp	r3, #6
 8007ac8:	d017      	beq.n	8007afa <changeFieldValue+0xa4a>
			(currField == FLD_TRIGLVL && trigsrcVals[trigsrc] == TRIGSRC_CH2) || currField == FLD_CH2_VOFF ||
 8007aca:	2b0a      	cmp	r3, #10
 8007acc:	d006      	beq.n	8007adc <changeFieldValue+0xa2c>
			(chDispMode == CHDISPMODE_MERGE && (currField == FLD_CH1_VSCALE ||
 8007ace:	4a7c      	ldr	r2, [pc, #496]	; (8007cc0 <changeFieldValue+0xc10>)
 8007ad0:	7812      	ldrb	r2, [r2, #0]
			(currField == FLD_TRIGLVL && trigsrcVals[trigsrc] == TRIGSRC_CH2) || currField == FLD_CH2_VOFF ||
 8007ad2:	2a01      	cmp	r2, #1
 8007ad4:	d018      	beq.n	8007b08 <changeFieldValue+0xa58>
			(currField == FLD_TRIGLVL && trigsrcVals[trigsrc] == TRIGSRC_CH1) || currField == FLD_CH1_VOFF)) ||
 8007ad6:	2c02      	cmp	r4, #2
 8007ad8:	f040 810c 	bne.w	8007cf4 <changeFieldValue+0xc44>
			dir == 2) && chDispMode != CHDISPMODE_SNGL){
 8007adc:	4b78      	ldr	r3, [pc, #480]	; (8007cc0 <changeFieldValue+0xc10>)
 8007ade:	781b      	ldrb	r3, [r3, #0]
 8007ae0:	2b02      	cmp	r3, #2
 8007ae2:	f000 8107 	beq.w	8007cf4 <changeFieldValue+0xc44>

		if(trigsrcVals[trigsrc] == TRIGSRC_CH2){
 8007ae6:	4b79      	ldr	r3, [pc, #484]	; (8007ccc <changeFieldValue+0xc1c>)
 8007ae8:	781b      	ldrb	r3, [r3, #0]
 8007aea:	4a79      	ldr	r2, [pc, #484]	; (8007cd0 <changeFieldValue+0xc20>)
 8007aec:	5cd3      	ldrb	r3, [r2, r3]
 8007aee:	2b01      	cmp	r3, #1
 8007af0:	d018      	beq.n	8007b24 <changeFieldValue+0xa74>

			trigCurPosPrev = trigCurPos;
		}

		/* clear previous offset cursor and redraw */
		for(i = ch2offCurPosPrev; i < ch2offCurPosPrev + CURSOR_WIDTH; i++)
 8007af2:	4b78      	ldr	r3, [pc, #480]	; (8007cd4 <changeFieldValue+0xc24>)
 8007af4:	681c      	ldr	r4, [r3, #0]
 8007af6:	4620      	mov	r0, r4
 8007af8:	e086      	b.n	8007c08 <changeFieldValue+0xb58>
			(currField == FLD_TRIGLVL && trigsrcVals[trigsrc] == TRIGSRC_CH2) || currField == FLD_CH2_VOFF ||
 8007afa:	4a74      	ldr	r2, [pc, #464]	; (8007ccc <changeFieldValue+0xc1c>)
 8007afc:	7812      	ldrb	r2, [r2, #0]
 8007afe:	4974      	ldr	r1, [pc, #464]	; (8007cd0 <changeFieldValue+0xc20>)
 8007b00:	5c8a      	ldrb	r2, [r1, r2]
 8007b02:	2a01      	cmp	r2, #1
 8007b04:	d1e1      	bne.n	8007aca <changeFieldValue+0xa1a>
 8007b06:	e7e9      	b.n	8007adc <changeFieldValue+0xa2c>
			(chDispMode == CHDISPMODE_MERGE && (currField == FLD_CH1_VSCALE ||
 8007b08:	2b01      	cmp	r3, #1
 8007b0a:	d0e7      	beq.n	8007adc <changeFieldValue+0xa2c>
 8007b0c:	2b06      	cmp	r3, #6
 8007b0e:	d002      	beq.n	8007b16 <changeFieldValue+0xa66>
			(currField == FLD_TRIGLVL && trigsrcVals[trigsrc] == TRIGSRC_CH1) || currField == FLD_CH1_VOFF)) ||
 8007b10:	2b09      	cmp	r3, #9
 8007b12:	d1e0      	bne.n	8007ad6 <changeFieldValue+0xa26>
 8007b14:	e7e2      	b.n	8007adc <changeFieldValue+0xa2c>
 8007b16:	4a6d      	ldr	r2, [pc, #436]	; (8007ccc <changeFieldValue+0xc1c>)
 8007b18:	7812      	ldrb	r2, [r2, #0]
 8007b1a:	496d      	ldr	r1, [pc, #436]	; (8007cd0 <changeFieldValue+0xc20>)
 8007b1c:	5c8a      	ldrb	r2, [r1, r2]
 8007b1e:	2a00      	cmp	r2, #0
 8007b20:	d0dc      	beq.n	8007adc <changeFieldValue+0xa2c>
 8007b22:	e7f5      	b.n	8007b10 <changeFieldValue+0xa60>
			for(i = trigCurPosPrev; i < trigCurPosPrev + CURSOR_WIDTH; i++)
 8007b24:	4b60      	ldr	r3, [pc, #384]	; (8007ca8 <changeFieldValue+0xbf8>)
 8007b26:	681c      	ldr	r4, [r3, #0]
 8007b28:	4620      	mov	r0, r4
 8007b2a:	e00b      	b.n	8007b44 <changeFieldValue+0xa94>
					pFrame[i][j] = C_BLACK;
 8007b2c:	ebc0 1200 	rsb	r2, r0, r0, lsl #4
 8007b30:	0191      	lsls	r1, r2, #6
 8007b32:	4a5f      	ldr	r2, [pc, #380]	; (8007cb0 <changeFieldValue+0xc00>)
 8007b34:	440a      	add	r2, r1
 8007b36:	2100      	movs	r1, #0
 8007b38:	f822 1013 	strh.w	r1, [r2, r3, lsl #1]
				for(j = 0; j < CURSOR_LENGTH; j++)
 8007b3c:	3301      	adds	r3, #1
 8007b3e:	2b0c      	cmp	r3, #12
 8007b40:	ddf4      	ble.n	8007b2c <changeFieldValue+0xa7c>
			for(i = trigCurPosPrev; i < trigCurPosPrev + CURSOR_WIDTH; i++)
 8007b42:	3001      	adds	r0, #1
 8007b44:	f104 030a 	add.w	r3, r4, #10
 8007b48:	4298      	cmp	r0, r3
 8007b4a:	da01      	bge.n	8007b50 <changeFieldValue+0xaa0>
 8007b4c:	2300      	movs	r3, #0
 8007b4e:	e7f6      	b.n	8007b3e <changeFieldValue+0xa8e>
			temp = (float32_t)(voff2 + triglvl)/vscaleVals[vscale2];
 8007b50:	4b61      	ldr	r3, [pc, #388]	; (8007cd8 <changeFieldValue+0xc28>)
 8007b52:	f9b3 3000 	ldrsh.w	r3, [r3]
 8007b56:	4a61      	ldr	r2, [pc, #388]	; (8007cdc <changeFieldValue+0xc2c>)
 8007b58:	7812      	ldrb	r2, [r2, #0]
 8007b5a:	4413      	add	r3, r2
 8007b5c:	ee07 3a90 	vmov	s15, r3
 8007b60:	eeb8 7ae7 	vcvt.f32.s32	s14, s15
 8007b64:	4b5e      	ldr	r3, [pc, #376]	; (8007ce0 <changeFieldValue+0xc30>)
 8007b66:	781a      	ldrb	r2, [r3, #0]
 8007b68:	4b54      	ldr	r3, [pc, #336]	; (8007cbc <changeFieldValue+0xc0c>)
 8007b6a:	eb03 0382 	add.w	r3, r3, r2, lsl #2
 8007b6e:	edd3 6a00 	vldr	s13, [r3]
 8007b72:	eec7 7a26 	vdiv.f32	s15, s14, s13
 8007b76:	eefd 7ae7 	vcvt.s32.f32	s15, s15
 8007b7a:	ee17 5a90 	vmov	r5, s15
			if(chDispMode == CHDISPMODE_SPLIT){
 8007b7e:	4b50      	ldr	r3, [pc, #320]	; (8007cc0 <changeFieldValue+0xc10>)
 8007b80:	781b      	ldrb	r3, [r3, #0]
 8007b82:	b943      	cbnz	r3, 8007b96 <changeFieldValue+0xae6>
				if(temp > CHDISPMODE_SPLIT_SIGMAX)	temp = CHDISPMODE_SPLIT_SIGMAX;
 8007b84:	2d77      	cmp	r5, #119	; 0x77
 8007b86:	dc0a      	bgt.n	8007b9e <changeFieldValue+0xaee>
			if(temp < 0)  temp = 0;
 8007b88:	2d00      	cmp	r5, #0
 8007b8a:	db0a      	blt.n	8007ba2 <changeFieldValue+0xaf2>
			if(chDispMode == CHDISPMODE_SPLIT)
 8007b8c:	b95b      	cbnz	r3, 8007ba6 <changeFieldValue+0xaf6>
				trigCurPos = CHDISPMODE_SPLIT_CH2BOT - temp - CURSOR_WIDTH/2 + 1;
 8007b8e:	f1c5 05fa 	rsb	r5, r5, #250	; 0xfa
			for(i = trigCurPos; i < trigCurPos + CURSOR_WIDTH; i++)
 8007b92:	462c      	mov	r4, r5
 8007b94:	e023      	b.n	8007bde <changeFieldValue+0xb2e>
				if(temp > CHDISPMODE_MERGE_SIGMAX)	temp = CHDISPMODE_MERGE_SIGMAX;
 8007b96:	2def      	cmp	r5, #239	; 0xef
 8007b98:	ddf6      	ble.n	8007b88 <changeFieldValue+0xad8>
 8007b9a:	25ef      	movs	r5, #239	; 0xef
 8007b9c:	e7f4      	b.n	8007b88 <changeFieldValue+0xad8>
				if(temp > CHDISPMODE_SPLIT_SIGMAX)	temp = CHDISPMODE_SPLIT_SIGMAX;
 8007b9e:	2577      	movs	r5, #119	; 0x77
 8007ba0:	e7f2      	b.n	8007b88 <changeFieldValue+0xad8>
			if(temp < 0)  temp = 0;
 8007ba2:	2500      	movs	r5, #0
 8007ba4:	e7f2      	b.n	8007b8c <changeFieldValue+0xadc>
				trigCurPos = CHDISPMODE_MERGE_CHBOT - temp - CURSOR_WIDTH/2 + 1;
 8007ba6:	f1c5 05fa 	rsb	r5, r5, #250	; 0xfa
 8007baa:	e7f2      	b.n	8007b92 <changeFieldValue+0xae2>
					pFrame[i][j] = trigCursorImg[i-trigCurPos][j] ? CH2_COLOR : C_BLACK;
 8007bac:	2300      	movs	r3, #0
 8007bae:	f821 3012 	strh.w	r3, [r1, r2, lsl #1]
				for(j = 0; j < CURSOR_LENGTH; j++)
 8007bb2:	3201      	adds	r2, #1
 8007bb4:	2a0c      	cmp	r2, #12
 8007bb6:	dc11      	bgt.n	8007bdc <changeFieldValue+0xb2c>
					pFrame[i][j] = trigCursorImg[i-trigCurPos][j] ? CH2_COLOR : C_BLACK;
 8007bb8:	ebc4 1104 	rsb	r1, r4, r4, lsl #4
 8007bbc:	018b      	lsls	r3, r1, #6
 8007bbe:	493c      	ldr	r1, [pc, #240]	; (8007cb0 <changeFieldValue+0xc00>)
 8007bc0:	4419      	add	r1, r3
 8007bc2:	1b63      	subs	r3, r4, r5
 8007bc4:	eb03 0043 	add.w	r0, r3, r3, lsl #1
 8007bc8:	eb03 0380 	add.w	r3, r3, r0, lsl #2
 8007bcc:	4845      	ldr	r0, [pc, #276]	; (8007ce4 <changeFieldValue+0xc34>)
 8007bce:	4403      	add	r3, r0
 8007bd0:	5c9b      	ldrb	r3, [r3, r2]
 8007bd2:	2b00      	cmp	r3, #0
 8007bd4:	d0ea      	beq.n	8007bac <changeFieldValue+0xafc>
 8007bd6:	f240 73ff 	movw	r3, #2047	; 0x7ff
 8007bda:	e7e8      	b.n	8007bae <changeFieldValue+0xafe>
			for(i = trigCurPos; i < trigCurPos + CURSOR_WIDTH; i++)
 8007bdc:	3401      	adds	r4, #1
 8007bde:	f105 030a 	add.w	r3, r5, #10
 8007be2:	429c      	cmp	r4, r3
 8007be4:	da01      	bge.n	8007bea <changeFieldValue+0xb3a>
 8007be6:	2200      	movs	r2, #0
 8007be8:	e7e4      	b.n	8007bb4 <changeFieldValue+0xb04>
			trigCurPosPrev = trigCurPos;
 8007bea:	4b2f      	ldr	r3, [pc, #188]	; (8007ca8 <changeFieldValue+0xbf8>)
 8007bec:	601d      	str	r5, [r3, #0]
 8007bee:	e780      	b.n	8007af2 <changeFieldValue+0xa42>
			for(j = 0; j < CURSOR_LENGTH; j++)
				pFrame[i][j] = C_BLACK;
 8007bf0:	ebc0 1200 	rsb	r2, r0, r0, lsl #4
 8007bf4:	0191      	lsls	r1, r2, #6
 8007bf6:	4a2e      	ldr	r2, [pc, #184]	; (8007cb0 <changeFieldValue+0xc00>)
 8007bf8:	440a      	add	r2, r1
 8007bfa:	2100      	movs	r1, #0
 8007bfc:	f822 1013 	strh.w	r1, [r2, r3, lsl #1]
			for(j = 0; j < CURSOR_LENGTH; j++)
 8007c00:	3301      	adds	r3, #1
 8007c02:	2b0c      	cmp	r3, #12
 8007c04:	ddf4      	ble.n	8007bf0 <changeFieldValue+0xb40>
		for(i = ch2offCurPosPrev; i < ch2offCurPosPrev + CURSOR_WIDTH; i++)
 8007c06:	3001      	adds	r0, #1
 8007c08:	f104 030a 	add.w	r3, r4, #10
 8007c0c:	4298      	cmp	r0, r3
 8007c0e:	da01      	bge.n	8007c14 <changeFieldValue+0xb64>
 8007c10:	2300      	movs	r3, #0
 8007c12:	e7f6      	b.n	8007c02 <changeFieldValue+0xb52>

		temp = (float32_t)(voff2)/vscaleVals[vscale2];
 8007c14:	4b30      	ldr	r3, [pc, #192]	; (8007cd8 <changeFieldValue+0xc28>)
 8007c16:	f9b3 3000 	ldrsh.w	r3, [r3]
 8007c1a:	ee07 3a10 	vmov	s14, r3
 8007c1e:	eeb8 7ac7 	vcvt.f32.s32	s14, s14
 8007c22:	4b2f      	ldr	r3, [pc, #188]	; (8007ce0 <changeFieldValue+0xc30>)
 8007c24:	781a      	ldrb	r2, [r3, #0]
 8007c26:	4b25      	ldr	r3, [pc, #148]	; (8007cbc <changeFieldValue+0xc0c>)
 8007c28:	eb03 0382 	add.w	r3, r3, r2, lsl #2
 8007c2c:	edd3 6a00 	vldr	s13, [r3]
 8007c30:	eec7 7a26 	vdiv.f32	s15, s14, s13
 8007c34:	eefd 7ae7 	vcvt.s32.f32	s15, s15
 8007c38:	ee17 5a90 	vmov	r5, s15
		if(chDispMode == CHDISPMODE_SPLIT){
 8007c3c:	4b20      	ldr	r3, [pc, #128]	; (8007cc0 <changeFieldValue+0xc10>)
 8007c3e:	781b      	ldrb	r3, [r3, #0]
 8007c40:	b943      	cbnz	r3, 8007c54 <changeFieldValue+0xba4>
			if(temp > CHDISPMODE_SPLIT_SIGMAX)	temp = CHDISPMODE_SPLIT_SIGMAX;
 8007c42:	2d77      	cmp	r5, #119	; 0x77
 8007c44:	dc0a      	bgt.n	8007c5c <changeFieldValue+0xbac>
		}
		else{
			if(temp > CHDISPMODE_MERGE_SIGMAX)	temp = CHDISPMODE_MERGE_SIGMAX;
		}
		if(temp < 0)  temp = 0;
 8007c46:	2d00      	cmp	r5, #0
 8007c48:	db0a      	blt.n	8007c60 <changeFieldValue+0xbb0>
		if(chDispMode == CHDISPMODE_SPLIT)
 8007c4a:	b95b      	cbnz	r3, 8007c64 <changeFieldValue+0xbb4>
			ch2offCurPos = CHDISPMODE_SPLIT_CH2BOT - temp - CURSOR_WIDTH/2 + 1;
 8007c4c:	f1c5 05fa 	rsb	r5, r5, #250	; 0xfa
		else
			ch2offCurPos = CHDISPMODE_MERGE_CHBOT - temp - CURSOR_WIDTH/2 + 1;

		for(i = ch2offCurPos; i < ch2offCurPos + CURSOR_WIDTH; i++)
 8007c50:	462c      	mov	r4, r5
 8007c52:	e023      	b.n	8007c9c <changeFieldValue+0xbec>
			if(temp > CHDISPMODE_MERGE_SIGMAX)	temp = CHDISPMODE_MERGE_SIGMAX;
 8007c54:	2def      	cmp	r5, #239	; 0xef
 8007c56:	ddf6      	ble.n	8007c46 <changeFieldValue+0xb96>
 8007c58:	25ef      	movs	r5, #239	; 0xef
 8007c5a:	e7f4      	b.n	8007c46 <changeFieldValue+0xb96>
			if(temp > CHDISPMODE_SPLIT_SIGMAX)	temp = CHDISPMODE_SPLIT_SIGMAX;
 8007c5c:	2577      	movs	r5, #119	; 0x77
 8007c5e:	e7f2      	b.n	8007c46 <changeFieldValue+0xb96>
		if(temp < 0)  temp = 0;
 8007c60:	2500      	movs	r5, #0
 8007c62:	e7f2      	b.n	8007c4a <changeFieldValue+0xb9a>
			ch2offCurPos = CHDISPMODE_MERGE_CHBOT - temp - CURSOR_WIDTH/2 + 1;
 8007c64:	f1c5 05fa 	rsb	r5, r5, #250	; 0xfa
 8007c68:	e7f2      	b.n	8007c50 <changeFieldValue+0xba0>
			for(j = 0; j < CURSOR_LENGTH; j++)
				pFrame[i][j] = ch2RefCursorImg[i-ch2offCurPos][j] ? CH2_COLOR : C_BLACK;
 8007c6a:	2300      	movs	r3, #0
 8007c6c:	f821 3012 	strh.w	r3, [r1, r2, lsl #1]
			for(j = 0; j < CURSOR_LENGTH; j++)
 8007c70:	3201      	adds	r2, #1
 8007c72:	2a0c      	cmp	r2, #12
 8007c74:	dc11      	bgt.n	8007c9a <changeFieldValue+0xbea>
				pFrame[i][j] = ch2RefCursorImg[i-ch2offCurPos][j] ? CH2_COLOR : C_BLACK;
 8007c76:	ebc4 1104 	rsb	r1, r4, r4, lsl #4
 8007c7a:	018b      	lsls	r3, r1, #6
 8007c7c:	490c      	ldr	r1, [pc, #48]	; (8007cb0 <changeFieldValue+0xc00>)
 8007c7e:	4419      	add	r1, r3
 8007c80:	1b63      	subs	r3, r4, r5
 8007c82:	eb03 0043 	add.w	r0, r3, r3, lsl #1
 8007c86:	eb03 0380 	add.w	r3, r3, r0, lsl #2
 8007c8a:	4817      	ldr	r0, [pc, #92]	; (8007ce8 <changeFieldValue+0xc38>)
 8007c8c:	4403      	add	r3, r0
 8007c8e:	5c9b      	ldrb	r3, [r3, r2]
 8007c90:	2b00      	cmp	r3, #0
 8007c92:	d0ea      	beq.n	8007c6a <changeFieldValue+0xbba>
 8007c94:	f240 73ff 	movw	r3, #2047	; 0x7ff
 8007c98:	e7e8      	b.n	8007c6c <changeFieldValue+0xbbc>
		for(i = ch2offCurPos; i < ch2offCurPos + CURSOR_WIDTH; i++)
 8007c9a:	3401      	adds	r4, #1
 8007c9c:	f105 030a 	add.w	r3, r5, #10
 8007ca0:	429c      	cmp	r4, r3
 8007ca2:	da23      	bge.n	8007cec <changeFieldValue+0xc3c>
 8007ca4:	2200      	movs	r2, #0
 8007ca6:	e7e4      	b.n	8007c72 <changeFieldValue+0xbc2>
 8007ca8:	20000028 	.word	0x20000028
 8007cac:	20000018 	.word	0x20000018
 8007cb0:	c0200000 	.word	0xc0200000
 8007cb4:	200000c4 	.word	0x200000c4
 8007cb8:	2000000a 	.word	0x2000000a
 8007cbc:	0800c008 	.word	0x0800c008
 8007cc0:	200000bc 	.word	0x200000bc
 8007cc4:	0800ffa8 	.word	0x0800ffa8
 8007cc8:	2000015c 	.word	0x2000015c
 8007ccc:	200000c2 	.word	0x200000c2
 8007cd0:	0800bf90 	.word	0x0800bf90
 8007cd4:	2000001c 	.word	0x2000001c
 8007cd8:	200000c8 	.word	0x200000c8
 8007cdc:	20000008 	.word	0x20000008
 8007ce0:	2000000b 	.word	0x2000000b
 8007ce4:	080102f8 	.word	0x080102f8
 8007ce8:	0801002c 	.word	0x0801002c

		ch2offCurPosPrev = ch2offCurPos;
 8007cec:	4b12      	ldr	r3, [pc, #72]	; (8007d38 <changeFieldValue+0xc88>)
 8007cee:	601d      	str	r5, [r3, #0]

		drawGridHoriz();
 8007cf0:	f7fd fda2 	bl	8005838 <drawGridHoriz>
	}

	/* update horizontal offset if there is a change in time scale */
	if(currField == FLD_TSCALE){
 8007cf4:	4b11      	ldr	r3, [pc, #68]	; (8007d3c <changeFieldValue+0xc8c>)
 8007cf6:	781b      	ldrb	r3, [r3, #0]
 8007cf8:	2b03      	cmp	r3, #3
 8007cfa:	d000      	beq.n	8007cfe <changeFieldValue+0xc4e>
 8007cfc:	bdf8      	pop	{r3, r4, r5, r6, r7, pc}
		secToStr((float32_t)(toff-240)/(float32_t)samprateVals[tscale], bufw2tb2);
 8007cfe:	4b10      	ldr	r3, [pc, #64]	; (8007d40 <changeFieldValue+0xc90>)
 8007d00:	881b      	ldrh	r3, [r3, #0]
 8007d02:	3bf0      	subs	r3, #240	; 0xf0
 8007d04:	ee07 3a90 	vmov	s15, r3
 8007d08:	eef8 7ae7 	vcvt.f32.s32	s15, s15
 8007d0c:	4b0d      	ldr	r3, [pc, #52]	; (8007d44 <changeFieldValue+0xc94>)
 8007d0e:	781a      	ldrb	r2, [r3, #0]
 8007d10:	4b0d      	ldr	r3, [pc, #52]	; (8007d48 <changeFieldValue+0xc98>)
 8007d12:	f853 3022 	ldr.w	r3, [r3, r2, lsl #2]
 8007d16:	ee00 3a10 	vmov	s0, r3
 8007d1a:	eeb8 0a40 	vcvt.f32.u32	s0, s0
 8007d1e:	4c0b      	ldr	r4, [pc, #44]	; (8007d4c <changeFieldValue+0xc9c>)
 8007d20:	4620      	mov	r0, r4
 8007d22:	ee87 0a80 	vdiv.f32	s0, s15, s0
 8007d26:	f7fe fe65 	bl	80069f4 <secToStr>
		UG_TextboxSetText(&window_2, TXB_ID_2, bufw2tb2);
 8007d2a:	4622      	mov	r2, r4
 8007d2c:	2102      	movs	r1, #2
 8007d2e:	4808      	ldr	r0, [pc, #32]	; (8007d50 <changeFieldValue+0xca0>)
 8007d30:	f7fd fd4c 	bl	80057cc <UG_TextboxSetText>
	}

	return;
 8007d34:	e7e2      	b.n	8007cfc <changeFieldValue+0xc4c>
 8007d36:	bf00      	nop
 8007d38:	2000001c 	.word	0x2000001c
 8007d3c:	2000015c 	.word	0x2000015c
 8007d40:	20000000 	.word	0x20000000
 8007d44:	20000009 	.word	0x20000009
 8007d48:	0800bf60 	.word	0x0800bf60
 8007d4c:	20000154 	.word	0x20000154
 8007d50:	2000371c 	.word	0x2000371c

08007d54 <window_6_callback>:
{
 8007d54:	b508      	push	{r3, lr}
	if (msg->type == MSG_TYPE_OBJECT)
 8007d56:	7803      	ldrb	r3, [r0, #0]
 8007d58:	2b02      	cmp	r3, #2
 8007d5a:	d000      	beq.n	8007d5e <window_6_callback+0xa>
 8007d5c:	bd08      	pop	{r3, pc}
	  if (msg->id == OBJ_TYPE_BUTTON)
 8007d5e:	7843      	ldrb	r3, [r0, #1]
 8007d60:	2b01      	cmp	r3, #1
 8007d62:	d1fb      	bne.n	8007d5c <window_6_callback+0x8>
		  if(msg->event == OBJ_EVENT_PRESSED)
 8007d64:	78c3      	ldrb	r3, [r0, #3]
 8007d66:	2b04      	cmp	r3, #4
 8007d68:	d1f8      	bne.n	8007d5c <window_6_callback+0x8>
			 switch(msg->sub_id)
 8007d6a:	7883      	ldrb	r3, [r0, #2]
 8007d6c:	2b00      	cmp	r3, #0
 8007d6e:	d1f5      	bne.n	8007d5c <window_6_callback+0x8>
			 		chDispMode = (chDispMode + 1) % 3;
 8007d70:	491f      	ldr	r1, [pc, #124]	; (8007df0 <window_6_callback+0x9c>)
 8007d72:	780a      	ldrb	r2, [r1, #0]
 8007d74:	3201      	adds	r2, #1
 8007d76:	f1a3 33aa 	sub.w	r3, r3, #2863311530	; 0xaaaaaaaa
 8007d7a:	fb83 0302 	smull	r0, r3, r3, r2
 8007d7e:	eba3 73e2 	sub.w	r3, r3, r2, asr #31
 8007d82:	eb03 0343 	add.w	r3, r3, r3, lsl #1
 8007d86:	1ad3      	subs	r3, r2, r3
 8007d88:	b2db      	uxtb	r3, r3
 8007d8a:	700b      	strb	r3, [r1, #0]
					UG_ButtonSetText(&window_6, BTN_ID_0, (chDispMode == CHDISPMODE_SPLIT) ? "Split" : (chDispMode == CHDISPMODE_MERGE ? "Merge" : "Single"));
 8007d8c:	b12b      	cbz	r3, 8007d9a <window_6_callback+0x46>
 8007d8e:	2b01      	cmp	r3, #1
 8007d90:	d001      	beq.n	8007d96 <window_6_callback+0x42>
 8007d92:	4a18      	ldr	r2, [pc, #96]	; (8007df4 <window_6_callback+0xa0>)
 8007d94:	e002      	b.n	8007d9c <window_6_callback+0x48>
 8007d96:	4a18      	ldr	r2, [pc, #96]	; (8007df8 <window_6_callback+0xa4>)
 8007d98:	e000      	b.n	8007d9c <window_6_callback+0x48>
 8007d9a:	4a18      	ldr	r2, [pc, #96]	; (8007dfc <window_6_callback+0xa8>)
 8007d9c:	2100      	movs	r1, #0
 8007d9e:	4818      	ldr	r0, [pc, #96]	; (8007e00 <window_6_callback+0xac>)
 8007da0:	f7fd fc9a 	bl	80056d8 <UG_ButtonSetText>
					if(chDispMode != CHDISPMODE_SPLIT){
 8007da4:	4b12      	ldr	r3, [pc, #72]	; (8007df0 <window_6_callback+0x9c>)
 8007da6:	781b      	ldrb	r3, [r3, #0]
 8007da8:	b993      	cbnz	r3, 8007dd0 <window_6_callback+0x7c>
					if(chDispMode == CHDISPMODE_SNGL && trigsrcVals[trigsrc] == TRIGSRC_CH2){
 8007daa:	4b11      	ldr	r3, [pc, #68]	; (8007df0 <window_6_callback+0x9c>)
 8007dac:	781b      	ldrb	r3, [r3, #0]
 8007dae:	2b02      	cmp	r3, #2
 8007db0:	d010      	beq.n	8007dd4 <window_6_callback+0x80>
					changeFieldValue(2);
 8007db2:	2002      	movs	r0, #2
 8007db4:	f7ff f97c 	bl	80070b0 <changeFieldValue>
}
 8007db8:	e7d0      	b.n	8007d5c <window_6_callback+0x8>
							pFrame[i][j] = C_BLACK;
 8007dba:	2100      	movs	r1, #0
 8007dbc:	4a11      	ldr	r2, [pc, #68]	; (8007e04 <window_6_callback+0xb0>)
 8007dbe:	f822 1013 	strh.w	r1, [r2, r3, lsl #1]
						for(j = 0; j < LCD_WIDTH; j += 1){
 8007dc2:	3301      	adds	r3, #1
 8007dc4:	f5b3 7ff0 	cmp.w	r3, #480	; 0x1e0
 8007dc8:	dbf7      	blt.n	8007dba <window_6_callback+0x66>
						drawGrid();
 8007dca:	f7fd fe55 	bl	8005a78 <drawGrid>
 8007dce:	e7ec      	b.n	8007daa <window_6_callback+0x56>
 8007dd0:	2300      	movs	r3, #0
 8007dd2:	e7f7      	b.n	8007dc4 <window_6_callback+0x70>
					if(chDispMode == CHDISPMODE_SNGL && trigsrcVals[trigsrc] == TRIGSRC_CH2){
 8007dd4:	4b0c      	ldr	r3, [pc, #48]	; (8007e08 <window_6_callback+0xb4>)
 8007dd6:	781b      	ldrb	r3, [r3, #0]
 8007dd8:	4a0c      	ldr	r2, [pc, #48]	; (8007e0c <window_6_callback+0xb8>)
 8007dda:	5cd3      	ldrb	r3, [r2, r3]
 8007ddc:	2b01      	cmp	r3, #1
 8007dde:	d1e8      	bne.n	8007db2 <window_6_callback+0x5e>
						goToField(FLD_TRIGSRC);
 8007de0:	2004      	movs	r0, #4
 8007de2:	f7ff f939 	bl	8007058 <goToField>
						changeFieldValue(1);
 8007de6:	2001      	movs	r0, #1
 8007de8:	f7ff f962 	bl	80070b0 <changeFieldValue>
 8007dec:	e7e1      	b.n	8007db2 <window_6_callback+0x5e>
 8007dee:	bf00      	nop
 8007df0:	200000bc 	.word	0x200000bc
 8007df4:	08010390 	.word	0x08010390
 8007df8:	08010398 	.word	0x08010398
 8007dfc:	0801015c 	.word	0x0801015c
 8007e00:	2000334c 	.word	0x2000334c
 8007e04:	c021fa40 	.word	0xc021fa40
 8007e08:	200000c2 	.word	0x200000c2
 8007e0c:	0800bf90 	.word	0x0800bf90

08007e10 <dispToff>:
  * @brief  Display Toff field value and redraw the cursor.
  * @param  None
  * @retval None
  */
void dispToff(void)
{
 8007e10:	b5f8      	push	{r3, r4, r5, r6, r7, lr}
	int32_t toffCurPos, i, j;
	__IO uint16_t (*pFrame)[LCD_WIDTH] = (__IO uint16_t (*)[LCD_WIDTH])LCD_DRAW_BUFFER_UGUI;

	secToStr((float32_t)(toff-240)/(float32_t)samprateVals[tscale], bufw2tb2);
 8007e12:	4c29      	ldr	r4, [pc, #164]	; (8007eb8 <dispToff+0xa8>)
 8007e14:	8823      	ldrh	r3, [r4, #0]
 8007e16:	3bf0      	subs	r3, #240	; 0xf0
 8007e18:	ee07 3a90 	vmov	s15, r3
 8007e1c:	eef8 7ae7 	vcvt.f32.s32	s15, s15
 8007e20:	4b26      	ldr	r3, [pc, #152]	; (8007ebc <dispToff+0xac>)
 8007e22:	781a      	ldrb	r2, [r3, #0]
 8007e24:	4b26      	ldr	r3, [pc, #152]	; (8007ec0 <dispToff+0xb0>)
 8007e26:	f853 3022 	ldr.w	r3, [r3, r2, lsl #2]
 8007e2a:	ee00 3a10 	vmov	s0, r3
 8007e2e:	eeb8 0a40 	vcvt.f32.u32	s0, s0
 8007e32:	4d24      	ldr	r5, [pc, #144]	; (8007ec4 <dispToff+0xb4>)
 8007e34:	4628      	mov	r0, r5
 8007e36:	ee87 0a80 	vdiv.f32	s0, s15, s0
 8007e3a:	f7fe fddb 	bl	80069f4 <secToStr>
	UG_TextboxSetText(&window_2, TXB_ID_2, bufw2tb2);
 8007e3e:	462a      	mov	r2, r5
 8007e40:	2102      	movs	r1, #2
 8007e42:	4821      	ldr	r0, [pc, #132]	; (8007ec8 <dispToff+0xb8>)
 8007e44:	f7fd fcc2 	bl	80057cc <UG_TextboxSetText>

	toffCurPos = toff - TOFF_CURSOR_WIDTH/2 + 1;
 8007e48:	8826      	ldrh	r6, [r4, #0]
 8007e4a:	1f37      	subs	r7, r6, #4

	/* clear toff cursor and redraw */
	for(i = MENUBAR_HEIGHT; i < MENUBAR_HEIGHT + TOFF_CURSOR_LENGTH; i++)
 8007e4c:	200f      	movs	r0, #15
 8007e4e:	e00c      	b.n	8007e6a <dispToff+0x5a>
		for(j = toffCurPos; j < toffCurPos + TOFF_CURSOR_WIDTH; j++)
			pFrame[i][j] = C_BLACK;
 8007e50:	ebc0 1200 	rsb	r2, r0, r0, lsl #4
 8007e54:	0191      	lsls	r1, r2, #6
 8007e56:	4a1d      	ldr	r2, [pc, #116]	; (8007ecc <dispToff+0xbc>)
 8007e58:	440a      	add	r2, r1
 8007e5a:	2100      	movs	r1, #0
 8007e5c:	f822 1013 	strh.w	r1, [r2, r3, lsl #1]
		for(j = toffCurPos; j < toffCurPos + TOFF_CURSOR_WIDTH; j++)
 8007e60:	3301      	adds	r3, #1
 8007e62:	1db2      	adds	r2, r6, #6
 8007e64:	4293      	cmp	r3, r2
 8007e66:	dbf3      	blt.n	8007e50 <dispToff+0x40>
	for(i = MENUBAR_HEIGHT; i < MENUBAR_HEIGHT + TOFF_CURSOR_LENGTH; i++)
 8007e68:	3001      	adds	r0, #1
 8007e6a:	2818      	cmp	r0, #24
 8007e6c:	dc01      	bgt.n	8007e72 <dispToff+0x62>
 8007e6e:	463b      	mov	r3, r7
 8007e70:	e7f7      	b.n	8007e62 <dispToff+0x52>
 8007e72:	250f      	movs	r5, #15
 8007e74:	e01b      	b.n	8007eae <dispToff+0x9e>

	for(i = MENUBAR_HEIGHT; i < MENUBAR_HEIGHT + TOFF_CURSOR_LENGTH; i++)
		for(j = toffCurPos; j < toffCurPos + TOFF_CURSOR_WIDTH; j++)
			pFrame[i][j] = toffCursorImg[i-MENUBAR_HEIGHT][j-toffCurPos] ? TOFF_CURSOR_COLOR : C_BLACK;
 8007e76:	2300      	movs	r3, #0
 8007e78:	f821 3012 	strh.w	r3, [r1, r2, lsl #1]
		for(j = toffCurPos; j < toffCurPos + TOFF_CURSOR_WIDTH; j++)
 8007e7c:	3201      	adds	r2, #1
 8007e7e:	1db3      	adds	r3, r6, #6
 8007e80:	429a      	cmp	r2, r3
 8007e82:	da13      	bge.n	8007eac <dispToff+0x9c>
			pFrame[i][j] = toffCursorImg[i-MENUBAR_HEIGHT][j-toffCurPos] ? TOFF_CURSOR_COLOR : C_BLACK;
 8007e84:	ebc5 1105 	rsb	r1, r5, r5, lsl #4
 8007e88:	018b      	lsls	r3, r1, #6
 8007e8a:	4910      	ldr	r1, [pc, #64]	; (8007ecc <dispToff+0xbc>)
 8007e8c:	4419      	add	r1, r3
 8007e8e:	f1a5 030f 	sub.w	r3, r5, #15
 8007e92:	1bd0      	subs	r0, r2, r7
 8007e94:	eb03 0383 	add.w	r3, r3, r3, lsl #2
 8007e98:	ea4f 0e43 	mov.w	lr, r3, lsl #1
 8007e9c:	4c0c      	ldr	r4, [pc, #48]	; (8007ed0 <dispToff+0xc0>)
 8007e9e:	4474      	add	r4, lr
 8007ea0:	5c23      	ldrb	r3, [r4, r0]
 8007ea2:	2b00      	cmp	r3, #0
 8007ea4:	d0e7      	beq.n	8007e76 <dispToff+0x66>
 8007ea6:	f64d 531b 	movw	r3, #56603	; 0xdd1b
 8007eaa:	e7e5      	b.n	8007e78 <dispToff+0x68>
	for(i = MENUBAR_HEIGHT; i < MENUBAR_HEIGHT + TOFF_CURSOR_LENGTH; i++)
 8007eac:	3501      	adds	r5, #1
 8007eae:	2d18      	cmp	r5, #24
 8007eb0:	dc01      	bgt.n	8007eb6 <dispToff+0xa6>
 8007eb2:	463a      	mov	r2, r7
 8007eb4:	e7e3      	b.n	8007e7e <dispToff+0x6e>
}
 8007eb6:	bdf8      	pop	{r3, r4, r5, r6, r7, pc}
 8007eb8:	20000000 	.word	0x20000000
 8007ebc:	20000009 	.word	0x20000009
 8007ec0:	0800bf60 	.word	0x0800bf60
 8007ec4:	20000154 	.word	0x20000154
 8007ec8:	2000371c 	.word	0x2000371c
 8007ecc:	c0200000 	.word	0xc0200000
 8007ed0:	0801016c 	.word	0x0801016c

08007ed4 <initFields>:
  * @brief  Initialize field values.
  * @param  None
  * @retval None
  */
void initFields(void)
{
 8007ed4:	b5f8      	push	{r3, r4, r5, r6, r7, lr}
	int32_t temp, curPos, i, j;
	__IO uint16_t (*pFrame)[LCD_WIDTH] = (__IO uint16_t (*)[LCD_WIDTH])LCD_DRAW_BUFFER_UGUI;

	/* ch1 vertical scale */
	UG_TextboxSetText(&window_1, TXB_ID_0, vscaleDispVals[vscale1]);
 8007ed6:	4bc1      	ldr	r3, [pc, #772]	; (80081dc <initFields+0x308>)
 8007ed8:	781b      	ldrb	r3, [r3, #0]
 8007eda:	eb03 0343 	add.w	r3, r3, r3, lsl #1
 8007ede:	005a      	lsls	r2, r3, #1
 8007ee0:	4dbf      	ldr	r5, [pc, #764]	; (80081e0 <initFields+0x30c>)
 8007ee2:	4cc0      	ldr	r4, [pc, #768]	; (80081e4 <initFields+0x310>)
 8007ee4:	442a      	add	r2, r5
 8007ee6:	2100      	movs	r1, #0
 8007ee8:	4620      	mov	r0, r4
 8007eea:	f7fd fc6f 	bl	80057cc <UG_TextboxSetText>

	/* ch2 vertical scale */
	UG_TextboxSetText(&window_1, TXB_ID_1, vscaleDispVals[vscale2]);
 8007eee:	4bbe      	ldr	r3, [pc, #760]	; (80081e8 <initFields+0x314>)
 8007ef0:	781b      	ldrb	r3, [r3, #0]
 8007ef2:	eb03 0343 	add.w	r3, r3, r3, lsl #1
 8007ef6:	005a      	lsls	r2, r3, #1
 8007ef8:	442a      	add	r2, r5
 8007efa:	2101      	movs	r1, #1
 8007efc:	4620      	mov	r0, r4
 8007efe:	f7fd fc65 	bl	80057cc <UG_TextboxSetText>

	/* time scale */
	UG_TextboxSetText(&window_1, TXB_ID_2, tscaleDispVals[tscale]);
 8007f02:	4bba      	ldr	r3, [pc, #744]	; (80081ec <initFields+0x318>)
 8007f04:	781a      	ldrb	r2, [r3, #0]
 8007f06:	ebc2 02c2 	rsb	r2, r2, r2, lsl #3
 8007f0a:	4bb9      	ldr	r3, [pc, #740]	; (80081f0 <initFields+0x31c>)
 8007f0c:	441a      	add	r2, r3
 8007f0e:	2102      	movs	r1, #2
 8007f10:	4620      	mov	r0, r4
 8007f12:	f7fd fc5b 	bl	80057cc <UG_TextboxSetText>

	/* trigger source */
	UG_COLOR color;
	if(trigsrcVals[trigsrc] == TRIGSRC_CH1)
 8007f16:	4bb7      	ldr	r3, [pc, #732]	; (80081f4 <initFields+0x320>)
 8007f18:	781b      	ldrb	r3, [r3, #0]
 8007f1a:	4ab7      	ldr	r2, [pc, #732]	; (80081f8 <initFields+0x324>)
 8007f1c:	5cd3      	ldrb	r3, [r2, r3]
 8007f1e:	2b00      	cmp	r3, #0
 8007f20:	d171      	bne.n	8008006 <initFields+0x132>
		color = CH1_COLOR;
 8007f22:	f44f 65fc 	mov.w	r5, #2016	; 0x7e0
	else
		color = CH2_COLOR;
	UG_TextboxSetBackColor(&window_1, TXB_ID_3, color);
 8007f26:	4caf      	ldr	r4, [pc, #700]	; (80081e4 <initFields+0x310>)
 8007f28:	462a      	mov	r2, r5
 8007f2a:	2103      	movs	r1, #3
 8007f2c:	4620      	mov	r0, r4
 8007f2e:	f7fd fc3b 	bl	80057a8 <UG_TextboxSetBackColor>
	UG_TextboxSetBackColor(&window_1, TXB_ID_4, color);
 8007f32:	462a      	mov	r2, r5
 8007f34:	2104      	movs	r1, #4
 8007f36:	4620      	mov	r0, r4
 8007f38:	f7fd fc36 	bl	80057a8 <UG_TextboxSetBackColor>

	/* trigger type */
	strcpy(bufw1tb3 + 4, trigtypeDispVals[trigtype]);
 8007f3c:	4baf      	ldr	r3, [pc, #700]	; (80081fc <initFields+0x328>)
 8007f3e:	7819      	ldrb	r1, [r3, #0]
 8007f40:	4daf      	ldr	r5, [pc, #700]	; (8008200 <initFields+0x32c>)
 8007f42:	4bb0      	ldr	r3, [pc, #704]	; (8008204 <initFields+0x330>)
 8007f44:	eb03 0181 	add.w	r1, r3, r1, lsl #2
 8007f48:	1d28      	adds	r0, r5, #4
 8007f4a:	f002 fa9c 	bl	800a486 <strcpy>
	UG_TextboxSetText(&window_1, TXB_ID_3, bufw1tb3);
 8007f4e:	462a      	mov	r2, r5
 8007f50:	2103      	movs	r1, #3
 8007f52:	4620      	mov	r0, r4
 8007f54:	f7fd fc3a 	bl	80057cc <UG_TextboxSetText>

	/* trigger level */
	gcvt((int32_t)((3.3f*(float32_t)triglvl/(float32_t)255)*100)/100.0f, 3, bufw1tb4);
 8007f58:	4bab      	ldr	r3, [pc, #684]	; (8008208 <initFields+0x334>)
 8007f5a:	781b      	ldrb	r3, [r3, #0]
 8007f5c:	ee07 3a10 	vmov	s14, r3
 8007f60:	eeb8 7a47 	vcvt.f32.u32	s14, s14
 8007f64:	eddf 7aa9 	vldr	s15, [pc, #676]	; 800820c <initFields+0x338>
 8007f68:	ee27 7a27 	vmul.f32	s14, s14, s15
 8007f6c:	eddf 6aa8 	vldr	s13, [pc, #672]	; 8008210 <initFields+0x33c>
 8007f70:	eec7 7a26 	vdiv.f32	s15, s14, s13
 8007f74:	ed9f 7aa7 	vldr	s14, [pc, #668]	; 8008214 <initFields+0x340>
 8007f78:	ee67 7a87 	vmul.f32	s15, s15, s14
 8007f7c:	eefd 7ae7 	vcvt.s32.f32	s15, s15
 8007f80:	eef8 7ae7 	vcvt.f32.s32	s15, s15
 8007f84:	4da4      	ldr	r5, [pc, #656]	; (8008218 <initFields+0x344>)
 8007f86:	eec7 6a87 	vdiv.f32	s13, s15, s14
 8007f8a:	ee16 0a90 	vmov	r0, s13
 8007f8e:	f7f8 faa7 	bl	80004e0 <__aeabi_f2d>
 8007f92:	ec41 0b10 	vmov	d0, r0, r1
 8007f96:	4629      	mov	r1, r5
 8007f98:	2003      	movs	r0, #3
 8007f9a:	f002 f9f3 	bl	800a384 <gcvt>
	strcat(bufw1tb4, "V");
 8007f9e:	4628      	mov	r0, r5
 8007fa0:	f7f8 f932 	bl	8000208 <strlen>
 8007fa4:	4b9d      	ldr	r3, [pc, #628]	; (800821c <initFields+0x348>)
 8007fa6:	881b      	ldrh	r3, [r3, #0]
 8007fa8:	522b      	strh	r3, [r5, r0]
	UG_TextboxSetText(&window_1, TXB_ID_4, bufw1tb4);
 8007faa:	462a      	mov	r2, r5
 8007fac:	2104      	movs	r1, #4
 8007fae:	4620      	mov	r0, r4
 8007fb0:	f7fd fc0c 	bl	80057cc <UG_TextboxSetText>
	if(trigsrcVals[trigsrc] == TRIGSRC_CH1){
 8007fb4:	4b8f      	ldr	r3, [pc, #572]	; (80081f4 <initFields+0x320>)
 8007fb6:	781b      	ldrb	r3, [r3, #0]
 8007fb8:	4a8f      	ldr	r2, [pc, #572]	; (80081f8 <initFields+0x324>)
 8007fba:	5cd3      	ldrb	r3, [r2, r3]
 8007fbc:	2b00      	cmp	r3, #0
 8007fbe:	d14f      	bne.n	8008060 <initFields+0x18c>
		temp = (float32_t)(voff1 + triglvl)/vscaleVals[vscale1];
 8007fc0:	4b97      	ldr	r3, [pc, #604]	; (8008220 <initFields+0x34c>)
 8007fc2:	f9b3 3000 	ldrsh.w	r3, [r3]
 8007fc6:	4a90      	ldr	r2, [pc, #576]	; (8008208 <initFields+0x334>)
 8007fc8:	7812      	ldrb	r2, [r2, #0]
 8007fca:	4413      	add	r3, r2
 8007fcc:	ee07 3a90 	vmov	s15, r3
 8007fd0:	eeb8 7ae7 	vcvt.f32.s32	s14, s15
 8007fd4:	4b81      	ldr	r3, [pc, #516]	; (80081dc <initFields+0x308>)
 8007fd6:	781a      	ldrb	r2, [r3, #0]
 8007fd8:	4b92      	ldr	r3, [pc, #584]	; (8008224 <initFields+0x350>)
 8007fda:	eb03 0382 	add.w	r3, r3, r2, lsl #2
 8007fde:	edd3 6a00 	vldr	s13, [r3]
 8007fe2:	eec7 7a26 	vdiv.f32	s15, s14, s13
 8007fe6:	eefd 7ae7 	vcvt.s32.f32	s15, s15
 8007fea:	ee17 5a90 	vmov	r5, s15
		if(chDispMode == CHDISPMODE_SPLIT){
 8007fee:	4b8e      	ldr	r3, [pc, #568]	; (8008228 <initFields+0x354>)
 8007ff0:	781b      	ldrb	r3, [r3, #0]
 8007ff2:	b95b      	cbnz	r3, 800800c <initFields+0x138>
			if(temp > CHDISPMODE_SPLIT_SIGMAX)	temp = CHDISPMODE_SPLIT_SIGMAX;
 8007ff4:	2d77      	cmp	r5, #119	; 0x77
 8007ff6:	dc0d      	bgt.n	8008014 <initFields+0x140>
		}
		else{
			if(temp > CHDISPMODE_MERGE_SIGMAX)	temp = CHDISPMODE_MERGE_SIGMAX;
		}
		if(temp < 0)  temp = 0;
 8007ff8:	2d00      	cmp	r5, #0
 8007ffa:	db0d      	blt.n	8008018 <initFields+0x144>
		if(chDispMode == CHDISPMODE_SPLIT)
 8007ffc:	b973      	cbnz	r3, 800801c <initFields+0x148>
			curPos = CHDISPMODE_SPLIT_CH1BOT - temp - CURSOR_WIDTH/2 + 1;
 8007ffe:	f1c5 0582 	rsb	r5, r5, #130	; 0x82
		else
			curPos = CHDISPMODE_MERGE_CHBOT - temp - CURSOR_WIDTH/2 + 1;
		for(i = curPos; i < curPos + CURSOR_WIDTH; i++)
 8008002:	462c      	mov	r4, r5
 8008004:	e026      	b.n	8008054 <initFields+0x180>
		color = CH2_COLOR;
 8008006:	f240 75ff 	movw	r5, #2047	; 0x7ff
 800800a:	e78c      	b.n	8007f26 <initFields+0x52>
			if(temp > CHDISPMODE_MERGE_SIGMAX)	temp = CHDISPMODE_MERGE_SIGMAX;
 800800c:	2def      	cmp	r5, #239	; 0xef
 800800e:	ddf3      	ble.n	8007ff8 <initFields+0x124>
 8008010:	25ef      	movs	r5, #239	; 0xef
 8008012:	e7f1      	b.n	8007ff8 <initFields+0x124>
			if(temp > CHDISPMODE_SPLIT_SIGMAX)	temp = CHDISPMODE_SPLIT_SIGMAX;
 8008014:	2577      	movs	r5, #119	; 0x77
 8008016:	e7ef      	b.n	8007ff8 <initFields+0x124>
		if(temp < 0)  temp = 0;
 8008018:	2500      	movs	r5, #0
 800801a:	e7ef      	b.n	8007ffc <initFields+0x128>
			curPos = CHDISPMODE_MERGE_CHBOT - temp - CURSOR_WIDTH/2 + 1;
 800801c:	f1c5 05fa 	rsb	r5, r5, #250	; 0xfa
 8008020:	e7ef      	b.n	8008002 <initFields+0x12e>
			for(j = 0; j < CURSOR_LENGTH; j++)
				pFrame[i][j] = trigCursorImg[i-curPos][j] ? CH1_COLOR : C_BLACK;
 8008022:	2300      	movs	r3, #0
 8008024:	f821 3012 	strh.w	r3, [r1, r2, lsl #1]
			for(j = 0; j < CURSOR_LENGTH; j++)
 8008028:	3201      	adds	r2, #1
 800802a:	2a0c      	cmp	r2, #12
 800802c:	dc11      	bgt.n	8008052 <initFields+0x17e>
				pFrame[i][j] = trigCursorImg[i-curPos][j] ? CH1_COLOR : C_BLACK;
 800802e:	ebc4 1104 	rsb	r1, r4, r4, lsl #4
 8008032:	018b      	lsls	r3, r1, #6
 8008034:	497d      	ldr	r1, [pc, #500]	; (800822c <initFields+0x358>)
 8008036:	4419      	add	r1, r3
 8008038:	1b63      	subs	r3, r4, r5
 800803a:	eb03 0043 	add.w	r0, r3, r3, lsl #1
 800803e:	eb03 0380 	add.w	r3, r3, r0, lsl #2
 8008042:	487b      	ldr	r0, [pc, #492]	; (8008230 <initFields+0x35c>)
 8008044:	4403      	add	r3, r0
 8008046:	5c9b      	ldrb	r3, [r3, r2]
 8008048:	2b00      	cmp	r3, #0
 800804a:	d0ea      	beq.n	8008022 <initFields+0x14e>
 800804c:	f44f 63fc 	mov.w	r3, #2016	; 0x7e0
 8008050:	e7e8      	b.n	8008024 <initFields+0x150>
		for(i = curPos; i < curPos + CURSOR_WIDTH; i++)
 8008052:	3401      	adds	r4, #1
 8008054:	f105 030a 	add.w	r3, r5, #10
 8008058:	429c      	cmp	r4, r3
 800805a:	da50      	bge.n	80080fe <initFields+0x22a>
 800805c:	2200      	movs	r2, #0
 800805e:	e7e4      	b.n	800802a <initFields+0x156>
	}
	else{
		if(chDispMode != CHDISPMODE_SNGL){
 8008060:	4b71      	ldr	r3, [pc, #452]	; (8008228 <initFields+0x354>)
 8008062:	781a      	ldrb	r2, [r3, #0]
 8008064:	2a02      	cmp	r2, #2
 8008066:	d04a      	beq.n	80080fe <initFields+0x22a>
			temp = (float32_t)(voff2 + triglvl)/vscaleVals[vscale2];
 8008068:	4b72      	ldr	r3, [pc, #456]	; (8008234 <initFields+0x360>)
 800806a:	f9b3 3000 	ldrsh.w	r3, [r3]
 800806e:	4966      	ldr	r1, [pc, #408]	; (8008208 <initFields+0x334>)
 8008070:	7809      	ldrb	r1, [r1, #0]
 8008072:	440b      	add	r3, r1
 8008074:	ee07 3a90 	vmov	s15, r3
 8008078:	eeb8 7ae7 	vcvt.f32.s32	s14, s15
 800807c:	4b5a      	ldr	r3, [pc, #360]	; (80081e8 <initFields+0x314>)
 800807e:	7819      	ldrb	r1, [r3, #0]
 8008080:	4b68      	ldr	r3, [pc, #416]	; (8008224 <initFields+0x350>)
 8008082:	eb03 0381 	add.w	r3, r3, r1, lsl #2
 8008086:	edd3 6a00 	vldr	s13, [r3]
 800808a:	eec7 7a26 	vdiv.f32	s15, s14, s13
 800808e:	eefd 7ae7 	vcvt.s32.f32	s15, s15
 8008092:	ee17 5a90 	vmov	r5, s15
			if(chDispMode == CHDISPMODE_SPLIT){
 8008096:	b942      	cbnz	r2, 80080aa <initFields+0x1d6>
				if(temp > CHDISPMODE_SPLIT_SIGMAX)	temp = CHDISPMODE_SPLIT_SIGMAX;
 8008098:	2d77      	cmp	r5, #119	; 0x77
 800809a:	dc0a      	bgt.n	80080b2 <initFields+0x1de>
			}
			else{
				if(temp > CHDISPMODE_MERGE_SIGMAX)	temp = CHDISPMODE_MERGE_SIGMAX;
			}
			if(temp < 0)  temp = 0;
 800809c:	2d00      	cmp	r5, #0
 800809e:	db0a      	blt.n	80080b6 <initFields+0x1e2>
			if(chDispMode == CHDISPMODE_SPLIT)
 80080a0:	b95a      	cbnz	r2, 80080ba <initFields+0x1e6>
				curPos = CHDISPMODE_SPLIT_CH2BOT - temp - CURSOR_WIDTH/2 + 1;
 80080a2:	f1c5 05fa 	rsb	r5, r5, #250	; 0xfa
			else
				curPos = CHDISPMODE_MERGE_CHBOT - temp - CURSOR_WIDTH/2 + 1;
			for(i = curPos; i < curPos + CURSOR_WIDTH; i++)
 80080a6:	462c      	mov	r4, r5
 80080a8:	e023      	b.n	80080f2 <initFields+0x21e>
				if(temp > CHDISPMODE_MERGE_SIGMAX)	temp = CHDISPMODE_MERGE_SIGMAX;
 80080aa:	2def      	cmp	r5, #239	; 0xef
 80080ac:	ddf6      	ble.n	800809c <initFields+0x1c8>
 80080ae:	25ef      	movs	r5, #239	; 0xef
 80080b0:	e7f4      	b.n	800809c <initFields+0x1c8>
				if(temp > CHDISPMODE_SPLIT_SIGMAX)	temp = CHDISPMODE_SPLIT_SIGMAX;
 80080b2:	2577      	movs	r5, #119	; 0x77
 80080b4:	e7f2      	b.n	800809c <initFields+0x1c8>
			if(temp < 0)  temp = 0;
 80080b6:	2500      	movs	r5, #0
 80080b8:	e7f2      	b.n	80080a0 <initFields+0x1cc>
				curPos = CHDISPMODE_MERGE_CHBOT - temp - CURSOR_WIDTH/2 + 1;
 80080ba:	f1c5 05fa 	rsb	r5, r5, #250	; 0xfa
 80080be:	e7f2      	b.n	80080a6 <initFields+0x1d2>
				for(j = 0; j < CURSOR_LENGTH; j++)
					pFrame[i][j] = trigCursorImg[i-curPos][j] ? CH2_COLOR : C_BLACK;
 80080c0:	2300      	movs	r3, #0
 80080c2:	f821 3012 	strh.w	r3, [r1, r2, lsl #1]
				for(j = 0; j < CURSOR_LENGTH; j++)
 80080c6:	3201      	adds	r2, #1
 80080c8:	2a0c      	cmp	r2, #12
 80080ca:	dc11      	bgt.n	80080f0 <initFields+0x21c>
					pFrame[i][j] = trigCursorImg[i-curPos][j] ? CH2_COLOR : C_BLACK;
 80080cc:	ebc4 1104 	rsb	r1, r4, r4, lsl #4
 80080d0:	018b      	lsls	r3, r1, #6
 80080d2:	4956      	ldr	r1, [pc, #344]	; (800822c <initFields+0x358>)
 80080d4:	4419      	add	r1, r3
 80080d6:	1b63      	subs	r3, r4, r5
 80080d8:	eb03 0043 	add.w	r0, r3, r3, lsl #1
 80080dc:	eb03 0380 	add.w	r3, r3, r0, lsl #2
 80080e0:	4853      	ldr	r0, [pc, #332]	; (8008230 <initFields+0x35c>)
 80080e2:	4403      	add	r3, r0
 80080e4:	5c9b      	ldrb	r3, [r3, r2]
 80080e6:	2b00      	cmp	r3, #0
 80080e8:	d0ea      	beq.n	80080c0 <initFields+0x1ec>
 80080ea:	f240 73ff 	movw	r3, #2047	; 0x7ff
 80080ee:	e7e8      	b.n	80080c2 <initFields+0x1ee>
			for(i = curPos; i < curPos + CURSOR_WIDTH; i++)
 80080f0:	3401      	adds	r4, #1
 80080f2:	f105 030a 	add.w	r3, r5, #10
 80080f6:	429c      	cmp	r4, r3
 80080f8:	da01      	bge.n	80080fe <initFields+0x22a>
 80080fa:	2200      	movs	r2, #0
 80080fc:	e7e4      	b.n	80080c8 <initFields+0x1f4>
		}
	}

	/* trigger mode */
	UG_TextboxSetText(&window_1, TXB_ID_5, trigmodeDispVals[trigmode]);
 80080fe:	4b4e      	ldr	r3, [pc, #312]	; (8008238 <initFields+0x364>)
 8008100:	781a      	ldrb	r2, [r3, #0]
 8008102:	eb02 0282 	add.w	r2, r2, r2, lsl #2
 8008106:	4c37      	ldr	r4, [pc, #220]	; (80081e4 <initFields+0x310>)
 8008108:	4b4c      	ldr	r3, [pc, #304]	; (800823c <initFields+0x368>)
 800810a:	441a      	add	r2, r3
 800810c:	2105      	movs	r1, #5
 800810e:	4620      	mov	r0, r4
 8008110:	f7fd fb5c 	bl	80057cc <UG_TextboxSetText>

	/* Run/Stop */
	UG_TextboxSetText(&window_1, TXB_ID_6, runstopDispVals[runstop]);
 8008114:	4b4a      	ldr	r3, [pc, #296]	; (8008240 <initFields+0x36c>)
 8008116:	781a      	ldrb	r2, [r3, #0]
 8008118:	eb02 0282 	add.w	r2, r2, r2, lsl #2
 800811c:	4b49      	ldr	r3, [pc, #292]	; (8008244 <initFields+0x370>)
 800811e:	441a      	add	r2, r3
 8008120:	2106      	movs	r1, #6
 8008122:	4620      	mov	r0, r4
 8008124:	f7fd fb52 	bl	80057cc <UG_TextboxSetText>
	UG_TextboxSetBackColor(&window_1, TXB_ID_6, RUNSTOP_ICON_COLOR_RUN);
 8008128:	f649 6266 	movw	r2, #40550	; 0x9e66
 800812c:	2106      	movs	r1, #6
 800812e:	4620      	mov	r0, r4
 8008130:	f7fd fb3a 	bl	80057a8 <UG_TextboxSetBackColor>

	/* ch1 vertical offset */
	gcvt((int32_t)((3.3f*(float32_t)voff1/(float32_t)255)*100)/100.0f, 3 + (voff1 < -1), bufw2tb0);
 8008134:	4b3a      	ldr	r3, [pc, #232]	; (8008220 <initFields+0x34c>)
 8008136:	f9b3 4000 	ldrsh.w	r4, [r3]
 800813a:	ee07 4a90 	vmov	s15, r4
 800813e:	eeb8 7ae7 	vcvt.f32.s32	s14, s15
 8008142:	eddf 7a32 	vldr	s15, [pc, #200]	; 800820c <initFields+0x338>
 8008146:	ee27 7a27 	vmul.f32	s14, s14, s15
 800814a:	eddf 6a31 	vldr	s13, [pc, #196]	; 8008210 <initFields+0x33c>
 800814e:	eec7 7a26 	vdiv.f32	s15, s14, s13
 8008152:	ed9f 7a30 	vldr	s14, [pc, #192]	; 8008214 <initFields+0x340>
 8008156:	ee67 7a87 	vmul.f32	s15, s15, s14
 800815a:	eefd 7ae7 	vcvt.s32.f32	s15, s15
 800815e:	eef8 7ae7 	vcvt.f32.s32	s15, s15
 8008162:	eec7 6a87 	vdiv.f32	s13, s15, s14
 8008166:	ee16 0a90 	vmov	r0, s13
 800816a:	f7f8 f9b9 	bl	80004e0 <__aeabi_f2d>
 800816e:	ec41 0b10 	vmov	d0, r0, r1
 8008172:	f1b4 3fff 	cmp.w	r4, #4294967295
 8008176:	db6b      	blt.n	8008250 <initFields+0x37c>
 8008178:	2003      	movs	r0, #3
 800817a:	4c33      	ldr	r4, [pc, #204]	; (8008248 <initFields+0x374>)
 800817c:	4621      	mov	r1, r4
 800817e:	f002 f901 	bl	800a384 <gcvt>
	strcat(bufw2tb0, "V");
 8008182:	4620      	mov	r0, r4
 8008184:	f7f8 f840 	bl	8000208 <strlen>
 8008188:	4b24      	ldr	r3, [pc, #144]	; (800821c <initFields+0x348>)
 800818a:	881b      	ldrh	r3, [r3, #0]
 800818c:	5223      	strh	r3, [r4, r0]
	UG_TextboxSetText(&window_2, TXB_ID_0, bufw2tb0);
 800818e:	4622      	mov	r2, r4
 8008190:	2100      	movs	r1, #0
 8008192:	482e      	ldr	r0, [pc, #184]	; (800824c <initFields+0x378>)
 8008194:	f7fd fb1a 	bl	80057cc <UG_TextboxSetText>
	temp = (float32_t)(voff1)/vscaleVals[vscale1];
 8008198:	4b21      	ldr	r3, [pc, #132]	; (8008220 <initFields+0x34c>)
 800819a:	f9b3 3000 	ldrsh.w	r3, [r3]
 800819e:	ee07 3a10 	vmov	s14, r3
 80081a2:	eeb8 7ac7 	vcvt.f32.s32	s14, s14
 80081a6:	4b0d      	ldr	r3, [pc, #52]	; (80081dc <initFields+0x308>)
 80081a8:	781a      	ldrb	r2, [r3, #0]
 80081aa:	4b1e      	ldr	r3, [pc, #120]	; (8008224 <initFields+0x350>)
 80081ac:	eb03 0382 	add.w	r3, r3, r2, lsl #2
 80081b0:	edd3 6a00 	vldr	s13, [r3]
 80081b4:	eec7 7a26 	vdiv.f32	s15, s14, s13
 80081b8:	eefd 7ae7 	vcvt.s32.f32	s15, s15
 80081bc:	ee17 5a90 	vmov	r5, s15
	if(chDispMode == CHDISPMODE_SPLIT){
 80081c0:	4b19      	ldr	r3, [pc, #100]	; (8008228 <initFields+0x354>)
 80081c2:	781b      	ldrb	r3, [r3, #0]
 80081c4:	2b00      	cmp	r3, #0
 80081c6:	d145      	bne.n	8008254 <initFields+0x380>
		if(temp > CHDISPMODE_SPLIT_SIGMAX)	temp = CHDISPMODE_SPLIT_SIGMAX;
 80081c8:	2d77      	cmp	r5, #119	; 0x77
 80081ca:	dc47      	bgt.n	800825c <initFields+0x388>
	}
	else{
		if(temp > CHDISPMODE_MERGE_SIGMAX)	temp = CHDISPMODE_MERGE_SIGMAX;
	}
	if(temp < 0)  temp = 0;
 80081cc:	2d00      	cmp	r5, #0
 80081ce:	db47      	blt.n	8008260 <initFields+0x38c>
	if(chDispMode == CHDISPMODE_SPLIT)
 80081d0:	2b00      	cmp	r3, #0
 80081d2:	d147      	bne.n	8008264 <initFields+0x390>
		curPos = CHDISPMODE_SPLIT_CH1BOT - temp - CURSOR_WIDTH/2 + 1;
 80081d4:	f1c5 0582 	rsb	r5, r5, #130	; 0x82
	else
		curPos = CHDISPMODE_MERGE_CHBOT - temp - CURSOR_WIDTH/2 + 1;
	for(i = curPos; i < curPos + CURSOR_WIDTH; i++)
 80081d8:	462c      	mov	r4, r5
 80081da:	e05f      	b.n	800829c <initFields+0x3c8>
 80081dc:	2000000a 	.word	0x2000000a
 80081e0:	0800bfd8 	.word	0x0800bfd8
 80081e4:	20003750 	.word	0x20003750
 80081e8:	2000000b 	.word	0x2000000b
 80081ec:	20000009 	.word	0x20000009
 80081f0:	0800bfa4 	.word	0x0800bfa4
 80081f4:	200000c2 	.word	0x200000c2
 80081f8:	0800bf90 	.word	0x0800bf90
 80081fc:	200000c3 	.word	0x200000c3
 8008200:	20000010 	.word	0x20000010
 8008204:	0800bf94 	.word	0x0800bf94
 8008208:	20000008 	.word	0x20000008
 800820c:	40533333 	.word	0x40533333
 8008210:	437f0000 	.word	0x437f0000
 8008214:	42c80000 	.word	0x42c80000
 8008218:	2000013c 	.word	0x2000013c
 800821c:	080100e4 	.word	0x080100e4
 8008220:	200000c4 	.word	0x200000c4
 8008224:	0800c008 	.word	0x0800c008
 8008228:	200000bc 	.word	0x200000bc
 800822c:	c0200000 	.word	0xc0200000
 8008230:	080102f8 	.word	0x080102f8
 8008234:	200000c8 	.word	0x200000c8
 8008238:	200000c1 	.word	0x200000c1
 800823c:	0800bf7c 	.word	0x0800bf7c
 8008240:	200000be 	.word	0x200000be
 8008244:	0800bf50 	.word	0x0800bf50
 8008248:	20000144 	.word	0x20000144
 800824c:	2000371c 	.word	0x2000371c
	gcvt((int32_t)((3.3f*(float32_t)voff1/(float32_t)255)*100)/100.0f, 3 + (voff1 < -1), bufw2tb0);
 8008250:	2004      	movs	r0, #4
 8008252:	e792      	b.n	800817a <initFields+0x2a6>
		if(temp > CHDISPMODE_MERGE_SIGMAX)	temp = CHDISPMODE_MERGE_SIGMAX;
 8008254:	2def      	cmp	r5, #239	; 0xef
 8008256:	ddb9      	ble.n	80081cc <initFields+0x2f8>
 8008258:	25ef      	movs	r5, #239	; 0xef
 800825a:	e7b7      	b.n	80081cc <initFields+0x2f8>
		if(temp > CHDISPMODE_SPLIT_SIGMAX)	temp = CHDISPMODE_SPLIT_SIGMAX;
 800825c:	2577      	movs	r5, #119	; 0x77
 800825e:	e7b5      	b.n	80081cc <initFields+0x2f8>
	if(temp < 0)  temp = 0;
 8008260:	2500      	movs	r5, #0
 8008262:	e7b5      	b.n	80081d0 <initFields+0x2fc>
		curPos = CHDISPMODE_MERGE_CHBOT - temp - CURSOR_WIDTH/2 + 1;
 8008264:	f1c5 05fa 	rsb	r5, r5, #250	; 0xfa
 8008268:	e7b6      	b.n	80081d8 <initFields+0x304>
		for(j = 0; j < CURSOR_LENGTH; j++)
			pFrame[i][j] = ch1RefCursorImg[i-curPos][j] ? CH1_COLOR : C_BLACK;
 800826a:	2300      	movs	r3, #0
 800826c:	f821 3012 	strh.w	r3, [r1, r2, lsl #1]
		for(j = 0; j < CURSOR_LENGTH; j++)
 8008270:	3201      	adds	r2, #1
 8008272:	2a0c      	cmp	r2, #12
 8008274:	dc11      	bgt.n	800829a <initFields+0x3c6>
			pFrame[i][j] = ch1RefCursorImg[i-curPos][j] ? CH1_COLOR : C_BLACK;
 8008276:	ebc4 1104 	rsb	r1, r4, r4, lsl #4
 800827a:	018b      	lsls	r3, r1, #6
 800827c:	496c      	ldr	r1, [pc, #432]	; (8008430 <initFields+0x55c>)
 800827e:	4419      	add	r1, r3
 8008280:	1b63      	subs	r3, r4, r5
 8008282:	eb03 0043 	add.w	r0, r3, r3, lsl #1
 8008286:	eb03 0380 	add.w	r3, r3, r0, lsl #2
 800828a:	486a      	ldr	r0, [pc, #424]	; (8008434 <initFields+0x560>)
 800828c:	4403      	add	r3, r0
 800828e:	5c9b      	ldrb	r3, [r3, r2]
 8008290:	2b00      	cmp	r3, #0
 8008292:	d0ea      	beq.n	800826a <initFields+0x396>
 8008294:	f44f 63fc 	mov.w	r3, #2016	; 0x7e0
 8008298:	e7e8      	b.n	800826c <initFields+0x398>
	for(i = curPos; i < curPos + CURSOR_WIDTH; i++)
 800829a:	3401      	adds	r4, #1
 800829c:	f105 030a 	add.w	r3, r5, #10
 80082a0:	429c      	cmp	r4, r3
 80082a2:	da01      	bge.n	80082a8 <initFields+0x3d4>
 80082a4:	2200      	movs	r2, #0
 80082a6:	e7e4      	b.n	8008272 <initFields+0x39e>

	/* ch2 vertical offset */
	if(chDispMode != CHDISPMODE_SNGL){
 80082a8:	4b63      	ldr	r3, [pc, #396]	; (8008438 <initFields+0x564>)
 80082aa:	781b      	ldrb	r3, [r3, #0]
 80082ac:	2b02      	cmp	r3, #2
 80082ae:	d07d      	beq.n	80083ac <initFields+0x4d8>
		gcvt((int32_t)((3.3f*(float32_t)voff2/(float32_t)255)*100)/100.0f, 3 + (voff2 < -1), bufw2tb1);
 80082b0:	4b62      	ldr	r3, [pc, #392]	; (800843c <initFields+0x568>)
 80082b2:	f9b3 4000 	ldrsh.w	r4, [r3]
 80082b6:	ee07 4a90 	vmov	s15, r4
 80082ba:	eeb8 7ae7 	vcvt.f32.s32	s14, s15
 80082be:	eddf 7a60 	vldr	s15, [pc, #384]	; 8008440 <initFields+0x56c>
 80082c2:	ee27 7a27 	vmul.f32	s14, s14, s15
 80082c6:	eddf 6a5f 	vldr	s13, [pc, #380]	; 8008444 <initFields+0x570>
 80082ca:	eec7 7a26 	vdiv.f32	s15, s14, s13
 80082ce:	ed9f 7a5e 	vldr	s14, [pc, #376]	; 8008448 <initFields+0x574>
 80082d2:	ee67 7a87 	vmul.f32	s15, s15, s14
 80082d6:	eefd 7ae7 	vcvt.s32.f32	s15, s15
 80082da:	eef8 7ae7 	vcvt.f32.s32	s15, s15
 80082de:	eec7 6a87 	vdiv.f32	s13, s15, s14
 80082e2:	ee16 0a90 	vmov	r0, s13
 80082e6:	f7f8 f8fb 	bl	80004e0 <__aeabi_f2d>
 80082ea:	ec41 0b10 	vmov	d0, r0, r1
 80082ee:	f1b4 3fff 	cmp.w	r4, #4294967295
 80082f2:	db2f      	blt.n	8008354 <initFields+0x480>
 80082f4:	2003      	movs	r0, #3
 80082f6:	4c55      	ldr	r4, [pc, #340]	; (800844c <initFields+0x578>)
 80082f8:	4621      	mov	r1, r4
 80082fa:	f002 f843 	bl	800a384 <gcvt>
		strcat(bufw2tb1, "V");
 80082fe:	4620      	mov	r0, r4
 8008300:	f7f7 ff82 	bl	8000208 <strlen>
 8008304:	4b52      	ldr	r3, [pc, #328]	; (8008450 <initFields+0x57c>)
 8008306:	881b      	ldrh	r3, [r3, #0]
 8008308:	5223      	strh	r3, [r4, r0]
		UG_TextboxSetText(&window_2, TXB_ID_1, bufw2tb1);
 800830a:	4622      	mov	r2, r4
 800830c:	2101      	movs	r1, #1
 800830e:	4851      	ldr	r0, [pc, #324]	; (8008454 <initFields+0x580>)
 8008310:	f7fd fa5c 	bl	80057cc <UG_TextboxSetText>
		temp = (float32_t)(voff2)/vscaleVals[vscale1];
 8008314:	4b49      	ldr	r3, [pc, #292]	; (800843c <initFields+0x568>)
 8008316:	f9b3 3000 	ldrsh.w	r3, [r3]
 800831a:	ee07 3a10 	vmov	s14, r3
 800831e:	eeb8 7ac7 	vcvt.f32.s32	s14, s14
 8008322:	4b4d      	ldr	r3, [pc, #308]	; (8008458 <initFields+0x584>)
 8008324:	781a      	ldrb	r2, [r3, #0]
 8008326:	4b4d      	ldr	r3, [pc, #308]	; (800845c <initFields+0x588>)
 8008328:	eb03 0382 	add.w	r3, r3, r2, lsl #2
 800832c:	edd3 6a00 	vldr	s13, [r3]
 8008330:	eec7 7a26 	vdiv.f32	s15, s14, s13
 8008334:	eefd 7ae7 	vcvt.s32.f32	s15, s15
 8008338:	ee17 5a90 	vmov	r5, s15
		if(chDispMode == CHDISPMODE_SPLIT){
 800833c:	4b3e      	ldr	r3, [pc, #248]	; (8008438 <initFields+0x564>)
 800833e:	781b      	ldrb	r3, [r3, #0]
 8008340:	b953      	cbnz	r3, 8008358 <initFields+0x484>
			if(temp > CHDISPMODE_SPLIT_SIGMAX)	temp = CHDISPMODE_SPLIT_SIGMAX;
 8008342:	2d77      	cmp	r5, #119	; 0x77
 8008344:	dc0c      	bgt.n	8008360 <initFields+0x48c>
		}
		else{
			if(temp > CHDISPMODE_MERGE_SIGMAX)	temp = CHDISPMODE_MERGE_SIGMAX;
		}
		if(temp < 0)  temp = 0;
 8008346:	2d00      	cmp	r5, #0
 8008348:	db0c      	blt.n	8008364 <initFields+0x490>
		if(chDispMode == CHDISPMODE_SPLIT)
 800834a:	b96b      	cbnz	r3, 8008368 <initFields+0x494>
			curPos = CHDISPMODE_SPLIT_CH2BOT - temp - CURSOR_WIDTH/2 + 1;
 800834c:	f1c5 05fa 	rsb	r5, r5, #250	; 0xfa
		else
			curPos = CHDISPMODE_MERGE_CHBOT - temp - CURSOR_WIDTH/2 + 1;
		for(i = curPos; i < curPos + CURSOR_WIDTH; i++)
 8008350:	462c      	mov	r4, r5
 8008352:	e025      	b.n	80083a0 <initFields+0x4cc>
		gcvt((int32_t)((3.3f*(float32_t)voff2/(float32_t)255)*100)/100.0f, 3 + (voff2 < -1), bufw2tb1);
 8008354:	2004      	movs	r0, #4
 8008356:	e7ce      	b.n	80082f6 <initFields+0x422>
			if(temp > CHDISPMODE_MERGE_SIGMAX)	temp = CHDISPMODE_MERGE_SIGMAX;
 8008358:	2def      	cmp	r5, #239	; 0xef
 800835a:	ddf4      	ble.n	8008346 <initFields+0x472>
 800835c:	25ef      	movs	r5, #239	; 0xef
 800835e:	e7f2      	b.n	8008346 <initFields+0x472>
			if(temp > CHDISPMODE_SPLIT_SIGMAX)	temp = CHDISPMODE_SPLIT_SIGMAX;
 8008360:	2577      	movs	r5, #119	; 0x77
 8008362:	e7f0      	b.n	8008346 <initFields+0x472>
		if(temp < 0)  temp = 0;
 8008364:	2500      	movs	r5, #0
 8008366:	e7f0      	b.n	800834a <initFields+0x476>
			curPos = CHDISPMODE_MERGE_CHBOT - temp - CURSOR_WIDTH/2 + 1;
 8008368:	f1c5 05fa 	rsb	r5, r5, #250	; 0xfa
 800836c:	e7f0      	b.n	8008350 <initFields+0x47c>
			for(j = 0; j < CURSOR_LENGTH; j++)
				pFrame[i][j] = ch2RefCursorImg[i-curPos][j] ? CH2_COLOR : C_BLACK;
 800836e:	2300      	movs	r3, #0
 8008370:	f821 3012 	strh.w	r3, [r1, r2, lsl #1]
			for(j = 0; j < CURSOR_LENGTH; j++)
 8008374:	3201      	adds	r2, #1
 8008376:	2a0c      	cmp	r2, #12
 8008378:	dc11      	bgt.n	800839e <initFields+0x4ca>
				pFrame[i][j] = ch2RefCursorImg[i-curPos][j] ? CH2_COLOR : C_BLACK;
 800837a:	ebc4 1104 	rsb	r1, r4, r4, lsl #4
 800837e:	018b      	lsls	r3, r1, #6
 8008380:	492b      	ldr	r1, [pc, #172]	; (8008430 <initFields+0x55c>)
 8008382:	4419      	add	r1, r3
 8008384:	1b63      	subs	r3, r4, r5
 8008386:	eb03 0043 	add.w	r0, r3, r3, lsl #1
 800838a:	eb03 0380 	add.w	r3, r3, r0, lsl #2
 800838e:	4834      	ldr	r0, [pc, #208]	; (8008460 <initFields+0x58c>)
 8008390:	4403      	add	r3, r0
 8008392:	5c9b      	ldrb	r3, [r3, r2]
 8008394:	2b00      	cmp	r3, #0
 8008396:	d0ea      	beq.n	800836e <initFields+0x49a>
 8008398:	f240 73ff 	movw	r3, #2047	; 0x7ff
 800839c:	e7e8      	b.n	8008370 <initFields+0x49c>
		for(i = curPos; i < curPos + CURSOR_WIDTH; i++)
 800839e:	3401      	adds	r4, #1
 80083a0:	f105 030a 	add.w	r3, r5, #10
 80083a4:	429c      	cmp	r4, r3
 80083a6:	da01      	bge.n	80083ac <initFields+0x4d8>
 80083a8:	2200      	movs	r2, #0
 80083aa:	e7e4      	b.n	8008376 <initFields+0x4a2>
	}

	/* time offset */
	secToStr((float32_t)(toff-240)/(float32_t)samprateVals[tscale], bufw2tb2);
 80083ac:	4c2d      	ldr	r4, [pc, #180]	; (8008464 <initFields+0x590>)
 80083ae:	8823      	ldrh	r3, [r4, #0]
 80083b0:	3bf0      	subs	r3, #240	; 0xf0
 80083b2:	ee07 3a90 	vmov	s15, r3
 80083b6:	eef8 7ae7 	vcvt.f32.s32	s15, s15
 80083ba:	4b2b      	ldr	r3, [pc, #172]	; (8008468 <initFields+0x594>)
 80083bc:	781a      	ldrb	r2, [r3, #0]
 80083be:	4b2b      	ldr	r3, [pc, #172]	; (800846c <initFields+0x598>)
 80083c0:	f853 3022 	ldr.w	r3, [r3, r2, lsl #2]
 80083c4:	ee00 3a10 	vmov	s0, r3
 80083c8:	eeb8 0a40 	vcvt.f32.u32	s0, s0
 80083cc:	4d28      	ldr	r5, [pc, #160]	; (8008470 <initFields+0x59c>)
 80083ce:	4628      	mov	r0, r5
 80083d0:	ee87 0a80 	vdiv.f32	s0, s15, s0
 80083d4:	f7fe fb0e 	bl	80069f4 <secToStr>
	UG_TextboxSetText(&window_2, TXB_ID_2, bufw2tb2);
 80083d8:	462a      	mov	r2, r5
 80083da:	2102      	movs	r1, #2
 80083dc:	481d      	ldr	r0, [pc, #116]	; (8008454 <initFields+0x580>)
 80083de:	f7fd f9f5 	bl	80057cc <UG_TextboxSetText>
	curPos = toff - TOFF_CURSOR_WIDTH/2 + 1;
 80083e2:	8827      	ldrh	r7, [r4, #0]
 80083e4:	f1a7 0e04 	sub.w	lr, r7, #4
	for(i = MENUBAR_HEIGHT; i < MENUBAR_HEIGHT + TOFF_CURSOR_LENGTH; i++)
 80083e8:	250f      	movs	r5, #15
 80083ea:	e01b      	b.n	8008424 <initFields+0x550>
		for(j = curPos; j < curPos + TOFF_CURSOR_WIDTH; j++)
			pFrame[i][j] = toffCursorImg[i-MENUBAR_HEIGHT][j-curPos] ? TOFF_CURSOR_COLOR : C_BLACK;
 80083ec:	2300      	movs	r3, #0
 80083ee:	f821 3012 	strh.w	r3, [r1, r2, lsl #1]
		for(j = curPos; j < curPos + TOFF_CURSOR_WIDTH; j++)
 80083f2:	3201      	adds	r2, #1
 80083f4:	1dbb      	adds	r3, r7, #6
 80083f6:	429a      	cmp	r2, r3
 80083f8:	da13      	bge.n	8008422 <initFields+0x54e>
			pFrame[i][j] = toffCursorImg[i-MENUBAR_HEIGHT][j-curPos] ? TOFF_CURSOR_COLOR : C_BLACK;
 80083fa:	ebc5 1105 	rsb	r1, r5, r5, lsl #4
 80083fe:	018b      	lsls	r3, r1, #6
 8008400:	490b      	ldr	r1, [pc, #44]	; (8008430 <initFields+0x55c>)
 8008402:	4419      	add	r1, r3
 8008404:	f1a5 030f 	sub.w	r3, r5, #15
 8008408:	eba2 000e 	sub.w	r0, r2, lr
 800840c:	eb03 0383 	add.w	r3, r3, r3, lsl #2
 8008410:	005e      	lsls	r6, r3, #1
 8008412:	4c18      	ldr	r4, [pc, #96]	; (8008474 <initFields+0x5a0>)
 8008414:	4434      	add	r4, r6
 8008416:	5c23      	ldrb	r3, [r4, r0]
 8008418:	2b00      	cmp	r3, #0
 800841a:	d0e7      	beq.n	80083ec <initFields+0x518>
 800841c:	f64d 531b 	movw	r3, #56603	; 0xdd1b
 8008420:	e7e5      	b.n	80083ee <initFields+0x51a>
	for(i = MENUBAR_HEIGHT; i < MENUBAR_HEIGHT + TOFF_CURSOR_LENGTH; i++)
 8008422:	3501      	adds	r5, #1
 8008424:	2d18      	cmp	r5, #24
 8008426:	dc01      	bgt.n	800842c <initFields+0x558>
 8008428:	4672      	mov	r2, lr
 800842a:	e7e3      	b.n	80083f4 <initFields+0x520>

	return;
}
 800842c:	bdf8      	pop	{r3, r4, r5, r6, r7, pc}
 800842e:	bf00      	nop
 8008430:	c0200000 	.word	0xc0200000
 8008434:	0800ffa8 	.word	0x0800ffa8
 8008438:	200000bc 	.word	0x200000bc
 800843c:	200000c8 	.word	0x200000c8
 8008440:	40533333 	.word	0x40533333
 8008444:	437f0000 	.word	0x437f0000
 8008448:	42c80000 	.word	0x42c80000
 800844c:	2000014c 	.word	0x2000014c
 8008450:	080100e4 	.word	0x080100e4
 8008454:	2000371c 	.word	0x2000371c
 8008458:	2000000a 	.word	0x2000000a
 800845c:	0800c008 	.word	0x0800c008
 8008460:	0801002c 	.word	0x0801002c
 8008464:	20000000 	.word	0x20000000
 8008468:	20000009 	.word	0x20000009
 800846c:	0800bf60 	.word	0x0800bf60
 8008470:	20000154 	.word	0x20000154
 8008474:	0801016c 	.word	0x0801016c

08008478 <drawRedBorder>:
  * @brief  Draws a red border around the waveform area.
  * @param  None
  * @retval None
  */
void drawRedBorder(void)
{
 8008478:	b510      	push	{r4, lr}
 800847a:	b082      	sub	sp, #8
	/* Top */
	UG_DrawLine(0, MENUBAR_HEIGHT, LCD_WIDTH - 1, MENUBAR_HEIGHT, C_RED);
 800847c:	f44f 4478 	mov.w	r4, #63488	; 0xf800
 8008480:	9400      	str	r4, [sp, #0]
 8008482:	230f      	movs	r3, #15
 8008484:	f240 12df 	movw	r2, #479	; 0x1df
 8008488:	4619      	mov	r1, r3
 800848a:	2000      	movs	r0, #0
 800848c:	f7fb ff86 	bl	800439c <UG_DrawLine>
	UG_DrawLine(0, MENUBAR_HEIGHT + 1, LCD_WIDTH - 1, MENUBAR_HEIGHT + 1, C_RED);
 8008490:	9400      	str	r4, [sp, #0]
 8008492:	2310      	movs	r3, #16
 8008494:	f240 12df 	movw	r2, #479	; 0x1df
 8008498:	4619      	mov	r1, r3
 800849a:	2000      	movs	r0, #0
 800849c:	f7fb ff7e 	bl	800439c <UG_DrawLine>
	/* Bottom */
	UG_DrawLine(0, LCD_HEIGHT - MENUBAR_HEIGHT - 1, LCD_WIDTH - 1, LCD_HEIGHT - MENUBAR_HEIGHT - 1, C_RED);
 80084a0:	9400      	str	r4, [sp, #0]
 80084a2:	f44f 7380 	mov.w	r3, #256	; 0x100
 80084a6:	f240 12df 	movw	r2, #479	; 0x1df
 80084aa:	4619      	mov	r1, r3
 80084ac:	2000      	movs	r0, #0
 80084ae:	f7fb ff75 	bl	800439c <UG_DrawLine>
	UG_DrawLine(0, LCD_HEIGHT - MENUBAR_HEIGHT - 2, LCD_WIDTH - 1, LCD_HEIGHT - MENUBAR_HEIGHT - 2, C_RED);
 80084b2:	9400      	str	r4, [sp, #0]
 80084b4:	23ff      	movs	r3, #255	; 0xff
 80084b6:	f240 12df 	movw	r2, #479	; 0x1df
 80084ba:	4619      	mov	r1, r3
 80084bc:	2000      	movs	r0, #0
 80084be:	f7fb ff6d 	bl	800439c <UG_DrawLine>
	/* Left */
	UG_DrawLine(0, MENUBAR_HEIGHT, 0, LCD_HEIGHT - MENUBAR_HEIGHT - 1, C_RED);
 80084c2:	9400      	str	r4, [sp, #0]
 80084c4:	f44f 7380 	mov.w	r3, #256	; 0x100
 80084c8:	2200      	movs	r2, #0
 80084ca:	210f      	movs	r1, #15
 80084cc:	4610      	mov	r0, r2
 80084ce:	f7fb ff65 	bl	800439c <UG_DrawLine>
	UG_DrawLine(1, MENUBAR_HEIGHT, 1, LCD_HEIGHT - MENUBAR_HEIGHT - 1, C_RED);
 80084d2:	9400      	str	r4, [sp, #0]
 80084d4:	f44f 7380 	mov.w	r3, #256	; 0x100
 80084d8:	2201      	movs	r2, #1
 80084da:	210f      	movs	r1, #15
 80084dc:	4610      	mov	r0, r2
 80084de:	f7fb ff5d 	bl	800439c <UG_DrawLine>
	/* Right */
	UG_DrawLine(LCD_WIDTH - 1, MENUBAR_HEIGHT, LCD_WIDTH - 1, LCD_HEIGHT - MENUBAR_HEIGHT - 1, C_RED);
 80084e2:	9400      	str	r4, [sp, #0]
 80084e4:	f44f 7380 	mov.w	r3, #256	; 0x100
 80084e8:	f240 12df 	movw	r2, #479	; 0x1df
 80084ec:	210f      	movs	r1, #15
 80084ee:	4610      	mov	r0, r2
 80084f0:	f7fb ff54 	bl	800439c <UG_DrawLine>
	UG_DrawLine(LCD_WIDTH - 2, MENUBAR_HEIGHT, LCD_WIDTH - 2, LCD_HEIGHT - MENUBAR_HEIGHT - 1, C_RED);
 80084f4:	9400      	str	r4, [sp, #0]
 80084f6:	f44f 7380 	mov.w	r3, #256	; 0x100
 80084fa:	f44f 72ef 	mov.w	r2, #478	; 0x1de
 80084fe:	210f      	movs	r1, #15
 8008500:	4610      	mov	r0, r2
 8008502:	f7fb ff4b 	bl	800439c <UG_DrawLine>

	return;
}
 8008506:	b002      	add	sp, #8
 8008508:	bd10      	pop	{r4, pc}

0800850a <clearRedBorder>:
  * @brief  Clears the red border around the waveform area.
  * @param  None
  * @retval None
  */
void clearRedBorder(void)
{
 800850a:	b510      	push	{r4, lr}
 800850c:	b082      	sub	sp, #8
	/* Top */
	UG_DrawLine(0, MENUBAR_HEIGHT, LCD_WIDTH - 1, MENUBAR_HEIGHT, C_BLACK);
 800850e:	2400      	movs	r4, #0
 8008510:	9400      	str	r4, [sp, #0]
 8008512:	230f      	movs	r3, #15
 8008514:	f240 12df 	movw	r2, #479	; 0x1df
 8008518:	4619      	mov	r1, r3
 800851a:	4620      	mov	r0, r4
 800851c:	f7fb ff3e 	bl	800439c <UG_DrawLine>
	UG_DrawLine(0, MENUBAR_HEIGHT + 1, LCD_WIDTH - 1, MENUBAR_HEIGHT + 1, C_BLACK);
 8008520:	9400      	str	r4, [sp, #0]
 8008522:	2310      	movs	r3, #16
 8008524:	f240 12df 	movw	r2, #479	; 0x1df
 8008528:	4619      	mov	r1, r3
 800852a:	4620      	mov	r0, r4
 800852c:	f7fb ff36 	bl	800439c <UG_DrawLine>
	/* Bottom */
	UG_DrawLine(0, LCD_HEIGHT - MENUBAR_HEIGHT - 1, LCD_WIDTH - 1, LCD_HEIGHT - MENUBAR_HEIGHT - 1, C_BLACK);
 8008530:	9400      	str	r4, [sp, #0]
 8008532:	f44f 7380 	mov.w	r3, #256	; 0x100
 8008536:	f240 12df 	movw	r2, #479	; 0x1df
 800853a:	4619      	mov	r1, r3
 800853c:	4620      	mov	r0, r4
 800853e:	f7fb ff2d 	bl	800439c <UG_DrawLine>
	UG_DrawLine(0, LCD_HEIGHT - MENUBAR_HEIGHT - 2, LCD_WIDTH - 1, LCD_HEIGHT - MENUBAR_HEIGHT - 2, C_BLACK);
 8008542:	9400      	str	r4, [sp, #0]
 8008544:	23ff      	movs	r3, #255	; 0xff
 8008546:	f240 12df 	movw	r2, #479	; 0x1df
 800854a:	4619      	mov	r1, r3
 800854c:	4620      	mov	r0, r4
 800854e:	f7fb ff25 	bl	800439c <UG_DrawLine>
	/* Left */
	UG_DrawLine(0, MENUBAR_HEIGHT, 0, LCD_HEIGHT - MENUBAR_HEIGHT - 1, C_BLACK);
 8008552:	9400      	str	r4, [sp, #0]
 8008554:	f44f 7380 	mov.w	r3, #256	; 0x100
 8008558:	4622      	mov	r2, r4
 800855a:	210f      	movs	r1, #15
 800855c:	4620      	mov	r0, r4
 800855e:	f7fb ff1d 	bl	800439c <UG_DrawLine>
	UG_DrawLine(1, MENUBAR_HEIGHT, 1, LCD_HEIGHT - MENUBAR_HEIGHT - 1, C_BLACK);
 8008562:	9400      	str	r4, [sp, #0]
 8008564:	f44f 7380 	mov.w	r3, #256	; 0x100
 8008568:	2201      	movs	r2, #1
 800856a:	210f      	movs	r1, #15
 800856c:	4610      	mov	r0, r2
 800856e:	f7fb ff15 	bl	800439c <UG_DrawLine>
	/* Right */
	UG_DrawLine(LCD_WIDTH - 1, MENUBAR_HEIGHT, LCD_WIDTH - 1, LCD_HEIGHT - MENUBAR_HEIGHT - 1, C_BLACK);
 8008572:	9400      	str	r4, [sp, #0]
 8008574:	f44f 7380 	mov.w	r3, #256	; 0x100
 8008578:	f240 12df 	movw	r2, #479	; 0x1df
 800857c:	210f      	movs	r1, #15
 800857e:	4610      	mov	r0, r2
 8008580:	f7fb ff0c 	bl	800439c <UG_DrawLine>
	UG_DrawLine(LCD_WIDTH - 2, MENUBAR_HEIGHT, LCD_WIDTH - 2, LCD_HEIGHT - MENUBAR_HEIGHT - 1, C_BLACK);
 8008584:	9400      	str	r4, [sp, #0]
 8008586:	f44f 7380 	mov.w	r3, #256	; 0x100
 800858a:	f44f 72ef 	mov.w	r2, #478	; 0x1de
 800858e:	210f      	movs	r1, #15
 8008590:	4610      	mov	r0, r2
 8008592:	f7fb ff03 	bl	800439c <UG_DrawLine>

	drawGrid();
 8008596:	f7fd fa6f 	bl	8005a78 <drawGrid>

	return;
}
 800859a:	b002      	add	sp, #8
 800859c:	bd10      	pop	{r4, pc}
	...

080085a0 <arm_max_f32>:
 80085a0:	f101 3cff 	add.w	ip, r1, #4294967295
 80085a4:	b5f0      	push	{r4, r5, r6, r7, lr}
 80085a6:	4607      	mov	r7, r0
 80085a8:	ea5f 0e9c 	movs.w	lr, ip, lsr #2
 80085ac:	ecf7 7a01 	vldmia	r7!, {s15}
 80085b0:	d05d      	beq.n	800866e <arm_max_f32+0xce>
 80085b2:	f10e 0601 	add.w	r6, lr, #1
 80085b6:	3014      	adds	r0, #20
 80085b8:	2404      	movs	r4, #4
 80085ba:	2500      	movs	r5, #0
 80085bc:	00b6      	lsls	r6, r6, #2
 80085be:	ed10 7a04 	vldr	s14, [r0, #-16]
 80085c2:	eef4 7ac7 	vcmpe.f32	s15, s14
 80085c6:	eef1 fa10 	vmrs	APSR_nzcv, fpscr
 80085ca:	d502      	bpl.n	80085d2 <arm_max_f32+0x32>
 80085cc:	eef0 7a47 	vmov.f32	s15, s14
 80085d0:	1ee5      	subs	r5, r4, #3
 80085d2:	ed10 7a03 	vldr	s14, [r0, #-12]
 80085d6:	eef4 7ac7 	vcmpe.f32	s15, s14
 80085da:	eef1 fa10 	vmrs	APSR_nzcv, fpscr
 80085de:	d502      	bpl.n	80085e6 <arm_max_f32+0x46>
 80085e0:	eef0 7a47 	vmov.f32	s15, s14
 80085e4:	1ea5      	subs	r5, r4, #2
 80085e6:	ed10 7a02 	vldr	s14, [r0, #-8]
 80085ea:	eef4 7ac7 	vcmpe.f32	s15, s14
 80085ee:	eef1 fa10 	vmrs	APSR_nzcv, fpscr
 80085f2:	d502      	bpl.n	80085fa <arm_max_f32+0x5a>
 80085f4:	eef0 7a47 	vmov.f32	s15, s14
 80085f8:	1e65      	subs	r5, r4, #1
 80085fa:	ed10 7a01 	vldr	s14, [r0, #-4]
 80085fe:	3010      	adds	r0, #16
 8008600:	eef4 7ac7 	vcmpe.f32	s15, s14
 8008604:	eef1 fa10 	vmrs	APSR_nzcv, fpscr
 8008608:	d502      	bpl.n	8008610 <arm_max_f32+0x70>
 800860a:	eef0 7a47 	vmov.f32	s15, s14
 800860e:	4625      	mov	r5, r4
 8008610:	3404      	adds	r4, #4
 8008612:	42b4      	cmp	r4, r6
 8008614:	d1d3      	bne.n	80085be <arm_max_f32+0x1e>
 8008616:	eb07 170e 	add.w	r7, r7, lr, lsl #4
 800861a:	f01c 0003 	ands.w	r0, ip, #3
 800861e:	d01e      	beq.n	800865e <arm_max_f32+0xbe>
 8008620:	ed97 7a00 	vldr	s14, [r7]
 8008624:	eeb4 7ae7 	vcmpe.f32	s14, s15
 8008628:	eef1 fa10 	vmrs	APSR_nzcv, fpscr
 800862c:	dc1b      	bgt.n	8008666 <arm_max_f32+0xc6>
 800862e:	3801      	subs	r0, #1
 8008630:	d015      	beq.n	800865e <arm_max_f32+0xbe>
 8008632:	ed97 7a01 	vldr	s14, [r7, #4]
 8008636:	eef4 7ac7 	vcmpe.f32	s15, s14
 800863a:	eef1 fa10 	vmrs	APSR_nzcv, fpscr
 800863e:	d502      	bpl.n	8008646 <arm_max_f32+0xa6>
 8008640:	eef0 7a47 	vmov.f32	s15, s14
 8008644:	1a0d      	subs	r5, r1, r0
 8008646:	2801      	cmp	r0, #1
 8008648:	d009      	beq.n	800865e <arm_max_f32+0xbe>
 800864a:	ed97 7a02 	vldr	s14, [r7, #8]
 800864e:	eef4 7ac7 	vcmpe.f32	s15, s14
 8008652:	eef1 fa10 	vmrs	APSR_nzcv, fpscr
 8008656:	d502      	bpl.n	800865e <arm_max_f32+0xbe>
 8008658:	eef0 7a47 	vmov.f32	s15, s14
 800865c:	4665      	mov	r5, ip
 800865e:	edc2 7a00 	vstr	s15, [r2]
 8008662:	601d      	str	r5, [r3, #0]
 8008664:	bdf0      	pop	{r4, r5, r6, r7, pc}
 8008666:	eef0 7a47 	vmov.f32	s15, s14
 800866a:	1a0d      	subs	r5, r1, r0
 800866c:	e7df      	b.n	800862e <arm_max_f32+0x8e>
 800866e:	4675      	mov	r5, lr
 8008670:	e7d3      	b.n	800861a <arm_max_f32+0x7a>
 8008672:	bf00      	nop

08008674 <arm_cfft_init_f32>:
 8008674:	2200      	movs	r2, #0
 8008676:	f5b1 7f80 	cmp.w	r1, #256	; 0x100
 800867a:	4603      	mov	r3, r0
 800867c:	b430      	push	{r4, r5}
 800867e:	6042      	str	r2, [r0, #4]
 8008680:	8001      	strh	r1, [r0, #0]
 8008682:	d032      	beq.n	80086ea <arm_cfft_init_f32+0x76>
 8008684:	d918      	bls.n	80086b8 <arm_cfft_init_f32+0x44>
 8008686:	f5b1 6f00 	cmp.w	r1, #2048	; 0x800
 800868a:	d026      	beq.n	80086da <arm_cfft_init_f32+0x66>
 800868c:	d90c      	bls.n	80086a8 <arm_cfft_init_f32+0x34>
 800868e:	f5b1 5f80 	cmp.w	r1, #4096	; 0x1000
 8008692:	d11e      	bne.n	80086d2 <arm_cfft_init_f32+0x5e>
 8008694:	4916      	ldr	r1, [pc, #88]	; (80086f0 <arm_cfft_init_f32+0x7c>)
 8008696:	4610      	mov	r0, r2
 8008698:	898d      	ldrh	r5, [r1, #12]
 800869a:	e9d1 2401 	ldrd	r2, r4, [r1, #4]
 800869e:	819d      	strh	r5, [r3, #12]
 80086a0:	e9c3 2401 	strd	r2, r4, [r3, #4]
 80086a4:	bc30      	pop	{r4, r5}
 80086a6:	4770      	bx	lr
 80086a8:	f5b1 7f00 	cmp.w	r1, #512	; 0x200
 80086ac:	d017      	beq.n	80086de <arm_cfft_init_f32+0x6a>
 80086ae:	f5b1 6f80 	cmp.w	r1, #1024	; 0x400
 80086b2:	d10e      	bne.n	80086d2 <arm_cfft_init_f32+0x5e>
 80086b4:	490f      	ldr	r1, [pc, #60]	; (80086f4 <arm_cfft_init_f32+0x80>)
 80086b6:	e7ee      	b.n	8008696 <arm_cfft_init_f32+0x22>
 80086b8:	2940      	cmp	r1, #64	; 0x40
 80086ba:	d012      	beq.n	80086e2 <arm_cfft_init_f32+0x6e>
 80086bc:	d903      	bls.n	80086c6 <arm_cfft_init_f32+0x52>
 80086be:	2980      	cmp	r1, #128	; 0x80
 80086c0:	d107      	bne.n	80086d2 <arm_cfft_init_f32+0x5e>
 80086c2:	490d      	ldr	r1, [pc, #52]	; (80086f8 <arm_cfft_init_f32+0x84>)
 80086c4:	e7e7      	b.n	8008696 <arm_cfft_init_f32+0x22>
 80086c6:	2910      	cmp	r1, #16
 80086c8:	d00d      	beq.n	80086e6 <arm_cfft_init_f32+0x72>
 80086ca:	2920      	cmp	r1, #32
 80086cc:	d101      	bne.n	80086d2 <arm_cfft_init_f32+0x5e>
 80086ce:	490b      	ldr	r1, [pc, #44]	; (80086fc <arm_cfft_init_f32+0x88>)
 80086d0:	e7e1      	b.n	8008696 <arm_cfft_init_f32+0x22>
 80086d2:	f04f 30ff 	mov.w	r0, #4294967295
 80086d6:	bc30      	pop	{r4, r5}
 80086d8:	4770      	bx	lr
 80086da:	4909      	ldr	r1, [pc, #36]	; (8008700 <arm_cfft_init_f32+0x8c>)
 80086dc:	e7db      	b.n	8008696 <arm_cfft_init_f32+0x22>
 80086de:	4909      	ldr	r1, [pc, #36]	; (8008704 <arm_cfft_init_f32+0x90>)
 80086e0:	e7d9      	b.n	8008696 <arm_cfft_init_f32+0x22>
 80086e2:	4909      	ldr	r1, [pc, #36]	; (8008708 <arm_cfft_init_f32+0x94>)
 80086e4:	e7d7      	b.n	8008696 <arm_cfft_init_f32+0x22>
 80086e6:	4909      	ldr	r1, [pc, #36]	; (800870c <arm_cfft_init_f32+0x98>)
 80086e8:	e7d5      	b.n	8008696 <arm_cfft_init_f32+0x22>
 80086ea:	4909      	ldr	r1, [pc, #36]	; (8008710 <arm_cfft_init_f32+0x9c>)
 80086ec:	e7d3      	b.n	8008696 <arm_cfft_init_f32+0x22>
 80086ee:	bf00      	nop
 80086f0:	08010400 	.word	0x08010400
 80086f4:	080103a0 	.word	0x080103a0
 80086f8:	080103b0 	.word	0x080103b0
 80086fc:	080103f0 	.word	0x080103f0
 8008700:	080103d0 	.word	0x080103d0
 8008704:	08010410 	.word	0x08010410
 8008708:	08010420 	.word	0x08010420
 800870c:	080103c0 	.word	0x080103c0
 8008710:	080103e0 	.word	0x080103e0

08008714 <arm_rfft_32_fast_init_f32>:
 8008714:	b150      	cbz	r0, 800872c <arm_rfft_32_fast_init_f32+0x18>
 8008716:	2110      	movs	r1, #16
 8008718:	b510      	push	{r4, lr}
 800871a:	4604      	mov	r4, r0
 800871c:	f7ff ffaa 	bl	8008674 <arm_cfft_init_f32>
 8008720:	b918      	cbnz	r0, 800872a <arm_rfft_32_fast_init_f32+0x16>
 8008722:	2220      	movs	r2, #32
 8008724:	4b03      	ldr	r3, [pc, #12]	; (8008734 <arm_rfft_32_fast_init_f32+0x20>)
 8008726:	8222      	strh	r2, [r4, #16]
 8008728:	6163      	str	r3, [r4, #20]
 800872a:	bd10      	pop	{r4, pc}
 800872c:	f04f 30ff 	mov.w	r0, #4294967295
 8008730:	4770      	bx	lr
 8008732:	bf00      	nop
 8008734:	0802968c 	.word	0x0802968c

08008738 <arm_rfft_64_fast_init_f32>:
 8008738:	b150      	cbz	r0, 8008750 <arm_rfft_64_fast_init_f32+0x18>
 800873a:	2120      	movs	r1, #32
 800873c:	b510      	push	{r4, lr}
 800873e:	4604      	mov	r4, r0
 8008740:	f7ff ff98 	bl	8008674 <arm_cfft_init_f32>
 8008744:	b918      	cbnz	r0, 800874e <arm_rfft_64_fast_init_f32+0x16>
 8008746:	2240      	movs	r2, #64	; 0x40
 8008748:	4b03      	ldr	r3, [pc, #12]	; (8008758 <arm_rfft_64_fast_init_f32+0x20>)
 800874a:	8222      	strh	r2, [r4, #16]
 800874c:	6163      	str	r3, [r4, #20]
 800874e:	bd10      	pop	{r4, pc}
 8008750:	f04f 30ff 	mov.w	r0, #4294967295
 8008754:	4770      	bx	lr
 8008756:	bf00      	nop
 8008758:	0802df0c 	.word	0x0802df0c

0800875c <arm_rfft_128_fast_init_f32>:
 800875c:	b150      	cbz	r0, 8008774 <arm_rfft_128_fast_init_f32+0x18>
 800875e:	2140      	movs	r1, #64	; 0x40
 8008760:	b510      	push	{r4, lr}
 8008762:	4604      	mov	r4, r0
 8008764:	f7ff ff86 	bl	8008674 <arm_cfft_init_f32>
 8008768:	b918      	cbnz	r0, 8008772 <arm_rfft_128_fast_init_f32+0x16>
 800876a:	2280      	movs	r2, #128	; 0x80
 800876c:	4b03      	ldr	r3, [pc, #12]	; (800877c <arm_rfft_128_fast_init_f32+0x20>)
 800876e:	8222      	strh	r2, [r4, #16]
 8008770:	6163      	str	r3, [r4, #20]
 8008772:	bd10      	pop	{r4, pc}
 8008774:	f04f 30ff 	mov.w	r0, #4294967295
 8008778:	4770      	bx	lr
 800877a:	bf00      	nop
 800877c:	0802708c 	.word	0x0802708c

08008780 <arm_rfft_256_fast_init_f32>:
 8008780:	b158      	cbz	r0, 800879a <arm_rfft_256_fast_init_f32+0x1a>
 8008782:	2180      	movs	r1, #128	; 0x80
 8008784:	b510      	push	{r4, lr}
 8008786:	4604      	mov	r4, r0
 8008788:	f7ff ff74 	bl	8008674 <arm_cfft_init_f32>
 800878c:	b920      	cbnz	r0, 8008798 <arm_rfft_256_fast_init_f32+0x18>
 800878e:	f44f 7280 	mov.w	r2, #256	; 0x100
 8008792:	4b03      	ldr	r3, [pc, #12]	; (80087a0 <arm_rfft_256_fast_init_f32+0x20>)
 8008794:	8222      	strh	r2, [r4, #16]
 8008796:	6163      	str	r3, [r4, #20]
 8008798:	bd10      	pop	{r4, pc}
 800879a:	f04f 30ff 	mov.w	r0, #4294967295
 800879e:	4770      	bx	lr
 80087a0:	0802928c 	.word	0x0802928c

080087a4 <arm_rfft_512_fast_init_f32>:
 80087a4:	b160      	cbz	r0, 80087c0 <arm_rfft_512_fast_init_f32+0x1c>
 80087a6:	f44f 7180 	mov.w	r1, #256	; 0x100
 80087aa:	b510      	push	{r4, lr}
 80087ac:	4604      	mov	r4, r0
 80087ae:	f7ff ff61 	bl	8008674 <arm_cfft_init_f32>
 80087b2:	b920      	cbnz	r0, 80087be <arm_rfft_512_fast_init_f32+0x1a>
 80087b4:	f44f 7200 	mov.w	r2, #512	; 0x200
 80087b8:	4b03      	ldr	r3, [pc, #12]	; (80087c8 <arm_rfft_512_fast_init_f32+0x24>)
 80087ba:	8222      	strh	r2, [r4, #16]
 80087bc:	6163      	str	r3, [r4, #20]
 80087be:	bd10      	pop	{r4, pc}
 80087c0:	f04f 30ff 	mov.w	r0, #4294967295
 80087c4:	4770      	bx	lr
 80087c6:	bf00      	nop
 80087c8:	0802d70c 	.word	0x0802d70c

080087cc <arm_rfft_1024_fast_init_f32>:
 80087cc:	b160      	cbz	r0, 80087e8 <arm_rfft_1024_fast_init_f32+0x1c>
 80087ce:	f44f 7100 	mov.w	r1, #512	; 0x200
 80087d2:	b510      	push	{r4, lr}
 80087d4:	4604      	mov	r4, r0
 80087d6:	f7ff ff4d 	bl	8008674 <arm_cfft_init_f32>
 80087da:	b920      	cbnz	r0, 80087e6 <arm_rfft_1024_fast_init_f32+0x1a>
 80087dc:	f44f 6280 	mov.w	r2, #1024	; 0x400
 80087e0:	4b03      	ldr	r3, [pc, #12]	; (80087f0 <arm_rfft_1024_fast_init_f32+0x24>)
 80087e2:	8222      	strh	r2, [r4, #16]
 80087e4:	6163      	str	r3, [r4, #20]
 80087e6:	bd10      	pop	{r4, pc}
 80087e8:	f04f 30ff 	mov.w	r0, #4294967295
 80087ec:	4770      	bx	lr
 80087ee:	bf00      	nop
 80087f0:	0802608c 	.word	0x0802608c

080087f4 <arm_rfft_2048_fast_init_f32>:
 80087f4:	b160      	cbz	r0, 8008810 <arm_rfft_2048_fast_init_f32+0x1c>
 80087f6:	f44f 6180 	mov.w	r1, #1024	; 0x400
 80087fa:	b510      	push	{r4, lr}
 80087fc:	4604      	mov	r4, r0
 80087fe:	f7ff ff39 	bl	8008674 <arm_cfft_init_f32>
 8008802:	b920      	cbnz	r0, 800880e <arm_rfft_2048_fast_init_f32+0x1a>
 8008804:	f44f 6200 	mov.w	r2, #2048	; 0x800
 8008808:	4b03      	ldr	r3, [pc, #12]	; (8008818 <arm_rfft_2048_fast_init_f32+0x24>)
 800880a:	8222      	strh	r2, [r4, #16]
 800880c:	6163      	str	r3, [r4, #20]
 800880e:	bd10      	pop	{r4, pc}
 8008810:	f04f 30ff 	mov.w	r0, #4294967295
 8008814:	4770      	bx	lr
 8008816:	bf00      	nop
 8008818:	0802728c 	.word	0x0802728c

0800881c <arm_rfft_4096_fast_init_f32>:
 800881c:	b160      	cbz	r0, 8008838 <arm_rfft_4096_fast_init_f32+0x1c>
 800881e:	f44f 6100 	mov.w	r1, #2048	; 0x800
 8008822:	b510      	push	{r4, lr}
 8008824:	4604      	mov	r4, r0
 8008826:	f7ff ff25 	bl	8008674 <arm_cfft_init_f32>
 800882a:	b920      	cbnz	r0, 8008836 <arm_rfft_4096_fast_init_f32+0x1a>
 800882c:	f44f 5280 	mov.w	r2, #4096	; 0x1000
 8008830:	4b03      	ldr	r3, [pc, #12]	; (8008840 <arm_rfft_4096_fast_init_f32+0x24>)
 8008832:	8222      	strh	r2, [r4, #16]
 8008834:	6163      	str	r3, [r4, #20]
 8008836:	bd10      	pop	{r4, pc}
 8008838:	f04f 30ff 	mov.w	r0, #4294967295
 800883c:	4770      	bx	lr
 800883e:	bf00      	nop
 8008840:	0802970c 	.word	0x0802970c

08008844 <arm_rfft_fast_init_f32>:
 8008844:	f5b1 7f00 	cmp.w	r1, #512	; 0x200
 8008848:	d024      	beq.n	8008894 <arm_rfft_fast_init_f32+0x50>
 800884a:	d807      	bhi.n	800885c <arm_rfft_fast_init_f32+0x18>
 800884c:	2980      	cmp	r1, #128	; 0x80
 800884e:	d01c      	beq.n	800888a <arm_rfft_fast_init_f32+0x46>
 8008850:	d90c      	bls.n	800886c <arm_rfft_fast_init_f32+0x28>
 8008852:	f5b1 7f80 	cmp.w	r1, #256	; 0x100
 8008856:	d11a      	bne.n	800888e <arm_rfft_fast_init_f32+0x4a>
 8008858:	4b0f      	ldr	r3, [pc, #60]	; (8008898 <arm_rfft_fast_init_f32+0x54>)
 800885a:	4718      	bx	r3
 800885c:	f5b1 6f00 	cmp.w	r1, #2048	; 0x800
 8008860:	d011      	beq.n	8008886 <arm_rfft_fast_init_f32+0x42>
 8008862:	f5b1 5f80 	cmp.w	r1, #4096	; 0x1000
 8008866:	d107      	bne.n	8008878 <arm_rfft_fast_init_f32+0x34>
 8008868:	4b0c      	ldr	r3, [pc, #48]	; (800889c <arm_rfft_fast_init_f32+0x58>)
 800886a:	4718      	bx	r3
 800886c:	2920      	cmp	r1, #32
 800886e:	d008      	beq.n	8008882 <arm_rfft_fast_init_f32+0x3e>
 8008870:	2940      	cmp	r1, #64	; 0x40
 8008872:	d10c      	bne.n	800888e <arm_rfft_fast_init_f32+0x4a>
 8008874:	4b0a      	ldr	r3, [pc, #40]	; (80088a0 <arm_rfft_fast_init_f32+0x5c>)
 8008876:	e7f0      	b.n	800885a <arm_rfft_fast_init_f32+0x16>
 8008878:	f5b1 6f80 	cmp.w	r1, #1024	; 0x400
 800887c:	d107      	bne.n	800888e <arm_rfft_fast_init_f32+0x4a>
 800887e:	4b09      	ldr	r3, [pc, #36]	; (80088a4 <arm_rfft_fast_init_f32+0x60>)
 8008880:	e7eb      	b.n	800885a <arm_rfft_fast_init_f32+0x16>
 8008882:	4b09      	ldr	r3, [pc, #36]	; (80088a8 <arm_rfft_fast_init_f32+0x64>)
 8008884:	e7e9      	b.n	800885a <arm_rfft_fast_init_f32+0x16>
 8008886:	4b09      	ldr	r3, [pc, #36]	; (80088ac <arm_rfft_fast_init_f32+0x68>)
 8008888:	e7e7      	b.n	800885a <arm_rfft_fast_init_f32+0x16>
 800888a:	4b09      	ldr	r3, [pc, #36]	; (80088b0 <arm_rfft_fast_init_f32+0x6c>)
 800888c:	e7e5      	b.n	800885a <arm_rfft_fast_init_f32+0x16>
 800888e:	f04f 30ff 	mov.w	r0, #4294967295
 8008892:	4770      	bx	lr
 8008894:	4b07      	ldr	r3, [pc, #28]	; (80088b4 <arm_rfft_fast_init_f32+0x70>)
 8008896:	e7e0      	b.n	800885a <arm_rfft_fast_init_f32+0x16>
 8008898:	08008781 	.word	0x08008781
 800889c:	0800881d 	.word	0x0800881d
 80088a0:	08008739 	.word	0x08008739
 80088a4:	080087cd 	.word	0x080087cd
 80088a8:	08008715 	.word	0x08008715
 80088ac:	080087f5 	.word	0x080087f5
 80088b0:	0800875d 	.word	0x0800875d
 80088b4:	080087a5 	.word	0x080087a5

080088b8 <stage_rfft_f32>:
 80088b8:	b470      	push	{r4, r5, r6}
 80088ba:	edd1 7a00 	vldr	s15, [r1]
 80088be:	eeb6 6a00 	vmov.f32	s12, #96	; 0x3f000000  0.5
 80088c2:	ed91 7a01 	vldr	s14, [r1, #4]
 80088c6:	f101 0410 	add.w	r4, r1, #16
 80088ca:	ee77 7aa7 	vadd.f32	s15, s15, s15
 80088ce:	8806      	ldrh	r6, [r0, #0]
 80088d0:	ee37 7a07 	vadd.f32	s14, s14, s14
 80088d4:	6940      	ldr	r0, [r0, #20]
 80088d6:	3e01      	subs	r6, #1
 80088d8:	eeb0 4a46 	vmov.f32	s8, s12
 80088dc:	f102 0510 	add.w	r5, r2, #16
 80088e0:	3010      	adds	r0, #16
 80088e2:	ee77 6a87 	vadd.f32	s13, s15, s14
 80088e6:	eb01 01c6 	add.w	r1, r1, r6, lsl #3
 80088ea:	ee77 7ac7 	vsub.f32	s15, s15, s14
 80088ee:	f1a1 0308 	sub.w	r3, r1, #8
 80088f2:	ee26 7a86 	vmul.f32	s14, s13, s12
 80088f6:	ee67 7a86 	vmul.f32	s15, s15, s12
 80088fa:	ed82 7a00 	vstr	s14, [r2]
 80088fe:	edc2 7a01 	vstr	s15, [r2, #4]
 8008902:	ed14 6a02 	vldr	s12, [r4, #-8]
 8008906:	3e01      	subs	r6, #1
 8008908:	ed93 7a02 	vldr	s14, [r3, #8]
 800890c:	f104 0408 	add.w	r4, r4, #8
 8008910:	ed50 6a02 	vldr	s13, [r0, #-8]
 8008914:	f1a3 0308 	sub.w	r3, r3, #8
 8008918:	ee77 5a46 	vsub.f32	s11, s14, s12
 800891c:	edd3 4a05 	vldr	s9, [r3, #20]
 8008920:	ed54 7a03 	vldr	s15, [r4, #-12]
 8008924:	ee37 7a06 	vadd.f32	s14, s14, s12
 8008928:	ed10 6a01 	vldr	s12, [r0, #-4]
 800892c:	f105 0508 	add.w	r5, r5, #8
 8008930:	ee66 3aa5 	vmul.f32	s7, s13, s11
 8008934:	f100 0008 	add.w	r0, r0, #8
 8008938:	ee34 5aa7 	vadd.f32	s10, s9, s15
 800893c:	ee66 5a25 	vmul.f32	s11, s12, s11
 8008940:	ee77 7ae4 	vsub.f32	s15, s15, s9
 8008944:	ee37 7a23 	vadd.f32	s14, s14, s7
 8008948:	ee66 6a85 	vmul.f32	s13, s13, s10
 800894c:	ee26 6a05 	vmul.f32	s12, s12, s10
 8008950:	ee77 7aa5 	vadd.f32	s15, s15, s11
 8008954:	ee37 7a06 	vadd.f32	s14, s14, s12
 8008958:	ee77 7ae6 	vsub.f32	s15, s15, s13
 800895c:	ee27 7a04 	vmul.f32	s14, s14, s8
 8008960:	ee67 7a84 	vmul.f32	s15, s15, s8
 8008964:	ed05 7a04 	vstr	s14, [r5, #-16]
 8008968:	ed45 7a03 	vstr	s15, [r5, #-12]
 800896c:	d1c9      	bne.n	8008902 <stage_rfft_f32+0x4a>
 800896e:	bc70      	pop	{r4, r5, r6}
 8008970:	4770      	bx	lr
 8008972:	bf00      	nop

08008974 <merge_rfft_f32>:
 8008974:	b410      	push	{r4}
 8008976:	edd1 7a00 	vldr	s15, [r1]
 800897a:	eeb6 4a00 	vmov.f32	s8, #96	; 0x3f000000  0.5
 800897e:	edd1 6a01 	vldr	s13, [r1, #4]
 8008982:	8804      	ldrh	r4, [r0, #0]
 8008984:	ee37 7aa6 	vadd.f32	s14, s15, s13
 8008988:	6940      	ldr	r0, [r0, #20]
 800898a:	ee77 7ae6 	vsub.f32	s15, s15, s13
 800898e:	3c01      	subs	r4, #1
 8008990:	ee27 7a04 	vmul.f32	s14, s14, s8
 8008994:	ee67 7a84 	vmul.f32	s15, s15, s8
 8008998:	ed82 7a00 	vstr	s14, [r2]
 800899c:	edc2 7a01 	vstr	s15, [r2, #4]
 80089a0:	b3dc      	cbz	r4, 8008a1a <merge_rfft_f32+0xa6>
 80089a2:	00e3      	lsls	r3, r4, #3
 80089a4:	3010      	adds	r0, #16
 80089a6:	3210      	adds	r2, #16
 80089a8:	3b08      	subs	r3, #8
 80089aa:	440b      	add	r3, r1
 80089ac:	3110      	adds	r1, #16
 80089ae:	ed11 6a02 	vldr	s12, [r1, #-8]
 80089b2:	3c01      	subs	r4, #1
 80089b4:	ed93 7a02 	vldr	s14, [r3, #8]
 80089b8:	f101 0108 	add.w	r1, r1, #8
 80089bc:	ed50 6a02 	vldr	s13, [r0, #-8]
 80089c0:	f1a3 0308 	sub.w	r3, r3, #8
 80089c4:	ee76 5a47 	vsub.f32	s11, s12, s14
 80089c8:	edd3 4a05 	vldr	s9, [r3, #20]
 80089cc:	ed51 7a03 	vldr	s15, [r1, #-12]
 80089d0:	ee37 7a06 	vadd.f32	s14, s14, s12
 80089d4:	ed10 6a01 	vldr	s12, [r0, #-4]
 80089d8:	f102 0208 	add.w	r2, r2, #8
 80089dc:	ee66 3aa5 	vmul.f32	s7, s13, s11
 80089e0:	f100 0008 	add.w	r0, r0, #8
 80089e4:	ee34 5aa7 	vadd.f32	s10, s9, s15
 80089e8:	ee66 5a25 	vmul.f32	s11, s12, s11
 80089ec:	ee77 7ae4 	vsub.f32	s15, s15, s9
 80089f0:	ee37 7a63 	vsub.f32	s14, s14, s7
 80089f4:	ee66 6a85 	vmul.f32	s13, s13, s10
 80089f8:	ee26 6a05 	vmul.f32	s12, s12, s10
 80089fc:	ee77 7aa5 	vadd.f32	s15, s15, s11
 8008a00:	ee37 7a46 	vsub.f32	s14, s14, s12
 8008a04:	ee77 7ae6 	vsub.f32	s15, s15, s13
 8008a08:	ee27 7a04 	vmul.f32	s14, s14, s8
 8008a0c:	ee67 7a84 	vmul.f32	s15, s15, s8
 8008a10:	ed02 7a04 	vstr	s14, [r2, #-16]
 8008a14:	ed42 7a03 	vstr	s15, [r2, #-12]
 8008a18:	d1c9      	bne.n	80089ae <merge_rfft_f32+0x3a>
 8008a1a:	f85d 4b04 	ldr.w	r4, [sp], #4
 8008a1e:	4770      	bx	lr

08008a20 <arm_rfft_fast_f32>:
 8008a20:	e92d 41f0 	stmdb	sp!, {r4, r5, r6, r7, r8, lr}
 8008a24:	461c      	mov	r4, r3
 8008a26:	4605      	mov	r5, r0
 8008a28:	4616      	mov	r6, r2
 8008a2a:	b14b      	cbz	r3, 8008a40 <arm_rfft_fast_f32+0x20>
 8008a2c:	f7ff ffa2 	bl	8008974 <merge_rfft_f32>
 8008a30:	4622      	mov	r2, r4
 8008a32:	4631      	mov	r1, r6
 8008a34:	4628      	mov	r0, r5
 8008a36:	2301      	movs	r3, #1
 8008a38:	e8bd 41f0 	ldmia.w	sp!, {r4, r5, r6, r7, r8, lr}
 8008a3c:	f000 bb38 	b.w	80090b0 <arm_cfft_f32>
 8008a40:	460f      	mov	r7, r1
 8008a42:	461a      	mov	r2, r3
 8008a44:	2301      	movs	r3, #1
 8008a46:	f000 fb33 	bl	80090b0 <arm_cfft_f32>
 8008a4a:	4632      	mov	r2, r6
 8008a4c:	4639      	mov	r1, r7
 8008a4e:	4628      	mov	r0, r5
 8008a50:	e8bd 41f0 	ldmia.w	sp!, {r4, r5, r6, r7, r8, lr}
 8008a54:	f7ff bf30 	b.w	80088b8 <stage_rfft_f32>

08008a58 <arm_cfft_radix8by2_f32>:
 8008a58:	e92d 41f0 	stmdb	sp!, {r4, r5, r6, r7, r8, lr}
 8008a5c:	4607      	mov	r7, r0
 8008a5e:	4608      	mov	r0, r1
 8008a60:	ed2d 8b06 	vpush	{d8-d10}
 8008a64:	f8b7 c000 	ldrh.w	ip, [r7]
 8008a68:	b082      	sub	sp, #8
 8008a6a:	687a      	ldr	r2, [r7, #4]
 8008a6c:	ea4f 015c 	mov.w	r1, ip, lsr #1
 8008a70:	eb00 088c 	add.w	r8, r0, ip, lsl #2
 8008a74:	ea5f 0cdc 	movs.w	ip, ip, lsr #3
 8008a78:	f000 80ac 	beq.w	8008bd4 <arm_cfft_radix8by2_f32+0x17c>
 8008a7c:	008c      	lsls	r4, r1, #2
 8008a7e:	f100 0310 	add.w	r3, r0, #16
 8008a82:	3210      	adds	r2, #16
 8008a84:	f108 0610 	add.w	r6, r8, #16
 8008a88:	3410      	adds	r4, #16
 8008a8a:	eb03 1c0c 	add.w	ip, r3, ip, lsl #4
 8008a8e:	1905      	adds	r5, r0, r4
 8008a90:	4444      	add	r4, r8
 8008a92:	ed16 7a04 	vldr	s14, [r6, #-16]
 8008a96:	3310      	adds	r3, #16
 8008a98:	ed53 4a08 	vldr	s9, [r3, #-32]	; 0xffffffe0
 8008a9c:	3510      	adds	r5, #16
 8008a9e:	ed56 0a03 	vldr	s1, [r6, #-12]
 8008aa2:	3210      	adds	r2, #16
 8008aa4:	ee74 9a87 	vadd.f32	s19, s9, s14
 8008aa8:	ed56 7a02 	vldr	s15, [r6, #-8]
 8008aac:	ed56 2a01 	vldr	s5, [r6, #-4]
 8008ab0:	ee74 4ac7 	vsub.f32	s9, s9, s14
 8008ab4:	ed54 5a04 	vldr	s11, [r4, #-16]
 8008ab8:	3610      	adds	r6, #16
 8008aba:	ed14 5a03 	vldr	s10, [r4, #-12]
 8008abe:	3410      	adds	r4, #16
 8008ac0:	ed14 3a06 	vldr	s6, [r4, #-24]	; 0xffffffe8
 8008ac4:	ed13 2a05 	vldr	s4, [r3, #-20]	; 0xffffffec
 8008ac8:	ed55 6a08 	vldr	s13, [r5, #-32]	; 0xffffffe0
 8008acc:	ed55 3a06 	vldr	s7, [r5, #-24]	; 0xffffffe8
 8008ad0:	ed15 4a05 	vldr	s8, [r5, #-20]	; 0xffffffec
 8008ad4:	ee36 9aa5 	vadd.f32	s18, s13, s11
 8008ad8:	ed14 6a05 	vldr	s12, [r4, #-20]	; 0xffffffec
 8008adc:	ee33 8a83 	vadd.f32	s16, s7, s6
 8008ae0:	ed13 7a07 	vldr	s14, [r3, #-28]	; 0xffffffe4
 8008ae4:	ee75 5ae6 	vsub.f32	s11, s11, s13
 8008ae8:	ed53 1a06 	vldr	s3, [r3, #-24]	; 0xffffffe8
 8008aec:	ee34 0a06 	vadd.f32	s0, s8, s12
 8008af0:	ed15 1a07 	vldr	s2, [r5, #-28]	; 0xffffffe4
 8008af4:	ee77 aa20 	vadd.f32	s21, s14, s1
 8008af8:	ed43 9a08 	vstr	s19, [r3, #-32]	; 0xffffffe0
 8008afc:	ee31 aaa7 	vadd.f32	s20, s3, s15
 8008b00:	ee72 9a22 	vadd.f32	s19, s4, s5
 8008b04:	ee71 8a05 	vadd.f32	s17, s2, s10
 8008b08:	ed43 aa07 	vstr	s21, [r3, #-28]	; 0xffffffe4
 8008b0c:	ee37 7a60 	vsub.f32	s14, s14, s1
 8008b10:	ed03 aa06 	vstr	s20, [r3, #-24]	; 0xffffffe8
 8008b14:	ee35 5a41 	vsub.f32	s10, s10, s2
 8008b18:	ed43 9a05 	vstr	s19, [r3, #-20]	; 0xffffffec
 8008b1c:	ee36 6a44 	vsub.f32	s12, s12, s8
 8008b20:	ed05 9a08 	vstr	s18, [r5, #-32]	; 0xffffffe0
 8008b24:	ed45 8a07 	vstr	s17, [r5, #-28]	; 0xffffffe4
 8008b28:	ee71 1ae7 	vsub.f32	s3, s3, s15
 8008b2c:	ed05 8a06 	vstr	s16, [r5, #-24]	; 0xffffffe8
 8008b30:	ee72 7a62 	vsub.f32	s15, s4, s5
 8008b34:	ed05 0a05 	vstr	s0, [r5, #-20]	; 0xffffffec
 8008b38:	ee73 2a63 	vsub.f32	s5, s6, s7
 8008b3c:	ed12 4a08 	vldr	s8, [r2, #-32]	; 0xffffffe0
 8008b40:	4563      	cmp	r3, ip
 8008b42:	ed52 6a07 	vldr	s13, [r2, #-28]	; 0xffffffe4
 8008b46:	ee24 3a84 	vmul.f32	s6, s9, s8
 8008b4a:	ee27 2a26 	vmul.f32	s4, s14, s13
 8008b4e:	ee64 4aa6 	vmul.f32	s9, s9, s13
 8008b52:	ee65 3aa6 	vmul.f32	s7, s11, s13
 8008b56:	ee27 7a04 	vmul.f32	s14, s14, s8
 8008b5a:	ee65 5a84 	vmul.f32	s11, s11, s8
 8008b5e:	ee65 6a26 	vmul.f32	s13, s10, s13
 8008b62:	ee25 5a04 	vmul.f32	s10, s10, s8
 8008b66:	ee37 7a64 	vsub.f32	s14, s14, s9
 8008b6a:	ee76 6aa5 	vadd.f32	s13, s13, s11
 8008b6e:	ee33 4a02 	vadd.f32	s8, s6, s4
 8008b72:	ee33 5ac5 	vsub.f32	s10, s7, s10
 8008b76:	ed06 7a07 	vstr	s14, [r6, #-28]	; 0xffffffe4
 8008b7a:	ed06 4a08 	vstr	s8, [r6, #-32]	; 0xffffffe0
 8008b7e:	ed04 5a08 	vstr	s10, [r4, #-32]	; 0xffffffe0
 8008b82:	ed44 6a07 	vstr	s13, [r4, #-28]	; 0xffffffe4
 8008b86:	ed52 6a06 	vldr	s13, [r2, #-24]	; 0xffffffe8
 8008b8a:	ed12 7a05 	vldr	s14, [r2, #-20]	; 0xffffffec
 8008b8e:	ee61 4aa6 	vmul.f32	s9, s3, s13
 8008b92:	ee27 4a87 	vmul.f32	s8, s15, s14
 8008b96:	ee61 5a87 	vmul.f32	s11, s3, s14
 8008b9a:	ee67 7aa6 	vmul.f32	s15, s15, s13
 8008b9e:	ee22 5a87 	vmul.f32	s10, s5, s14
 8008ba2:	ee26 7a07 	vmul.f32	s14, s12, s14
 8008ba6:	ee26 6a26 	vmul.f32	s12, s12, s13
 8008baa:	ee62 6aa6 	vmul.f32	s13, s5, s13
 8008bae:	ee74 4a84 	vadd.f32	s9, s9, s8
 8008bb2:	ee77 7ae5 	vsub.f32	s15, s15, s11
 8008bb6:	ee35 6a46 	vsub.f32	s12, s10, s12
 8008bba:	ee37 7a26 	vadd.f32	s14, s14, s13
 8008bbe:	ed46 4a06 	vstr	s9, [r6, #-24]	; 0xffffffe8
 8008bc2:	ed46 7a05 	vstr	s15, [r6, #-20]	; 0xffffffec
 8008bc6:	ed04 6a06 	vstr	s12, [r4, #-24]	; 0xffffffe8
 8008bca:	ed04 7a05 	vstr	s14, [r4, #-20]	; 0xffffffec
 8008bce:	f47f af60 	bne.w	8008a92 <arm_cfft_radix8by2_f32+0x3a>
 8008bd2:	687a      	ldr	r2, [r7, #4]
 8008bd4:	b289      	uxth	r1, r1
 8008bd6:	2302      	movs	r3, #2
 8008bd8:	9101      	str	r1, [sp, #4]
 8008bda:	f001 f913 	bl	8009e04 <arm_radix8_butterfly_f32>
 8008bde:	9901      	ldr	r1, [sp, #4]
 8008be0:	4640      	mov	r0, r8
 8008be2:	687a      	ldr	r2, [r7, #4]
 8008be4:	2302      	movs	r3, #2
 8008be6:	b002      	add	sp, #8
 8008be8:	ecbd 8b06 	vpop	{d8-d10}
 8008bec:	e8bd 41f0 	ldmia.w	sp!, {r4, r5, r6, r7, r8, lr}
 8008bf0:	f001 b908 	b.w	8009e04 <arm_radix8_butterfly_f32>

08008bf4 <arm_cfft_radix8by4_f32>:
 8008bf4:	4602      	mov	r2, r0
 8008bf6:	e92d 4ff0 	stmdb	sp!, {r4, r5, r6, r7, r8, r9, sl, fp, lr}
 8008bfa:	ed2d 8b04 	vpush	{d8-d9}
 8008bfe:	8813      	ldrh	r3, [r2, #0]
 8008c00:	b08d      	sub	sp, #52	; 0x34
 8008c02:	edd1 7a00 	vldr	s15, [r1]
 8008c06:	085b      	lsrs	r3, r3, #1
 8008c08:	6852      	ldr	r2, [r2, #4]
 8008c0a:	edd1 5a01 	vldr	s11, [r1, #4]
 8008c0e:	eb01 08c3 	add.w	r8, r1, r3, lsl #3
 8008c12:	900a      	str	r0, [sp, #40]	; 0x28
 8008c14:	eb01 0683 	add.w	r6, r1, r3, lsl #2
 8008c18:	4608      	mov	r0, r1
 8008c1a:	ed98 6a00 	vldr	s12, [r8]
 8008c1e:	eb08 0583 	add.w	r5, r8, r3, lsl #2
 8008c22:	ed96 7a00 	vldr	s14, [r6]
 8008c26:	f102 0108 	add.w	r1, r2, #8
 8008c2a:	ee77 6a86 	vadd.f32	s13, s15, s12
 8008c2e:	ed95 5a00 	vldr	s10, [r5]
 8008c32:	edd8 4a01 	vldr	s9, [r8, #4]
 8008c36:	ee77 7ac6 	vsub.f32	s15, s15, s12
 8008c3a:	9102      	str	r1, [sp, #8]
 8008c3c:	0859      	lsrs	r1, r3, #1
 8008c3e:	ee77 3a26 	vadd.f32	s7, s14, s13
 8008c42:	ed96 4a01 	vldr	s8, [r6, #4]
 8008c46:	ee35 6aa4 	vadd.f32	s12, s11, s9
 8008c4a:	ed95 3a01 	vldr	s6, [r5, #4]
 8008c4e:	ee75 5ae4 	vsub.f32	s11, s11, s9
 8008c52:	9109      	str	r1, [sp, #36]	; 0x24
 8008c54:	ee73 3a85 	vadd.f32	s7, s7, s10
 8008c58:	0859      	lsrs	r1, r3, #1
 8008c5a:	ea4f 0a83 	mov.w	sl, r3, lsl #2
 8008c5e:	4603      	mov	r3, r0
 8008c60:	ee76 4a44 	vsub.f32	s9, s12, s8
 8008c64:	f102 0c10 	add.w	ip, r2, #16
 8008c68:	edc0 3a00 	vstr	s7, [r0]
 8008c6c:	ee76 6ac7 	vsub.f32	s13, s13, s14
 8008c70:	ed96 2a01 	vldr	s4, [r6, #4]
 8008c74:	ee74 3a27 	vadd.f32	s7, s8, s15
 8008c78:	3308      	adds	r3, #8
 8008c7a:	ee77 7ac4 	vsub.f32	s15, s15, s8
 8008c7e:	ee36 6a02 	vadd.f32	s12, s12, s4
 8008c82:	edd5 2a01 	vldr	s5, [r5, #4]
 8008c86:	ee35 4ac7 	vsub.f32	s8, s11, s14
 8008c8a:	9303      	str	r3, [sp, #12]
 8008c8c:	ee37 7a25 	vadd.f32	s14, s14, s11
 8008c90:	4637      	mov	r7, r6
 8008c92:	462c      	mov	r4, r5
 8008c94:	3902      	subs	r1, #2
 8008c96:	4643      	mov	r3, r8
 8008c98:	ee74 5ac3 	vsub.f32	s11, s9, s6
 8008c9c:	ee76 6ac5 	vsub.f32	s13, s13, s10
 8008ca0:	f8cd c000 	str.w	ip, [sp]
 8008ca4:	ee36 6a22 	vadd.f32	s12, s12, s5
 8008ca8:	f102 0c18 	add.w	ip, r2, #24
 8008cac:	ee73 3ac3 	vsub.f32	s7, s7, s6
 8008cb0:	3708      	adds	r7, #8
 8008cb2:	ee77 7a83 	vadd.f32	s15, s15, s6
 8008cb6:	3308      	adds	r3, #8
 8008cb8:	ee74 4a05 	vadd.f32	s9, s8, s10
 8008cbc:	3408      	adds	r4, #8
 8008cbe:	ee37 7a45 	vsub.f32	s14, s14, s10
 8008cc2:	0849      	lsrs	r1, r1, #1
 8008cc4:	ed80 6a01 	vstr	s12, [r0, #4]
 8008cc8:	9508      	str	r5, [sp, #32]
 8008cca:	edc6 3a00 	vstr	s7, [r6]
 8008cce:	edc6 4a01 	vstr	s9, [r6, #4]
 8008cd2:	9607      	str	r6, [sp, #28]
 8008cd4:	edc8 6a00 	vstr	s13, [r8]
 8008cd8:	edc8 5a01 	vstr	s11, [r8, #4]
 8008cdc:	f8cd c004 	str.w	ip, [sp, #4]
 8008ce0:	9706      	str	r7, [sp, #24]
 8008ce2:	9305      	str	r3, [sp, #20]
 8008ce4:	edc5 7a00 	vstr	s15, [r5]
 8008ce8:	9404      	str	r4, [sp, #16]
 8008cea:	ed85 7a01 	vstr	s14, [r5, #4]
 8008cee:	910b      	str	r1, [sp, #44]	; 0x2c
 8008cf0:	f000 813a 	beq.w	8008f68 <arm_cfft_radix8by4_f32+0x374>
 8008cf4:	4637      	mov	r7, r6
 8008cf6:	f1a6 0c0c 	sub.w	ip, r6, #12
 8008cfa:	462e      	mov	r6, r5
 8008cfc:	f1aa 030c 	sub.w	r3, sl, #12
 8008d00:	f102 0930 	add.w	r9, r2, #48	; 0x30
 8008d04:	f102 0a20 	add.w	sl, r2, #32
 8008d08:	4632      	mov	r2, r6
 8008d0a:	442b      	add	r3, r5
 8008d0c:	f100 0e10 	add.w	lr, r0, #16
 8008d10:	f107 0510 	add.w	r5, r7, #16
 8008d14:	f8dd b000 	ldr.w	fp, [sp]
 8008d18:	f1a8 040c 	sub.w	r4, r8, #12
 8008d1c:	f108 0710 	add.w	r7, r8, #16
 8008d20:	3e0c      	subs	r6, #12
 8008d22:	3210      	adds	r2, #16
 8008d24:	ed17 7a02 	vldr	s14, [r7, #-8]
 8008d28:	3901      	subs	r1, #1
 8008d2a:	ed5e 7a02 	vldr	s15, [lr, #-8]
 8008d2e:	f1ac 0c08 	sub.w	ip, ip, #8
 8008d32:	ed55 6a02 	vldr	s13, [r5, #-8]
 8008d36:	f10e 0e08 	add.w	lr, lr, #8
 8008d3a:	ee77 1a87 	vadd.f32	s3, s15, s14
 8008d3e:	ed52 4a02 	vldr	s9, [r2, #-8]
 8008d42:	ed57 5a01 	vldr	s11, [r7, #-4]
 8008d46:	ee77 7ac7 	vsub.f32	s15, s15, s14
 8008d4a:	ed1e 7a03 	vldr	s14, [lr, #-12]
 8008d4e:	f10b 0b08 	add.w	fp, fp, #8
 8008d52:	ee36 6aa1 	vadd.f32	s12, s13, s3
 8008d56:	ed15 3a01 	vldr	s6, [r5, #-4]
 8008d5a:	ee37 4a25 	vadd.f32	s8, s14, s11
 8008d5e:	ed52 3a01 	vldr	s7, [r2, #-4]
 8008d62:	ee37 7a65 	vsub.f32	s14, s14, s11
 8008d66:	f105 0508 	add.w	r5, r5, #8
 8008d6a:	ee36 6a24 	vadd.f32	s12, s12, s9
 8008d6e:	f1a4 0408 	sub.w	r4, r4, #8
 8008d72:	ee73 2a27 	vadd.f32	s5, s6, s15
 8008d76:	f10a 0a10 	add.w	sl, sl, #16
 8008d7a:	ee77 7ac3 	vsub.f32	s15, s15, s6
 8008d7e:	f107 0708 	add.w	r7, r7, #8
 8008d82:	ed0e 6a04 	vstr	s12, [lr, #-16]
 8008d86:	ee37 5a66 	vsub.f32	s10, s14, s13
 8008d8a:	ed55 5a03 	vldr	s11, [r5, #-12]
 8008d8e:	ee71 1ae6 	vsub.f32	s3, s3, s13
 8008d92:	ed12 6a01 	vldr	s12, [r2, #-4]
 8008d96:	ee36 7a87 	vadd.f32	s14, s13, s14
 8008d9a:	ee74 5a25 	vadd.f32	s11, s8, s11
 8008d9e:	f1a6 0608 	sub.w	r6, r6, #8
 8008da2:	ee34 4a43 	vsub.f32	s8, s8, s6
 8008da6:	f109 0918 	add.w	r9, r9, #24
 8008daa:	ee32 0ae3 	vsub.f32	s0, s5, s7
 8008dae:	f102 0208 	add.w	r2, r2, #8
 8008db2:	ee75 5a86 	vadd.f32	s11, s11, s12
 8008db6:	f1a3 0308 	sub.w	r3, r3, #8
 8008dba:	ee34 6a63 	vsub.f32	s12, s8, s7
 8008dbe:	ee77 3aa3 	vadd.f32	s7, s15, s7
 8008dc2:	ed4e 5a03 	vstr	s11, [lr, #-12]
 8008dc6:	ee35 5a24 	vadd.f32	s10, s10, s9
 8008dca:	ed96 4a04 	vldr	s8, [r6, #16]
 8008dce:	ee71 1ae4 	vsub.f32	s3, s3, s9
 8008dd2:	ed9c 3a04 	vldr	s6, [ip, #16]
 8008dd6:	ee37 7a64 	vsub.f32	s14, s14, s9
 8008dda:	edd4 7a04 	vldr	s15, [r4, #16]
 8008dde:	ee73 6a04 	vadd.f32	s13, s6, s8
 8008de2:	ed93 8a04 	vldr	s16, [r3, #16]
 8008de6:	edd6 5a03 	vldr	s11, [r6, #12]
 8008dea:	ee33 3a44 	vsub.f32	s6, s6, s8
 8008dee:	ed9c 2a03 	vldr	s4, [ip, #12]
 8008df2:	ee77 8ac8 	vsub.f32	s17, s15, s16
 8008df6:	ee77 0aa6 	vadd.f32	s1, s15, s13
 8008dfa:	ed94 1a03 	vldr	s2, [r4, #12]
 8008dfe:	ee32 4a25 	vadd.f32	s8, s4, s11
 8008e02:	edd3 2a03 	vldr	s5, [r3, #12]
 8008e06:	ee76 7ae7 	vsub.f32	s15, s13, s15
 8008e0a:	ee70 0a88 	vadd.f32	s1, s1, s16
 8008e0e:	ee73 4a41 	vsub.f32	s9, s6, s2
 8008e12:	ee32 2a65 	vsub.f32	s4, s4, s11
 8008e16:	edcc 0a04 	vstr	s1, [ip, #16]
 8008e1a:	ee74 0a41 	vsub.f32	s1, s8, s2
 8008e1e:	edd4 6a03 	vldr	s13, [r4, #12]
 8008e22:	ee74 4aa2 	vadd.f32	s9, s9, s5
 8008e26:	ed93 9a03 	vldr	s18, [r3, #12]
 8008e2a:	ee78 5a82 	vadd.f32	s11, s17, s4
 8008e2e:	ee34 4a26 	vadd.f32	s8, s8, s13
 8008e32:	ee70 0ae2 	vsub.f32	s1, s1, s5
 8008e36:	ee72 2ac1 	vsub.f32	s5, s5, s2
 8008e3a:	ee34 4a09 	vadd.f32	s8, s8, s18
 8008e3e:	ee77 7ac8 	vsub.f32	s15, s15, s16
 8008e42:	ee32 3ac3 	vsub.f32	s6, s5, s6
 8008e46:	ed8c 4a03 	vstr	s8, [ip, #12]
 8008e4a:	ee38 2ac2 	vsub.f32	s4, s17, s4
 8008e4e:	ed1b 1a03 	vldr	s2, [fp, #-12]
 8008e52:	ed1b 4a04 	vldr	s8, [fp, #-16]
 8008e56:	ee60 2a01 	vmul.f32	s5, s0, s2
 8008e5a:	ee64 6a81 	vmul.f32	s13, s9, s2
 8008e5e:	ee20 8a04 	vmul.f32	s16, s0, s8
 8008e62:	ee64 4a84 	vmul.f32	s9, s9, s8
 8008e66:	ee25 0a01 	vmul.f32	s0, s10, s2
 8008e6a:	ee25 5a04 	vmul.f32	s10, s10, s8
 8008e6e:	ee25 4a84 	vmul.f32	s8, s11, s8
 8008e72:	ee65 5a81 	vmul.f32	s11, s11, s2
 8008e76:	ee35 5a62 	vsub.f32	s10, s10, s5
 8008e7a:	ee36 4ac4 	vsub.f32	s8, s13, s8
 8008e7e:	ee75 5aa4 	vadd.f32	s11, s11, s9
 8008e82:	ee38 1a00 	vadd.f32	s2, s16, s0
 8008e86:	ed05 5a03 	vstr	s10, [r5, #-12]
 8008e8a:	ed05 1a04 	vstr	s2, [r5, #-16]
 8008e8e:	ed84 4a04 	vstr	s8, [r4, #16]
 8008e92:	edc4 5a03 	vstr	s11, [r4, #12]
 8008e96:	ed1a 5a08 	vldr	s10, [sl, #-32]	; 0xffffffe0
 8008e9a:	ed5a 5a07 	vldr	s11, [sl, #-28]	; 0xffffffe4
 8008e9e:	ee67 4ac5 	vnmul.f32	s9, s15, s10
 8008ea2:	ee66 2a25 	vmul.f32	s5, s12, s11
 8008ea6:	ee67 6aa5 	vmul.f32	s13, s15, s11
 8008eaa:	ee21 4a85 	vmul.f32	s8, s3, s10
 8008eae:	ee60 7a85 	vmul.f32	s15, s1, s10
 8008eb2:	ee61 1aa5 	vmul.f32	s3, s3, s11
 8008eb6:	ee26 6a05 	vmul.f32	s12, s12, s10
 8008eba:	ee60 5aa5 	vmul.f32	s11, s1, s11
 8008ebe:	ee76 6ae7 	vsub.f32	s13, s13, s15
 8008ec2:	ee34 5a22 	vadd.f32	s10, s8, s5
 8008ec6:	ee36 6a61 	vsub.f32	s12, s12, s3
 8008eca:	ee74 5ae5 	vsub.f32	s11, s9, s11
 8008ece:	ed07 5a04 	vstr	s10, [r7, #-16]
 8008ed2:	ed07 6a03 	vstr	s12, [r7, #-12]
 8008ed6:	edc6 5a04 	vstr	s11, [r6, #16]
 8008eda:	edc6 6a03 	vstr	s13, [r6, #12]
 8008ede:	ed59 2a0c 	vldr	s5, [r9, #-48]	; 0xffffffd0
 8008ee2:	ed59 7a0b 	vldr	s15, [r9, #-44]	; 0xffffffd4
 8008ee6:	ee23 6aa2 	vmul.f32	s12, s7, s5
 8008eea:	ee67 5a27 	vmul.f32	s11, s14, s15
 8008eee:	ee63 6a27 	vmul.f32	s13, s6, s15
 8008ef2:	ee63 3aa7 	vmul.f32	s7, s7, s15
 8008ef6:	ee27 7a22 	vmul.f32	s14, s14, s5
 8008efa:	ee62 7a27 	vmul.f32	s15, s4, s15
 8008efe:	ee23 3a22 	vmul.f32	s6, s6, s5
 8008f02:	ee22 2a22 	vmul.f32	s4, s4, s5
 8008f06:	ee36 6a25 	vadd.f32	s12, s12, s11
 8008f0a:	ee37 7a63 	vsub.f32	s14, s14, s7
 8008f0e:	ee36 2ac2 	vsub.f32	s4, s13, s4
 8008f12:	ee77 7a83 	vadd.f32	s15, s15, s6
 8008f16:	ed02 6a04 	vstr	s12, [r2, #-16]
 8008f1a:	ed02 7a03 	vstr	s14, [r2, #-12]
 8008f1e:	ed83 2a04 	vstr	s4, [r3, #16]
 8008f22:	edc3 7a03 	vstr	s15, [r3, #12]
 8008f26:	f47f aefd 	bne.w	8008d24 <arm_cfft_radix8by4_f32+0x130>
 8008f2a:	9a0b      	ldr	r2, [sp, #44]	; 0x2c
 8008f2c:	9903      	ldr	r1, [sp, #12]
 8008f2e:	eb02 0342 	add.w	r3, r2, r2, lsl #1
 8008f32:	eb01 01c2 	add.w	r1, r1, r2, lsl #3
 8008f36:	9103      	str	r1, [sp, #12]
 8008f38:	9902      	ldr	r1, [sp, #8]
 8008f3a:	eb01 01c2 	add.w	r1, r1, r2, lsl #3
 8008f3e:	9102      	str	r1, [sp, #8]
 8008f40:	9906      	ldr	r1, [sp, #24]
 8008f42:	eb01 01c2 	add.w	r1, r1, r2, lsl #3
 8008f46:	9106      	str	r1, [sp, #24]
 8008f48:	9900      	ldr	r1, [sp, #0]
 8008f4a:	eb01 1102 	add.w	r1, r1, r2, lsl #4
 8008f4e:	9100      	str	r1, [sp, #0]
 8008f50:	9905      	ldr	r1, [sp, #20]
 8008f52:	eb01 01c2 	add.w	r1, r1, r2, lsl #3
 8008f56:	9105      	str	r1, [sp, #20]
 8008f58:	9904      	ldr	r1, [sp, #16]
 8008f5a:	eb01 02c2 	add.w	r2, r1, r2, lsl #3
 8008f5e:	9204      	str	r2, [sp, #16]
 8008f60:	9a01      	ldr	r2, [sp, #4]
 8008f62:	eb02 03c3 	add.w	r3, r2, r3, lsl #3
 8008f66:	9301      	str	r3, [sp, #4]
 8008f68:	9c03      	ldr	r4, [sp, #12]
 8008f6a:	2304      	movs	r3, #4
 8008f6c:	9e05      	ldr	r6, [sp, #20]
 8008f6e:	ed94 7a00 	vldr	s14, [r4]
 8008f72:	edd6 7a00 	vldr	s15, [r6]
 8008f76:	9a06      	ldr	r2, [sp, #24]
 8008f78:	ee37 6a27 	vadd.f32	s12, s14, s15
 8008f7c:	9d04      	ldr	r5, [sp, #16]
 8008f7e:	edd2 6a00 	vldr	s13, [r2]
 8008f82:	ee37 7a67 	vsub.f32	s14, s14, s15
 8008f86:	ed95 3a00 	vldr	s6, [r5]
 8008f8a:	ee76 3a86 	vadd.f32	s7, s13, s12
 8008f8e:	ed96 5a01 	vldr	s10, [r6, #4]
 8008f92:	ed94 4a01 	vldr	s8, [r4, #4]
 8008f96:	ee36 6a66 	vsub.f32	s12, s12, s13
 8008f9a:	edd5 2a01 	vldr	s5, [r5, #4]
 8008f9e:	ee73 3a83 	vadd.f32	s7, s7, s6
 8008fa2:	edd2 7a01 	vldr	s15, [r2, #4]
 8008fa6:	ee74 5a05 	vadd.f32	s11, s8, s10
 8008faa:	f8bd 1024 	ldrh.w	r1, [sp, #36]	; 0x24
 8008fae:	ee34 4a45 	vsub.f32	s8, s8, s10
 8008fb2:	edc4 3a00 	vstr	s7, [r4]
 8008fb6:	ee77 4a87 	vadd.f32	s9, s15, s14
 8008fba:	edd2 3a01 	vldr	s7, [r2, #4]
 8008fbe:	ee36 6a43 	vsub.f32	s12, s12, s6
 8008fc2:	ed95 2a01 	vldr	s4, [r5, #4]
 8008fc6:	ee34 5a66 	vsub.f32	s10, s8, s13
 8008fca:	ee75 3aa3 	vadd.f32	s7, s11, s7
 8008fce:	9103      	str	r1, [sp, #12]
 8008fd0:	ee74 4ae2 	vsub.f32	s9, s9, s5
 8008fd4:	ee35 5a03 	vadd.f32	s10, s10, s6
 8008fd8:	ee73 3a82 	vadd.f32	s7, s7, s4
 8008fdc:	ee75 5ae7 	vsub.f32	s11, s11, s15
 8008fe0:	ee77 7a67 	vsub.f32	s15, s14, s15
 8008fe4:	edc4 3a01 	vstr	s7, [r4, #4]
 8008fe8:	ee76 6a84 	vadd.f32	s13, s13, s8
 8008fec:	9c02      	ldr	r4, [sp, #8]
 8008fee:	ee75 5ae2 	vsub.f32	s11, s11, s5
 8008ff2:	ee77 7aa2 	vadd.f32	s15, s15, s5
 8008ff6:	edd4 3a00 	vldr	s7, [r4]
 8008ffa:	ee76 6ac3 	vsub.f32	s13, s13, s6
 8008ffe:	ed94 7a01 	vldr	s14, [r4, #4]
 8009002:	ee24 4aa3 	vmul.f32	s8, s9, s7
 8009006:	ee64 4a87 	vmul.f32	s9, s9, s14
 800900a:	ee25 7a07 	vmul.f32	s14, s10, s14
 800900e:	ee25 5a23 	vmul.f32	s10, s10, s7
 8009012:	ee34 7a07 	vadd.f32	s14, s8, s14
 8009016:	ee35 5a64 	vsub.f32	s10, s10, s9
 800901a:	ed82 7a00 	vstr	s14, [r2]
 800901e:	ed82 5a01 	vstr	s10, [r2, #4]
 8009022:	9a00      	ldr	r2, [sp, #0]
 8009024:	edd2 4a01 	vldr	s9, [r2, #4]
 8009028:	ed92 7a00 	vldr	s14, [r2]
 800902c:	9a01      	ldr	r2, [sp, #4]
 800902e:	ee26 5a07 	vmul.f32	s10, s12, s14
 8009032:	ee26 6a24 	vmul.f32	s12, s12, s9
 8009036:	ee25 7a87 	vmul.f32	s14, s11, s14
 800903a:	ee65 5aa4 	vmul.f32	s11, s11, s9
 800903e:	ee37 6a46 	vsub.f32	s12, s14, s12
 8009042:	ee75 5a25 	vadd.f32	s11, s10, s11
 8009046:	ed86 6a01 	vstr	s12, [r6, #4]
 800904a:	edc6 5a00 	vstr	s11, [r6]
 800904e:	edd2 5a01 	vldr	s11, [r2, #4]
 8009052:	ed92 7a00 	vldr	s14, [r2]
 8009056:	ee27 6a87 	vmul.f32	s12, s15, s14
 800905a:	ee26 7a87 	vmul.f32	s14, s13, s14
 800905e:	ee67 7aa5 	vmul.f32	s15, s15, s11
 8009062:	ee66 6aa5 	vmul.f32	s13, s13, s11
 8009066:	ee77 7a67 	vsub.f32	s15, s14, s15
 800906a:	ee76 6a26 	vadd.f32	s13, s12, s13
 800906e:	edc5 6a00 	vstr	s13, [r5]
 8009072:	edc5 7a01 	vstr	s15, [r5, #4]
 8009076:	9c0a      	ldr	r4, [sp, #40]	; 0x28
 8009078:	6862      	ldr	r2, [r4, #4]
 800907a:	f000 fec3 	bl	8009e04 <arm_radix8_butterfly_f32>
 800907e:	9903      	ldr	r1, [sp, #12]
 8009080:	9807      	ldr	r0, [sp, #28]
 8009082:	2304      	movs	r3, #4
 8009084:	6862      	ldr	r2, [r4, #4]
 8009086:	9100      	str	r1, [sp, #0]
 8009088:	f000 febc 	bl	8009e04 <arm_radix8_butterfly_f32>
 800908c:	4640      	mov	r0, r8
 800908e:	9900      	ldr	r1, [sp, #0]
 8009090:	6862      	ldr	r2, [r4, #4]
 8009092:	2304      	movs	r3, #4
 8009094:	f000 feb6 	bl	8009e04 <arm_radix8_butterfly_f32>
 8009098:	9900      	ldr	r1, [sp, #0]
 800909a:	6862      	ldr	r2, [r4, #4]
 800909c:	2304      	movs	r3, #4
 800909e:	9808      	ldr	r0, [sp, #32]
 80090a0:	b00d      	add	sp, #52	; 0x34
 80090a2:	ecbd 8b04 	vpop	{d8-d9}
 80090a6:	e8bd 4ff0 	ldmia.w	sp!, {r4, r5, r6, r7, r8, r9, sl, fp, lr}
 80090aa:	f000 beab 	b.w	8009e04 <arm_radix8_butterfly_f32>
 80090ae:	bf00      	nop

080090b0 <arm_cfft_f32>:
 80090b0:	2a01      	cmp	r2, #1
 80090b2:	e92d 43f8 	stmdb	sp!, {r3, r4, r5, r6, r7, r8, r9, lr}
 80090b6:	4607      	mov	r7, r0
 80090b8:	4690      	mov	r8, r2
 80090ba:	460c      	mov	r4, r1
 80090bc:	4699      	mov	r9, r3
 80090be:	8805      	ldrh	r5, [r0, #0]
 80090c0:	d05b      	beq.n	800917a <arm_cfft_f32+0xca>
 80090c2:	f5b5 7f80 	cmp.w	r5, #256	; 0x100
 80090c6:	d053      	beq.n	8009170 <arm_cfft_f32+0xc0>
 80090c8:	d810      	bhi.n	80090ec <arm_cfft_f32+0x3c>
 80090ca:	2d40      	cmp	r5, #64	; 0x40
 80090cc:	d015      	beq.n	80090fa <arm_cfft_f32+0x4a>
 80090ce:	d94b      	bls.n	8009168 <arm_cfft_f32+0xb8>
 80090d0:	2d80      	cmp	r5, #128	; 0x80
 80090d2:	d103      	bne.n	80090dc <arm_cfft_f32+0x2c>
 80090d4:	4621      	mov	r1, r4
 80090d6:	4638      	mov	r0, r7
 80090d8:	f7ff fcbe 	bl	8008a58 <arm_cfft_radix8by2_f32>
 80090dc:	f1b9 0f00 	cmp.w	r9, #0
 80090e0:	d114      	bne.n	800910c <arm_cfft_f32+0x5c>
 80090e2:	f1b8 0f01 	cmp.w	r8, #1
 80090e6:	d019      	beq.n	800911c <arm_cfft_f32+0x6c>
 80090e8:	e8bd 83f8 	ldmia.w	sp!, {r3, r4, r5, r6, r7, r8, r9, pc}
 80090ec:	f5b5 6f00 	cmp.w	r5, #2048	; 0x800
 80090f0:	d03e      	beq.n	8009170 <arm_cfft_f32+0xc0>
 80090f2:	d932      	bls.n	800915a <arm_cfft_f32+0xaa>
 80090f4:	f5b5 5f80 	cmp.w	r5, #4096	; 0x1000
 80090f8:	d1f0      	bne.n	80090dc <arm_cfft_f32+0x2c>
 80090fa:	2301      	movs	r3, #1
 80090fc:	687a      	ldr	r2, [r7, #4]
 80090fe:	4629      	mov	r1, r5
 8009100:	4620      	mov	r0, r4
 8009102:	f000 fe7f 	bl	8009e04 <arm_radix8_butterfly_f32>
 8009106:	f1b9 0f00 	cmp.w	r9, #0
 800910a:	d0ea      	beq.n	80090e2 <arm_cfft_f32+0x32>
 800910c:	68ba      	ldr	r2, [r7, #8]
 800910e:	4620      	mov	r0, r4
 8009110:	89b9      	ldrh	r1, [r7, #12]
 8009112:	f000 f843 	bl	800919c <arm_bitreversal_32>
 8009116:	f1b8 0f01 	cmp.w	r8, #1
 800911a:	d1e5      	bne.n	80090e8 <arm_cfft_f32+0x38>
 800911c:	ee07 5a90 	vmov	s15, r5
 8009120:	eeb7 7a00 	vmov.f32	s14, #112	; 0x3f800000  1.0
 8009124:	eef8 7a67 	vcvt.f32.u32	s15, s15
 8009128:	eec7 6a27 	vdiv.f32	s13, s14, s15
 800912c:	2d00      	cmp	r5, #0
 800912e:	d0db      	beq.n	80090e8 <arm_cfft_f32+0x38>
 8009130:	f104 0108 	add.w	r1, r4, #8
 8009134:	2300      	movs	r3, #0
 8009136:	ed11 7a02 	vldr	s14, [r1, #-8]
 800913a:	3301      	adds	r3, #1
 800913c:	ed51 7a01 	vldr	s15, [r1, #-4]
 8009140:	3108      	adds	r1, #8
 8009142:	429d      	cmp	r5, r3
 8009144:	ee27 7a26 	vmul.f32	s14, s14, s13
 8009148:	ee67 7ae6 	vnmul.f32	s15, s15, s13
 800914c:	ed01 7a04 	vstr	s14, [r1, #-16]
 8009150:	ed41 7a03 	vstr	s15, [r1, #-12]
 8009154:	d1ef      	bne.n	8009136 <arm_cfft_f32+0x86>
 8009156:	e8bd 83f8 	ldmia.w	sp!, {r3, r4, r5, r6, r7, r8, r9, pc}
 800915a:	f5b5 7f00 	cmp.w	r5, #512	; 0x200
 800915e:	d0cc      	beq.n	80090fa <arm_cfft_f32+0x4a>
 8009160:	f5b5 6f80 	cmp.w	r5, #1024	; 0x400
 8009164:	d0b6      	beq.n	80090d4 <arm_cfft_f32+0x24>
 8009166:	e7b9      	b.n	80090dc <arm_cfft_f32+0x2c>
 8009168:	2d10      	cmp	r5, #16
 800916a:	d0b3      	beq.n	80090d4 <arm_cfft_f32+0x24>
 800916c:	2d20      	cmp	r5, #32
 800916e:	d1b5      	bne.n	80090dc <arm_cfft_f32+0x2c>
 8009170:	4621      	mov	r1, r4
 8009172:	4638      	mov	r0, r7
 8009174:	f7ff fd3e 	bl	8008bf4 <arm_cfft_radix8by4_f32>
 8009178:	e7b0      	b.n	80090dc <arm_cfft_f32+0x2c>
 800917a:	b165      	cbz	r5, 8009196 <arm_cfft_f32+0xe6>
 800917c:	310c      	adds	r1, #12
 800917e:	2600      	movs	r6, #0
 8009180:	ed51 7a02 	vldr	s15, [r1, #-8]
 8009184:	3601      	adds	r6, #1
 8009186:	3108      	adds	r1, #8
 8009188:	eef1 7a67 	vneg.f32	s15, s15
 800918c:	42b5      	cmp	r5, r6
 800918e:	ed41 7a04 	vstr	s15, [r1, #-16]
 8009192:	d1f5      	bne.n	8009180 <arm_cfft_f32+0xd0>
 8009194:	e795      	b.n	80090c2 <arm_cfft_f32+0x12>
 8009196:	2b00      	cmp	r3, #0
 8009198:	d0a6      	beq.n	80090e8 <arm_cfft_f32+0x38>
 800919a:	e7b7      	b.n	800910c <arm_cfft_f32+0x5c>

0800919c <arm_bitreversal_32>:
 800919c:	b321      	cbz	r1, 80091e8 <arm_bitreversal_32+0x4c>
 800919e:	f102 0c02 	add.w	ip, r2, #2
 80091a2:	e92d 41f0 	stmdb	sp!, {r4, r5, r6, r7, r8, lr}
 80091a6:	4690      	mov	r8, r2
 80091a8:	2500      	movs	r5, #0
 80091aa:	f838 4015 	ldrh.w	r4, [r8, r5, lsl #1]
 80091ae:	f83c 3015 	ldrh.w	r3, [ip, r5, lsl #1]
 80091b2:	3502      	adds	r5, #2
 80091b4:	08a4      	lsrs	r4, r4, #2
 80091b6:	089b      	lsrs	r3, r3, #2
 80091b8:	428d      	cmp	r5, r1
 80091ba:	ea4f 0784 	mov.w	r7, r4, lsl #2
 80091be:	f850 e024 	ldr.w	lr, [r0, r4, lsl #2]
 80091c2:	ea4f 0683 	mov.w	r6, r3, lsl #2
 80091c6:	f850 2023 	ldr.w	r2, [r0, r3, lsl #2]
 80091ca:	f107 0704 	add.w	r7, r7, #4
 80091ce:	f106 0604 	add.w	r6, r6, #4
 80091d2:	f840 2024 	str.w	r2, [r0, r4, lsl #2]
 80091d6:	f840 e023 	str.w	lr, [r0, r3, lsl #2]
 80091da:	59c4      	ldr	r4, [r0, r7]
 80091dc:	5983      	ldr	r3, [r0, r6]
 80091de:	51c3      	str	r3, [r0, r7]
 80091e0:	5184      	str	r4, [r0, r6]
 80091e2:	d3e2      	bcc.n	80091aa <arm_bitreversal_32+0xe>
 80091e4:	e8bd 81f0 	ldmia.w	sp!, {r4, r5, r6, r7, r8, pc}
 80091e8:	4770      	bx	lr
 80091ea:	bf00      	nop

080091ec <arm_fir_interpolate_init_f32>:
 80091ec:	b570      	push	{r4, r5, r6, lr}
 80091ee:	4605      	mov	r5, r0
 80091f0:	9e04      	ldr	r6, [sp, #16]
 80091f2:	fbb2 f0f1 	udiv	r0, r2, r1
 80091f6:	fb01 2410 	mls	r4, r1, r0, r2
 80091fa:	b96c      	cbnz	r4, 8009218 <arm_fir_interpolate_init_f32+0x2c>
 80091fc:	9a05      	ldr	r2, [sp, #20]
 80091fe:	7029      	strb	r1, [r5, #0]
 8009200:	4621      	mov	r1, r4
 8009202:	3a01      	subs	r2, #1
 8009204:	8068      	strh	r0, [r5, #2]
 8009206:	606b      	str	r3, [r5, #4]
 8009208:	4402      	add	r2, r0
 800920a:	4630      	mov	r0, r6
 800920c:	0092      	lsls	r2, r2, #2
 800920e:	f001 f923 	bl	800a458 <memset>
 8009212:	4620      	mov	r0, r4
 8009214:	60ae      	str	r6, [r5, #8]
 8009216:	bd70      	pop	{r4, r5, r6, pc}
 8009218:	f06f 0001 	mvn.w	r0, #1
 800921c:	bd70      	pop	{r4, r5, r6, pc}
 800921e:	bf00      	nop

08009220 <arm_fir_interpolate_f32>:
 8009220:	e92d 4ff0 	stmdb	sp!, {r4, r5, r6, r7, r8, r9, sl, fp, lr}
 8009224:	f06f 4440 	mvn.w	r4, #3221225472	; 0xc0000000
 8009228:	8845      	ldrh	r5, [r0, #2]
 800922a:	b08f      	sub	sp, #60	; 0x3c
 800922c:	6886      	ldr	r6, [r0, #8]
 800922e:	442c      	add	r4, r5
 8009230:	089f      	lsrs	r7, r3, #2
 8009232:	950b      	str	r5, [sp, #44]	; 0x2c
 8009234:	9609      	str	r6, [sp, #36]	; 0x24
 8009236:	9202      	str	r2, [sp, #8]
 8009238:	462a      	mov	r2, r5
 800923a:	4635      	mov	r5, r6
 800923c:	eb06 0684 	add.w	r6, r6, r4, lsl #2
 8009240:	f8d0 b004 	ldr.w	fp, [r0, #4]
 8009244:	930d      	str	r3, [sp, #52]	; 0x34
 8009246:	9107      	str	r1, [sp, #28]
 8009248:	960a      	str	r6, [sp, #40]	; 0x28
 800924a:	970c      	str	r7, [sp, #48]	; 0x30
 800924c:	f000 813a 	beq.w	80094c4 <arm_fir_interpolate_f32+0x2a4>
 8009250:	ea4f 0892 	mov.w	r8, r2, lsr #2
 8009254:	462c      	mov	r4, r5
 8009256:	f105 0c1c 	add.w	ip, r5, #28
 800925a:	f106 0310 	add.w	r3, r6, #16
 800925e:	ea4f 1508 	mov.w	r5, r8, lsl #4
 8009262:	f002 0903 	and.w	r9, r2, #3
 8009266:	f101 0210 	add.w	r2, r1, #16
 800926a:	f8cd b020 	str.w	fp, [sp, #32]
 800926e:	e9cd 3703 	strd	r3, r7, [sp, #12]
 8009272:	f105 030c 	add.w	r3, r5, #12
 8009276:	4693      	mov	fp, r2
 8009278:	4465      	add	r5, ip
 800927a:	18e3      	adds	r3, r4, r3
 800927c:	9301      	str	r3, [sp, #4]
 800927e:	f85b 3c10 	ldr.w	r3, [fp, #-16]
 8009282:	9a03      	ldr	r2, [sp, #12]
 8009284:	f842 3c10 	str.w	r3, [r2, #-16]
 8009288:	f85b 3c0c 	ldr.w	r3, [fp, #-12]
 800928c:	f842 3c0c 	str.w	r3, [r2, #-12]
 8009290:	f85b 3c08 	ldr.w	r3, [fp, #-8]
 8009294:	f842 3c08 	str.w	r3, [r2, #-8]
 8009298:	f85b 3c04 	ldr.w	r3, [fp, #-4]
 800929c:	f842 3c04 	str.w	r3, [r2, #-4]
 80092a0:	f890 a000 	ldrb.w	sl, [r0]
 80092a4:	4653      	mov	r3, sl
 80092a6:	f1ba 0f00 	cmp.w	sl, #0
 80092aa:	f000 80e6 	beq.w	800947a <arm_fir_interpolate_f32+0x25a>
 80092ae:	f1ac 0310 	sub.w	r3, ip, #16
 80092b2:	f8cd b018 	str.w	fp, [sp, #24]
 80092b6:	4657      	mov	r7, sl
 80092b8:	9e02      	ldr	r6, [sp, #8]
 80092ba:	f04f 0e01 	mov.w	lr, #1
 80092be:	f8dd b020 	ldr.w	fp, [sp, #32]
 80092c2:	9305      	str	r3, [sp, #20]
 80092c4:	eba7 040e 	sub.w	r4, r7, lr
 80092c8:	ed5c 3a07 	vldr	s7, [ip, #-28]	; 0xffffffe4
 80092cc:	ed5c 4a06 	vldr	s9, [ip, #-24]	; 0xffffffe8
 80092d0:	eb0b 0484 	add.w	r4, fp, r4, lsl #2
 80092d4:	ed1c 4a05 	vldr	s8, [ip, #-20]	; 0xffffffec
 80092d8:	eddf 5ad1 	vldr	s11, [pc, #836]	; 8009620 <arm_fir_interpolate_f32+0x400>
 80092dc:	f1b8 0f00 	cmp.w	r8, #0
 80092e0:	f000 8196 	beq.w	8009610 <arm_fir_interpolate_f32+0x3f0>
 80092e4:	eeb0 5a65 	vmov.f32	s10, s11
 80092e8:	00b9      	lsls	r1, r7, #2
 80092ea:	eef0 2a65 	vmov.f32	s5, s11
 80092ee:	4662      	mov	r2, ip
 80092f0:	eef0 7a65 	vmov.f32	s15, s11
 80092f4:	4623      	mov	r3, r4
 80092f6:	ed52 0a04 	vldr	s1, [r2, #-16]
 80092fa:	3210      	adds	r2, #16
 80092fc:	ed93 6a00 	vldr	s12, [r3]
 8009300:	440b      	add	r3, r1
 8009302:	ee26 7a23 	vmul.f32	s14, s12, s7
 8009306:	edd3 6a00 	vldr	s13, [r3]
 800930a:	ee26 3a24 	vmul.f32	s6, s12, s9
 800930e:	ed52 3a07 	vldr	s7, [r2, #-28]	; 0xffffffe4
 8009312:	ee26 2a04 	vmul.f32	s4, s12, s8
 8009316:	440b      	add	r3, r1
 8009318:	ee20 6a86 	vmul.f32	s12, s1, s12
 800931c:	ee77 7a27 	vadd.f32	s15, s14, s15
 8009320:	ed93 7a00 	vldr	s14, [r3]
 8009324:	ee26 1aa4 	vmul.f32	s2, s13, s9
 8009328:	ed52 4a06 	vldr	s9, [r2, #-24]	; 0xffffffe8
 800932c:	ee73 2a22 	vadd.f32	s5, s6, s5
 8009330:	440b      	add	r3, r1
 8009332:	ee66 1a84 	vmul.f32	s3, s13, s8
 8009336:	ee32 5a05 	vadd.f32	s10, s4, s10
 800933a:	ed93 3a00 	vldr	s6, [r3]
 800933e:	ee76 5a25 	vadd.f32	s11, s12, s11
 8009342:	440b      	add	r3, r1
 8009344:	ee20 2aa6 	vmul.f32	s4, s1, s13
 8009348:	ee66 6aa3 	vmul.f32	s13, s13, s7
 800934c:	ee71 1aa2 	vadd.f32	s3, s3, s5
 8009350:	ee31 1a27 	vadd.f32	s2, s2, s15
 8009354:	ee76 6aa5 	vadd.f32	s13, s13, s11
 8009358:	ee67 7a04 	vmul.f32	s15, s14, s8
 800935c:	ed12 4a05 	vldr	s8, [r2, #-20]	; 0xffffffec
 8009360:	ee60 2a87 	vmul.f32	s5, s1, s14
 8009364:	4295      	cmp	r5, r2
 8009366:	ee32 2a05 	vadd.f32	s4, s4, s10
 800936a:	ee23 5a87 	vmul.f32	s10, s7, s14
 800936e:	ee27 7a24 	vmul.f32	s14, s14, s9
 8009372:	ee72 2aa1 	vadd.f32	s5, s5, s3
 8009376:	ee77 7a81 	vadd.f32	s15, s15, s2
 800937a:	ee37 7a26 	vadd.f32	s14, s14, s13
 800937e:	ee20 6a83 	vmul.f32	s12, s1, s6
 8009382:	ee63 1a83 	vmul.f32	s3, s7, s6
 8009386:	ee35 5a02 	vadd.f32	s10, s10, s4
 800938a:	ee64 6a83 	vmul.f32	s13, s9, s6
 800938e:	ee63 5a04 	vmul.f32	s11, s6, s8
 8009392:	ee76 7a27 	vadd.f32	s15, s12, s15
 8009396:	ee71 2aa2 	vadd.f32	s5, s3, s5
 800939a:	ee36 5a85 	vadd.f32	s10, s13, s10
 800939e:	ee75 5a87 	vadd.f32	s11, s11, s14
 80093a2:	d1a8      	bne.n	80092f6 <arm_fir_interpolate_f32+0xd6>
 80093a4:	fb08 f207 	mul.w	r2, r8, r7
 80093a8:	9b01      	ldr	r3, [sp, #4]
 80093aa:	eb04 1402 	add.w	r4, r4, r2, lsl #4
 80093ae:	f1b9 0f00 	cmp.w	r9, #0
 80093b2:	d021      	beq.n	80093f8 <arm_fir_interpolate_f32+0x1d8>
 80093b4:	2f01      	cmp	r7, #1
 80093b6:	ea4f 0287 	mov.w	r2, r7, lsl #2
 80093ba:	4649      	mov	r1, r9
 80093bc:	d138      	bne.n	8009430 <arm_fir_interpolate_f32+0x210>
 80093be:	ed94 7a00 	vldr	s14, [r4]
 80093c2:	3901      	subs	r1, #1
 80093c4:	ecf3 6a01 	vldmia	r3!, {s13}
 80093c8:	4414      	add	r4, r2
 80093ca:	ee27 2a23 	vmul.f32	s4, s14, s7
 80093ce:	ee27 3a24 	vmul.f32	s6, s14, s9
 80093d2:	ee24 6a07 	vmul.f32	s12, s8, s14
 80093d6:	ee27 7a26 	vmul.f32	s14, s14, s13
 80093da:	eef0 3a64 	vmov.f32	s7, s9
 80093de:	ee77 7a82 	vadd.f32	s15, s15, s4
 80093e2:	eef0 4a44 	vmov.f32	s9, s8
 80093e6:	ee72 2a83 	vadd.f32	s5, s5, s6
 80093ea:	eeb0 4a66 	vmov.f32	s8, s13
 80093ee:	ee35 5a06 	vadd.f32	s10, s10, s12
 80093f2:	ee75 5a87 	vadd.f32	s11, s11, s14
 80093f6:	d1e2      	bne.n	80093be <arm_fir_interpolate_f32+0x19e>
 80093f8:	edc6 7a00 	vstr	s15, [r6]
 80093fc:	45f2      	cmp	sl, lr
 80093fe:	7803      	ldrb	r3, [r0, #0]
 8009400:	f10e 0201 	add.w	r2, lr, #1
 8009404:	eb06 0383 	add.w	r3, r6, r3, lsl #2
 8009408:	edc3 2a00 	vstr	s5, [r3]
 800940c:	7803      	ldrb	r3, [r0, #0]
 800940e:	eb06 03c3 	add.w	r3, r6, r3, lsl #3
 8009412:	ed83 5a00 	vstr	s10, [r3]
 8009416:	7803      	ldrb	r3, [r0, #0]
 8009418:	eb03 0343 	add.w	r3, r3, r3, lsl #1
 800941c:	eb06 0383 	add.w	r3, r6, r3, lsl #2
 8009420:	f106 0604 	add.w	r6, r6, #4
 8009424:	edc3 5a00 	vstr	s11, [r3]
 8009428:	d020      	beq.n	800946c <arm_fir_interpolate_f32+0x24c>
 800942a:	4696      	mov	lr, r2
 800942c:	7807      	ldrb	r7, [r0, #0]
 800942e:	e749      	b.n	80092c4 <arm_fir_interpolate_f32+0xa4>
 8009430:	edd4 6a00 	vldr	s13, [r4]
 8009434:	3901      	subs	r1, #1
 8009436:	ecb3 7a01 	vldmia	r3!, {s14}
 800943a:	4414      	add	r4, r2
 800943c:	ee26 2aa3 	vmul.f32	s4, s13, s7
 8009440:	ee26 3aa4 	vmul.f32	s6, s13, s9
 8009444:	ee24 6a26 	vmul.f32	s12, s8, s13
 8009448:	eef0 3a64 	vmov.f32	s7, s9
 800944c:	eef0 4a44 	vmov.f32	s9, s8
 8009450:	eeb0 4a47 	vmov.f32	s8, s14
 8009454:	ee27 7a26 	vmul.f32	s14, s14, s13
 8009458:	ee77 7a82 	vadd.f32	s15, s15, s4
 800945c:	ee72 2a83 	vadd.f32	s5, s5, s6
 8009460:	ee35 5a06 	vadd.f32	s10, s10, s12
 8009464:	ee75 5a87 	vadd.f32	s11, s11, s14
 8009468:	d1e2      	bne.n	8009430 <arm_fir_interpolate_f32+0x210>
 800946a:	e7c5      	b.n	80093f8 <arm_fir_interpolate_f32+0x1d8>
 800946c:	9b02      	ldr	r3, [sp, #8]
 800946e:	f8dd b018 	ldr.w	fp, [sp, #24]
 8009472:	eb03 038a 	add.w	r3, r3, sl, lsl #2
 8009476:	9302      	str	r3, [sp, #8]
 8009478:	7803      	ldrb	r3, [r0, #0]
 800947a:	9a03      	ldr	r2, [sp, #12]
 800947c:	eb03 0343 	add.w	r3, r3, r3, lsl #1
 8009480:	f10b 0b10 	add.w	fp, fp, #16
 8009484:	f10c 0c10 	add.w	ip, ip, #16
 8009488:	3210      	adds	r2, #16
 800948a:	3510      	adds	r5, #16
 800948c:	9203      	str	r2, [sp, #12]
 800948e:	9a01      	ldr	r2, [sp, #4]
 8009490:	3210      	adds	r2, #16
 8009492:	9201      	str	r2, [sp, #4]
 8009494:	9a02      	ldr	r2, [sp, #8]
 8009496:	eb02 0383 	add.w	r3, r2, r3, lsl #2
 800949a:	9302      	str	r3, [sp, #8]
 800949c:	9b04      	ldr	r3, [sp, #16]
 800949e:	3b01      	subs	r3, #1
 80094a0:	9304      	str	r3, [sp, #16]
 80094a2:	f47f aeec 	bne.w	800927e <arm_fir_interpolate_f32+0x5e>
 80094a6:	e9dd 3b07 	ldrd	r3, fp, [sp, #28]
 80094aa:	4619      	mov	r1, r3
 80094ac:	9b0c      	ldr	r3, [sp, #48]	; 0x30
 80094ae:	eb01 1203 	add.w	r2, r1, r3, lsl #4
 80094b2:	9207      	str	r2, [sp, #28]
 80094b4:	9a0a      	ldr	r2, [sp, #40]	; 0x28
 80094b6:	eb02 1203 	add.w	r2, r2, r3, lsl #4
 80094ba:	920a      	str	r2, [sp, #40]	; 0x28
 80094bc:	9a09      	ldr	r2, [sp, #36]	; 0x24
 80094be:	eb02 1303 	add.w	r3, r2, r3, lsl #4
 80094c2:	9309      	str	r3, [sp, #36]	; 0x24
 80094c4:	9b0d      	ldr	r3, [sp, #52]	; 0x34
 80094c6:	f013 0303 	ands.w	r3, r3, #3
 80094ca:	f000 80c1 	beq.w	8009650 <arm_fir_interpolate_f32+0x430>
 80094ce:	990b      	ldr	r1, [sp, #44]	; 0x2c
 80094d0:	9c0a      	ldr	r4, [sp, #40]	; 0x28
 80094d2:	088a      	lsrs	r2, r1, #2
 80094d4:	f001 0a03 	and.w	sl, r1, #3
 80094d8:	9909      	ldr	r1, [sp, #36]	; 0x24
 80094da:	9406      	str	r4, [sp, #24]
 80094dc:	4691      	mov	r9, r2
 80094de:	eb01 1c02 	add.w	ip, r1, r2, lsl #4
 80094e2:	460c      	mov	r4, r1
 80094e4:	0099      	lsls	r1, r3, #2
 80094e6:	f8cd b014 	str.w	fp, [sp, #20]
 80094ea:	3410      	adds	r4, #16
 80094ec:	f8cd c00c 	str.w	ip, [sp, #12]
 80094f0:	910c      	str	r1, [sp, #48]	; 0x30
 80094f2:	f10c 0c10 	add.w	ip, ip, #16
 80094f6:	9907      	ldr	r1, [sp, #28]
 80094f8:	9401      	str	r4, [sp, #4]
 80094fa:	eb01 0383 	add.w	r3, r1, r3, lsl #2
 80094fe:	9004      	str	r0, [sp, #16]
 8009500:	930a      	str	r3, [sp, #40]	; 0x28
 8009502:	9a07      	ldr	r2, [sp, #28]
 8009504:	f852 3b04 	ldr.w	r3, [r2], #4
 8009508:	9207      	str	r2, [sp, #28]
 800950a:	9a01      	ldr	r2, [sp, #4]
 800950c:	3a10      	subs	r2, #16
 800950e:	9208      	str	r2, [sp, #32]
 8009510:	9a06      	ldr	r2, [sp, #24]
 8009512:	f842 3b04 	str.w	r3, [r2], #4
 8009516:	9b04      	ldr	r3, [sp, #16]
 8009518:	9206      	str	r2, [sp, #24]
 800951a:	f893 b000 	ldrb.w	fp, [r3]
 800951e:	f1bb 0f00 	cmp.w	fp, #0
 8009522:	f000 8083 	beq.w	800962c <arm_fir_interpolate_f32+0x40c>
 8009526:	465f      	mov	r7, fp
 8009528:	f04f 0e01 	mov.w	lr, #1
 800952c:	9b05      	ldr	r3, [sp, #20]
 800952e:	eba7 000e 	sub.w	r0, r7, lr
 8009532:	f8dd 8008 	ldr.w	r8, [sp, #8]
 8009536:	eb03 0080 	add.w	r0, r3, r0, lsl #2
 800953a:	f1b9 0f00 	cmp.w	r9, #0
 800953e:	d057      	beq.n	80095f0 <arm_fir_interpolate_f32+0x3d0>
 8009540:	00bc      	lsls	r4, r7, #2
 8009542:	9b01      	ldr	r3, [sp, #4]
 8009544:	013d      	lsls	r5, r7, #4
 8009546:	4601      	mov	r1, r0
 8009548:	eb00 02c7 	add.w	r2, r0, r7, lsl #3
 800954c:	eddf 7a34 	vldr	s15, [pc, #208]	; 8009620 <arm_fir_interpolate_f32+0x400>
 8009550:	ed13 7a04 	vldr	s14, [r3, #-16]
 8009554:	190e      	adds	r6, r1, r4
 8009556:	edd1 6a00 	vldr	s13, [r1]
 800955a:	3310      	adds	r3, #16
 800955c:	ed53 5a07 	vldr	s11, [r3, #-28]	; 0xffffffe4
 8009560:	4429      	add	r1, r5
 8009562:	ee27 7a26 	vmul.f32	s14, s14, s13
 8009566:	ed96 6a00 	vldr	s12, [r6]
 800956a:	ed53 6a06 	vldr	s13, [r3, #-24]	; 0xffffffe8
 800956e:	1916      	adds	r6, r2, r4
 8009570:	ee26 6a25 	vmul.f32	s12, s12, s11
 8009574:	ed92 5a00 	vldr	s10, [r2]
 8009578:	ee77 7a27 	vadd.f32	s15, s14, s15
 800957c:	edd6 5a00 	vldr	s11, [r6]
 8009580:	ee26 7a85 	vmul.f32	s14, s13, s10
 8009584:	ed53 6a05 	vldr	s13, [r3, #-20]	; 0xffffffec
 8009588:	459c      	cmp	ip, r3
 800958a:	442a      	add	r2, r5
 800958c:	ee76 7a27 	vadd.f32	s15, s12, s15
 8009590:	ee65 6aa6 	vmul.f32	s13, s11, s13
 8009594:	ee77 7a27 	vadd.f32	s15, s14, s15
 8009598:	ee76 7aa7 	vadd.f32	s15, s13, s15
 800959c:	d1d8      	bne.n	8009550 <arm_fir_interpolate_f32+0x330>
 800959e:	fb09 f404 	mul.w	r4, r9, r4
 80095a2:	9b03      	ldr	r3, [sp, #12]
 80095a4:	eb00 0084 	add.w	r0, r0, r4, lsl #2
 80095a8:	f1ba 0f00 	cmp.w	sl, #0
 80095ac:	d00f      	beq.n	80095ce <arm_fir_interpolate_f32+0x3ae>
 80095ae:	2f01      	cmp	r7, #1
 80095b0:	ea4f 0287 	mov.w	r2, r7, lsl #2
 80095b4:	4651      	mov	r1, sl
 80095b6:	d11f      	bne.n	80095f8 <arm_fir_interpolate_f32+0x3d8>
 80095b8:	ed90 7a00 	vldr	s14, [r0]
 80095bc:	3901      	subs	r1, #1
 80095be:	ecf3 6a01 	vldmia	r3!, {s13}
 80095c2:	4410      	add	r0, r2
 80095c4:	ee27 7a26 	vmul.f32	s14, s14, s13
 80095c8:	ee77 7a87 	vadd.f32	s15, s15, s14
 80095cc:	d1f4      	bne.n	80095b8 <arm_fir_interpolate_f32+0x398>
 80095ce:	45f3      	cmp	fp, lr
 80095d0:	f10e 0301 	add.w	r3, lr, #1
 80095d4:	ece8 7a01 	vstmia	r8!, {s15}
 80095d8:	d024      	beq.n	8009624 <arm_fir_interpolate_f32+0x404>
 80095da:	469e      	mov	lr, r3
 80095dc:	9b04      	ldr	r3, [sp, #16]
 80095de:	781f      	ldrb	r7, [r3, #0]
 80095e0:	9b05      	ldr	r3, [sp, #20]
 80095e2:	eba7 000e 	sub.w	r0, r7, lr
 80095e6:	eb03 0080 	add.w	r0, r3, r0, lsl #2
 80095ea:	f1b9 0f00 	cmp.w	r9, #0
 80095ee:	d1a7      	bne.n	8009540 <arm_fir_interpolate_f32+0x320>
 80095f0:	9b08      	ldr	r3, [sp, #32]
 80095f2:	eddf 7a0b 	vldr	s15, [pc, #44]	; 8009620 <arm_fir_interpolate_f32+0x400>
 80095f6:	e7d7      	b.n	80095a8 <arm_fir_interpolate_f32+0x388>
 80095f8:	edd0 6a00 	vldr	s13, [r0]
 80095fc:	3901      	subs	r1, #1
 80095fe:	ecb3 7a01 	vldmia	r3!, {s14}
 8009602:	4410      	add	r0, r2
 8009604:	ee27 7a26 	vmul.f32	s14, s14, s13
 8009608:	ee77 7a87 	vadd.f32	s15, s15, s14
 800960c:	d1f4      	bne.n	80095f8 <arm_fir_interpolate_f32+0x3d8>
 800960e:	e7de      	b.n	80095ce <arm_fir_interpolate_f32+0x3ae>
 8009610:	eeb0 5a65 	vmov.f32	s10, s11
 8009614:	9b05      	ldr	r3, [sp, #20]
 8009616:	eef0 2a65 	vmov.f32	s5, s11
 800961a:	eef0 7a65 	vmov.f32	s15, s11
 800961e:	e6c6      	b.n	80093ae <arm_fir_interpolate_f32+0x18e>
 8009620:	00000000 	.word	0x00000000
 8009624:	9b02      	ldr	r3, [sp, #8]
 8009626:	eb03 038b 	add.w	r3, r3, fp, lsl #2
 800962a:	9302      	str	r3, [sp, #8]
 800962c:	9b03      	ldr	r3, [sp, #12]
 800962e:	f10c 0c04 	add.w	ip, ip, #4
 8009632:	9a0a      	ldr	r2, [sp, #40]	; 0x28
 8009634:	3304      	adds	r3, #4
 8009636:	9303      	str	r3, [sp, #12]
 8009638:	9b01      	ldr	r3, [sp, #4]
 800963a:	3304      	adds	r3, #4
 800963c:	9301      	str	r3, [sp, #4]
 800963e:	9b07      	ldr	r3, [sp, #28]
 8009640:	4293      	cmp	r3, r2
 8009642:	f47f af5e 	bne.w	8009502 <arm_fir_interpolate_f32+0x2e2>
 8009646:	9b09      	ldr	r3, [sp, #36]	; 0x24
 8009648:	9a0c      	ldr	r2, [sp, #48]	; 0x30
 800964a:	9804      	ldr	r0, [sp, #16]
 800964c:	4413      	add	r3, r2
 800964e:	9309      	str	r3, [sp, #36]	; 0x24
 8009650:	9b0b      	ldr	r3, [sp, #44]	; 0x2c
 8009652:	6885      	ldr	r5, [r0, #8]
 8009654:	1e5c      	subs	r4, r3, #1
 8009656:	08a6      	lsrs	r6, r4, #2
 8009658:	d021      	beq.n	800969e <arm_fir_interpolate_f32+0x47e>
 800965a:	9b09      	ldr	r3, [sp, #36]	; 0x24
 800965c:	4631      	mov	r1, r6
 800965e:	f103 0210 	add.w	r2, r3, #16
 8009662:	f105 0310 	add.w	r3, r5, #16
 8009666:	f852 0c10 	ldr.w	r0, [r2, #-16]
 800966a:	3901      	subs	r1, #1
 800966c:	f102 0210 	add.w	r2, r2, #16
 8009670:	f103 0310 	add.w	r3, r3, #16
 8009674:	f843 0c20 	str.w	r0, [r3, #-32]
 8009678:	f852 0c1c 	ldr.w	r0, [r2, #-28]
 800967c:	f843 0c1c 	str.w	r0, [r3, #-28]
 8009680:	f852 0c18 	ldr.w	r0, [r2, #-24]
 8009684:	f843 0c18 	str.w	r0, [r3, #-24]
 8009688:	f852 0c14 	ldr.w	r0, [r2, #-20]
 800968c:	f843 0c14 	str.w	r0, [r3, #-20]
 8009690:	d1e9      	bne.n	8009666 <arm_fir_interpolate_f32+0x446>
 8009692:	9b09      	ldr	r3, [sp, #36]	; 0x24
 8009694:	eb05 1506 	add.w	r5, r5, r6, lsl #4
 8009698:	eb03 1306 	add.w	r3, r3, r6, lsl #4
 800969c:	9309      	str	r3, [sp, #36]	; 0x24
 800969e:	f014 0403 	ands.w	r4, r4, #3
 80096a2:	d00a      	beq.n	80096ba <arm_fir_interpolate_f32+0x49a>
 80096a4:	9a09      	ldr	r2, [sp, #36]	; 0x24
 80096a6:	3c01      	subs	r4, #1
 80096a8:	6813      	ldr	r3, [r2, #0]
 80096aa:	602b      	str	r3, [r5, #0]
 80096ac:	d005      	beq.n	80096ba <arm_fir_interpolate_f32+0x49a>
 80096ae:	6853      	ldr	r3, [r2, #4]
 80096b0:	2c01      	cmp	r4, #1
 80096b2:	606b      	str	r3, [r5, #4]
 80096b4:	d001      	beq.n	80096ba <arm_fir_interpolate_f32+0x49a>
 80096b6:	6893      	ldr	r3, [r2, #8]
 80096b8:	60ab      	str	r3, [r5, #8]
 80096ba:	b00f      	add	sp, #60	; 0x3c
 80096bc:	e8bd 8ff0 	ldmia.w	sp!, {r4, r5, r6, r7, r8, r9, sl, fp, pc}

080096c0 <arm_fir_decimate_init_f32>:
 80096c0:	e92d 41f0 	stmdb	sp!, {r4, r5, r6, r7, r8, lr}
 80096c4:	e9dd 8706 	ldrd	r8, r7, [sp, #24]
 80096c8:	fbb7 f4f2 	udiv	r4, r7, r2
 80096cc:	fb02 7414 	mls	r4, r2, r4, r7
 80096d0:	b984      	cbnz	r4, 80096f4 <arm_fir_decimate_init_f32+0x34>
 80096d2:	4616      	mov	r6, r2
 80096d4:	1e4a      	subs	r2, r1, #1
 80096d6:	4605      	mov	r5, r0
 80096d8:	8041      	strh	r1, [r0, #2]
 80096da:	443a      	add	r2, r7
 80096dc:	6043      	str	r3, [r0, #4]
 80096de:	4621      	mov	r1, r4
 80096e0:	4640      	mov	r0, r8
 80096e2:	0092      	lsls	r2, r2, #2
 80096e4:	f000 feb8 	bl	800a458 <memset>
 80096e8:	4620      	mov	r0, r4
 80096ea:	f8c5 8008 	str.w	r8, [r5, #8]
 80096ee:	702e      	strb	r6, [r5, #0]
 80096f0:	e8bd 81f0 	ldmia.w	sp!, {r4, r5, r6, r7, r8, pc}
 80096f4:	f06f 0001 	mvn.w	r0, #1
 80096f8:	e7fa      	b.n	80096f0 <arm_fir_decimate_init_f32+0x30>
 80096fa:	bf00      	nop

080096fc <arm_fir_decimate_f32>:
 80096fc:	e92d 4ff0 	stmdb	sp!, {r4, r5, r6, r7, r8, r9, sl, fp, lr}
 8009700:	b08d      	sub	sp, #52	; 0x34
 8009702:	4605      	mov	r5, r0
 8009704:	f06f 4440 	mvn.w	r4, #3221225472	; 0xc0000000
 8009708:	9000      	str	r0, [sp, #0]
 800970a:	7800      	ldrb	r0, [r0, #0]
 800970c:	886e      	ldrh	r6, [r5, #2]
 800970e:	68af      	ldr	r7, [r5, #8]
 8009710:	4434      	add	r4, r6
 8009712:	686d      	ldr	r5, [r5, #4]
 8009714:	9207      	str	r2, [sp, #28]
 8009716:	eb07 0b84 	add.w	fp, r7, r4, lsl #2
 800971a:	960a      	str	r6, [sp, #40]	; 0x28
 800971c:	9508      	str	r5, [sp, #32]
 800971e:	fbb3 f3f0 	udiv	r3, r3, r0
 8009722:	930b      	str	r3, [sp, #44]	; 0x2c
 8009724:	089b      	lsrs	r3, r3, #2
 8009726:	9309      	str	r3, [sp, #36]	; 0x24
 8009728:	f000 80ed 	beq.w	8009906 <arm_fir_decimate_f32+0x20a>
 800972c:	08b3      	lsrs	r3, r6, #2
 800972e:	462c      	mov	r4, r5
 8009730:	3510      	adds	r5, #16
 8009732:	f006 0603 	and.w	r6, r6, #3
 8009736:	f102 0810 	add.w	r8, r2, #16
 800973a:	ea4f 1a03 	mov.w	sl, r3, lsl #4
 800973e:	9a09      	ldr	r2, [sp, #36]	; 0x24
 8009740:	eb05 1e03 	add.w	lr, r5, r3, lsl #4
 8009744:	9305      	str	r3, [sp, #20]
 8009746:	eb04 1303 	add.w	r3, r4, r3, lsl #4
 800974a:	9503      	str	r5, [sp, #12]
 800974c:	9604      	str	r6, [sp, #16]
 800974e:	9201      	str	r2, [sp, #4]
 8009750:	9306      	str	r3, [sp, #24]
 8009752:	0080      	lsls	r0, r0, #2
 8009754:	465c      	mov	r4, fp
 8009756:	460a      	mov	r2, r1
 8009758:	4603      	mov	r3, r0
 800975a:	f852 5b04 	ldr.w	r5, [r2], #4
 800975e:	3b01      	subs	r3, #1
 8009760:	f844 5b04 	str.w	r5, [r4], #4
 8009764:	d1f9      	bne.n	800975a <arm_fir_decimate_f32+0x5e>
 8009766:	9b00      	ldr	r3, [sp, #0]
 8009768:	eb01 0180 	add.w	r1, r1, r0, lsl #2
 800976c:	eb0b 0b80 	add.w	fp, fp, r0, lsl #2
 8009770:	eddf 0abe 	vldr	s1, [pc, #760]	; 8009a6c <arm_fir_decimate_f32+0x370>
 8009774:	781e      	ldrb	r6, [r3, #0]
 8009776:	00b3      	lsls	r3, r6, #2
 8009778:	eb07 0cc6 	add.w	ip, r7, r6, lsl #3
 800977c:	9302      	str	r3, [sp, #8]
 800977e:	9b05      	ldr	r3, [sp, #20]
 8009780:	eb0c 0986 	add.w	r9, ip, r6, lsl #2
 8009784:	eb07 0686 	add.w	r6, r7, r6, lsl #2
 8009788:	2b00      	cmp	r3, #0
 800978a:	f000 8161 	beq.w	8009a50 <arm_fir_decimate_f32+0x354>
 800978e:	eef0 4a60 	vmov.f32	s9, s1
 8009792:	9b03      	ldr	r3, [sp, #12]
 8009794:	eef0 7a60 	vmov.f32	s15, s1
 8009798:	f107 0510 	add.w	r5, r7, #16
 800979c:	eeb0 7a60 	vmov.f32	s14, s1
 80097a0:	f106 0410 	add.w	r4, r6, #16
 80097a4:	f10c 0010 	add.w	r0, ip, #16
 80097a8:	f109 0210 	add.w	r2, r9, #16
 80097ac:	ed53 5a04 	vldr	s11, [r3, #-16]
 80097b0:	3310      	adds	r3, #16
 80097b2:	ed12 5a04 	vldr	s10, [r2, #-16]
 80097b6:	3510      	adds	r5, #16
 80097b8:	ed14 1a04 	vldr	s2, [r4, #-16]
 80097bc:	3010      	adds	r0, #16
 80097be:	ed55 6a08 	vldr	s13, [r5, #-32]	; 0xffffffe0
 80097c2:	3410      	adds	r4, #16
 80097c4:	ed50 3a08 	vldr	s7, [r0, #-32]	; 0xffffffe0
 80097c8:	ee25 1a81 	vmul.f32	s2, s11, s2
 80097cc:	ee65 6aa6 	vmul.f32	s13, s11, s13
 80097d0:	ed13 6a07 	vldr	s12, [r3, #-28]	; 0xffffffe4
 80097d4:	ee65 3aa3 	vmul.f32	s7, s11, s7
 80097d8:	ed54 2a07 	vldr	s5, [r4, #-28]	; 0xffffffe4
 80097dc:	ee65 5a85 	vmul.f32	s11, s11, s10
 80097e0:	ed15 2a07 	vldr	s4, [r5, #-28]	; 0xffffffe4
 80097e4:	ed12 5a03 	vldr	s10, [r2, #-12]
 80097e8:	ee36 7a87 	vadd.f32	s14, s13, s14
 80097ec:	ed10 3a07 	vldr	s6, [r0, #-28]	; 0xffffffe4
 80097f0:	ee73 1aa4 	vadd.f32	s3, s7, s9
 80097f4:	ee26 2a02 	vmul.f32	s4, s12, s4
 80097f8:	ed53 6a06 	vldr	s13, [r3, #-24]	; 0xffffffe8
 80097fc:	ee31 1a27 	vadd.f32	s2, s2, s15
 8009800:	ed55 3a06 	vldr	s7, [r5, #-24]	; 0xffffffe8
 8009804:	ee66 7a22 	vmul.f32	s15, s12, s5
 8009808:	ed14 4a06 	vldr	s8, [r4, #-24]	; 0xffffffe8
 800980c:	ee26 3a03 	vmul.f32	s6, s12, s6
 8009810:	ed50 4a06 	vldr	s9, [r0, #-24]	; 0xffffffe8
 8009814:	ee75 5aa0 	vadd.f32	s11, s11, s1
 8009818:	ed52 0a02 	vldr	s1, [r2, #-8]
 800981c:	ee26 6a05 	vmul.f32	s12, s12, s10
 8009820:	ed13 5a05 	vldr	s10, [r3, #-20]	; 0xffffffec
 8009824:	ee72 2a07 	vadd.f32	s5, s4, s14
 8009828:	ed15 7a05 	vldr	s14, [r5, #-20]	; 0xffffffec
 800982c:	ee77 7a81 	vadd.f32	s15, s15, s2
 8009830:	ed10 2a05 	vldr	s4, [r0, #-20]	; 0xffffffec
 8009834:	ee33 3a21 	vadd.f32	s6, s6, s3
 8009838:	ed14 1a05 	vldr	s2, [r4, #-20]	; 0xffffffec
 800983c:	ee66 3aa3 	vmul.f32	s7, s13, s7
 8009840:	ed52 1a01 	vldr	s3, [r2, #-4]
 8009844:	ee26 4a84 	vmul.f32	s8, s13, s8
 8009848:	459e      	cmp	lr, r3
 800984a:	ee66 4aa4 	vmul.f32	s9, s13, s9
 800984e:	f102 0210 	add.w	r2, r2, #16
 8009852:	ee66 6aa0 	vmul.f32	s13, s13, s1
 8009856:	ee36 6a25 	vadd.f32	s12, s12, s11
 800985a:	ee25 7a07 	vmul.f32	s14, s10, s14
 800985e:	ee34 4a27 	vadd.f32	s8, s8, s15
 8009862:	ee74 4a83 	vadd.f32	s9, s9, s6
 8009866:	ee65 7a01 	vmul.f32	s15, s10, s2
 800986a:	ee25 3a02 	vmul.f32	s6, s10, s4
 800986e:	ee73 3aa2 	vadd.f32	s7, s7, s5
 8009872:	ee76 6a86 	vadd.f32	s13, s13, s12
 8009876:	ee25 5a21 	vmul.f32	s10, s10, s3
 800987a:	ee37 7a23 	vadd.f32	s14, s14, s7
 800987e:	ee77 7a84 	vadd.f32	s15, s15, s8
 8009882:	ee73 4a24 	vadd.f32	s9, s6, s9
 8009886:	ee75 0a26 	vadd.f32	s1, s10, s13
 800988a:	d18f      	bne.n	80097ac <arm_fir_decimate_f32+0xb0>
 800988c:	4457      	add	r7, sl
 800988e:	4456      	add	r6, sl
 8009890:	44d4      	add	ip, sl
 8009892:	eb09 000a 	add.w	r0, r9, sl
 8009896:	9a06      	ldr	r2, [sp, #24]
 8009898:	9b04      	ldr	r3, [sp, #16]
 800989a:	b1db      	cbz	r3, 80098d4 <arm_fir_decimate_f32+0x1d8>
 800989c:	ecb2 5a01 	vldmia	r2!, {s10}
 80098a0:	3b01      	subs	r3, #1
 80098a2:	ecf7 2a01 	vldmia	r7!, {s5}
 80098a6:	ecf6 3a01 	vldmia	r6!, {s7}
 80098aa:	ecbc 4a01 	vldmia	ip!, {s8}
 80098ae:	ee65 2a22 	vmul.f32	s5, s10, s5
 80098b2:	ecf0 6a01 	vldmia	r0!, {s13}
 80098b6:	ee65 3a23 	vmul.f32	s7, s10, s7
 80098ba:	ee25 4a04 	vmul.f32	s8, s10, s8
 80098be:	ee25 5a26 	vmul.f32	s10, s10, s13
 80098c2:	ee37 7a22 	vadd.f32	s14, s14, s5
 80098c6:	ee77 7aa3 	vadd.f32	s15, s15, s7
 80098ca:	ee74 4a84 	vadd.f32	s9, s9, s8
 80098ce:	ee70 0a85 	vadd.f32	s1, s1, s10
 80098d2:	d1e3      	bne.n	800989c <arm_fir_decimate_f32+0x1a0>
 80098d4:	9b02      	ldr	r3, [sp, #8]
 80098d6:	f108 0810 	add.w	r8, r8, #16
 80098da:	ed08 7a08 	vstr	s14, [r8, #-32]	; 0xffffffe0
 80098de:	444b      	add	r3, r9
 80098e0:	ed48 7a07 	vstr	s15, [r8, #-28]	; 0xffffffe4
 80098e4:	ed48 4a06 	vstr	s9, [r8, #-24]	; 0xffffffe8
 80098e8:	461f      	mov	r7, r3
 80098ea:	9b01      	ldr	r3, [sp, #4]
 80098ec:	ed48 0a05 	vstr	s1, [r8, #-20]	; 0xffffffec
 80098f0:	3b01      	subs	r3, #1
 80098f2:	9301      	str	r3, [sp, #4]
 80098f4:	d002      	beq.n	80098fc <arm_fir_decimate_f32+0x200>
 80098f6:	9b00      	ldr	r3, [sp, #0]
 80098f8:	7818      	ldrb	r0, [r3, #0]
 80098fa:	e72a      	b.n	8009752 <arm_fir_decimate_f32+0x56>
 80098fc:	9b07      	ldr	r3, [sp, #28]
 80098fe:	9a09      	ldr	r2, [sp, #36]	; 0x24
 8009900:	eb03 1302 	add.w	r3, r3, r2, lsl #4
 8009904:	9307      	str	r3, [sp, #28]
 8009906:	9b0b      	ldr	r3, [sp, #44]	; 0x2c
 8009908:	f013 0603 	ands.w	r6, r3, #3
 800990c:	d06b      	beq.n	80099e6 <arm_fir_decimate_f32+0x2ea>
 800990e:	9808      	ldr	r0, [sp, #32]
 8009910:	9d07      	ldr	r5, [sp, #28]
 8009912:	9b0a      	ldr	r3, [sp, #40]	; 0x28
 8009914:	4602      	mov	r2, r0
 8009916:	eb05 0686 	add.w	r6, r5, r6, lsl #2
 800991a:	46aa      	mov	sl, r5
 800991c:	ea4f 0e93 	mov.w	lr, r3, lsr #2
 8009920:	f003 0c03 	and.w	ip, r3, #3
 8009924:	3210      	adds	r2, #16
 8009926:	4633      	mov	r3, r6
 8009928:	ea4f 180e 	mov.w	r8, lr, lsl #4
 800992c:	4666      	mov	r6, ip
 800992e:	eb02 140e 	add.w	r4, r2, lr, lsl #4
 8009932:	f8cd e004 	str.w	lr, [sp, #4]
 8009936:	eb00 190e 	add.w	r9, r0, lr, lsl #4
 800993a:	469c      	mov	ip, r3
 800993c:	f8dd e000 	ldr.w	lr, [sp]
 8009940:	9203      	str	r2, [sp, #12]
 8009942:	f89e 5000 	ldrb.w	r5, [lr]
 8009946:	4658      	mov	r0, fp
 8009948:	460a      	mov	r2, r1
 800994a:	462b      	mov	r3, r5
 800994c:	ecf2 7a01 	vldmia	r2!, {s15}
 8009950:	3b01      	subs	r3, #1
 8009952:	ece0 7a01 	vstmia	r0!, {s15}
 8009956:	d1f9      	bne.n	800994c <arm_fir_decimate_f32+0x250>
 8009958:	9b01      	ldr	r3, [sp, #4]
 800995a:	eb01 0185 	add.w	r1, r1, r5, lsl #2
 800995e:	eb0b 0b85 	add.w	fp, fp, r5, lsl #2
 8009962:	2b00      	cmp	r3, #0
 8009964:	d07d      	beq.n	8009a62 <arm_fir_decimate_f32+0x366>
 8009966:	9b03      	ldr	r3, [sp, #12]
 8009968:	f107 0210 	add.w	r2, r7, #16
 800996c:	eddf 7a3f 	vldr	s15, [pc, #252]	; 8009a6c <arm_fir_decimate_f32+0x370>
 8009970:	ed13 7a04 	vldr	s14, [r3, #-16]
 8009974:	3310      	adds	r3, #16
 8009976:	ed52 6a04 	vldr	s13, [r2, #-16]
 800997a:	3210      	adds	r2, #16
 800997c:	ed13 6a07 	vldr	s12, [r3, #-28]	; 0xffffffe4
 8009980:	ee27 7a26 	vmul.f32	s14, s14, s13
 8009984:	ed52 5a07 	vldr	s11, [r2, #-28]	; 0xffffffe4
 8009988:	ed53 6a06 	vldr	s13, [r3, #-24]	; 0xffffffe8
 800998c:	ee26 6a25 	vmul.f32	s12, s12, s11
 8009990:	ed12 5a06 	vldr	s10, [r2, #-24]	; 0xffffffe8
 8009994:	ee77 7a27 	vadd.f32	s15, s14, s15
 8009998:	ed53 5a05 	vldr	s11, [r3, #-20]	; 0xffffffec
 800999c:	ee26 7a85 	vmul.f32	s14, s13, s10
 80099a0:	ed52 6a05 	vldr	s13, [r2, #-20]	; 0xffffffec
 80099a4:	429c      	cmp	r4, r3
 80099a6:	ee76 7a27 	vadd.f32	s15, s12, s15
 80099aa:	ee65 6aa6 	vmul.f32	s13, s11, s13
 80099ae:	ee77 7a27 	vadd.f32	s15, s14, s15
 80099b2:	ee76 7aa7 	vadd.f32	s15, s13, s15
 80099b6:	d1db      	bne.n	8009970 <arm_fir_decimate_f32+0x274>
 80099b8:	eb07 0008 	add.w	r0, r7, r8
 80099bc:	464a      	mov	r2, r9
 80099be:	b156      	cbz	r6, 80099d6 <arm_fir_decimate_f32+0x2da>
 80099c0:	4633      	mov	r3, r6
 80099c2:	ecb2 7a01 	vldmia	r2!, {s14}
 80099c6:	3b01      	subs	r3, #1
 80099c8:	ecf0 6a01 	vldmia	r0!, {s13}
 80099cc:	ee27 7a26 	vmul.f32	s14, s14, s13
 80099d0:	ee77 7a87 	vadd.f32	s15, s15, s14
 80099d4:	d1f5      	bne.n	80099c2 <arm_fir_decimate_f32+0x2c6>
 80099d6:	f89e 3000 	ldrb.w	r3, [lr]
 80099da:	ecea 7a01 	vstmia	sl!, {s15}
 80099de:	45e2      	cmp	sl, ip
 80099e0:	eb07 0783 	add.w	r7, r7, r3, lsl #2
 80099e4:	d1ad      	bne.n	8009942 <arm_fir_decimate_f32+0x246>
 80099e6:	9b0a      	ldr	r3, [sp, #40]	; 0x28
 80099e8:	1e5c      	subs	r4, r3, #1
 80099ea:	9b00      	ldr	r3, [sp, #0]
 80099ec:	08a6      	lsrs	r6, r4, #2
 80099ee:	689d      	ldr	r5, [r3, #8]
 80099f0:	d01e      	beq.n	8009a30 <arm_fir_decimate_f32+0x334>
 80099f2:	f107 0210 	add.w	r2, r7, #16
 80099f6:	f105 0310 	add.w	r3, r5, #16
 80099fa:	4631      	mov	r1, r6
 80099fc:	f852 0c10 	ldr.w	r0, [r2, #-16]
 8009a00:	3901      	subs	r1, #1
 8009a02:	f102 0210 	add.w	r2, r2, #16
 8009a06:	f103 0310 	add.w	r3, r3, #16
 8009a0a:	f843 0c20 	str.w	r0, [r3, #-32]
 8009a0e:	f852 0c1c 	ldr.w	r0, [r2, #-28]
 8009a12:	f843 0c1c 	str.w	r0, [r3, #-28]
 8009a16:	f852 0c18 	ldr.w	r0, [r2, #-24]
 8009a1a:	f843 0c18 	str.w	r0, [r3, #-24]
 8009a1e:	f852 0c14 	ldr.w	r0, [r2, #-20]
 8009a22:	f843 0c14 	str.w	r0, [r3, #-20]
 8009a26:	d1e9      	bne.n	80099fc <arm_fir_decimate_f32+0x300>
 8009a28:	eb07 1706 	add.w	r7, r7, r6, lsl #4
 8009a2c:	eb05 1506 	add.w	r5, r5, r6, lsl #4
 8009a30:	f014 0403 	ands.w	r4, r4, #3
 8009a34:	d009      	beq.n	8009a4a <arm_fir_decimate_f32+0x34e>
 8009a36:	683b      	ldr	r3, [r7, #0]
 8009a38:	3c01      	subs	r4, #1
 8009a3a:	602b      	str	r3, [r5, #0]
 8009a3c:	d005      	beq.n	8009a4a <arm_fir_decimate_f32+0x34e>
 8009a3e:	687b      	ldr	r3, [r7, #4]
 8009a40:	2c01      	cmp	r4, #1
 8009a42:	606b      	str	r3, [r5, #4]
 8009a44:	d001      	beq.n	8009a4a <arm_fir_decimate_f32+0x34e>
 8009a46:	68bb      	ldr	r3, [r7, #8]
 8009a48:	60ab      	str	r3, [r5, #8]
 8009a4a:	b00d      	add	sp, #52	; 0x34
 8009a4c:	e8bd 8ff0 	ldmia.w	sp!, {r4, r5, r6, r7, r8, r9, sl, fp, pc}
 8009a50:	eef0 4a60 	vmov.f32	s9, s1
 8009a54:	4648      	mov	r0, r9
 8009a56:	eef0 7a60 	vmov.f32	s15, s1
 8009a5a:	9a08      	ldr	r2, [sp, #32]
 8009a5c:	eeb0 7a60 	vmov.f32	s14, s1
 8009a60:	e71a      	b.n	8009898 <arm_fir_decimate_f32+0x19c>
 8009a62:	9a08      	ldr	r2, [sp, #32]
 8009a64:	4638      	mov	r0, r7
 8009a66:	eddf 7a01 	vldr	s15, [pc, #4]	; 8009a6c <arm_fir_decimate_f32+0x370>
 8009a6a:	e7a8      	b.n	80099be <arm_fir_decimate_f32+0x2c2>
 8009a6c:	00000000 	.word	0x00000000

08009a70 <arm_cmplx_mult_cmplx_f32>:
 8009a70:	ea5f 0c93 	movs.w	ip, r3, lsr #2
 8009a74:	b4f0      	push	{r4, r5, r6, r7}
 8009a76:	d074      	beq.n	8009b62 <arm_cmplx_mult_cmplx_f32+0xf2>
 8009a78:	f100 0620 	add.w	r6, r0, #32
 8009a7c:	f101 0520 	add.w	r5, r1, #32
 8009a80:	f102 0420 	add.w	r4, r2, #32
 8009a84:	4667      	mov	r7, ip
 8009a86:	ed55 5a07 	vldr	s11, [r5, #-28]	; 0xffffffe4
 8009a8a:	3f01      	subs	r7, #1
 8009a8c:	ed56 7a08 	vldr	s15, [r6, #-32]	; 0xffffffe0
 8009a90:	f105 0520 	add.w	r5, r5, #32
 8009a94:	ed56 6a07 	vldr	s13, [r6, #-28]	; 0xffffffe4
 8009a98:	f104 0420 	add.w	r4, r4, #32
 8009a9c:	ed15 7a10 	vldr	s14, [r5, #-64]	; 0xffffffc0
 8009aa0:	f106 0620 	add.w	r6, r6, #32
 8009aa4:	ee27 6a87 	vmul.f32	s12, s15, s14
 8009aa8:	ee26 7a87 	vmul.f32	s14, s13, s14
 8009aac:	ee67 7aa5 	vmul.f32	s15, s15, s11
 8009ab0:	ee66 6aa5 	vmul.f32	s13, s13, s11
 8009ab4:	ee77 7a87 	vadd.f32	s15, s15, s14
 8009ab8:	ee76 6a66 	vsub.f32	s13, s12, s13
 8009abc:	ed44 7a0f 	vstr	s15, [r4, #-60]	; 0xffffffc4
 8009ac0:	ed44 6a10 	vstr	s13, [r4, #-64]	; 0xffffffc0
 8009ac4:	ed55 5a0d 	vldr	s11, [r5, #-52]	; 0xffffffcc
 8009ac8:	ed56 7a0e 	vldr	s15, [r6, #-56]	; 0xffffffc8
 8009acc:	ed15 7a0e 	vldr	s14, [r5, #-56]	; 0xffffffc8
 8009ad0:	ed56 6a0d 	vldr	s13, [r6, #-52]	; 0xffffffcc
 8009ad4:	ee27 6a87 	vmul.f32	s12, s15, s14
 8009ad8:	ee26 7a87 	vmul.f32	s14, s13, s14
 8009adc:	ee67 7aa5 	vmul.f32	s15, s15, s11
 8009ae0:	ee66 6aa5 	vmul.f32	s13, s13, s11
 8009ae4:	ee77 7a87 	vadd.f32	s15, s15, s14
 8009ae8:	ee76 6a66 	vsub.f32	s13, s12, s13
 8009aec:	ed44 7a0d 	vstr	s15, [r4, #-52]	; 0xffffffcc
 8009af0:	ed44 6a0e 	vstr	s13, [r4, #-56]	; 0xffffffc8
 8009af4:	ed55 5a0b 	vldr	s11, [r5, #-44]	; 0xffffffd4
 8009af8:	ed56 7a0c 	vldr	s15, [r6, #-48]	; 0xffffffd0
 8009afc:	ed15 7a0c 	vldr	s14, [r5, #-48]	; 0xffffffd0
 8009b00:	ed56 6a0b 	vldr	s13, [r6, #-44]	; 0xffffffd4
 8009b04:	ee27 6a87 	vmul.f32	s12, s15, s14
 8009b08:	ee26 7a87 	vmul.f32	s14, s13, s14
 8009b0c:	ee67 7aa5 	vmul.f32	s15, s15, s11
 8009b10:	ee66 6aa5 	vmul.f32	s13, s13, s11
 8009b14:	ee77 7a87 	vadd.f32	s15, s15, s14
 8009b18:	ee76 6a66 	vsub.f32	s13, s12, s13
 8009b1c:	ed44 7a0b 	vstr	s15, [r4, #-44]	; 0xffffffd4
 8009b20:	ed44 6a0c 	vstr	s13, [r4, #-48]	; 0xffffffd0
 8009b24:	ed56 7a0a 	vldr	s15, [r6, #-40]	; 0xffffffd8
 8009b28:	ed15 7a0a 	vldr	s14, [r5, #-40]	; 0xffffffd8
 8009b2c:	ed56 6a09 	vldr	s13, [r6, #-36]	; 0xffffffdc
 8009b30:	ed55 5a09 	vldr	s11, [r5, #-36]	; 0xffffffdc
 8009b34:	ee27 6a87 	vmul.f32	s12, s15, s14
 8009b38:	ee26 7a87 	vmul.f32	s14, s13, s14
 8009b3c:	ee67 7aa5 	vmul.f32	s15, s15, s11
 8009b40:	ee66 6aa5 	vmul.f32	s13, s13, s11
 8009b44:	ee77 7a87 	vadd.f32	s15, s15, s14
 8009b48:	ee76 6a66 	vsub.f32	s13, s12, s13
 8009b4c:	ed44 7a09 	vstr	s15, [r4, #-36]	; 0xffffffdc
 8009b50:	ed44 6a0a 	vstr	s13, [r4, #-40]	; 0xffffffd8
 8009b54:	d197      	bne.n	8009a86 <arm_cmplx_mult_cmplx_f32+0x16>
 8009b56:	eb00 104c 	add.w	r0, r0, ip, lsl #5
 8009b5a:	eb01 114c 	add.w	r1, r1, ip, lsl #5
 8009b5e:	eb02 124c 	add.w	r2, r2, ip, lsl #5
 8009b62:	f013 0303 	ands.w	r3, r3, #3
 8009b66:	d04b      	beq.n	8009c00 <arm_cmplx_mult_cmplx_f32+0x190>
 8009b68:	edd0 5a00 	vldr	s11, [r0]
 8009b6c:	3b01      	subs	r3, #1
 8009b6e:	edd1 7a00 	vldr	s15, [r1]
 8009b72:	edd0 6a01 	vldr	s13, [r0, #4]
 8009b76:	ed91 7a01 	vldr	s14, [r1, #4]
 8009b7a:	ee27 6aa5 	vmul.f32	s12, s15, s11
 8009b7e:	ee67 7aa6 	vmul.f32	s15, s15, s13
 8009b82:	ee67 6a26 	vmul.f32	s13, s14, s13
 8009b86:	ee27 7a25 	vmul.f32	s14, s14, s11
 8009b8a:	ee76 6a66 	vsub.f32	s13, s12, s13
 8009b8e:	ee77 7a87 	vadd.f32	s15, s15, s14
 8009b92:	edc2 6a00 	vstr	s13, [r2]
 8009b96:	edc2 7a01 	vstr	s15, [r2, #4]
 8009b9a:	d031      	beq.n	8009c00 <arm_cmplx_mult_cmplx_f32+0x190>
 8009b9c:	edd0 7a02 	vldr	s15, [r0, #8]
 8009ba0:	2b01      	cmp	r3, #1
 8009ba2:	ed91 7a02 	vldr	s14, [r1, #8]
 8009ba6:	edd0 6a03 	vldr	s13, [r0, #12]
 8009baa:	edd1 5a03 	vldr	s11, [r1, #12]
 8009bae:	ee27 6a87 	vmul.f32	s12, s15, s14
 8009bb2:	ee26 7a87 	vmul.f32	s14, s13, s14
 8009bb6:	ee67 7aa5 	vmul.f32	s15, s15, s11
 8009bba:	ee66 6aa5 	vmul.f32	s13, s13, s11
 8009bbe:	ee77 7a87 	vadd.f32	s15, s15, s14
 8009bc2:	ee76 6a66 	vsub.f32	s13, s12, s13
 8009bc6:	edc2 7a03 	vstr	s15, [r2, #12]
 8009bca:	edc2 6a02 	vstr	s13, [r2, #8]
 8009bce:	d017      	beq.n	8009c00 <arm_cmplx_mult_cmplx_f32+0x190>
 8009bd0:	edd0 7a04 	vldr	s15, [r0, #16]
 8009bd4:	ed91 7a04 	vldr	s14, [r1, #16]
 8009bd8:	edd0 6a05 	vldr	s13, [r0, #20]
 8009bdc:	edd1 5a05 	vldr	s11, [r1, #20]
 8009be0:	ee27 6a87 	vmul.f32	s12, s15, s14
 8009be4:	ee26 7a87 	vmul.f32	s14, s13, s14
 8009be8:	ee67 7aa5 	vmul.f32	s15, s15, s11
 8009bec:	ee66 6aa5 	vmul.f32	s13, s13, s11
 8009bf0:	ee77 7a87 	vadd.f32	s15, s15, s14
 8009bf4:	ee76 6a66 	vsub.f32	s13, s12, s13
 8009bf8:	edc2 7a05 	vstr	s15, [r2, #20]
 8009bfc:	edc2 6a04 	vstr	s13, [r2, #16]
 8009c00:	bcf0      	pop	{r4, r5, r6, r7}
 8009c02:	4770      	bx	lr

08009c04 <arm_cmplx_mag_squared_f32>:
 8009c04:	b470      	push	{r4, r5, r6}
 8009c06:	0896      	lsrs	r6, r2, #2
 8009c08:	d03e      	beq.n	8009c88 <arm_cmplx_mag_squared_f32+0x84>
 8009c0a:	f100 0320 	add.w	r3, r0, #32
 8009c0e:	f101 0410 	add.w	r4, r1, #16
 8009c12:	4635      	mov	r5, r6
 8009c14:	ed53 7a08 	vldr	s15, [r3, #-32]	; 0xffffffe0
 8009c18:	3d01      	subs	r5, #1
 8009c1a:	ed13 7a07 	vldr	s14, [r3, #-28]	; 0xffffffe4
 8009c1e:	f104 0410 	add.w	r4, r4, #16
 8009c22:	ee67 7aa7 	vmul.f32	s15, s15, s15
 8009c26:	f103 0320 	add.w	r3, r3, #32
 8009c2a:	ee27 7a07 	vmul.f32	s14, s14, s14
 8009c2e:	ee77 7a87 	vadd.f32	s15, s15, s14
 8009c32:	ed44 7a08 	vstr	s15, [r4, #-32]	; 0xffffffe0
 8009c36:	ed53 7a0e 	vldr	s15, [r3, #-56]	; 0xffffffc8
 8009c3a:	ed13 7a0d 	vldr	s14, [r3, #-52]	; 0xffffffcc
 8009c3e:	ee67 7aa7 	vmul.f32	s15, s15, s15
 8009c42:	ee27 7a07 	vmul.f32	s14, s14, s14
 8009c46:	ee77 7a87 	vadd.f32	s15, s15, s14
 8009c4a:	ed44 7a07 	vstr	s15, [r4, #-28]	; 0xffffffe4
 8009c4e:	ed53 7a0c 	vldr	s15, [r3, #-48]	; 0xffffffd0
 8009c52:	ed13 7a0b 	vldr	s14, [r3, #-44]	; 0xffffffd4
 8009c56:	ee67 7aa7 	vmul.f32	s15, s15, s15
 8009c5a:	ee27 7a07 	vmul.f32	s14, s14, s14
 8009c5e:	ee77 7a87 	vadd.f32	s15, s15, s14
 8009c62:	ed44 7a06 	vstr	s15, [r4, #-24]	; 0xffffffe8
 8009c66:	ed53 7a0a 	vldr	s15, [r3, #-40]	; 0xffffffd8
 8009c6a:	ed13 7a09 	vldr	s14, [r3, #-36]	; 0xffffffdc
 8009c6e:	ee67 7aa7 	vmul.f32	s15, s15, s15
 8009c72:	ee27 7a07 	vmul.f32	s14, s14, s14
 8009c76:	ee77 7a87 	vadd.f32	s15, s15, s14
 8009c7a:	ed44 7a05 	vstr	s15, [r4, #-20]	; 0xffffffec
 8009c7e:	d1c9      	bne.n	8009c14 <arm_cmplx_mag_squared_f32+0x10>
 8009c80:	eb00 1046 	add.w	r0, r0, r6, lsl #5
 8009c84:	eb01 1106 	add.w	r1, r1, r6, lsl #4
 8009c88:	f012 0203 	ands.w	r2, r2, #3
 8009c8c:	d027      	beq.n	8009cde <arm_cmplx_mag_squared_f32+0xda>
 8009c8e:	ed90 7a00 	vldr	s14, [r0]
 8009c92:	3a01      	subs	r2, #1
 8009c94:	edd0 7a01 	vldr	s15, [r0, #4]
 8009c98:	ee27 7a07 	vmul.f32	s14, s14, s14
 8009c9c:	ee67 7aa7 	vmul.f32	s15, s15, s15
 8009ca0:	ee77 7a87 	vadd.f32	s15, s15, s14
 8009ca4:	edc1 7a00 	vstr	s15, [r1]
 8009ca8:	d019      	beq.n	8009cde <arm_cmplx_mag_squared_f32+0xda>
 8009caa:	edd0 7a02 	vldr	s15, [r0, #8]
 8009cae:	2a01      	cmp	r2, #1
 8009cb0:	ed90 7a03 	vldr	s14, [r0, #12]
 8009cb4:	ee67 7aa7 	vmul.f32	s15, s15, s15
 8009cb8:	ee27 7a07 	vmul.f32	s14, s14, s14
 8009cbc:	ee77 7a87 	vadd.f32	s15, s15, s14
 8009cc0:	edc1 7a01 	vstr	s15, [r1, #4]
 8009cc4:	d00b      	beq.n	8009cde <arm_cmplx_mag_squared_f32+0xda>
 8009cc6:	edd0 7a04 	vldr	s15, [r0, #16]
 8009cca:	ed90 7a05 	vldr	s14, [r0, #20]
 8009cce:	ee67 7aa7 	vmul.f32	s15, s15, s15
 8009cd2:	ee27 7a07 	vmul.f32	s14, s14, s14
 8009cd6:	ee77 7a87 	vadd.f32	s15, s15, s14
 8009cda:	edc1 7a02 	vstr	s15, [r1, #8]
 8009cde:	bc70      	pop	{r4, r5, r6}
 8009ce0:	4770      	bx	lr
 8009ce2:	bf00      	nop

08009ce4 <arm_sin_f32>:
 8009ce4:	eddf 7a1f 	vldr	s15, [pc, #124]	; 8009d64 <arm_sin_f32+0x80>
 8009ce8:	ee20 0a27 	vmul.f32	s0, s0, s15
 8009cec:	eeb5 0ac0 	vcmpe.f32	s0, #0.0
 8009cf0:	eefd 7ac0 	vcvt.s32.f32	s15, s0
 8009cf4:	eef1 fa10 	vmrs	APSR_nzcv, fpscr
 8009cf8:	d504      	bpl.n	8009d04 <arm_sin_f32+0x20>
 8009cfa:	ee17 3a90 	vmov	r3, s15
 8009cfe:	3b01      	subs	r3, #1
 8009d00:	ee07 3a90 	vmov	s15, r3
 8009d04:	eef8 7ae7 	vcvt.f32.s32	s15, s15
 8009d08:	eddf 6a17 	vldr	s13, [pc, #92]	; 8009d68 <arm_sin_f32+0x84>
 8009d0c:	ee70 7a67 	vsub.f32	s15, s0, s15
 8009d10:	ee67 7aa6 	vmul.f32	s15, s15, s13
 8009d14:	eebc 7ae7 	vcvt.u32.f32	s14, s15
 8009d18:	ee17 3a10 	vmov	r3, s14
 8009d1c:	b29b      	uxth	r3, r3
 8009d1e:	f5b3 7f00 	cmp.w	r3, #512	; 0x200
 8009d22:	d21a      	bcs.n	8009d5a <arm_sin_f32+0x76>
 8009d24:	ee07 3a10 	vmov	s14, r3
 8009d28:	1c59      	adds	r1, r3, #1
 8009d2a:	eeb8 0a47 	vcvt.f32.u32	s0, s14
 8009d2e:	ee77 7ac0 	vsub.f32	s15, s15, s0
 8009d32:	4a0e      	ldr	r2, [pc, #56]	; (8009d6c <arm_sin_f32+0x88>)
 8009d34:	eeb7 0a00 	vmov.f32	s0, #112	; 0x3f800000  1.0
 8009d38:	eb02 0383 	add.w	r3, r2, r3, lsl #2
 8009d3c:	eb02 0281 	add.w	r2, r2, r1, lsl #2
 8009d40:	ee30 0a67 	vsub.f32	s0, s0, s15
 8009d44:	edd3 6a00 	vldr	s13, [r3]
 8009d48:	ed92 7a00 	vldr	s14, [r2]
 8009d4c:	ee20 0a26 	vmul.f32	s0, s0, s13
 8009d50:	ee67 7a87 	vmul.f32	s15, s15, s14
 8009d54:	ee30 0a27 	vadd.f32	s0, s0, s15
 8009d58:	4770      	bx	lr
 8009d5a:	ee77 7ae6 	vsub.f32	s15, s15, s13
 8009d5e:	2101      	movs	r1, #1
 8009d60:	2300      	movs	r3, #0
 8009d62:	e7e6      	b.n	8009d32 <arm_sin_f32+0x4e>
 8009d64:	3e22f983 	.word	0x3e22f983
 8009d68:	44000000 	.word	0x44000000
 8009d6c:	08015908 	.word	0x08015908

08009d70 <arm_cos_f32>:
 8009d70:	ed9f 7a21 	vldr	s14, [pc, #132]	; 8009df8 <arm_cos_f32+0x88>
 8009d74:	eef5 7a00 	vmov.f32	s15, #80	; 0x3e800000  0.250
 8009d78:	ee20 0a07 	vmul.f32	s0, s0, s14
 8009d7c:	ee30 0a27 	vadd.f32	s0, s0, s15
 8009d80:	eeb5 0ac0 	vcmpe.f32	s0, #0.0
 8009d84:	eefd 7ac0 	vcvt.s32.f32	s15, s0
 8009d88:	eef1 fa10 	vmrs	APSR_nzcv, fpscr
 8009d8c:	d504      	bpl.n	8009d98 <arm_cos_f32+0x28>
 8009d8e:	ee17 3a90 	vmov	r3, s15
 8009d92:	3b01      	subs	r3, #1
 8009d94:	ee07 3a90 	vmov	s15, r3
 8009d98:	eef8 7ae7 	vcvt.f32.s32	s15, s15
 8009d9c:	eddf 6a17 	vldr	s13, [pc, #92]	; 8009dfc <arm_cos_f32+0x8c>
 8009da0:	ee70 7a67 	vsub.f32	s15, s0, s15
 8009da4:	ee67 7aa6 	vmul.f32	s15, s15, s13
 8009da8:	eebc 7ae7 	vcvt.u32.f32	s14, s15
 8009dac:	ee17 3a10 	vmov	r3, s14
 8009db0:	b29b      	uxth	r3, r3
 8009db2:	f5b3 7f00 	cmp.w	r3, #512	; 0x200
 8009db6:	d21a      	bcs.n	8009dee <arm_cos_f32+0x7e>
 8009db8:	ee07 3a10 	vmov	s14, r3
 8009dbc:	1c59      	adds	r1, r3, #1
 8009dbe:	eeb8 0a47 	vcvt.f32.u32	s0, s14
 8009dc2:	ee77 7ac0 	vsub.f32	s15, s15, s0
 8009dc6:	4a0e      	ldr	r2, [pc, #56]	; (8009e00 <arm_cos_f32+0x90>)
 8009dc8:	eeb7 0a00 	vmov.f32	s0, #112	; 0x3f800000  1.0
 8009dcc:	eb02 0383 	add.w	r3, r2, r3, lsl #2
 8009dd0:	eb02 0281 	add.w	r2, r2, r1, lsl #2
 8009dd4:	ee30 0a67 	vsub.f32	s0, s0, s15
 8009dd8:	edd3 6a00 	vldr	s13, [r3]
 8009ddc:	ed92 7a00 	vldr	s14, [r2]
 8009de0:	ee20 0a26 	vmul.f32	s0, s0, s13
 8009de4:	ee67 7a87 	vmul.f32	s15, s15, s14
 8009de8:	ee30 0a27 	vadd.f32	s0, s0, s15
 8009dec:	4770      	bx	lr
 8009dee:	ee77 7ae6 	vsub.f32	s15, s15, s13
 8009df2:	2101      	movs	r1, #1
 8009df4:	2300      	movs	r3, #0
 8009df6:	e7e6      	b.n	8009dc6 <arm_cos_f32+0x56>
 8009df8:	3e22f983 	.word	0x3e22f983
 8009dfc:	44000000 	.word	0x44000000
 8009e00:	08015908 	.word	0x08015908

08009e04 <arm_radix8_butterfly_f32>:
 8009e04:	e92d 4ff0 	stmdb	sp!, {r4, r5, r6, r7, r8, r9, sl, fp, lr}
 8009e08:	ed2d 8b10 	vpush	{d8-d15}
 8009e0c:	b093      	sub	sp, #76	; 0x4c
 8009e0e:	468a      	mov	sl, r1
 8009e10:	eddf 8aba 	vldr	s17, [pc, #744]	; 800a0fc <arm_radix8_butterfly_f32+0x2f8>
 8009e14:	468b      	mov	fp, r1
 8009e16:	9010      	str	r0, [sp, #64]	; 0x40
 8009e18:	e9cd 320e 	strd	r3, r2, [sp, #56]	; 0x38
 8009e1c:	4603      	mov	r3, r0
 8009e1e:	3304      	adds	r3, #4
 8009e20:	9311      	str	r3, [sp, #68]	; 0x44
 8009e22:	ea4f 06da 	mov.w	r6, sl, lsr #3
 8009e26:	9d10      	ldr	r5, [sp, #64]	; 0x40
 8009e28:	f8dd c044 	ldr.w	ip, [sp, #68]	; 0x44
 8009e2c:	ea4f 03ca 	mov.w	r3, sl, lsl #3
 8009e30:	eb05 1146 	add.w	r1, r5, r6, lsl #5
 8009e34:	960d      	str	r6, [sp, #52]	; 0x34
 8009e36:	00f0      	lsls	r0, r6, #3
 8009e38:	f04f 0e00 	mov.w	lr, #0
 8009e3c:	eb01 1406 	add.w	r4, r1, r6, lsl #4
 8009e40:	0137      	lsls	r7, r6, #4
 8009e42:	9003      	str	r0, [sp, #12]
 8009e44:	eba6 0286 	sub.w	r2, r6, r6, lsl #2
 8009e48:	9400      	str	r4, [sp, #0]
 8009e4a:	9702      	str	r7, [sp, #8]
 8009e4c:	eb06 0846 	add.w	r8, r6, r6, lsl #1
 8009e50:	eb04 02c2 	add.w	r2, r4, r2, lsl #3
 8009e54:	1d04      	adds	r4, r0, #4
 8009e56:	1d38      	adds	r0, r7, #4
 8009e58:	eb06 0786 	add.w	r7, r6, r6, lsl #2
 8009e5c:	442c      	add	r4, r5
 8009e5e:	ebc6 09c6 	rsb	r9, r6, r6, lsl #3
 8009e62:	9701      	str	r7, [sp, #4]
 8009e64:	4428      	add	r0, r5
 8009e66:	9d01      	ldr	r5, [sp, #4]
 8009e68:	eb02 1746 	add.w	r7, r2, r6, lsl #5
 8009e6c:	ea4f 09c9 	mov.w	r9, r9, lsl #3
 8009e70:	00ed      	lsls	r5, r5, #3
 8009e72:	eb01 06c6 	add.w	r6, r1, r6, lsl #3
 8009e76:	9501      	str	r5, [sp, #4]
 8009e78:	ea4f 1508 	mov.w	r5, r8, lsl #4
 8009e7c:	9504      	str	r5, [sp, #16]
 8009e7e:	ea4f 05c8 	mov.w	r5, r8, lsl #3
 8009e82:	9505      	str	r5, [sp, #20]
 8009e84:	9d0d      	ldr	r5, [sp, #52]	; 0x34
 8009e86:	ea4f 1845 	mov.w	r8, r5, lsl #5
 8009e8a:	9d00      	ldr	r5, [sp, #0]
 8009e8c:	edd1 6a00 	vldr	s13, [r1]
 8009e90:	44d6      	add	lr, sl
 8009e92:	ed5c 7a01 	vldr	s15, [ip, #-4]
 8009e96:	ed95 7a00 	vldr	s14, [r5]
 8009e9a:	45f3      	cmp	fp, lr
 8009e9c:	ed14 6a01 	vldr	s12, [r4, #-4]
 8009ea0:	ee37 2aa6 	vadd.f32	s4, s15, s13
 8009ea4:	edd6 2a00 	vldr	s5, [r6]
 8009ea8:	ee77 7ae6 	vsub.f32	s15, s15, s13
 8009eac:	edd7 3a00 	vldr	s7, [r7]
 8009eb0:	ed10 5a01 	vldr	s10, [r0, #-4]
 8009eb4:	ee36 3a22 	vadd.f32	s6, s12, s5
 8009eb8:	edd2 6a00 	vldr	s13, [r2]
 8009ebc:	ee75 5a07 	vadd.f32	s11, s10, s14
 8009ec0:	ee36 4aa3 	vadd.f32	s8, s13, s7
 8009ec4:	ee76 6ae3 	vsub.f32	s13, s13, s7
 8009ec8:	ee72 4a25 	vadd.f32	s9, s4, s11
 8009ecc:	ee73 3a04 	vadd.f32	s7, s6, s8
 8009ed0:	ee35 5a47 	vsub.f32	s10, s10, s14
 8009ed4:	ee36 7a62 	vsub.f32	s14, s12, s5
 8009ed8:	ee32 2a65 	vsub.f32	s4, s4, s11
 8009edc:	ee74 5aa3 	vadd.f32	s11, s9, s7
 8009ee0:	ee74 4ae3 	vsub.f32	s9, s9, s7
 8009ee4:	ee37 6a66 	vsub.f32	s12, s14, s13
 8009ee8:	ed4c 5a01 	vstr	s11, [ip, #-4]
 8009eec:	ee33 3a44 	vsub.f32	s6, s6, s8
 8009ef0:	edc1 4a00 	vstr	s9, [r1]
 8009ef4:	ee37 7a26 	vadd.f32	s14, s14, s13
 8009ef8:	ed97 4a01 	vldr	s8, [r7, #4]
 8009efc:	ee66 6a28 	vmul.f32	s13, s12, s17
 8009f00:	edd4 5a00 	vldr	s11, [r4]
 8009f04:	ed96 6a01 	vldr	s12, [r6, #4]
 8009f08:	ee27 7a28 	vmul.f32	s14, s14, s17
 8009f0c:	edd2 3a01 	vldr	s7, [r2, #4]
 8009f10:	ee77 2aa6 	vadd.f32	s5, s15, s13
 8009f14:	ee75 4ac6 	vsub.f32	s9, s11, s12
 8009f18:	ed91 1a01 	vldr	s2, [r1, #4]
 8009f1c:	ee33 0ac4 	vsub.f32	s0, s7, s8
 8009f20:	edd5 0a01 	vldr	s1, [r5, #4]
 8009f24:	ee77 7ae6 	vsub.f32	s15, s15, s13
 8009f28:	eddc 6a00 	vldr	s13, [ip]
 8009f2c:	ee75 5a86 	vadd.f32	s11, s11, s12
 8009f30:	ed90 6a00 	vldr	s12, [r0]
 8009f34:	ee73 3a84 	vadd.f32	s7, s7, s8
 8009f38:	ee74 1a80 	vadd.f32	s3, s9, s0
 8009f3c:	ee36 4a81 	vadd.f32	s8, s13, s2
 8009f40:	ee74 4ac0 	vsub.f32	s9, s9, s0
 8009f44:	ee76 6ac1 	vsub.f32	s13, s13, s2
 8009f48:	ee36 1a20 	vadd.f32	s2, s12, s1
 8009f4c:	ee61 1aa8 	vmul.f32	s3, s3, s17
 8009f50:	ee36 6a60 	vsub.f32	s12, s12, s1
 8009f54:	ee64 4aa8 	vmul.f32	s9, s9, s17
 8009f58:	ee75 0aa3 	vadd.f32	s1, s11, s7
 8009f5c:	ee75 5ae3 	vsub.f32	s11, s11, s7
 8009f60:	ee74 3a01 	vadd.f32	s7, s8, s2
 8009f64:	ee34 4a41 	vsub.f32	s8, s8, s2
 8009f68:	ee36 1a21 	vadd.f32	s2, s12, s3
 8009f6c:	ee33 0aa0 	vadd.f32	s0, s7, s1
 8009f70:	ee36 6a61 	vsub.f32	s12, s12, s3
 8009f74:	ee73 3ae0 	vsub.f32	s7, s7, s1
 8009f78:	ee76 1aa4 	vadd.f32	s3, s13, s9
 8009f7c:	ed8c 0a00 	vstr	s0, [ip]
 8009f80:	ee76 6ae4 	vsub.f32	s13, s13, s9
 8009f84:	449c      	add	ip, r3
 8009f86:	ee75 4a07 	vadd.f32	s9, s10, s14
 8009f8a:	edc1 3a01 	vstr	s7, [r1, #4]
 8009f8e:	ee35 7a47 	vsub.f32	s14, s10, s14
 8009f92:	4419      	add	r1, r3
 8009f94:	ee32 5a25 	vadd.f32	s10, s4, s11
 8009f98:	ee72 5a65 	vsub.f32	s11, s4, s11
 8009f9c:	ee72 3a81 	vadd.f32	s7, s5, s2
 8009fa0:	ed00 5a01 	vstr	s10, [r0, #-4]
 8009fa4:	ee34 2a43 	vsub.f32	s4, s8, s6
 8009fa8:	edc5 5a00 	vstr	s11, [r5]
 8009fac:	ee37 5a86 	vadd.f32	s10, s15, s12
 8009fb0:	ee71 5ae4 	vsub.f32	s11, s3, s9
 8009fb4:	ee77 7ac6 	vsub.f32	s15, s15, s12
 8009fb8:	ed80 2a00 	vstr	s4, [r0]
 8009fbc:	ee36 6ac7 	vsub.f32	s12, s13, s14
 8009fc0:	4418      	add	r0, r3
 8009fc2:	ee33 4a04 	vadd.f32	s8, s6, s8
 8009fc6:	ee72 2ac1 	vsub.f32	s5, s5, s2
 8009fca:	ee74 4aa1 	vadd.f32	s9, s9, s3
 8009fce:	ee37 7a26 	vadd.f32	s14, s14, s13
 8009fd2:	ed85 4a01 	vstr	s8, [r5, #4]
 8009fd6:	ed44 3a01 	vstr	s7, [r4, #-4]
 8009fda:	441d      	add	r5, r3
 8009fdc:	edc7 2a00 	vstr	s5, [r7]
 8009fe0:	ed86 5a00 	vstr	s10, [r6]
 8009fe4:	edc2 7a00 	vstr	s15, [r2]
 8009fe8:	edc4 5a00 	vstr	s11, [r4]
 8009fec:	441c      	add	r4, r3
 8009fee:	edc7 4a01 	vstr	s9, [r7, #4]
 8009ff2:	441f      	add	r7, r3
 8009ff4:	ed86 6a01 	vstr	s12, [r6, #4]
 8009ff8:	441e      	add	r6, r3
 8009ffa:	ed82 7a01 	vstr	s14, [r2, #4]
 8009ffe:	441a      	add	r2, r3
 800a000:	f63f af44 	bhi.w	8009e8c <arm_radix8_butterfly_f32+0x88>
 800a004:	9a0d      	ldr	r2, [sp, #52]	; 0x34
 800a006:	2a07      	cmp	r2, #7
 800a008:	f240 81b7 	bls.w	800a37a <arm_radix8_butterfly_f32+0x576>
 800a00c:	9a03      	ldr	r2, [sp, #12]
 800a00e:	f108 0808 	add.w	r8, r8, #8
 800a012:	9f10      	ldr	r7, [sp, #64]	; 0x40
 800a014:	f109 0008 	add.w	r0, r9, #8
 800a018:	3208      	adds	r2, #8
 800a01a:	9e01      	ldr	r6, [sp, #4]
 800a01c:	9d04      	ldr	r5, [sp, #16]
 800a01e:	4694      	mov	ip, r2
 800a020:	463a      	mov	r2, r7
 800a022:	3608      	adds	r6, #8
 800a024:	9c05      	ldr	r4, [sp, #20]
 800a026:	4442      	add	r2, r8
 800a028:	3508      	adds	r5, #8
 800a02a:	3408      	adds	r4, #8
 800a02c:	9902      	ldr	r1, [sp, #8]
 800a02e:	920b      	str	r2, [sp, #44]	; 0x2c
 800a030:	eb07 020c 	add.w	r2, r7, ip
 800a034:	310c      	adds	r1, #12
 800a036:	f04f 0800 	mov.w	r8, #0
 800a03a:	920a      	str	r2, [sp, #40]	; 0x28
 800a03c:	19ba      	adds	r2, r7, r6
 800a03e:	9209      	str	r2, [sp, #36]	; 0x24
 800a040:	197a      	adds	r2, r7, r5
 800a042:	9208      	str	r2, [sp, #32]
 800a044:	193a      	adds	r2, r7, r4
 800a046:	9207      	str	r2, [sp, #28]
 800a048:	183a      	adds	r2, r7, r0
 800a04a:	9206      	str	r2, [sp, #24]
 800a04c:	187a      	adds	r2, r7, r1
 800a04e:	9204      	str	r2, [sp, #16]
 800a050:	f107 020c 	add.w	r2, r7, #12
 800a054:	9205      	str	r2, [sp, #20]
 800a056:	2201      	movs	r2, #1
 800a058:	9203      	str	r2, [sp, #12]
 800a05a:	9a0e      	ldr	r2, [sp, #56]	; 0x38
 800a05c:	f8dd c010 	ldr.w	ip, [sp, #16]
 800a060:	4490      	add	r8, r2
 800a062:	9a0f      	ldr	r2, [sp, #60]	; 0x3c
 800a064:	9f05      	ldr	r7, [sp, #20]
 800a066:	eb02 02c8 	add.w	r2, r2, r8, lsl #3
 800a06a:	9e06      	ldr	r6, [sp, #24]
 800a06c:	eba8 0e88 	sub.w	lr, r8, r8, lsl #2
 800a070:	9d07      	ldr	r5, [sp, #28]
 800a072:	eb02 01c8 	add.w	r1, r2, r8, lsl #3
 800a076:	ed92 ea00 	vldr	s28, [r2]
 800a07a:	9c08      	ldr	r4, [sp, #32]
 800a07c:	eb01 02c8 	add.w	r2, r1, r8, lsl #3
 800a080:	edd1 da00 	vldr	s27, [r1]
 800a084:	9809      	ldr	r0, [sp, #36]	; 0x24
 800a086:	eb02 01c8 	add.w	r1, r2, r8, lsl #3
 800a08a:	ed92 da00 	vldr	s26, [r2]
 800a08e:	eb01 02c8 	add.w	r2, r1, r8, lsl #3
 800a092:	edd1 ca00 	vldr	s25, [r1]
 800a096:	eb02 01c8 	add.w	r1, r2, r8, lsl #3
 800a09a:	ed92 ca00 	vldr	s24, [r2]
 800a09e:	eb01 02c8 	add.w	r2, r1, r8, lsl #3
 800a0a2:	edd1 ba00 	vldr	s23, [r1]
 800a0a6:	990a      	ldr	r1, [sp, #40]	; 0x28
 800a0a8:	eb02 1e0e 	add.w	lr, r2, lr, lsl #4
 800a0ac:	ed92 ba00 	vldr	s22, [r2]
 800a0b0:	9a0b      	ldr	r2, [sp, #44]	; 0x2c
 800a0b2:	eb0e 09c8 	add.w	r9, lr, r8, lsl #3
 800a0b6:	910c      	str	r1, [sp, #48]	; 0x30
 800a0b8:	9200      	str	r2, [sp, #0]
 800a0ba:	eb09 02c8 	add.w	r2, r9, r8, lsl #3
 800a0be:	ed99 aa01 	vldr	s20, [r9, #4]
 800a0c2:	edde aa01 	vldr	s21, [lr, #4]
 800a0c6:	eb02 09c8 	add.w	r9, r2, r8, lsl #3
 800a0ca:	edd2 9a01 	vldr	s19, [r2, #4]
 800a0ce:	f8dd e00c 	ldr.w	lr, [sp, #12]
 800a0d2:	eb09 02c8 	add.w	r2, r9, r8, lsl #3
 800a0d6:	ed99 9a01 	vldr	s18, [r9, #4]
 800a0da:	990c      	ldr	r1, [sp, #48]	; 0x30
 800a0dc:	eb02 09c8 	add.w	r9, r2, r8, lsl #3
 800a0e0:	ed92 8a01 	vldr	s16, [r2, #4]
 800a0e4:	edd9 7a01 	vldr	s15, [r9, #4]
 800a0e8:	eb09 02c8 	add.w	r2, r9, r8, lsl #3
 800a0ec:	edcd 7a01 	vstr	s15, [sp, #4]
 800a0f0:	edd2 7a01 	vldr	s15, [r2, #4]
 800a0f4:	9a00      	ldr	r2, [sp, #0]
 800a0f6:	edcd 7a02 	vstr	s15, [sp, #8]
 800a0fa:	e001      	b.n	800a100 <arm_radix8_butterfly_f32+0x2fc>
 800a0fc:	3f3504f3 	.word	0x3f3504f3
 800a100:	ed92 7a00 	vldr	s14, [r2]
 800a104:	44d6      	add	lr, sl
 800a106:	ed17 1a01 	vldr	s2, [r7, #-4]
 800a10a:	ed90 5a00 	vldr	s10, [r0]
 800a10e:	45f3      	cmp	fp, lr
 800a110:	ed1c fa01 	vldr	s30, [ip, #-4]
 800a114:	ee31 3a07 	vadd.f32	s6, s2, s14
 800a118:	edd6 5a00 	vldr	s11, [r6]
 800a11c:	ee31 1a47 	vsub.f32	s2, s2, s14
 800a120:	edd4 7a00 	vldr	s15, [r4]
 800a124:	ed95 7a00 	vldr	s14, [r5]
 800a128:	ed91 4a00 	vldr	s8, [r1]
 800a12c:	ee3f 6a27 	vadd.f32	s12, s30, s15
 800a130:	ee77 6a25 	vadd.f32	s13, s14, s11
 800a134:	edd7 ea00 	vldr	s29, [r7]
 800a138:	ee74 fa05 	vadd.f32	s31, s8, s10
 800a13c:	ee73 1a06 	vadd.f32	s3, s6, s12
 800a140:	ee34 4a45 	vsub.f32	s8, s8, s10
 800a144:	ee3f 5aa6 	vadd.f32	s10, s31, s13
 800a148:	ee37 7a65 	vsub.f32	s14, s14, s11
 800a14c:	ee33 3a46 	vsub.f32	s6, s6, s12
 800a150:	ee31 6a85 	vadd.f32	s12, s3, s10
 800a154:	ee7f 7a67 	vsub.f32	s15, s30, s15
 800a158:	ee34 fa07 	vadd.f32	s30, s8, s14
 800a15c:	ed07 6a01 	vstr	s12, [r7, #-4]
 800a160:	ee34 4a47 	vsub.f32	s8, s8, s14
 800a164:	edd5 3a01 	vldr	s7, [r5, #4]
 800a168:	ee7f fae6 	vsub.f32	s31, s31, s13
 800a16c:	ed90 7a01 	vldr	s14, [r0, #4]
 800a170:	ee2f fa28 	vmul.f32	s30, s30, s17
 800a174:	edd1 5a01 	vldr	s11, [r1, #4]
 800a178:	ee24 4a28 	vmul.f32	s8, s8, s17
 800a17c:	ed96 6a01 	vldr	s12, [r6, #4]
 800a180:	ee31 5ac5 	vsub.f32	s10, s3, s10
 800a184:	ee75 0ac7 	vsub.f32	s1, s11, s14
 800a188:	edd2 6a01 	vldr	s13, [r2, #4]
 800a18c:	ee73 2ac6 	vsub.f32	s5, s7, s12
 800a190:	edd4 4a01 	vldr	s9, [r4, #4]
 800a194:	ee75 5a87 	vadd.f32	s11, s11, s14
 800a198:	ed9c 7a00 	vldr	s14, [ip]
 800a19c:	ee37 2a8f 	vadd.f32	s4, s15, s30
 800a1a0:	ee33 6a86 	vadd.f32	s12, s7, s12
 800a1a4:	ee37 facf 	vsub.f32	s30, s15, s30
 800a1a8:	ee7e 3aa6 	vadd.f32	s7, s29, s13
 800a1ac:	ee70 7ae2 	vsub.f32	s15, s1, s5
 800a1b0:	ee7e eae6 	vsub.f32	s29, s29, s13
 800a1b4:	ee70 2aa2 	vadd.f32	s5, s1, s5
 800a1b8:	ee77 6a24 	vadd.f32	s13, s14, s9
 800a1bc:	ee75 0a86 	vadd.f32	s1, s11, s12
 800a1c0:	ee37 7a64 	vsub.f32	s14, s14, s9
 800a1c4:	ee33 0aa6 	vadd.f32	s0, s7, s13
 800a1c8:	ee67 7aa8 	vmul.f32	s15, s15, s17
 800a1cc:	ee62 2aa8 	vmul.f32	s5, s5, s17
 800a1d0:	ee35 6ac6 	vsub.f32	s12, s11, s12
 800a1d4:	ee73 3ae6 	vsub.f32	s7, s7, s13
 800a1d8:	ee7e 5aa7 	vadd.f32	s11, s29, s15
 800a1dc:	ee77 4a22 	vadd.f32	s9, s14, s5
 800a1e0:	ee7e eae7 	vsub.f32	s29, s29, s15
 800a1e4:	ee77 7a62 	vsub.f32	s15, s14, s5
 800a1e8:	ee71 2a04 	vadd.f32	s5, s2, s8
 800a1ec:	ee31 7a44 	vsub.f32	s14, s2, s8
 800a1f0:	ee30 1a60 	vsub.f32	s2, s0, s1
 800a1f4:	ee73 1a06 	vadd.f32	s3, s6, s12
 800a1f8:	ee33 6a46 	vsub.f32	s12, s6, s12
 800a1fc:	ee33 3aef 	vsub.f32	s6, s7, s31
 800a200:	ee7f 6aa3 	vadd.f32	s13, s31, s7
 800a204:	ee3e 4acf 	vsub.f32	s8, s29, s30
 800a208:	ee75 3ac2 	vsub.f32	s7, s11, s4
 800a20c:	ee72 5a25 	vadd.f32	s11, s4, s11
 800a210:	ee32 2aa4 	vadd.f32	s4, s5, s9
 800a214:	ee72 4ae4 	vsub.f32	s9, s5, s9
 800a218:	ee77 2a27 	vadd.f32	s5, s14, s15
 800a21c:	ee37 7a67 	vsub.f32	s14, s14, s15
 800a220:	ee7f 7a2e 	vadd.f32	s15, s30, s29
 800a224:	ee2c fa85 	vmul.f32	s30, s25, s10
 800a228:	ee69 ea01 	vmul.f32	s29, s18, s2
 800a22c:	ee29 5a05 	vmul.f32	s10, s18, s10
 800a230:	ee2c 1a81 	vmul.f32	s2, s25, s2
 800a234:	ee6d faa1 	vmul.f32	s31, s27, s3
 800a238:	ee70 0a20 	vadd.f32	s1, s0, s1
 800a23c:	ee6a 1a21 	vmul.f32	s3, s20, s3
 800a240:	ee2a 0a03 	vmul.f32	s0, s20, s6
 800a244:	ee2d 3a83 	vmul.f32	s6, s27, s6
 800a248:	edc7 0a00 	vstr	s1, [r7]
 800a24c:	ee7f ea2e 	vadd.f32	s29, s30, s29
 800a250:	441f      	add	r7, r3
 800a252:	ee2a faa3 	vmul.f32	s30, s21, s7
 800a256:	ee31 5a45 	vsub.f32	s10, s2, s10
 800a25a:	ee6e 3a23 	vmul.f32	s7, s28, s7
 800a25e:	edc2 ea00 	vstr	s29, [r2]
 800a262:	ee3f 0a80 	vadd.f32	s0, s31, s0
 800a266:	ee33 3a61 	vsub.f32	s6, s6, s3
 800a26a:	ed82 5a01 	vstr	s10, [r2, #4]
 800a26e:	ee6e 0a02 	vmul.f32	s1, s28, s4
 800a272:	ed9d 5a02 	vldr	s10, [sp, #8]
 800a276:	edcd 3a00 	vstr	s7, [sp]
 800a27a:	ee6b ea86 	vmul.f32	s29, s23, s12
 800a27e:	eddd 3a01 	vldr	s7, [sp, #4]
 800a282:	ee6b fa24 	vmul.f32	s31, s22, s9
 800a286:	ed0c 0a01 	vstr	s0, [ip, #-4]
 800a28a:	ee65 4a24 	vmul.f32	s9, s10, s9
 800a28e:	ed8c 3a00 	vstr	s6, [ip]
 800a292:	ee23 1aa6 	vmul.f32	s2, s7, s13
 800a296:	ee23 6a86 	vmul.f32	s12, s7, s12
 800a29a:	eddd 3a00 	vldr	s7, [sp]
 800a29e:	ee25 5a25 	vmul.f32	s10, s10, s11
 800a2a2:	441a      	add	r2, r3
 800a2a4:	ee2c 0a22 	vmul.f32	s0, s24, s5
 800a2a8:	449c      	add	ip, r3
 800a2aa:	ee68 1a04 	vmul.f32	s3, s16, s8
 800a2ae:	ee70 0a8f 	vadd.f32	s1, s1, s30
 800a2b2:	ee2d 3a07 	vmul.f32	s6, s26, s14
 800a2b6:	ee29 faa7 	vmul.f32	s30, s19, s15
 800a2ba:	ee2a 2a82 	vmul.f32	s4, s21, s4
 800a2be:	ee6b 6aa6 	vmul.f32	s13, s23, s13
 800a2c2:	ee6b 5a25 	vmul.f32	s11, s22, s11
 800a2c6:	ee68 2a22 	vmul.f32	s5, s16, s5
 800a2ca:	ee2c 4a04 	vmul.f32	s8, s24, s8
 800a2ce:	ee29 7a87 	vmul.f32	s14, s19, s14
 800a2d2:	ee6d 7a27 	vmul.f32	s15, s26, s15
 800a2d6:	ee73 3ac2 	vsub.f32	s7, s7, s4
 800a2da:	ee7e ea81 	vadd.f32	s29, s29, s2
 800a2de:	ee36 6ac6 	vsub.f32	s12, s13, s12
 800a2e2:	ee3f 5a85 	vadd.f32	s10, s31, s10
 800a2e6:	ee75 4ae4 	vsub.f32	s9, s11, s9
 800a2ea:	edc4 ea00 	vstr	s29, [r4]
 800a2ee:	ee30 0a21 	vadd.f32	s0, s0, s3
 800a2f2:	ed84 6a01 	vstr	s12, [r4, #4]
 800a2f6:	ee74 2a62 	vsub.f32	s5, s8, s5
 800a2fa:	edc1 0a00 	vstr	s1, [r1]
 800a2fe:	ee33 3a0f 	vadd.f32	s6, s6, s30
 800a302:	edc1 3a01 	vstr	s7, [r1, #4]
 800a306:	ee37 7ac7 	vsub.f32	s14, s15, s14
 800a30a:	ed86 5a00 	vstr	s10, [r6]
 800a30e:	edc6 4a01 	vstr	s9, [r6, #4]
 800a312:	4419      	add	r1, r3
 800a314:	ed80 0a00 	vstr	s0, [r0]
 800a318:	441c      	add	r4, r3
 800a31a:	edc0 2a01 	vstr	s5, [r0, #4]
 800a31e:	441e      	add	r6, r3
 800a320:	ed85 3a00 	vstr	s6, [r5]
 800a324:	4418      	add	r0, r3
 800a326:	ed85 7a01 	vstr	s14, [r5, #4]
 800a32a:	441d      	add	r5, r3
 800a32c:	f63f aee8 	bhi.w	800a100 <arm_radix8_butterfly_f32+0x2fc>
 800a330:	990b      	ldr	r1, [sp, #44]	; 0x2c
 800a332:	9a03      	ldr	r2, [sp, #12]
 800a334:	3108      	adds	r1, #8
 800a336:	3201      	adds	r2, #1
 800a338:	910b      	str	r1, [sp, #44]	; 0x2c
 800a33a:	990a      	ldr	r1, [sp, #40]	; 0x28
 800a33c:	9203      	str	r2, [sp, #12]
 800a33e:	3108      	adds	r1, #8
 800a340:	910a      	str	r1, [sp, #40]	; 0x28
 800a342:	9909      	ldr	r1, [sp, #36]	; 0x24
 800a344:	3108      	adds	r1, #8
 800a346:	9109      	str	r1, [sp, #36]	; 0x24
 800a348:	9908      	ldr	r1, [sp, #32]
 800a34a:	3108      	adds	r1, #8
 800a34c:	9108      	str	r1, [sp, #32]
 800a34e:	9907      	ldr	r1, [sp, #28]
 800a350:	3108      	adds	r1, #8
 800a352:	9107      	str	r1, [sp, #28]
 800a354:	9906      	ldr	r1, [sp, #24]
 800a356:	3108      	adds	r1, #8
 800a358:	9106      	str	r1, [sp, #24]
 800a35a:	9905      	ldr	r1, [sp, #20]
 800a35c:	3108      	adds	r1, #8
 800a35e:	9105      	str	r1, [sp, #20]
 800a360:	9904      	ldr	r1, [sp, #16]
 800a362:	3108      	adds	r1, #8
 800a364:	9104      	str	r1, [sp, #16]
 800a366:	990d      	ldr	r1, [sp, #52]	; 0x34
 800a368:	4291      	cmp	r1, r2
 800a36a:	f47f ae76 	bne.w	800a05a <arm_radix8_butterfly_f32+0x256>
 800a36e:	9b0e      	ldr	r3, [sp, #56]	; 0x38
 800a370:	468a      	mov	sl, r1
 800a372:	00db      	lsls	r3, r3, #3
 800a374:	b29b      	uxth	r3, r3
 800a376:	930e      	str	r3, [sp, #56]	; 0x38
 800a378:	e553      	b.n	8009e22 <arm_radix8_butterfly_f32+0x1e>
 800a37a:	b013      	add	sp, #76	; 0x4c
 800a37c:	ecbd 8b10 	vpop	{d8-d15}
 800a380:	e8bd 8ff0 	ldmia.w	sp!, {r4, r5, r6, r7, r8, r9, sl, fp, pc}

0800a384 <gcvt>:
 800a384:	b530      	push	{r4, r5, lr}
 800a386:	ed2d 8b02 	vpush	{d8}
 800a38a:	eeb0 8a40 	vmov.f32	s16, s0
 800a38e:	eef0 8a60 	vmov.f32	s17, s1
 800a392:	460c      	mov	r4, r1
 800a394:	2200      	movs	r2, #0
 800a396:	b083      	sub	sp, #12
 800a398:	4605      	mov	r5, r0
 800a39a:	2300      	movs	r3, #0
 800a39c:	ec51 0b10 	vmov	r0, r1, d0
 800a3a0:	f7f6 fb64 	bl	8000a6c <__aeabi_dcmplt>
 800a3a4:	4622      	mov	r2, r4
 800a3a6:	b118      	cbz	r0, 800a3b0 <gcvt+0x2c>
 800a3a8:	232d      	movs	r3, #45	; 0x2d
 800a3aa:	f802 3b01 	strb.w	r3, [r2], #1
 800a3ae:	3d01      	subs	r5, #1
 800a3b0:	2300      	movs	r3, #0
 800a3b2:	4809      	ldr	r0, [pc, #36]	; (800a3d8 <gcvt+0x54>)
 800a3b4:	9300      	str	r3, [sp, #0]
 800a3b6:	4629      	mov	r1, r5
 800a3b8:	2367      	movs	r3, #103	; 0x67
 800a3ba:	eeb0 0a48 	vmov.f32	s0, s16
 800a3be:	eef0 0a68 	vmov.f32	s1, s17
 800a3c2:	6800      	ldr	r0, [r0, #0]
 800a3c4:	f000 f91c 	bl	800a600 <_gcvt>
 800a3c8:	2800      	cmp	r0, #0
 800a3ca:	bf14      	ite	ne
 800a3cc:	4620      	movne	r0, r4
 800a3ce:	2000      	moveq	r0, #0
 800a3d0:	b003      	add	sp, #12
 800a3d2:	ecbd 8b02 	vpop	{d8}
 800a3d6:	bd30      	pop	{r4, r5, pc}
 800a3d8:	2000002c 	.word	0x2000002c

0800a3dc <__libc_init_array>:
 800a3dc:	b570      	push	{r4, r5, r6, lr}
 800a3de:	4e0d      	ldr	r6, [pc, #52]	; (800a414 <__libc_init_array+0x38>)
 800a3e0:	4c0d      	ldr	r4, [pc, #52]	; (800a418 <__libc_init_array+0x3c>)
 800a3e2:	1ba4      	subs	r4, r4, r6
 800a3e4:	10a4      	asrs	r4, r4, #2
 800a3e6:	2500      	movs	r5, #0
 800a3e8:	42a5      	cmp	r5, r4
 800a3ea:	d109      	bne.n	800a400 <__libc_init_array+0x24>
 800a3ec:	4e0b      	ldr	r6, [pc, #44]	; (800a41c <__libc_init_array+0x40>)
 800a3ee:	4c0c      	ldr	r4, [pc, #48]	; (800a420 <__libc_init_array+0x44>)
 800a3f0:	f001 fda2 	bl	800bf38 <_init>
 800a3f4:	1ba4      	subs	r4, r4, r6
 800a3f6:	10a4      	asrs	r4, r4, #2
 800a3f8:	2500      	movs	r5, #0
 800a3fa:	42a5      	cmp	r5, r4
 800a3fc:	d105      	bne.n	800a40a <__libc_init_array+0x2e>
 800a3fe:	bd70      	pop	{r4, r5, r6, pc}
 800a400:	f856 3025 	ldr.w	r3, [r6, r5, lsl #2]
 800a404:	4798      	blx	r3
 800a406:	3501      	adds	r5, #1
 800a408:	e7ee      	b.n	800a3e8 <__libc_init_array+0xc>
 800a40a:	f856 3025 	ldr.w	r3, [r6, r5, lsl #2]
 800a40e:	4798      	blx	r3
 800a410:	3501      	adds	r5, #1
 800a412:	e7f2      	b.n	800a3fa <__libc_init_array+0x1e>
 800a414:	0802e14c 	.word	0x0802e14c
 800a418:	0802e14c 	.word	0x0802e14c
 800a41c:	0802e14c 	.word	0x0802e14c
 800a420:	0802e150 	.word	0x0802e150

0800a424 <__itoa>:
 800a424:	1e93      	subs	r3, r2, #2
 800a426:	2b22      	cmp	r3, #34	; 0x22
 800a428:	b510      	push	{r4, lr}
 800a42a:	460c      	mov	r4, r1
 800a42c:	d904      	bls.n	800a438 <__itoa+0x14>
 800a42e:	2300      	movs	r3, #0
 800a430:	700b      	strb	r3, [r1, #0]
 800a432:	461c      	mov	r4, r3
 800a434:	4620      	mov	r0, r4
 800a436:	bd10      	pop	{r4, pc}
 800a438:	2a0a      	cmp	r2, #10
 800a43a:	d109      	bne.n	800a450 <__itoa+0x2c>
 800a43c:	2800      	cmp	r0, #0
 800a43e:	da07      	bge.n	800a450 <__itoa+0x2c>
 800a440:	232d      	movs	r3, #45	; 0x2d
 800a442:	700b      	strb	r3, [r1, #0]
 800a444:	4240      	negs	r0, r0
 800a446:	2101      	movs	r1, #1
 800a448:	4421      	add	r1, r4
 800a44a:	f000 f825 	bl	800a498 <__utoa>
 800a44e:	e7f1      	b.n	800a434 <__itoa+0x10>
 800a450:	2100      	movs	r1, #0
 800a452:	e7f9      	b.n	800a448 <__itoa+0x24>

0800a454 <itoa>:
 800a454:	f7ff bfe6 	b.w	800a424 <__itoa>

0800a458 <memset>:
 800a458:	4402      	add	r2, r0
 800a45a:	4603      	mov	r3, r0
 800a45c:	4293      	cmp	r3, r2
 800a45e:	d100      	bne.n	800a462 <memset+0xa>
 800a460:	4770      	bx	lr
 800a462:	f803 1b01 	strb.w	r1, [r3], #1
 800a466:	e7f9      	b.n	800a45c <memset+0x4>

0800a468 <strcat>:
 800a468:	b510      	push	{r4, lr}
 800a46a:	4602      	mov	r2, r0
 800a46c:	4613      	mov	r3, r2
 800a46e:	3201      	adds	r2, #1
 800a470:	781c      	ldrb	r4, [r3, #0]
 800a472:	2c00      	cmp	r4, #0
 800a474:	d1fa      	bne.n	800a46c <strcat+0x4>
 800a476:	3b01      	subs	r3, #1
 800a478:	f811 2b01 	ldrb.w	r2, [r1], #1
 800a47c:	f803 2f01 	strb.w	r2, [r3, #1]!
 800a480:	2a00      	cmp	r2, #0
 800a482:	d1f9      	bne.n	800a478 <strcat+0x10>
 800a484:	bd10      	pop	{r4, pc}

0800a486 <strcpy>:
 800a486:	4603      	mov	r3, r0
 800a488:	f811 2b01 	ldrb.w	r2, [r1], #1
 800a48c:	f803 2b01 	strb.w	r2, [r3], #1
 800a490:	2a00      	cmp	r2, #0
 800a492:	d1f9      	bne.n	800a488 <strcpy+0x2>
 800a494:	4770      	bx	lr
	...

0800a498 <__utoa>:
 800a498:	b5f0      	push	{r4, r5, r6, r7, lr}
 800a49a:	4c1e      	ldr	r4, [pc, #120]	; (800a514 <__utoa+0x7c>)
 800a49c:	b08b      	sub	sp, #44	; 0x2c
 800a49e:	4603      	mov	r3, r0
 800a4a0:	460f      	mov	r7, r1
 800a4a2:	466d      	mov	r5, sp
 800a4a4:	f104 0e20 	add.w	lr, r4, #32
 800a4a8:	6820      	ldr	r0, [r4, #0]
 800a4aa:	6861      	ldr	r1, [r4, #4]
 800a4ac:	462e      	mov	r6, r5
 800a4ae:	c603      	stmia	r6!, {r0, r1}
 800a4b0:	3408      	adds	r4, #8
 800a4b2:	4574      	cmp	r4, lr
 800a4b4:	4635      	mov	r5, r6
 800a4b6:	d1f7      	bne.n	800a4a8 <__utoa+0x10>
 800a4b8:	7921      	ldrb	r1, [r4, #4]
 800a4ba:	7131      	strb	r1, [r6, #4]
 800a4bc:	1e91      	subs	r1, r2, #2
 800a4be:	6820      	ldr	r0, [r4, #0]
 800a4c0:	6030      	str	r0, [r6, #0]
 800a4c2:	2922      	cmp	r1, #34	; 0x22
 800a4c4:	f04f 0100 	mov.w	r1, #0
 800a4c8:	d904      	bls.n	800a4d4 <__utoa+0x3c>
 800a4ca:	7039      	strb	r1, [r7, #0]
 800a4cc:	460f      	mov	r7, r1
 800a4ce:	4638      	mov	r0, r7
 800a4d0:	b00b      	add	sp, #44	; 0x2c
 800a4d2:	bdf0      	pop	{r4, r5, r6, r7, pc}
 800a4d4:	1e78      	subs	r0, r7, #1
 800a4d6:	4606      	mov	r6, r0
 800a4d8:	fbb3 f5f2 	udiv	r5, r3, r2
 800a4dc:	f10d 0e28 	add.w	lr, sp, #40	; 0x28
 800a4e0:	fb02 3315 	mls	r3, r2, r5, r3
 800a4e4:	4473      	add	r3, lr
 800a4e6:	1c4c      	adds	r4, r1, #1
 800a4e8:	f813 3c28 	ldrb.w	r3, [r3, #-40]
 800a4ec:	f806 3f01 	strb.w	r3, [r6, #1]!
 800a4f0:	462b      	mov	r3, r5
 800a4f2:	b965      	cbnz	r5, 800a50e <__utoa+0x76>
 800a4f4:	553d      	strb	r5, [r7, r4]
 800a4f6:	187a      	adds	r2, r7, r1
 800a4f8:	1acc      	subs	r4, r1, r3
 800a4fa:	42a3      	cmp	r3, r4
 800a4fc:	dae7      	bge.n	800a4ce <__utoa+0x36>
 800a4fe:	7844      	ldrb	r4, [r0, #1]
 800a500:	7815      	ldrb	r5, [r2, #0]
 800a502:	f800 5f01 	strb.w	r5, [r0, #1]!
 800a506:	3301      	adds	r3, #1
 800a508:	f802 4901 	strb.w	r4, [r2], #-1
 800a50c:	e7f4      	b.n	800a4f8 <__utoa+0x60>
 800a50e:	4621      	mov	r1, r4
 800a510:	e7e2      	b.n	800a4d8 <__utoa+0x40>
 800a512:	bf00      	nop
 800a514:	0802e00c 	.word	0x0802e00c

0800a518 <print_e>:
 800a518:	b5f0      	push	{r4, r5, r6, r7, lr}
 800a51a:	b087      	sub	sp, #28
 800a51c:	ec43 2b10 	vmov	d0, r2, r3
 800a520:	9c0c      	ldr	r4, [sp, #48]	; 0x30
 800a522:	f89d 6034 	ldrb.w	r6, [sp, #52]	; 0x34
 800a526:	9d0e      	ldr	r5, [sp, #56]	; 0x38
 800a528:	ab04      	add	r3, sp, #16
 800a52a:	9301      	str	r3, [sp, #4]
 800a52c:	ab03      	add	r3, sp, #12
 800a52e:	9300      	str	r3, [sp, #0]
 800a530:	460f      	mov	r7, r1
 800a532:	ab05      	add	r3, sp, #20
 800a534:	2102      	movs	r1, #2
 800a536:	1c62      	adds	r2, r4, #1
 800a538:	f000 fd1e 	bl	800af78 <_dtoa_r>
 800a53c:	4601      	mov	r1, r0
 800a53e:	9805      	ldr	r0, [sp, #20]
 800a540:	f242 730f 	movw	r3, #9999	; 0x270f
 800a544:	4298      	cmp	r0, r3
 800a546:	d104      	bne.n	800a552 <print_e+0x3a>
 800a548:	4638      	mov	r0, r7
 800a54a:	f7ff ff9c 	bl	800a486 <strcpy>
 800a54e:	b007      	add	sp, #28
 800a550:	bdf0      	pop	{r4, r5, r6, r7, pc}
 800a552:	780b      	ldrb	r3, [r1, #0]
 800a554:	703b      	strb	r3, [r7, #0]
 800a556:	b945      	cbnz	r5, 800a56a <print_e+0x52>
 800a558:	b93c      	cbnz	r4, 800a56a <print_e+0x52>
 800a55a:	1c7b      	adds	r3, r7, #1
 800a55c:	f811 2f01 	ldrb.w	r2, [r1, #1]!
 800a560:	b93a      	cbnz	r2, 800a572 <print_e+0x5a>
 800a562:	2e67      	cmp	r6, #103	; 0x67
 800a564:	d10b      	bne.n	800a57e <print_e+0x66>
 800a566:	2665      	movs	r6, #101	; 0x65
 800a568:	e014      	b.n	800a594 <print_e+0x7c>
 800a56a:	222e      	movs	r2, #46	; 0x2e
 800a56c:	1cbb      	adds	r3, r7, #2
 800a56e:	707a      	strb	r2, [r7, #1]
 800a570:	e7f4      	b.n	800a55c <print_e+0x44>
 800a572:	2c00      	cmp	r4, #0
 800a574:	ddf5      	ble.n	800a562 <print_e+0x4a>
 800a576:	f803 2b01 	strb.w	r2, [r3], #1
 800a57a:	3c01      	subs	r4, #1
 800a57c:	e7ee      	b.n	800a55c <print_e+0x44>
 800a57e:	2e47      	cmp	r6, #71	; 0x47
 800a580:	d03c      	beq.n	800a5fc <print_e+0xe4>
 800a582:	4619      	mov	r1, r3
 800a584:	2530      	movs	r5, #48	; 0x30
 800a586:	1a62      	subs	r2, r4, r1
 800a588:	441a      	add	r2, r3
 800a58a:	2a00      	cmp	r2, #0
 800a58c:	dc33      	bgt.n	800a5f6 <print_e+0xde>
 800a58e:	2c00      	cmp	r4, #0
 800a590:	bfa8      	it	ge
 800a592:	191b      	addge	r3, r3, r4
 800a594:	1e41      	subs	r1, r0, #1
 800a596:	2900      	cmp	r1, #0
 800a598:	bfb8      	it	lt
 800a59a:	f1c0 0001 	rsblt	r0, r0, #1
 800a59e:	461a      	mov	r2, r3
 800a5a0:	9105      	str	r1, [sp, #20]
 800a5a2:	bfac      	ite	ge
 800a5a4:	202b      	movge	r0, #43	; 0x2b
 800a5a6:	9005      	strlt	r0, [sp, #20]
 800a5a8:	f802 6b02 	strb.w	r6, [r2], #2
 800a5ac:	bfa8      	it	ge
 800a5ae:	7058      	strbge	r0, [r3, #1]
 800a5b0:	9805      	ldr	r0, [sp, #20]
 800a5b2:	bfbc      	itt	lt
 800a5b4:	242d      	movlt	r4, #45	; 0x2d
 800a5b6:	705c      	strblt	r4, [r3, #1]
 800a5b8:	2863      	cmp	r0, #99	; 0x63
 800a5ba:	4611      	mov	r1, r2
 800a5bc:	dd0b      	ble.n	800a5d6 <print_e+0xbe>
 800a5be:	2364      	movs	r3, #100	; 0x64
 800a5c0:	fb90 f3f3 	sdiv	r3, r0, r3
 800a5c4:	f103 0130 	add.w	r1, r3, #48	; 0x30
 800a5c8:	7011      	strb	r1, [r2, #0]
 800a5ca:	f06f 0163 	mvn.w	r1, #99	; 0x63
 800a5ce:	fb01 0303 	mla	r3, r1, r3, r0
 800a5d2:	9305      	str	r3, [sp, #20]
 800a5d4:	1c51      	adds	r1, r2, #1
 800a5d6:	9a05      	ldr	r2, [sp, #20]
 800a5d8:	230a      	movs	r3, #10
 800a5da:	fb92 f3f3 	sdiv	r3, r2, r3
 800a5de:	f103 0030 	add.w	r0, r3, #48	; 0x30
 800a5e2:	7008      	strb	r0, [r1, #0]
 800a5e4:	f06f 0009 	mvn.w	r0, #9
 800a5e8:	fb00 2303 	mla	r3, r0, r3, r2
 800a5ec:	3330      	adds	r3, #48	; 0x30
 800a5ee:	704b      	strb	r3, [r1, #1]
 800a5f0:	2300      	movs	r3, #0
 800a5f2:	708b      	strb	r3, [r1, #2]
 800a5f4:	e7ab      	b.n	800a54e <print_e+0x36>
 800a5f6:	f801 5b01 	strb.w	r5, [r1], #1
 800a5fa:	e7c4      	b.n	800a586 <print_e+0x6e>
 800a5fc:	2645      	movs	r6, #69	; 0x45
 800a5fe:	e7c9      	b.n	800a594 <print_e+0x7c>

0800a600 <_gcvt>:
 800a600:	e92d 47f0 	stmdb	sp!, {r4, r5, r6, r7, r8, r9, sl, lr}
 800a604:	ec55 4b10 	vmov	r4, r5, d0
 800a608:	b088      	sub	sp, #32
 800a60a:	4681      	mov	r9, r0
 800a60c:	4688      	mov	r8, r1
 800a60e:	4616      	mov	r6, r2
 800a610:	469a      	mov	sl, r3
 800a612:	2200      	movs	r2, #0
 800a614:	2300      	movs	r3, #0
 800a616:	ee10 0a10 	vmov	r0, s0
 800a61a:	4629      	mov	r1, r5
 800a61c:	9f10      	ldr	r7, [sp, #64]	; 0x40
 800a61e:	f7f6 fa25 	bl	8000a6c <__aeabi_dcmplt>
 800a622:	b110      	cbz	r0, 800a62a <_gcvt+0x2a>
 800a624:	f105 4300 	add.w	r3, r5, #2147483648	; 0x80000000
 800a628:	461d      	mov	r5, r3
 800a62a:	2200      	movs	r2, #0
 800a62c:	2300      	movs	r3, #0
 800a62e:	4620      	mov	r0, r4
 800a630:	4629      	mov	r1, r5
 800a632:	f7f6 fa11 	bl	8000a58 <__aeabi_dcmpeq>
 800a636:	b138      	cbz	r0, 800a648 <_gcvt+0x48>
 800a638:	2330      	movs	r3, #48	; 0x30
 800a63a:	7033      	strb	r3, [r6, #0]
 800a63c:	2300      	movs	r3, #0
 800a63e:	7073      	strb	r3, [r6, #1]
 800a640:	4630      	mov	r0, r6
 800a642:	b008      	add	sp, #32
 800a644:	e8bd 87f0 	ldmia.w	sp!, {r4, r5, r6, r7, r8, r9, sl, pc}
 800a648:	a34e      	add	r3, pc, #312	; (adr r3, 800a784 <_gcvt+0x184>)
 800a64a:	e9d3 2300 	ldrd	r2, r3, [r3]
 800a64e:	4620      	mov	r0, r4
 800a650:	4629      	mov	r1, r5
 800a652:	f7f6 fa15 	bl	8000a80 <__aeabi_dcmple>
 800a656:	b160      	cbz	r0, 800a672 <_gcvt+0x72>
 800a658:	f108 33ff 	add.w	r3, r8, #4294967295
 800a65c:	9300      	str	r3, [sp, #0]
 800a65e:	9702      	str	r7, [sp, #8]
 800a660:	f8cd a004 	str.w	sl, [sp, #4]
 800a664:	4622      	mov	r2, r4
 800a666:	462b      	mov	r3, r5
 800a668:	4631      	mov	r1, r6
 800a66a:	4648      	mov	r0, r9
 800a66c:	f7ff ff54 	bl	800a518 <print_e>
 800a670:	e7e6      	b.n	800a640 <_gcvt+0x40>
 800a672:	4640      	mov	r0, r8
 800a674:	f000 fb5a 	bl	800ad2c <_mprec_log10>
 800a678:	4620      	mov	r0, r4
 800a67a:	ec53 2b10 	vmov	r2, r3, d0
 800a67e:	4629      	mov	r1, r5
 800a680:	f7f6 fa08 	bl	8000a94 <__aeabi_dcmpge>
 800a684:	2800      	cmp	r0, #0
 800a686:	d1e7      	bne.n	800a658 <_gcvt+0x58>
 800a688:	2200      	movs	r2, #0
 800a68a:	4b3d      	ldr	r3, [pc, #244]	; (800a780 <_gcvt+0x180>)
 800a68c:	4620      	mov	r0, r4
 800a68e:	4629      	mov	r1, r5
 800a690:	f7f6 f9ec 	bl	8000a6c <__aeabi_dcmplt>
 800a694:	aa07      	add	r2, sp, #28
 800a696:	ab06      	add	r3, sp, #24
 800a698:	9201      	str	r2, [sp, #4]
 800a69a:	9300      	str	r3, [sp, #0]
 800a69c:	4642      	mov	r2, r8
 800a69e:	ab05      	add	r3, sp, #20
 800a6a0:	b1e0      	cbz	r0, 800a6dc <_gcvt+0xdc>
 800a6a2:	2103      	movs	r1, #3
 800a6a4:	ec45 4b10 	vmov	d0, r4, r5
 800a6a8:	4648      	mov	r0, r9
 800a6aa:	f000 fc65 	bl	800af78 <_dtoa_r>
 800a6ae:	9a05      	ldr	r2, [sp, #20]
 800a6b0:	f242 730f 	movw	r3, #9999	; 0x270f
 800a6b4:	429a      	cmp	r2, r3
 800a6b6:	d013      	beq.n	800a6e0 <_gcvt+0xe0>
 800a6b8:	4633      	mov	r3, r6
 800a6ba:	7801      	ldrb	r1, [r0, #0]
 800a6bc:	9d05      	ldr	r5, [sp, #20]
 800a6be:	eba8 0203 	sub.w	r2, r8, r3
 800a6c2:	4604      	mov	r4, r0
 800a6c4:	4432      	add	r2, r6
 800a6c6:	3001      	adds	r0, #1
 800a6c8:	b9a1      	cbnz	r1, 800a6f4 <_gcvt+0xf4>
 800a6ca:	1aad      	subs	r5, r5, r2
 800a6cc:	f04f 0e30 	mov.w	lr, #48	; 0x30
 800a6d0:	18a8      	adds	r0, r5, r2
 800a6d2:	2800      	cmp	r0, #0
 800a6d4:	dc37      	bgt.n	800a746 <_gcvt+0x146>
 800a6d6:	b179      	cbz	r1, 800a6f8 <_gcvt+0xf8>
 800a6d8:	9005      	str	r0, [sp, #20]
 800a6da:	e00d      	b.n	800a6f8 <_gcvt+0xf8>
 800a6dc:	2102      	movs	r1, #2
 800a6de:	e7e1      	b.n	800a6a4 <_gcvt+0xa4>
 800a6e0:	4601      	mov	r1, r0
 800a6e2:	4630      	mov	r0, r6
 800a6e4:	f7ff fecf 	bl	800a486 <strcpy>
 800a6e8:	e7aa      	b.n	800a640 <_gcvt+0x40>
 800a6ea:	3d01      	subs	r5, #1
 800a6ec:	f803 1b01 	strb.w	r1, [r3], #1
 800a6f0:	9505      	str	r5, [sp, #20]
 800a6f2:	e7e2      	b.n	800a6ba <_gcvt+0xba>
 800a6f4:	2d00      	cmp	r5, #0
 800a6f6:	dcf8      	bgt.n	800a6ea <_gcvt+0xea>
 800a6f8:	b90f      	cbnz	r7, 800a6fe <_gcvt+0xfe>
 800a6fa:	7821      	ldrb	r1, [r4, #0]
 800a6fc:	b301      	cbz	r1, 800a740 <_gcvt+0x140>
 800a6fe:	429e      	cmp	r6, r3
 800a700:	bf02      	ittt	eq
 800a702:	1c73      	addeq	r3, r6, #1
 800a704:	2130      	moveq	r1, #48	; 0x30
 800a706:	7031      	strbeq	r1, [r6, #0]
 800a708:	212e      	movs	r1, #46	; 0x2e
 800a70a:	7019      	strb	r1, [r3, #0]
 800a70c:	9905      	ldr	r1, [sp, #20]
 800a70e:	3301      	adds	r3, #1
 800a710:	2000      	movs	r0, #0
 800a712:	f04f 0e30 	mov.w	lr, #48	; 0x30
 800a716:	2900      	cmp	r1, #0
 800a718:	460d      	mov	r5, r1
 800a71a:	db20      	blt.n	800a75e <_gcvt+0x15e>
 800a71c:	b100      	cbz	r0, 800a720 <_gcvt+0x120>
 800a71e:	9105      	str	r1, [sp, #20]
 800a720:	3c01      	subs	r4, #1
 800a722:	f814 1f01 	ldrb.w	r1, [r4, #1]!
 800a726:	b109      	cbz	r1, 800a72c <_gcvt+0x12c>
 800a728:	2a00      	cmp	r2, #0
 800a72a:	dc20      	bgt.n	800a76e <_gcvt+0x16e>
 800a72c:	b147      	cbz	r7, 800a740 <_gcvt+0x140>
 800a72e:	4618      	mov	r0, r3
 800a730:	2430      	movs	r4, #48	; 0x30
 800a732:	1a11      	subs	r1, r2, r0
 800a734:	4419      	add	r1, r3
 800a736:	2900      	cmp	r1, #0
 800a738:	dc1d      	bgt.n	800a776 <_gcvt+0x176>
 800a73a:	2a00      	cmp	r2, #0
 800a73c:	bfa8      	it	ge
 800a73e:	189b      	addge	r3, r3, r2
 800a740:	2200      	movs	r2, #0
 800a742:	701a      	strb	r2, [r3, #0]
 800a744:	e77c      	b.n	800a640 <_gcvt+0x40>
 800a746:	2a00      	cmp	r2, #0
 800a748:	ddc5      	ble.n	800a6d6 <_gcvt+0xd6>
 800a74a:	f803 eb01 	strb.w	lr, [r3], #1
 800a74e:	3a01      	subs	r2, #1
 800a750:	2101      	movs	r1, #1
 800a752:	e7bd      	b.n	800a6d0 <_gcvt+0xd0>
 800a754:	f803 eb01 	strb.w	lr, [r3], #1
 800a758:	3a01      	subs	r2, #1
 800a75a:	2001      	movs	r0, #1
 800a75c:	e7db      	b.n	800a716 <_gcvt+0x116>
 800a75e:	2a00      	cmp	r2, #0
 800a760:	f101 0101 	add.w	r1, r1, #1
 800a764:	dcf6      	bgt.n	800a754 <_gcvt+0x154>
 800a766:	2800      	cmp	r0, #0
 800a768:	d0da      	beq.n	800a720 <_gcvt+0x120>
 800a76a:	9505      	str	r5, [sp, #20]
 800a76c:	e7d8      	b.n	800a720 <_gcvt+0x120>
 800a76e:	f803 1b01 	strb.w	r1, [r3], #1
 800a772:	3a01      	subs	r2, #1
 800a774:	e7d5      	b.n	800a722 <_gcvt+0x122>
 800a776:	f800 4b01 	strb.w	r4, [r0], #1
 800a77a:	e7da      	b.n	800a732 <_gcvt+0x132>
 800a77c:	f3af 8000 	nop.w
 800a780:	3ff00000 	.word	0x3ff00000
 800a784:	eb1c432d 	.word	0xeb1c432d
 800a788:	3f1a36e2 	.word	0x3f1a36e2

0800a78c <_Balloc>:
 800a78c:	b570      	push	{r4, r5, r6, lr}
 800a78e:	6a45      	ldr	r5, [r0, #36]	; 0x24
 800a790:	4604      	mov	r4, r0
 800a792:	460e      	mov	r6, r1
 800a794:	b93d      	cbnz	r5, 800a7a6 <_Balloc+0x1a>
 800a796:	2010      	movs	r0, #16
 800a798:	f001 f9bc 	bl	800bb14 <malloc>
 800a79c:	6260      	str	r0, [r4, #36]	; 0x24
 800a79e:	6045      	str	r5, [r0, #4]
 800a7a0:	6085      	str	r5, [r0, #8]
 800a7a2:	6005      	str	r5, [r0, #0]
 800a7a4:	60c5      	str	r5, [r0, #12]
 800a7a6:	6a65      	ldr	r5, [r4, #36]	; 0x24
 800a7a8:	68eb      	ldr	r3, [r5, #12]
 800a7aa:	b183      	cbz	r3, 800a7ce <_Balloc+0x42>
 800a7ac:	6a63      	ldr	r3, [r4, #36]	; 0x24
 800a7ae:	68db      	ldr	r3, [r3, #12]
 800a7b0:	f853 0026 	ldr.w	r0, [r3, r6, lsl #2]
 800a7b4:	b9b8      	cbnz	r0, 800a7e6 <_Balloc+0x5a>
 800a7b6:	2101      	movs	r1, #1
 800a7b8:	fa01 f506 	lsl.w	r5, r1, r6
 800a7bc:	1d6a      	adds	r2, r5, #5
 800a7be:	0092      	lsls	r2, r2, #2
 800a7c0:	4620      	mov	r0, r4
 800a7c2:	f000 fad1 	bl	800ad68 <_calloc_r>
 800a7c6:	b160      	cbz	r0, 800a7e2 <_Balloc+0x56>
 800a7c8:	6046      	str	r6, [r0, #4]
 800a7ca:	6085      	str	r5, [r0, #8]
 800a7cc:	e00e      	b.n	800a7ec <_Balloc+0x60>
 800a7ce:	2221      	movs	r2, #33	; 0x21
 800a7d0:	2104      	movs	r1, #4
 800a7d2:	4620      	mov	r0, r4
 800a7d4:	f000 fac8 	bl	800ad68 <_calloc_r>
 800a7d8:	6a63      	ldr	r3, [r4, #36]	; 0x24
 800a7da:	60e8      	str	r0, [r5, #12]
 800a7dc:	68db      	ldr	r3, [r3, #12]
 800a7de:	2b00      	cmp	r3, #0
 800a7e0:	d1e4      	bne.n	800a7ac <_Balloc+0x20>
 800a7e2:	2000      	movs	r0, #0
 800a7e4:	bd70      	pop	{r4, r5, r6, pc}
 800a7e6:	6802      	ldr	r2, [r0, #0]
 800a7e8:	f843 2026 	str.w	r2, [r3, r6, lsl #2]
 800a7ec:	2300      	movs	r3, #0
 800a7ee:	6103      	str	r3, [r0, #16]
 800a7f0:	60c3      	str	r3, [r0, #12]
 800a7f2:	bd70      	pop	{r4, r5, r6, pc}

0800a7f4 <_Bfree>:
 800a7f4:	b570      	push	{r4, r5, r6, lr}
 800a7f6:	6a44      	ldr	r4, [r0, #36]	; 0x24
 800a7f8:	4606      	mov	r6, r0
 800a7fa:	460d      	mov	r5, r1
 800a7fc:	b93c      	cbnz	r4, 800a80e <_Bfree+0x1a>
 800a7fe:	2010      	movs	r0, #16
 800a800:	f001 f988 	bl	800bb14 <malloc>
 800a804:	6270      	str	r0, [r6, #36]	; 0x24
 800a806:	6044      	str	r4, [r0, #4]
 800a808:	6084      	str	r4, [r0, #8]
 800a80a:	6004      	str	r4, [r0, #0]
 800a80c:	60c4      	str	r4, [r0, #12]
 800a80e:	b13d      	cbz	r5, 800a820 <_Bfree+0x2c>
 800a810:	6a73      	ldr	r3, [r6, #36]	; 0x24
 800a812:	686a      	ldr	r2, [r5, #4]
 800a814:	68db      	ldr	r3, [r3, #12]
 800a816:	f853 1022 	ldr.w	r1, [r3, r2, lsl #2]
 800a81a:	6029      	str	r1, [r5, #0]
 800a81c:	f843 5022 	str.w	r5, [r3, r2, lsl #2]
 800a820:	bd70      	pop	{r4, r5, r6, pc}

0800a822 <__multadd>:
 800a822:	e92d 41f0 	stmdb	sp!, {r4, r5, r6, r7, r8, lr}
 800a826:	690d      	ldr	r5, [r1, #16]
 800a828:	461f      	mov	r7, r3
 800a82a:	4606      	mov	r6, r0
 800a82c:	460c      	mov	r4, r1
 800a82e:	f101 0e14 	add.w	lr, r1, #20
 800a832:	2300      	movs	r3, #0
 800a834:	f8de 0000 	ldr.w	r0, [lr]
 800a838:	b281      	uxth	r1, r0
 800a83a:	fb02 7101 	mla	r1, r2, r1, r7
 800a83e:	0c0f      	lsrs	r7, r1, #16
 800a840:	0c00      	lsrs	r0, r0, #16
 800a842:	fb02 7000 	mla	r0, r2, r0, r7
 800a846:	b289      	uxth	r1, r1
 800a848:	3301      	adds	r3, #1
 800a84a:	eb01 4100 	add.w	r1, r1, r0, lsl #16
 800a84e:	429d      	cmp	r5, r3
 800a850:	ea4f 4710 	mov.w	r7, r0, lsr #16
 800a854:	f84e 1b04 	str.w	r1, [lr], #4
 800a858:	dcec      	bgt.n	800a834 <__multadd+0x12>
 800a85a:	b1d7      	cbz	r7, 800a892 <__multadd+0x70>
 800a85c:	68a3      	ldr	r3, [r4, #8]
 800a85e:	429d      	cmp	r5, r3
 800a860:	db12      	blt.n	800a888 <__multadd+0x66>
 800a862:	6861      	ldr	r1, [r4, #4]
 800a864:	4630      	mov	r0, r6
 800a866:	3101      	adds	r1, #1
 800a868:	f7ff ff90 	bl	800a78c <_Balloc>
 800a86c:	6922      	ldr	r2, [r4, #16]
 800a86e:	3202      	adds	r2, #2
 800a870:	f104 010c 	add.w	r1, r4, #12
 800a874:	4680      	mov	r8, r0
 800a876:	0092      	lsls	r2, r2, #2
 800a878:	300c      	adds	r0, #12
 800a87a:	f001 f953 	bl	800bb24 <memcpy>
 800a87e:	4621      	mov	r1, r4
 800a880:	4630      	mov	r0, r6
 800a882:	f7ff ffb7 	bl	800a7f4 <_Bfree>
 800a886:	4644      	mov	r4, r8
 800a888:	eb04 0385 	add.w	r3, r4, r5, lsl #2
 800a88c:	3501      	adds	r5, #1
 800a88e:	615f      	str	r7, [r3, #20]
 800a890:	6125      	str	r5, [r4, #16]
 800a892:	4620      	mov	r0, r4
 800a894:	e8bd 81f0 	ldmia.w	sp!, {r4, r5, r6, r7, r8, pc}

0800a898 <__hi0bits>:
 800a898:	0c02      	lsrs	r2, r0, #16
 800a89a:	0412      	lsls	r2, r2, #16
 800a89c:	4603      	mov	r3, r0
 800a89e:	b9b2      	cbnz	r2, 800a8ce <__hi0bits+0x36>
 800a8a0:	0403      	lsls	r3, r0, #16
 800a8a2:	2010      	movs	r0, #16
 800a8a4:	f013 4f7f 	tst.w	r3, #4278190080	; 0xff000000
 800a8a8:	bf04      	itt	eq
 800a8aa:	021b      	lsleq	r3, r3, #8
 800a8ac:	3008      	addeq	r0, #8
 800a8ae:	f013 4f70 	tst.w	r3, #4026531840	; 0xf0000000
 800a8b2:	bf04      	itt	eq
 800a8b4:	011b      	lsleq	r3, r3, #4
 800a8b6:	3004      	addeq	r0, #4
 800a8b8:	f013 4f40 	tst.w	r3, #3221225472	; 0xc0000000
 800a8bc:	bf04      	itt	eq
 800a8be:	009b      	lsleq	r3, r3, #2
 800a8c0:	3002      	addeq	r0, #2
 800a8c2:	2b00      	cmp	r3, #0
 800a8c4:	db06      	blt.n	800a8d4 <__hi0bits+0x3c>
 800a8c6:	005b      	lsls	r3, r3, #1
 800a8c8:	d503      	bpl.n	800a8d2 <__hi0bits+0x3a>
 800a8ca:	3001      	adds	r0, #1
 800a8cc:	4770      	bx	lr
 800a8ce:	2000      	movs	r0, #0
 800a8d0:	e7e8      	b.n	800a8a4 <__hi0bits+0xc>
 800a8d2:	2020      	movs	r0, #32
 800a8d4:	4770      	bx	lr

0800a8d6 <__lo0bits>:
 800a8d6:	6803      	ldr	r3, [r0, #0]
 800a8d8:	f013 0207 	ands.w	r2, r3, #7
 800a8dc:	4601      	mov	r1, r0
 800a8de:	d00b      	beq.n	800a8f8 <__lo0bits+0x22>
 800a8e0:	07da      	lsls	r2, r3, #31
 800a8e2:	d423      	bmi.n	800a92c <__lo0bits+0x56>
 800a8e4:	0798      	lsls	r0, r3, #30
 800a8e6:	bf49      	itett	mi
 800a8e8:	085b      	lsrmi	r3, r3, #1
 800a8ea:	089b      	lsrpl	r3, r3, #2
 800a8ec:	2001      	movmi	r0, #1
 800a8ee:	600b      	strmi	r3, [r1, #0]
 800a8f0:	bf5c      	itt	pl
 800a8f2:	600b      	strpl	r3, [r1, #0]
 800a8f4:	2002      	movpl	r0, #2
 800a8f6:	4770      	bx	lr
 800a8f8:	b298      	uxth	r0, r3
 800a8fa:	b9a8      	cbnz	r0, 800a928 <__lo0bits+0x52>
 800a8fc:	0c1b      	lsrs	r3, r3, #16
 800a8fe:	2010      	movs	r0, #16
 800a900:	f013 0fff 	tst.w	r3, #255	; 0xff
 800a904:	bf04      	itt	eq
 800a906:	0a1b      	lsreq	r3, r3, #8
 800a908:	3008      	addeq	r0, #8
 800a90a:	071a      	lsls	r2, r3, #28
 800a90c:	bf04      	itt	eq
 800a90e:	091b      	lsreq	r3, r3, #4
 800a910:	3004      	addeq	r0, #4
 800a912:	079a      	lsls	r2, r3, #30
 800a914:	bf04      	itt	eq
 800a916:	089b      	lsreq	r3, r3, #2
 800a918:	3002      	addeq	r0, #2
 800a91a:	07da      	lsls	r2, r3, #31
 800a91c:	d402      	bmi.n	800a924 <__lo0bits+0x4e>
 800a91e:	085b      	lsrs	r3, r3, #1
 800a920:	d006      	beq.n	800a930 <__lo0bits+0x5a>
 800a922:	3001      	adds	r0, #1
 800a924:	600b      	str	r3, [r1, #0]
 800a926:	4770      	bx	lr
 800a928:	4610      	mov	r0, r2
 800a92a:	e7e9      	b.n	800a900 <__lo0bits+0x2a>
 800a92c:	2000      	movs	r0, #0
 800a92e:	4770      	bx	lr
 800a930:	2020      	movs	r0, #32
 800a932:	4770      	bx	lr

0800a934 <__i2b>:
 800a934:	b510      	push	{r4, lr}
 800a936:	460c      	mov	r4, r1
 800a938:	2101      	movs	r1, #1
 800a93a:	f7ff ff27 	bl	800a78c <_Balloc>
 800a93e:	2201      	movs	r2, #1
 800a940:	6144      	str	r4, [r0, #20]
 800a942:	6102      	str	r2, [r0, #16]
 800a944:	bd10      	pop	{r4, pc}

0800a946 <__multiply>:
 800a946:	e92d 4ff7 	stmdb	sp!, {r0, r1, r2, r4, r5, r6, r7, r8, r9, sl, fp, lr}
 800a94a:	4614      	mov	r4, r2
 800a94c:	690a      	ldr	r2, [r1, #16]
 800a94e:	6923      	ldr	r3, [r4, #16]
 800a950:	429a      	cmp	r2, r3
 800a952:	bfb8      	it	lt
 800a954:	460b      	movlt	r3, r1
 800a956:	4689      	mov	r9, r1
 800a958:	bfbc      	itt	lt
 800a95a:	46a1      	movlt	r9, r4
 800a95c:	461c      	movlt	r4, r3
 800a95e:	f8d9 7010 	ldr.w	r7, [r9, #16]
 800a962:	f8d4 a010 	ldr.w	sl, [r4, #16]
 800a966:	f8d9 3008 	ldr.w	r3, [r9, #8]
 800a96a:	f8d9 1004 	ldr.w	r1, [r9, #4]
 800a96e:	eb07 060a 	add.w	r6, r7, sl
 800a972:	429e      	cmp	r6, r3
 800a974:	bfc8      	it	gt
 800a976:	3101      	addgt	r1, #1
 800a978:	f7ff ff08 	bl	800a78c <_Balloc>
 800a97c:	f100 0514 	add.w	r5, r0, #20
 800a980:	eb05 0886 	add.w	r8, r5, r6, lsl #2
 800a984:	462b      	mov	r3, r5
 800a986:	2200      	movs	r2, #0
 800a988:	4543      	cmp	r3, r8
 800a98a:	d316      	bcc.n	800a9ba <__multiply+0x74>
 800a98c:	f104 0214 	add.w	r2, r4, #20
 800a990:	f109 0114 	add.w	r1, r9, #20
 800a994:	eb02 038a 	add.w	r3, r2, sl, lsl #2
 800a998:	eb01 0787 	add.w	r7, r1, r7, lsl #2
 800a99c:	9301      	str	r3, [sp, #4]
 800a99e:	9c01      	ldr	r4, [sp, #4]
 800a9a0:	4294      	cmp	r4, r2
 800a9a2:	4613      	mov	r3, r2
 800a9a4:	d80c      	bhi.n	800a9c0 <__multiply+0x7a>
 800a9a6:	2e00      	cmp	r6, #0
 800a9a8:	dd03      	ble.n	800a9b2 <__multiply+0x6c>
 800a9aa:	f858 3d04 	ldr.w	r3, [r8, #-4]!
 800a9ae:	2b00      	cmp	r3, #0
 800a9b0:	d054      	beq.n	800aa5c <__multiply+0x116>
 800a9b2:	6106      	str	r6, [r0, #16]
 800a9b4:	b003      	add	sp, #12
 800a9b6:	e8bd 8ff0 	ldmia.w	sp!, {r4, r5, r6, r7, r8, r9, sl, fp, pc}
 800a9ba:	f843 2b04 	str.w	r2, [r3], #4
 800a9be:	e7e3      	b.n	800a988 <__multiply+0x42>
 800a9c0:	f8b3 a000 	ldrh.w	sl, [r3]
 800a9c4:	3204      	adds	r2, #4
 800a9c6:	f1ba 0f00 	cmp.w	sl, #0
 800a9ca:	d020      	beq.n	800aa0e <__multiply+0xc8>
 800a9cc:	46ae      	mov	lr, r5
 800a9ce:	4689      	mov	r9, r1
 800a9d0:	f04f 0c00 	mov.w	ip, #0
 800a9d4:	f859 4b04 	ldr.w	r4, [r9], #4
 800a9d8:	f8be b000 	ldrh.w	fp, [lr]
 800a9dc:	b2a3      	uxth	r3, r4
 800a9de:	fb0a b303 	mla	r3, sl, r3, fp
 800a9e2:	ea4f 4b14 	mov.w	fp, r4, lsr #16
 800a9e6:	f8de 4000 	ldr.w	r4, [lr]
 800a9ea:	4463      	add	r3, ip
 800a9ec:	ea4f 4c14 	mov.w	ip, r4, lsr #16
 800a9f0:	fb0a c40b 	mla	r4, sl, fp, ip
 800a9f4:	eb04 4413 	add.w	r4, r4, r3, lsr #16
 800a9f8:	b29b      	uxth	r3, r3
 800a9fa:	ea43 4304 	orr.w	r3, r3, r4, lsl #16
 800a9fe:	454f      	cmp	r7, r9
 800aa00:	ea4f 4c14 	mov.w	ip, r4, lsr #16
 800aa04:	f84e 3b04 	str.w	r3, [lr], #4
 800aa08:	d8e4      	bhi.n	800a9d4 <__multiply+0x8e>
 800aa0a:	f8ce c000 	str.w	ip, [lr]
 800aa0e:	f832 9c02 	ldrh.w	r9, [r2, #-2]
 800aa12:	f1b9 0f00 	cmp.w	r9, #0
 800aa16:	d01f      	beq.n	800aa58 <__multiply+0x112>
 800aa18:	682b      	ldr	r3, [r5, #0]
 800aa1a:	46ae      	mov	lr, r5
 800aa1c:	468c      	mov	ip, r1
 800aa1e:	f04f 0a00 	mov.w	sl, #0
 800aa22:	f8bc 4000 	ldrh.w	r4, [ip]
 800aa26:	f8be b002 	ldrh.w	fp, [lr, #2]
 800aa2a:	fb09 b404 	mla	r4, r9, r4, fp
 800aa2e:	44a2      	add	sl, r4
 800aa30:	b29b      	uxth	r3, r3
 800aa32:	ea43 430a 	orr.w	r3, r3, sl, lsl #16
 800aa36:	f84e 3b04 	str.w	r3, [lr], #4
 800aa3a:	f85c 3b04 	ldr.w	r3, [ip], #4
 800aa3e:	f8be 4000 	ldrh.w	r4, [lr]
 800aa42:	0c1b      	lsrs	r3, r3, #16
 800aa44:	fb09 4303 	mla	r3, r9, r3, r4
 800aa48:	eb03 431a 	add.w	r3, r3, sl, lsr #16
 800aa4c:	4567      	cmp	r7, ip
 800aa4e:	ea4f 4a13 	mov.w	sl, r3, lsr #16
 800aa52:	d8e6      	bhi.n	800aa22 <__multiply+0xdc>
 800aa54:	f8ce 3000 	str.w	r3, [lr]
 800aa58:	3504      	adds	r5, #4
 800aa5a:	e7a0      	b.n	800a99e <__multiply+0x58>
 800aa5c:	3e01      	subs	r6, #1
 800aa5e:	e7a2      	b.n	800a9a6 <__multiply+0x60>

0800aa60 <__pow5mult>:
 800aa60:	e92d 43f8 	stmdb	sp!, {r3, r4, r5, r6, r7, r8, r9, lr}
 800aa64:	4615      	mov	r5, r2
 800aa66:	f012 0203 	ands.w	r2, r2, #3
 800aa6a:	4606      	mov	r6, r0
 800aa6c:	460f      	mov	r7, r1
 800aa6e:	d007      	beq.n	800aa80 <__pow5mult+0x20>
 800aa70:	3a01      	subs	r2, #1
 800aa72:	4c21      	ldr	r4, [pc, #132]	; (800aaf8 <__pow5mult+0x98>)
 800aa74:	2300      	movs	r3, #0
 800aa76:	f854 2022 	ldr.w	r2, [r4, r2, lsl #2]
 800aa7a:	f7ff fed2 	bl	800a822 <__multadd>
 800aa7e:	4607      	mov	r7, r0
 800aa80:	10ad      	asrs	r5, r5, #2
 800aa82:	d035      	beq.n	800aaf0 <__pow5mult+0x90>
 800aa84:	6a74      	ldr	r4, [r6, #36]	; 0x24
 800aa86:	b93c      	cbnz	r4, 800aa98 <__pow5mult+0x38>
 800aa88:	2010      	movs	r0, #16
 800aa8a:	f001 f843 	bl	800bb14 <malloc>
 800aa8e:	6270      	str	r0, [r6, #36]	; 0x24
 800aa90:	6044      	str	r4, [r0, #4]
 800aa92:	6084      	str	r4, [r0, #8]
 800aa94:	6004      	str	r4, [r0, #0]
 800aa96:	60c4      	str	r4, [r0, #12]
 800aa98:	f8d6 8024 	ldr.w	r8, [r6, #36]	; 0x24
 800aa9c:	f8d8 4008 	ldr.w	r4, [r8, #8]
 800aaa0:	b94c      	cbnz	r4, 800aab6 <__pow5mult+0x56>
 800aaa2:	f240 2171 	movw	r1, #625	; 0x271
 800aaa6:	4630      	mov	r0, r6
 800aaa8:	f7ff ff44 	bl	800a934 <__i2b>
 800aaac:	2300      	movs	r3, #0
 800aaae:	f8c8 0008 	str.w	r0, [r8, #8]
 800aab2:	4604      	mov	r4, r0
 800aab4:	6003      	str	r3, [r0, #0]
 800aab6:	f04f 0800 	mov.w	r8, #0
 800aaba:	07eb      	lsls	r3, r5, #31
 800aabc:	d50a      	bpl.n	800aad4 <__pow5mult+0x74>
 800aabe:	4639      	mov	r1, r7
 800aac0:	4622      	mov	r2, r4
 800aac2:	4630      	mov	r0, r6
 800aac4:	f7ff ff3f 	bl	800a946 <__multiply>
 800aac8:	4639      	mov	r1, r7
 800aaca:	4681      	mov	r9, r0
 800aacc:	4630      	mov	r0, r6
 800aace:	f7ff fe91 	bl	800a7f4 <_Bfree>
 800aad2:	464f      	mov	r7, r9
 800aad4:	106d      	asrs	r5, r5, #1
 800aad6:	d00b      	beq.n	800aaf0 <__pow5mult+0x90>
 800aad8:	6820      	ldr	r0, [r4, #0]
 800aada:	b938      	cbnz	r0, 800aaec <__pow5mult+0x8c>
 800aadc:	4622      	mov	r2, r4
 800aade:	4621      	mov	r1, r4
 800aae0:	4630      	mov	r0, r6
 800aae2:	f7ff ff30 	bl	800a946 <__multiply>
 800aae6:	6020      	str	r0, [r4, #0]
 800aae8:	f8c0 8000 	str.w	r8, [r0]
 800aaec:	4604      	mov	r4, r0
 800aaee:	e7e4      	b.n	800aaba <__pow5mult+0x5a>
 800aaf0:	4638      	mov	r0, r7
 800aaf2:	e8bd 83f8 	ldmia.w	sp!, {r3, r4, r5, r6, r7, r8, r9, pc}
 800aaf6:	bf00      	nop
 800aaf8:	0802e128 	.word	0x0802e128

0800aafc <__lshift>:
 800aafc:	e92d 47f0 	stmdb	sp!, {r4, r5, r6, r7, r8, r9, sl, lr}
 800ab00:	460c      	mov	r4, r1
 800ab02:	ea4f 1a62 	mov.w	sl, r2, asr #5
 800ab06:	6923      	ldr	r3, [r4, #16]
 800ab08:	6849      	ldr	r1, [r1, #4]
 800ab0a:	eb0a 0903 	add.w	r9, sl, r3
 800ab0e:	68a3      	ldr	r3, [r4, #8]
 800ab10:	4607      	mov	r7, r0
 800ab12:	4616      	mov	r6, r2
 800ab14:	f109 0501 	add.w	r5, r9, #1
 800ab18:	42ab      	cmp	r3, r5
 800ab1a:	db31      	blt.n	800ab80 <__lshift+0x84>
 800ab1c:	4638      	mov	r0, r7
 800ab1e:	f7ff fe35 	bl	800a78c <_Balloc>
 800ab22:	2200      	movs	r2, #0
 800ab24:	4680      	mov	r8, r0
 800ab26:	f100 0314 	add.w	r3, r0, #20
 800ab2a:	4611      	mov	r1, r2
 800ab2c:	4552      	cmp	r2, sl
 800ab2e:	db2a      	blt.n	800ab86 <__lshift+0x8a>
 800ab30:	6920      	ldr	r0, [r4, #16]
 800ab32:	ea2a 7aea 	bic.w	sl, sl, sl, asr #31
 800ab36:	f104 0114 	add.w	r1, r4, #20
 800ab3a:	f016 021f 	ands.w	r2, r6, #31
 800ab3e:	eb03 038a 	add.w	r3, r3, sl, lsl #2
 800ab42:	eb01 0e80 	add.w	lr, r1, r0, lsl #2
 800ab46:	d022      	beq.n	800ab8e <__lshift+0x92>
 800ab48:	f1c2 0c20 	rsb	ip, r2, #32
 800ab4c:	2000      	movs	r0, #0
 800ab4e:	680e      	ldr	r6, [r1, #0]
 800ab50:	4096      	lsls	r6, r2
 800ab52:	4330      	orrs	r0, r6
 800ab54:	f843 0b04 	str.w	r0, [r3], #4
 800ab58:	f851 0b04 	ldr.w	r0, [r1], #4
 800ab5c:	458e      	cmp	lr, r1
 800ab5e:	fa20 f00c 	lsr.w	r0, r0, ip
 800ab62:	d8f4      	bhi.n	800ab4e <__lshift+0x52>
 800ab64:	6018      	str	r0, [r3, #0]
 800ab66:	b108      	cbz	r0, 800ab6c <__lshift+0x70>
 800ab68:	f109 0502 	add.w	r5, r9, #2
 800ab6c:	3d01      	subs	r5, #1
 800ab6e:	4638      	mov	r0, r7
 800ab70:	f8c8 5010 	str.w	r5, [r8, #16]
 800ab74:	4621      	mov	r1, r4
 800ab76:	f7ff fe3d 	bl	800a7f4 <_Bfree>
 800ab7a:	4640      	mov	r0, r8
 800ab7c:	e8bd 87f0 	ldmia.w	sp!, {r4, r5, r6, r7, r8, r9, sl, pc}
 800ab80:	3101      	adds	r1, #1
 800ab82:	005b      	lsls	r3, r3, #1
 800ab84:	e7c8      	b.n	800ab18 <__lshift+0x1c>
 800ab86:	f843 1022 	str.w	r1, [r3, r2, lsl #2]
 800ab8a:	3201      	adds	r2, #1
 800ab8c:	e7ce      	b.n	800ab2c <__lshift+0x30>
 800ab8e:	3b04      	subs	r3, #4
 800ab90:	f851 2b04 	ldr.w	r2, [r1], #4
 800ab94:	f843 2f04 	str.w	r2, [r3, #4]!
 800ab98:	458e      	cmp	lr, r1
 800ab9a:	d8f9      	bhi.n	800ab90 <__lshift+0x94>
 800ab9c:	e7e6      	b.n	800ab6c <__lshift+0x70>

0800ab9e <__mcmp>:
 800ab9e:	6903      	ldr	r3, [r0, #16]
 800aba0:	690a      	ldr	r2, [r1, #16]
 800aba2:	1a9b      	subs	r3, r3, r2
 800aba4:	b530      	push	{r4, r5, lr}
 800aba6:	d10c      	bne.n	800abc2 <__mcmp+0x24>
 800aba8:	0092      	lsls	r2, r2, #2
 800abaa:	3014      	adds	r0, #20
 800abac:	3114      	adds	r1, #20
 800abae:	1884      	adds	r4, r0, r2
 800abb0:	4411      	add	r1, r2
 800abb2:	f854 5d04 	ldr.w	r5, [r4, #-4]!
 800abb6:	f851 2d04 	ldr.w	r2, [r1, #-4]!
 800abba:	4295      	cmp	r5, r2
 800abbc:	d003      	beq.n	800abc6 <__mcmp+0x28>
 800abbe:	d305      	bcc.n	800abcc <__mcmp+0x2e>
 800abc0:	2301      	movs	r3, #1
 800abc2:	4618      	mov	r0, r3
 800abc4:	bd30      	pop	{r4, r5, pc}
 800abc6:	42a0      	cmp	r0, r4
 800abc8:	d3f3      	bcc.n	800abb2 <__mcmp+0x14>
 800abca:	e7fa      	b.n	800abc2 <__mcmp+0x24>
 800abcc:	f04f 33ff 	mov.w	r3, #4294967295
 800abd0:	e7f7      	b.n	800abc2 <__mcmp+0x24>

0800abd2 <__mdiff>:
 800abd2:	e92d 47f0 	stmdb	sp!, {r4, r5, r6, r7, r8, r9, sl, lr}
 800abd6:	460d      	mov	r5, r1
 800abd8:	4607      	mov	r7, r0
 800abda:	4611      	mov	r1, r2
 800abdc:	4628      	mov	r0, r5
 800abde:	4614      	mov	r4, r2
 800abe0:	f7ff ffdd 	bl	800ab9e <__mcmp>
 800abe4:	1e06      	subs	r6, r0, #0
 800abe6:	d108      	bne.n	800abfa <__mdiff+0x28>
 800abe8:	4631      	mov	r1, r6
 800abea:	4638      	mov	r0, r7
 800abec:	f7ff fdce 	bl	800a78c <_Balloc>
 800abf0:	2301      	movs	r3, #1
 800abf2:	6103      	str	r3, [r0, #16]
 800abf4:	6146      	str	r6, [r0, #20]
 800abf6:	e8bd 87f0 	ldmia.w	sp!, {r4, r5, r6, r7, r8, r9, sl, pc}
 800abfa:	bfa4      	itt	ge
 800abfc:	4623      	movge	r3, r4
 800abfe:	462c      	movge	r4, r5
 800ac00:	4638      	mov	r0, r7
 800ac02:	6861      	ldr	r1, [r4, #4]
 800ac04:	bfa6      	itte	ge
 800ac06:	461d      	movge	r5, r3
 800ac08:	2600      	movge	r6, #0
 800ac0a:	2601      	movlt	r6, #1
 800ac0c:	f7ff fdbe 	bl	800a78c <_Balloc>
 800ac10:	692b      	ldr	r3, [r5, #16]
 800ac12:	60c6      	str	r6, [r0, #12]
 800ac14:	6926      	ldr	r6, [r4, #16]
 800ac16:	f105 0914 	add.w	r9, r5, #20
 800ac1a:	f104 0214 	add.w	r2, r4, #20
 800ac1e:	eb02 0786 	add.w	r7, r2, r6, lsl #2
 800ac22:	eb09 0883 	add.w	r8, r9, r3, lsl #2
 800ac26:	f100 0514 	add.w	r5, r0, #20
 800ac2a:	f04f 0c00 	mov.w	ip, #0
 800ac2e:	f852 ab04 	ldr.w	sl, [r2], #4
 800ac32:	f859 4b04 	ldr.w	r4, [r9], #4
 800ac36:	fa1c f18a 	uxtah	r1, ip, sl
 800ac3a:	b2a3      	uxth	r3, r4
 800ac3c:	1ac9      	subs	r1, r1, r3
 800ac3e:	0c23      	lsrs	r3, r4, #16
 800ac40:	ebc3 431a 	rsb	r3, r3, sl, lsr #16
 800ac44:	eb03 4321 	add.w	r3, r3, r1, asr #16
 800ac48:	b289      	uxth	r1, r1
 800ac4a:	ea4f 4c23 	mov.w	ip, r3, asr #16
 800ac4e:	45c8      	cmp	r8, r9
 800ac50:	ea41 4303 	orr.w	r3, r1, r3, lsl #16
 800ac54:	4696      	mov	lr, r2
 800ac56:	f845 3b04 	str.w	r3, [r5], #4
 800ac5a:	d8e8      	bhi.n	800ac2e <__mdiff+0x5c>
 800ac5c:	45be      	cmp	lr, r7
 800ac5e:	d305      	bcc.n	800ac6c <__mdiff+0x9a>
 800ac60:	f855 3d04 	ldr.w	r3, [r5, #-4]!
 800ac64:	b18b      	cbz	r3, 800ac8a <__mdiff+0xb8>
 800ac66:	6106      	str	r6, [r0, #16]
 800ac68:	e8bd 87f0 	ldmia.w	sp!, {r4, r5, r6, r7, r8, r9, sl, pc}
 800ac6c:	f85e 1b04 	ldr.w	r1, [lr], #4
 800ac70:	fa1c f381 	uxtah	r3, ip, r1
 800ac74:	141a      	asrs	r2, r3, #16
 800ac76:	eb02 4211 	add.w	r2, r2, r1, lsr #16
 800ac7a:	b29b      	uxth	r3, r3
 800ac7c:	ea43 4302 	orr.w	r3, r3, r2, lsl #16
 800ac80:	ea4f 4c22 	mov.w	ip, r2, asr #16
 800ac84:	f845 3b04 	str.w	r3, [r5], #4
 800ac88:	e7e8      	b.n	800ac5c <__mdiff+0x8a>
 800ac8a:	3e01      	subs	r6, #1
 800ac8c:	e7e8      	b.n	800ac60 <__mdiff+0x8e>

0800ac8e <__d2b>:
 800ac8e:	e92d 43f7 	stmdb	sp!, {r0, r1, r2, r4, r5, r6, r7, r8, r9, lr}
 800ac92:	460e      	mov	r6, r1
 800ac94:	2101      	movs	r1, #1
 800ac96:	ec59 8b10 	vmov	r8, r9, d0
 800ac9a:	4615      	mov	r5, r2
 800ac9c:	f7ff fd76 	bl	800a78c <_Balloc>
 800aca0:	f3c9 540a 	ubfx	r4, r9, #20, #11
 800aca4:	4607      	mov	r7, r0
 800aca6:	f3c9 0313 	ubfx	r3, r9, #0, #20
 800acaa:	bb34      	cbnz	r4, 800acfa <__d2b+0x6c>
 800acac:	9301      	str	r3, [sp, #4]
 800acae:	f1b8 0f00 	cmp.w	r8, #0
 800acb2:	d027      	beq.n	800ad04 <__d2b+0x76>
 800acb4:	a802      	add	r0, sp, #8
 800acb6:	f840 8d08 	str.w	r8, [r0, #-8]!
 800acba:	f7ff fe0c 	bl	800a8d6 <__lo0bits>
 800acbe:	9900      	ldr	r1, [sp, #0]
 800acc0:	b1f0      	cbz	r0, 800ad00 <__d2b+0x72>
 800acc2:	9a01      	ldr	r2, [sp, #4]
 800acc4:	f1c0 0320 	rsb	r3, r0, #32
 800acc8:	fa02 f303 	lsl.w	r3, r2, r3
 800accc:	430b      	orrs	r3, r1
 800acce:	40c2      	lsrs	r2, r0
 800acd0:	617b      	str	r3, [r7, #20]
 800acd2:	9201      	str	r2, [sp, #4]
 800acd4:	9b01      	ldr	r3, [sp, #4]
 800acd6:	61bb      	str	r3, [r7, #24]
 800acd8:	2b00      	cmp	r3, #0
 800acda:	bf14      	ite	ne
 800acdc:	2102      	movne	r1, #2
 800acde:	2101      	moveq	r1, #1
 800ace0:	6139      	str	r1, [r7, #16]
 800ace2:	b1c4      	cbz	r4, 800ad16 <__d2b+0x88>
 800ace4:	f2a4 4433 	subw	r4, r4, #1075	; 0x433
 800ace8:	4404      	add	r4, r0
 800acea:	6034      	str	r4, [r6, #0]
 800acec:	f1c0 0035 	rsb	r0, r0, #53	; 0x35
 800acf0:	6028      	str	r0, [r5, #0]
 800acf2:	4638      	mov	r0, r7
 800acf4:	b003      	add	sp, #12
 800acf6:	e8bd 83f0 	ldmia.w	sp!, {r4, r5, r6, r7, r8, r9, pc}
 800acfa:	f443 1380 	orr.w	r3, r3, #1048576	; 0x100000
 800acfe:	e7d5      	b.n	800acac <__d2b+0x1e>
 800ad00:	6179      	str	r1, [r7, #20]
 800ad02:	e7e7      	b.n	800acd4 <__d2b+0x46>
 800ad04:	a801      	add	r0, sp, #4
 800ad06:	f7ff fde6 	bl	800a8d6 <__lo0bits>
 800ad0a:	9b01      	ldr	r3, [sp, #4]
 800ad0c:	617b      	str	r3, [r7, #20]
 800ad0e:	2101      	movs	r1, #1
 800ad10:	6139      	str	r1, [r7, #16]
 800ad12:	3020      	adds	r0, #32
 800ad14:	e7e5      	b.n	800ace2 <__d2b+0x54>
 800ad16:	eb07 0381 	add.w	r3, r7, r1, lsl #2
 800ad1a:	f2a0 4032 	subw	r0, r0, #1074	; 0x432
 800ad1e:	6030      	str	r0, [r6, #0]
 800ad20:	6918      	ldr	r0, [r3, #16]
 800ad22:	f7ff fdb9 	bl	800a898 <__hi0bits>
 800ad26:	ebc0 1041 	rsb	r0, r0, r1, lsl #5
 800ad2a:	e7e1      	b.n	800acf0 <__d2b+0x62>

0800ad2c <_mprec_log10>:
 800ad2c:	2817      	cmp	r0, #23
 800ad2e:	b5d0      	push	{r4, r6, r7, lr}
 800ad30:	4604      	mov	r4, r0
 800ad32:	dc07      	bgt.n	800ad44 <_mprec_log10+0x18>
 800ad34:	4b09      	ldr	r3, [pc, #36]	; (800ad5c <_mprec_log10+0x30>)
 800ad36:	eb03 04c0 	add.w	r4, r3, r0, lsl #3
 800ad3a:	e9d4 0100 	ldrd	r0, r1, [r4]
 800ad3e:	ec41 0b10 	vmov	d0, r0, r1
 800ad42:	bdd0      	pop	{r4, r6, r7, pc}
 800ad44:	4906      	ldr	r1, [pc, #24]	; (800ad60 <_mprec_log10+0x34>)
 800ad46:	4f07      	ldr	r7, [pc, #28]	; (800ad64 <_mprec_log10+0x38>)
 800ad48:	2000      	movs	r0, #0
 800ad4a:	2600      	movs	r6, #0
 800ad4c:	4632      	mov	r2, r6
 800ad4e:	463b      	mov	r3, r7
 800ad50:	f7f5 fc1a 	bl	8000588 <__aeabi_dmul>
 800ad54:	3c01      	subs	r4, #1
 800ad56:	d1f9      	bne.n	800ad4c <_mprec_log10+0x20>
 800ad58:	e7f1      	b.n	800ad3e <_mprec_log10+0x12>
 800ad5a:	bf00      	nop
 800ad5c:	0802e060 	.word	0x0802e060
 800ad60:	3ff00000 	.word	0x3ff00000
 800ad64:	40240000 	.word	0x40240000

0800ad68 <_calloc_r>:
 800ad68:	b538      	push	{r3, r4, r5, lr}
 800ad6a:	fb02 f401 	mul.w	r4, r2, r1
 800ad6e:	4621      	mov	r1, r4
 800ad70:	f000 f808 	bl	800ad84 <_malloc_r>
 800ad74:	4605      	mov	r5, r0
 800ad76:	b118      	cbz	r0, 800ad80 <_calloc_r+0x18>
 800ad78:	4622      	mov	r2, r4
 800ad7a:	2100      	movs	r1, #0
 800ad7c:	f7ff fb6c 	bl	800a458 <memset>
 800ad80:	4628      	mov	r0, r5
 800ad82:	bd38      	pop	{r3, r4, r5, pc}

0800ad84 <_malloc_r>:
 800ad84:	b570      	push	{r4, r5, r6, lr}
 800ad86:	1ccd      	adds	r5, r1, #3
 800ad88:	f025 0503 	bic.w	r5, r5, #3
 800ad8c:	3508      	adds	r5, #8
 800ad8e:	2d0c      	cmp	r5, #12
 800ad90:	bf38      	it	cc
 800ad92:	250c      	movcc	r5, #12
 800ad94:	2d00      	cmp	r5, #0
 800ad96:	4606      	mov	r6, r0
 800ad98:	db01      	blt.n	800ad9e <_malloc_r+0x1a>
 800ad9a:	42a9      	cmp	r1, r5
 800ad9c:	d903      	bls.n	800ada6 <_malloc_r+0x22>
 800ad9e:	230c      	movs	r3, #12
 800ada0:	6033      	str	r3, [r6, #0]
 800ada2:	2000      	movs	r0, #0
 800ada4:	bd70      	pop	{r4, r5, r6, pc}
 800ada6:	f000 fec8 	bl	800bb3a <__malloc_lock>
 800adaa:	4a23      	ldr	r2, [pc, #140]	; (800ae38 <_malloc_r+0xb4>)
 800adac:	6814      	ldr	r4, [r2, #0]
 800adae:	4621      	mov	r1, r4
 800adb0:	b991      	cbnz	r1, 800add8 <_malloc_r+0x54>
 800adb2:	4c22      	ldr	r4, [pc, #136]	; (800ae3c <_malloc_r+0xb8>)
 800adb4:	6823      	ldr	r3, [r4, #0]
 800adb6:	b91b      	cbnz	r3, 800adc0 <_malloc_r+0x3c>
 800adb8:	4630      	mov	r0, r6
 800adba:	f000 f841 	bl	800ae40 <_sbrk_r>
 800adbe:	6020      	str	r0, [r4, #0]
 800adc0:	4629      	mov	r1, r5
 800adc2:	4630      	mov	r0, r6
 800adc4:	f000 f83c 	bl	800ae40 <_sbrk_r>
 800adc8:	1c43      	adds	r3, r0, #1
 800adca:	d126      	bne.n	800ae1a <_malloc_r+0x96>
 800adcc:	230c      	movs	r3, #12
 800adce:	6033      	str	r3, [r6, #0]
 800add0:	4630      	mov	r0, r6
 800add2:	f000 feb3 	bl	800bb3c <__malloc_unlock>
 800add6:	e7e4      	b.n	800ada2 <_malloc_r+0x1e>
 800add8:	680b      	ldr	r3, [r1, #0]
 800adda:	1b5b      	subs	r3, r3, r5
 800addc:	d41a      	bmi.n	800ae14 <_malloc_r+0x90>
 800adde:	2b0b      	cmp	r3, #11
 800ade0:	d90f      	bls.n	800ae02 <_malloc_r+0x7e>
 800ade2:	600b      	str	r3, [r1, #0]
 800ade4:	50cd      	str	r5, [r1, r3]
 800ade6:	18cc      	adds	r4, r1, r3
 800ade8:	4630      	mov	r0, r6
 800adea:	f000 fea7 	bl	800bb3c <__malloc_unlock>
 800adee:	f104 000b 	add.w	r0, r4, #11
 800adf2:	1d23      	adds	r3, r4, #4
 800adf4:	f020 0007 	bic.w	r0, r0, #7
 800adf8:	1ac3      	subs	r3, r0, r3
 800adfa:	d01b      	beq.n	800ae34 <_malloc_r+0xb0>
 800adfc:	425a      	negs	r2, r3
 800adfe:	50e2      	str	r2, [r4, r3]
 800ae00:	bd70      	pop	{r4, r5, r6, pc}
 800ae02:	428c      	cmp	r4, r1
 800ae04:	bf0d      	iteet	eq
 800ae06:	6863      	ldreq	r3, [r4, #4]
 800ae08:	684b      	ldrne	r3, [r1, #4]
 800ae0a:	6063      	strne	r3, [r4, #4]
 800ae0c:	6013      	streq	r3, [r2, #0]
 800ae0e:	bf18      	it	ne
 800ae10:	460c      	movne	r4, r1
 800ae12:	e7e9      	b.n	800ade8 <_malloc_r+0x64>
 800ae14:	460c      	mov	r4, r1
 800ae16:	6849      	ldr	r1, [r1, #4]
 800ae18:	e7ca      	b.n	800adb0 <_malloc_r+0x2c>
 800ae1a:	1cc4      	adds	r4, r0, #3
 800ae1c:	f024 0403 	bic.w	r4, r4, #3
 800ae20:	42a0      	cmp	r0, r4
 800ae22:	d005      	beq.n	800ae30 <_malloc_r+0xac>
 800ae24:	1a21      	subs	r1, r4, r0
 800ae26:	4630      	mov	r0, r6
 800ae28:	f000 f80a 	bl	800ae40 <_sbrk_r>
 800ae2c:	3001      	adds	r0, #1
 800ae2e:	d0cd      	beq.n	800adcc <_malloc_r+0x48>
 800ae30:	6025      	str	r5, [r4, #0]
 800ae32:	e7d9      	b.n	800ade8 <_malloc_r+0x64>
 800ae34:	bd70      	pop	{r4, r5, r6, pc}
 800ae36:	bf00      	nop
 800ae38:	20000164 	.word	0x20000164
 800ae3c:	20000168 	.word	0x20000168

0800ae40 <_sbrk_r>:
 800ae40:	b538      	push	{r3, r4, r5, lr}
 800ae42:	4c06      	ldr	r4, [pc, #24]	; (800ae5c <_sbrk_r+0x1c>)
 800ae44:	2300      	movs	r3, #0
 800ae46:	4605      	mov	r5, r0
 800ae48:	4608      	mov	r0, r1
 800ae4a:	6023      	str	r3, [r4, #0]
 800ae4c:	f001 f866 	bl	800bf1c <_sbrk>
 800ae50:	1c43      	adds	r3, r0, #1
 800ae52:	d102      	bne.n	800ae5a <_sbrk_r+0x1a>
 800ae54:	6823      	ldr	r3, [r4, #0]
 800ae56:	b103      	cbz	r3, 800ae5a <_sbrk_r+0x1a>
 800ae58:	602b      	str	r3, [r5, #0]
 800ae5a:	bd38      	pop	{r3, r4, r5, pc}
 800ae5c:	20003b7c 	.word	0x20003b7c

0800ae60 <quorem>:
 800ae60:	e92d 4ff7 	stmdb	sp!, {r0, r1, r2, r4, r5, r6, r7, r8, r9, sl, fp, lr}
 800ae64:	6903      	ldr	r3, [r0, #16]
 800ae66:	690c      	ldr	r4, [r1, #16]
 800ae68:	429c      	cmp	r4, r3
 800ae6a:	4680      	mov	r8, r0
 800ae6c:	f300 8082 	bgt.w	800af74 <quorem+0x114>
 800ae70:	3c01      	subs	r4, #1
 800ae72:	f101 0714 	add.w	r7, r1, #20
 800ae76:	ea4f 0e84 	mov.w	lr, r4, lsl #2
 800ae7a:	f100 0614 	add.w	r6, r0, #20
 800ae7e:	f857 5024 	ldr.w	r5, [r7, r4, lsl #2]
 800ae82:	f856 0024 	ldr.w	r0, [r6, r4, lsl #2]
 800ae86:	eb06 030e 	add.w	r3, r6, lr
 800ae8a:	3501      	adds	r5, #1
 800ae8c:	eb07 090e 	add.w	r9, r7, lr
 800ae90:	9301      	str	r3, [sp, #4]
 800ae92:	fbb0 f5f5 	udiv	r5, r0, r5
 800ae96:	b395      	cbz	r5, 800aefe <quorem+0x9e>
 800ae98:	f04f 0a00 	mov.w	sl, #0
 800ae9c:	4638      	mov	r0, r7
 800ae9e:	46b4      	mov	ip, r6
 800aea0:	46d3      	mov	fp, sl
 800aea2:	f850 2b04 	ldr.w	r2, [r0], #4
 800aea6:	b293      	uxth	r3, r2
 800aea8:	fb05 a303 	mla	r3, r5, r3, sl
 800aeac:	ea4f 4a13 	mov.w	sl, r3, lsr #16
 800aeb0:	b29b      	uxth	r3, r3
 800aeb2:	ebab 0303 	sub.w	r3, fp, r3
 800aeb6:	0c12      	lsrs	r2, r2, #16
 800aeb8:	f8bc b000 	ldrh.w	fp, [ip]
 800aebc:	fb05 a202 	mla	r2, r5, r2, sl
 800aec0:	fa13 f38b 	uxtah	r3, r3, fp
 800aec4:	ea4f 4a12 	mov.w	sl, r2, lsr #16
 800aec8:	fa1f fb82 	uxth.w	fp, r2
 800aecc:	f8dc 2000 	ldr.w	r2, [ip]
 800aed0:	ebcb 4212 	rsb	r2, fp, r2, lsr #16
 800aed4:	eb02 4223 	add.w	r2, r2, r3, asr #16
 800aed8:	b29b      	uxth	r3, r3
 800aeda:	ea43 4302 	orr.w	r3, r3, r2, lsl #16
 800aede:	4581      	cmp	r9, r0
 800aee0:	ea4f 4b22 	mov.w	fp, r2, asr #16
 800aee4:	f84c 3b04 	str.w	r3, [ip], #4
 800aee8:	d2db      	bcs.n	800aea2 <quorem+0x42>
 800aeea:	f856 300e 	ldr.w	r3, [r6, lr]
 800aeee:	b933      	cbnz	r3, 800aefe <quorem+0x9e>
 800aef0:	9b01      	ldr	r3, [sp, #4]
 800aef2:	3b04      	subs	r3, #4
 800aef4:	429e      	cmp	r6, r3
 800aef6:	461a      	mov	r2, r3
 800aef8:	d330      	bcc.n	800af5c <quorem+0xfc>
 800aefa:	f8c8 4010 	str.w	r4, [r8, #16]
 800aefe:	4640      	mov	r0, r8
 800af00:	f7ff fe4d 	bl	800ab9e <__mcmp>
 800af04:	2800      	cmp	r0, #0
 800af06:	db25      	blt.n	800af54 <quorem+0xf4>
 800af08:	3501      	adds	r5, #1
 800af0a:	4630      	mov	r0, r6
 800af0c:	f04f 0e00 	mov.w	lr, #0
 800af10:	f857 2b04 	ldr.w	r2, [r7], #4
 800af14:	f8d0 c000 	ldr.w	ip, [r0]
 800af18:	b293      	uxth	r3, r2
 800af1a:	ebae 0303 	sub.w	r3, lr, r3
 800af1e:	0c12      	lsrs	r2, r2, #16
 800af20:	fa13 f38c 	uxtah	r3, r3, ip
 800af24:	ebc2 421c 	rsb	r2, r2, ip, lsr #16
 800af28:	eb02 4223 	add.w	r2, r2, r3, asr #16
 800af2c:	b29b      	uxth	r3, r3
 800af2e:	ea43 4302 	orr.w	r3, r3, r2, lsl #16
 800af32:	45b9      	cmp	r9, r7
 800af34:	ea4f 4e22 	mov.w	lr, r2, asr #16
 800af38:	f840 3b04 	str.w	r3, [r0], #4
 800af3c:	d2e8      	bcs.n	800af10 <quorem+0xb0>
 800af3e:	f856 2024 	ldr.w	r2, [r6, r4, lsl #2]
 800af42:	eb06 0384 	add.w	r3, r6, r4, lsl #2
 800af46:	b92a      	cbnz	r2, 800af54 <quorem+0xf4>
 800af48:	3b04      	subs	r3, #4
 800af4a:	429e      	cmp	r6, r3
 800af4c:	461a      	mov	r2, r3
 800af4e:	d30b      	bcc.n	800af68 <quorem+0x108>
 800af50:	f8c8 4010 	str.w	r4, [r8, #16]
 800af54:	4628      	mov	r0, r5
 800af56:	b003      	add	sp, #12
 800af58:	e8bd 8ff0 	ldmia.w	sp!, {r4, r5, r6, r7, r8, r9, sl, fp, pc}
 800af5c:	6812      	ldr	r2, [r2, #0]
 800af5e:	3b04      	subs	r3, #4
 800af60:	2a00      	cmp	r2, #0
 800af62:	d1ca      	bne.n	800aefa <quorem+0x9a>
 800af64:	3c01      	subs	r4, #1
 800af66:	e7c5      	b.n	800aef4 <quorem+0x94>
 800af68:	6812      	ldr	r2, [r2, #0]
 800af6a:	3b04      	subs	r3, #4
 800af6c:	2a00      	cmp	r2, #0
 800af6e:	d1ef      	bne.n	800af50 <quorem+0xf0>
 800af70:	3c01      	subs	r4, #1
 800af72:	e7ea      	b.n	800af4a <quorem+0xea>
 800af74:	2000      	movs	r0, #0
 800af76:	e7ee      	b.n	800af56 <quorem+0xf6>

0800af78 <_dtoa_r>:
 800af78:	e92d 4ff0 	stmdb	sp!, {r4, r5, r6, r7, r8, r9, sl, fp, lr}
 800af7c:	ec57 6b10 	vmov	r6, r7, d0
 800af80:	b097      	sub	sp, #92	; 0x5c
 800af82:	e9cd 6700 	strd	r6, r7, [sp]
 800af86:	6a46      	ldr	r6, [r0, #36]	; 0x24
 800af88:	9107      	str	r1, [sp, #28]
 800af8a:	4604      	mov	r4, r0
 800af8c:	920a      	str	r2, [sp, #40]	; 0x28
 800af8e:	930f      	str	r3, [sp, #60]	; 0x3c
 800af90:	9d20      	ldr	r5, [sp, #128]	; 0x80
 800af92:	b93e      	cbnz	r6, 800afa4 <_dtoa_r+0x2c>
 800af94:	2010      	movs	r0, #16
 800af96:	f000 fdbd 	bl	800bb14 <malloc>
 800af9a:	6260      	str	r0, [r4, #36]	; 0x24
 800af9c:	6046      	str	r6, [r0, #4]
 800af9e:	6086      	str	r6, [r0, #8]
 800afa0:	6006      	str	r6, [r0, #0]
 800afa2:	60c6      	str	r6, [r0, #12]
 800afa4:	6a63      	ldr	r3, [r4, #36]	; 0x24
 800afa6:	6819      	ldr	r1, [r3, #0]
 800afa8:	b151      	cbz	r1, 800afc0 <_dtoa_r+0x48>
 800afaa:	685a      	ldr	r2, [r3, #4]
 800afac:	604a      	str	r2, [r1, #4]
 800afae:	2301      	movs	r3, #1
 800afb0:	4093      	lsls	r3, r2
 800afb2:	608b      	str	r3, [r1, #8]
 800afb4:	4620      	mov	r0, r4
 800afb6:	f7ff fc1d 	bl	800a7f4 <_Bfree>
 800afba:	6a63      	ldr	r3, [r4, #36]	; 0x24
 800afbc:	2200      	movs	r2, #0
 800afbe:	601a      	str	r2, [r3, #0]
 800afc0:	9b01      	ldr	r3, [sp, #4]
 800afc2:	2b00      	cmp	r3, #0
 800afc4:	bfbf      	itttt	lt
 800afc6:	2301      	movlt	r3, #1
 800afc8:	602b      	strlt	r3, [r5, #0]
 800afca:	9b01      	ldrlt	r3, [sp, #4]
 800afcc:	f023 4300 	biclt.w	r3, r3, #2147483648	; 0x80000000
 800afd0:	bfb2      	itee	lt
 800afd2:	9301      	strlt	r3, [sp, #4]
 800afd4:	2300      	movge	r3, #0
 800afd6:	602b      	strge	r3, [r5, #0]
 800afd8:	f8dd 8004 	ldr.w	r8, [sp, #4]
 800afdc:	4ba8      	ldr	r3, [pc, #672]	; (800b280 <_dtoa_r+0x308>)
 800afde:	ea33 0308 	bics.w	r3, r3, r8
 800afe2:	d11b      	bne.n	800b01c <_dtoa_r+0xa4>
 800afe4:	9a0f      	ldr	r2, [sp, #60]	; 0x3c
 800afe6:	f242 730f 	movw	r3, #9999	; 0x270f
 800afea:	6013      	str	r3, [r2, #0]
 800afec:	9b00      	ldr	r3, [sp, #0]
 800afee:	b923      	cbnz	r3, 800affa <_dtoa_r+0x82>
 800aff0:	f3c8 0013 	ubfx	r0, r8, #0, #20
 800aff4:	2800      	cmp	r0, #0
 800aff6:	f000 8578 	beq.w	800baea <_dtoa_r+0xb72>
 800affa:	9b21      	ldr	r3, [sp, #132]	; 0x84
 800affc:	b953      	cbnz	r3, 800b014 <_dtoa_r+0x9c>
 800affe:	4ba1      	ldr	r3, [pc, #644]	; (800b284 <_dtoa_r+0x30c>)
 800b000:	e021      	b.n	800b046 <_dtoa_r+0xce>
 800b002:	4ba1      	ldr	r3, [pc, #644]	; (800b288 <_dtoa_r+0x310>)
 800b004:	9302      	str	r3, [sp, #8]
 800b006:	3308      	adds	r3, #8
 800b008:	9a21      	ldr	r2, [sp, #132]	; 0x84
 800b00a:	6013      	str	r3, [r2, #0]
 800b00c:	9802      	ldr	r0, [sp, #8]
 800b00e:	b017      	add	sp, #92	; 0x5c
 800b010:	e8bd 8ff0 	ldmia.w	sp!, {r4, r5, r6, r7, r8, r9, sl, fp, pc}
 800b014:	4b9b      	ldr	r3, [pc, #620]	; (800b284 <_dtoa_r+0x30c>)
 800b016:	9302      	str	r3, [sp, #8]
 800b018:	3303      	adds	r3, #3
 800b01a:	e7f5      	b.n	800b008 <_dtoa_r+0x90>
 800b01c:	e9dd 6700 	ldrd	r6, r7, [sp]
 800b020:	2200      	movs	r2, #0
 800b022:	2300      	movs	r3, #0
 800b024:	4630      	mov	r0, r6
 800b026:	4639      	mov	r1, r7
 800b028:	f7f5 fd16 	bl	8000a58 <__aeabi_dcmpeq>
 800b02c:	4681      	mov	r9, r0
 800b02e:	b160      	cbz	r0, 800b04a <_dtoa_r+0xd2>
 800b030:	9a0f      	ldr	r2, [sp, #60]	; 0x3c
 800b032:	2301      	movs	r3, #1
 800b034:	6013      	str	r3, [r2, #0]
 800b036:	9b21      	ldr	r3, [sp, #132]	; 0x84
 800b038:	2b00      	cmp	r3, #0
 800b03a:	f000 8553 	beq.w	800bae4 <_dtoa_r+0xb6c>
 800b03e:	4b93      	ldr	r3, [pc, #588]	; (800b28c <_dtoa_r+0x314>)
 800b040:	9a21      	ldr	r2, [sp, #132]	; 0x84
 800b042:	6013      	str	r3, [r2, #0]
 800b044:	3b01      	subs	r3, #1
 800b046:	9302      	str	r3, [sp, #8]
 800b048:	e7e0      	b.n	800b00c <_dtoa_r+0x94>
 800b04a:	aa14      	add	r2, sp, #80	; 0x50
 800b04c:	a915      	add	r1, sp, #84	; 0x54
 800b04e:	ec47 6b10 	vmov	d0, r6, r7
 800b052:	4620      	mov	r0, r4
 800b054:	f7ff fe1b 	bl	800ac8e <__d2b>
 800b058:	f3c8 550a 	ubfx	r5, r8, #20, #11
 800b05c:	4682      	mov	sl, r0
 800b05e:	2d00      	cmp	r5, #0
 800b060:	d07e      	beq.n	800b160 <_dtoa_r+0x1e8>
 800b062:	f3c7 0313 	ubfx	r3, r7, #0, #20
 800b066:	f043 517f 	orr.w	r1, r3, #1069547520	; 0x3fc00000
 800b06a:	4630      	mov	r0, r6
 800b06c:	f441 1140 	orr.w	r1, r1, #3145728	; 0x300000
 800b070:	f2a5 35ff 	subw	r5, r5, #1023	; 0x3ff
 800b074:	f8cd 9048 	str.w	r9, [sp, #72]	; 0x48
 800b078:	2200      	movs	r2, #0
 800b07a:	4b85      	ldr	r3, [pc, #532]	; (800b290 <_dtoa_r+0x318>)
 800b07c:	f7f5 f8d0 	bl	8000220 <__aeabi_dsub>
 800b080:	a379      	add	r3, pc, #484	; (adr r3, 800b268 <_dtoa_r+0x2f0>)
 800b082:	e9d3 2300 	ldrd	r2, r3, [r3]
 800b086:	f7f5 fa7f 	bl	8000588 <__aeabi_dmul>
 800b08a:	a379      	add	r3, pc, #484	; (adr r3, 800b270 <_dtoa_r+0x2f8>)
 800b08c:	e9d3 2300 	ldrd	r2, r3, [r3]
 800b090:	f7f5 f8c8 	bl	8000224 <__adddf3>
 800b094:	4606      	mov	r6, r0
 800b096:	4628      	mov	r0, r5
 800b098:	460f      	mov	r7, r1
 800b09a:	f7f5 fa0f 	bl	80004bc <__aeabi_i2d>
 800b09e:	a376      	add	r3, pc, #472	; (adr r3, 800b278 <_dtoa_r+0x300>)
 800b0a0:	e9d3 2300 	ldrd	r2, r3, [r3]
 800b0a4:	f7f5 fa70 	bl	8000588 <__aeabi_dmul>
 800b0a8:	4602      	mov	r2, r0
 800b0aa:	460b      	mov	r3, r1
 800b0ac:	4630      	mov	r0, r6
 800b0ae:	4639      	mov	r1, r7
 800b0b0:	f7f5 f8b8 	bl	8000224 <__adddf3>
 800b0b4:	4606      	mov	r6, r0
 800b0b6:	460f      	mov	r7, r1
 800b0b8:	f7f5 fd00 	bl	8000abc <__aeabi_d2iz>
 800b0bc:	2200      	movs	r2, #0
 800b0be:	4683      	mov	fp, r0
 800b0c0:	2300      	movs	r3, #0
 800b0c2:	4630      	mov	r0, r6
 800b0c4:	4639      	mov	r1, r7
 800b0c6:	f7f5 fcd1 	bl	8000a6c <__aeabi_dcmplt>
 800b0ca:	b158      	cbz	r0, 800b0e4 <_dtoa_r+0x16c>
 800b0cc:	4658      	mov	r0, fp
 800b0ce:	f7f5 f9f5 	bl	80004bc <__aeabi_i2d>
 800b0d2:	4602      	mov	r2, r0
 800b0d4:	460b      	mov	r3, r1
 800b0d6:	4630      	mov	r0, r6
 800b0d8:	4639      	mov	r1, r7
 800b0da:	f7f5 fcbd 	bl	8000a58 <__aeabi_dcmpeq>
 800b0de:	b908      	cbnz	r0, 800b0e4 <_dtoa_r+0x16c>
 800b0e0:	f10b 3bff 	add.w	fp, fp, #4294967295
 800b0e4:	f1bb 0f16 	cmp.w	fp, #22
 800b0e8:	d859      	bhi.n	800b19e <_dtoa_r+0x226>
 800b0ea:	496a      	ldr	r1, [pc, #424]	; (800b294 <_dtoa_r+0x31c>)
 800b0ec:	eb01 01cb 	add.w	r1, r1, fp, lsl #3
 800b0f0:	e9dd 2300 	ldrd	r2, r3, [sp]
 800b0f4:	e9d1 0100 	ldrd	r0, r1, [r1]
 800b0f8:	f7f5 fcd6 	bl	8000aa8 <__aeabi_dcmpgt>
 800b0fc:	2800      	cmp	r0, #0
 800b0fe:	d050      	beq.n	800b1a2 <_dtoa_r+0x22a>
 800b100:	f10b 3bff 	add.w	fp, fp, #4294967295
 800b104:	2300      	movs	r3, #0
 800b106:	930e      	str	r3, [sp, #56]	; 0x38
 800b108:	9b14      	ldr	r3, [sp, #80]	; 0x50
 800b10a:	1b5d      	subs	r5, r3, r5
 800b10c:	1e6b      	subs	r3, r5, #1
 800b10e:	9306      	str	r3, [sp, #24]
 800b110:	bf45      	ittet	mi
 800b112:	f1c5 0301 	rsbmi	r3, r5, #1
 800b116:	9305      	strmi	r3, [sp, #20]
 800b118:	2300      	movpl	r3, #0
 800b11a:	2300      	movmi	r3, #0
 800b11c:	bf4c      	ite	mi
 800b11e:	9306      	strmi	r3, [sp, #24]
 800b120:	9305      	strpl	r3, [sp, #20]
 800b122:	f1bb 0f00 	cmp.w	fp, #0
 800b126:	db3e      	blt.n	800b1a6 <_dtoa_r+0x22e>
 800b128:	9b06      	ldr	r3, [sp, #24]
 800b12a:	f8cd b02c 	str.w	fp, [sp, #44]	; 0x2c
 800b12e:	445b      	add	r3, fp
 800b130:	9306      	str	r3, [sp, #24]
 800b132:	2300      	movs	r3, #0
 800b134:	9308      	str	r3, [sp, #32]
 800b136:	9b07      	ldr	r3, [sp, #28]
 800b138:	2b09      	cmp	r3, #9
 800b13a:	f200 80af 	bhi.w	800b29c <_dtoa_r+0x324>
 800b13e:	2b05      	cmp	r3, #5
 800b140:	bfc4      	itt	gt
 800b142:	3b04      	subgt	r3, #4
 800b144:	9307      	strgt	r3, [sp, #28]
 800b146:	9b07      	ldr	r3, [sp, #28]
 800b148:	f1a3 0302 	sub.w	r3, r3, #2
 800b14c:	bfcc      	ite	gt
 800b14e:	2600      	movgt	r6, #0
 800b150:	2601      	movle	r6, #1
 800b152:	2b03      	cmp	r3, #3
 800b154:	f200 80ae 	bhi.w	800b2b4 <_dtoa_r+0x33c>
 800b158:	e8df f003 	tbb	[pc, r3]
 800b15c:	772f8482 	.word	0x772f8482
 800b160:	9b15      	ldr	r3, [sp, #84]	; 0x54
 800b162:	9d14      	ldr	r5, [sp, #80]	; 0x50
 800b164:	441d      	add	r5, r3
 800b166:	f205 4332 	addw	r3, r5, #1074	; 0x432
 800b16a:	2b20      	cmp	r3, #32
 800b16c:	dd11      	ble.n	800b192 <_dtoa_r+0x21a>
 800b16e:	9a00      	ldr	r2, [sp, #0]
 800b170:	f205 4012 	addw	r0, r5, #1042	; 0x412
 800b174:	f1c3 0340 	rsb	r3, r3, #64	; 0x40
 800b178:	fa22 f000 	lsr.w	r0, r2, r0
 800b17c:	fa08 f303 	lsl.w	r3, r8, r3
 800b180:	4318      	orrs	r0, r3
 800b182:	f7f5 f98b 	bl	800049c <__aeabi_ui2d>
 800b186:	2301      	movs	r3, #1
 800b188:	f1a1 71f8 	sub.w	r1, r1, #32505856	; 0x1f00000
 800b18c:	3d01      	subs	r5, #1
 800b18e:	9312      	str	r3, [sp, #72]	; 0x48
 800b190:	e772      	b.n	800b078 <_dtoa_r+0x100>
 800b192:	f1c3 0020 	rsb	r0, r3, #32
 800b196:	9b00      	ldr	r3, [sp, #0]
 800b198:	fa03 f000 	lsl.w	r0, r3, r0
 800b19c:	e7f1      	b.n	800b182 <_dtoa_r+0x20a>
 800b19e:	2301      	movs	r3, #1
 800b1a0:	e7b1      	b.n	800b106 <_dtoa_r+0x18e>
 800b1a2:	900e      	str	r0, [sp, #56]	; 0x38
 800b1a4:	e7b0      	b.n	800b108 <_dtoa_r+0x190>
 800b1a6:	9b05      	ldr	r3, [sp, #20]
 800b1a8:	eba3 030b 	sub.w	r3, r3, fp
 800b1ac:	9305      	str	r3, [sp, #20]
 800b1ae:	f1cb 0300 	rsb	r3, fp, #0
 800b1b2:	9308      	str	r3, [sp, #32]
 800b1b4:	2300      	movs	r3, #0
 800b1b6:	930b      	str	r3, [sp, #44]	; 0x2c
 800b1b8:	e7bd      	b.n	800b136 <_dtoa_r+0x1be>
 800b1ba:	2301      	movs	r3, #1
 800b1bc:	9309      	str	r3, [sp, #36]	; 0x24
 800b1be:	9b0a      	ldr	r3, [sp, #40]	; 0x28
 800b1c0:	2b00      	cmp	r3, #0
 800b1c2:	dd7a      	ble.n	800b2ba <_dtoa_r+0x342>
 800b1c4:	9304      	str	r3, [sp, #16]
 800b1c6:	9303      	str	r3, [sp, #12]
 800b1c8:	6a65      	ldr	r5, [r4, #36]	; 0x24
 800b1ca:	2200      	movs	r2, #0
 800b1cc:	606a      	str	r2, [r5, #4]
 800b1ce:	2104      	movs	r1, #4
 800b1d0:	f101 0214 	add.w	r2, r1, #20
 800b1d4:	429a      	cmp	r2, r3
 800b1d6:	d975      	bls.n	800b2c4 <_dtoa_r+0x34c>
 800b1d8:	6869      	ldr	r1, [r5, #4]
 800b1da:	4620      	mov	r0, r4
 800b1dc:	f7ff fad6 	bl	800a78c <_Balloc>
 800b1e0:	6a63      	ldr	r3, [r4, #36]	; 0x24
 800b1e2:	6028      	str	r0, [r5, #0]
 800b1e4:	681b      	ldr	r3, [r3, #0]
 800b1e6:	9302      	str	r3, [sp, #8]
 800b1e8:	9b03      	ldr	r3, [sp, #12]
 800b1ea:	2b0e      	cmp	r3, #14
 800b1ec:	f200 80e5 	bhi.w	800b3ba <_dtoa_r+0x442>
 800b1f0:	2e00      	cmp	r6, #0
 800b1f2:	f000 80e2 	beq.w	800b3ba <_dtoa_r+0x442>
 800b1f6:	ed9d 7b00 	vldr	d7, [sp]
 800b1fa:	f1bb 0f00 	cmp.w	fp, #0
 800b1fe:	ed8d 7b0c 	vstr	d7, [sp, #48]	; 0x30
 800b202:	dd74      	ble.n	800b2ee <_dtoa_r+0x376>
 800b204:	4a23      	ldr	r2, [pc, #140]	; (800b294 <_dtoa_r+0x31c>)
 800b206:	f00b 030f 	and.w	r3, fp, #15
 800b20a:	ea4f 162b 	mov.w	r6, fp, asr #4
 800b20e:	eb02 03c3 	add.w	r3, r2, r3, lsl #3
 800b212:	06f0      	lsls	r0, r6, #27
 800b214:	e9d3 8900 	ldrd	r8, r9, [r3]
 800b218:	d559      	bpl.n	800b2ce <_dtoa_r+0x356>
 800b21a:	4b1f      	ldr	r3, [pc, #124]	; (800b298 <_dtoa_r+0x320>)
 800b21c:	ec51 0b17 	vmov	r0, r1, d7
 800b220:	e9d3 2308 	ldrd	r2, r3, [r3, #32]
 800b224:	f7f5 fada 	bl	80007dc <__aeabi_ddiv>
 800b228:	e9cd 0100 	strd	r0, r1, [sp]
 800b22c:	f006 060f 	and.w	r6, r6, #15
 800b230:	2503      	movs	r5, #3
 800b232:	4f19      	ldr	r7, [pc, #100]	; (800b298 <_dtoa_r+0x320>)
 800b234:	2e00      	cmp	r6, #0
 800b236:	d14c      	bne.n	800b2d2 <_dtoa_r+0x35a>
 800b238:	4642      	mov	r2, r8
 800b23a:	464b      	mov	r3, r9
 800b23c:	e9dd 0100 	ldrd	r0, r1, [sp]
 800b240:	f7f5 facc 	bl	80007dc <__aeabi_ddiv>
 800b244:	e9cd 0100 	strd	r0, r1, [sp]
 800b248:	e06a      	b.n	800b320 <_dtoa_r+0x3a8>
 800b24a:	2301      	movs	r3, #1
 800b24c:	9309      	str	r3, [sp, #36]	; 0x24
 800b24e:	9b0a      	ldr	r3, [sp, #40]	; 0x28
 800b250:	445b      	add	r3, fp
 800b252:	9304      	str	r3, [sp, #16]
 800b254:	3301      	adds	r3, #1
 800b256:	2b01      	cmp	r3, #1
 800b258:	9303      	str	r3, [sp, #12]
 800b25a:	bfb8      	it	lt
 800b25c:	2301      	movlt	r3, #1
 800b25e:	e7b3      	b.n	800b1c8 <_dtoa_r+0x250>
 800b260:	2300      	movs	r3, #0
 800b262:	e7ab      	b.n	800b1bc <_dtoa_r+0x244>
 800b264:	2300      	movs	r3, #0
 800b266:	e7f1      	b.n	800b24c <_dtoa_r+0x2d4>
 800b268:	636f4361 	.word	0x636f4361
 800b26c:	3fd287a7 	.word	0x3fd287a7
 800b270:	8b60c8b3 	.word	0x8b60c8b3
 800b274:	3fc68a28 	.word	0x3fc68a28
 800b278:	509f79fb 	.word	0x509f79fb
 800b27c:	3fd34413 	.word	0x3fd34413
 800b280:	7ff00000 	.word	0x7ff00000
 800b284:	0802e13d 	.word	0x0802e13d
 800b288:	0802e134 	.word	0x0802e134
 800b28c:	0802e142 	.word	0x0802e142
 800b290:	3ff80000 	.word	0x3ff80000
 800b294:	0802e060 	.word	0x0802e060
 800b298:	0802e038 	.word	0x0802e038
 800b29c:	2601      	movs	r6, #1
 800b29e:	2300      	movs	r3, #0
 800b2a0:	9307      	str	r3, [sp, #28]
 800b2a2:	9609      	str	r6, [sp, #36]	; 0x24
 800b2a4:	f04f 33ff 	mov.w	r3, #4294967295
 800b2a8:	9304      	str	r3, [sp, #16]
 800b2aa:	9303      	str	r3, [sp, #12]
 800b2ac:	2200      	movs	r2, #0
 800b2ae:	2312      	movs	r3, #18
 800b2b0:	920a      	str	r2, [sp, #40]	; 0x28
 800b2b2:	e789      	b.n	800b1c8 <_dtoa_r+0x250>
 800b2b4:	2301      	movs	r3, #1
 800b2b6:	9309      	str	r3, [sp, #36]	; 0x24
 800b2b8:	e7f4      	b.n	800b2a4 <_dtoa_r+0x32c>
 800b2ba:	2301      	movs	r3, #1
 800b2bc:	9304      	str	r3, [sp, #16]
 800b2be:	9303      	str	r3, [sp, #12]
 800b2c0:	461a      	mov	r2, r3
 800b2c2:	e7f5      	b.n	800b2b0 <_dtoa_r+0x338>
 800b2c4:	686a      	ldr	r2, [r5, #4]
 800b2c6:	3201      	adds	r2, #1
 800b2c8:	606a      	str	r2, [r5, #4]
 800b2ca:	0049      	lsls	r1, r1, #1
 800b2cc:	e780      	b.n	800b1d0 <_dtoa_r+0x258>
 800b2ce:	2502      	movs	r5, #2
 800b2d0:	e7af      	b.n	800b232 <_dtoa_r+0x2ba>
 800b2d2:	07f1      	lsls	r1, r6, #31
 800b2d4:	d508      	bpl.n	800b2e8 <_dtoa_r+0x370>
 800b2d6:	4640      	mov	r0, r8
 800b2d8:	4649      	mov	r1, r9
 800b2da:	e9d7 2300 	ldrd	r2, r3, [r7]
 800b2de:	f7f5 f953 	bl	8000588 <__aeabi_dmul>
 800b2e2:	3501      	adds	r5, #1
 800b2e4:	4680      	mov	r8, r0
 800b2e6:	4689      	mov	r9, r1
 800b2e8:	1076      	asrs	r6, r6, #1
 800b2ea:	3708      	adds	r7, #8
 800b2ec:	e7a2      	b.n	800b234 <_dtoa_r+0x2bc>
 800b2ee:	f000 809d 	beq.w	800b42c <_dtoa_r+0x4b4>
 800b2f2:	f1cb 0600 	rsb	r6, fp, #0
 800b2f6:	4b9f      	ldr	r3, [pc, #636]	; (800b574 <_dtoa_r+0x5fc>)
 800b2f8:	4f9f      	ldr	r7, [pc, #636]	; (800b578 <_dtoa_r+0x600>)
 800b2fa:	f006 020f 	and.w	r2, r6, #15
 800b2fe:	eb03 03c2 	add.w	r3, r3, r2, lsl #3
 800b302:	e9d3 2300 	ldrd	r2, r3, [r3]
 800b306:	e9dd 010c 	ldrd	r0, r1, [sp, #48]	; 0x30
 800b30a:	f7f5 f93d 	bl	8000588 <__aeabi_dmul>
 800b30e:	e9cd 0100 	strd	r0, r1, [sp]
 800b312:	1136      	asrs	r6, r6, #4
 800b314:	2300      	movs	r3, #0
 800b316:	2502      	movs	r5, #2
 800b318:	2e00      	cmp	r6, #0
 800b31a:	d17c      	bne.n	800b416 <_dtoa_r+0x49e>
 800b31c:	2b00      	cmp	r3, #0
 800b31e:	d191      	bne.n	800b244 <_dtoa_r+0x2cc>
 800b320:	9b0e      	ldr	r3, [sp, #56]	; 0x38
 800b322:	2b00      	cmp	r3, #0
 800b324:	f000 8084 	beq.w	800b430 <_dtoa_r+0x4b8>
 800b328:	e9dd 8900 	ldrd	r8, r9, [sp]
 800b32c:	2200      	movs	r2, #0
 800b32e:	4b93      	ldr	r3, [pc, #588]	; (800b57c <_dtoa_r+0x604>)
 800b330:	4640      	mov	r0, r8
 800b332:	4649      	mov	r1, r9
 800b334:	f7f5 fb9a 	bl	8000a6c <__aeabi_dcmplt>
 800b338:	2800      	cmp	r0, #0
 800b33a:	d079      	beq.n	800b430 <_dtoa_r+0x4b8>
 800b33c:	9b03      	ldr	r3, [sp, #12]
 800b33e:	2b00      	cmp	r3, #0
 800b340:	d076      	beq.n	800b430 <_dtoa_r+0x4b8>
 800b342:	9b04      	ldr	r3, [sp, #16]
 800b344:	2b00      	cmp	r3, #0
 800b346:	dd34      	ble.n	800b3b2 <_dtoa_r+0x43a>
 800b348:	2200      	movs	r2, #0
 800b34a:	4b8d      	ldr	r3, [pc, #564]	; (800b580 <_dtoa_r+0x608>)
 800b34c:	4640      	mov	r0, r8
 800b34e:	4649      	mov	r1, r9
 800b350:	f7f5 f91a 	bl	8000588 <__aeabi_dmul>
 800b354:	e9cd 0100 	strd	r0, r1, [sp]
 800b358:	9e04      	ldr	r6, [sp, #16]
 800b35a:	f10b 37ff 	add.w	r7, fp, #4294967295
 800b35e:	3501      	adds	r5, #1
 800b360:	4628      	mov	r0, r5
 800b362:	f7f5 f8ab 	bl	80004bc <__aeabi_i2d>
 800b366:	e9dd 2300 	ldrd	r2, r3, [sp]
 800b36a:	f7f5 f90d 	bl	8000588 <__aeabi_dmul>
 800b36e:	2200      	movs	r2, #0
 800b370:	4b84      	ldr	r3, [pc, #528]	; (800b584 <_dtoa_r+0x60c>)
 800b372:	f7f4 ff57 	bl	8000224 <__adddf3>
 800b376:	4680      	mov	r8, r0
 800b378:	f1a1 7950 	sub.w	r9, r1, #54525952	; 0x3400000
 800b37c:	2e00      	cmp	r6, #0
 800b37e:	d15a      	bne.n	800b436 <_dtoa_r+0x4be>
 800b380:	2200      	movs	r2, #0
 800b382:	4b81      	ldr	r3, [pc, #516]	; (800b588 <_dtoa_r+0x610>)
 800b384:	e9dd 0100 	ldrd	r0, r1, [sp]
 800b388:	f7f4 ff4a 	bl	8000220 <__aeabi_dsub>
 800b38c:	4642      	mov	r2, r8
 800b38e:	464b      	mov	r3, r9
 800b390:	e9cd 0100 	strd	r0, r1, [sp]
 800b394:	f7f5 fb88 	bl	8000aa8 <__aeabi_dcmpgt>
 800b398:	2800      	cmp	r0, #0
 800b39a:	f040 829b 	bne.w	800b8d4 <_dtoa_r+0x95c>
 800b39e:	4642      	mov	r2, r8
 800b3a0:	f109 4300 	add.w	r3, r9, #2147483648	; 0x80000000
 800b3a4:	e9dd 0100 	ldrd	r0, r1, [sp]
 800b3a8:	f7f5 fb60 	bl	8000a6c <__aeabi_dcmplt>
 800b3ac:	2800      	cmp	r0, #0
 800b3ae:	f040 828f 	bne.w	800b8d0 <_dtoa_r+0x958>
 800b3b2:	e9dd 230c 	ldrd	r2, r3, [sp, #48]	; 0x30
 800b3b6:	e9cd 2300 	strd	r2, r3, [sp]
 800b3ba:	9b15      	ldr	r3, [sp, #84]	; 0x54
 800b3bc:	2b00      	cmp	r3, #0
 800b3be:	f2c0 8150 	blt.w	800b662 <_dtoa_r+0x6ea>
 800b3c2:	f1bb 0f0e 	cmp.w	fp, #14
 800b3c6:	f300 814c 	bgt.w	800b662 <_dtoa_r+0x6ea>
 800b3ca:	4b6a      	ldr	r3, [pc, #424]	; (800b574 <_dtoa_r+0x5fc>)
 800b3cc:	eb03 03cb 	add.w	r3, r3, fp, lsl #3
 800b3d0:	e9d3 8900 	ldrd	r8, r9, [r3]
 800b3d4:	9b0a      	ldr	r3, [sp, #40]	; 0x28
 800b3d6:	2b00      	cmp	r3, #0
 800b3d8:	f280 80da 	bge.w	800b590 <_dtoa_r+0x618>
 800b3dc:	9b03      	ldr	r3, [sp, #12]
 800b3de:	2b00      	cmp	r3, #0
 800b3e0:	f300 80d6 	bgt.w	800b590 <_dtoa_r+0x618>
 800b3e4:	f040 8273 	bne.w	800b8ce <_dtoa_r+0x956>
 800b3e8:	2200      	movs	r2, #0
 800b3ea:	4b67      	ldr	r3, [pc, #412]	; (800b588 <_dtoa_r+0x610>)
 800b3ec:	4640      	mov	r0, r8
 800b3ee:	4649      	mov	r1, r9
 800b3f0:	f7f5 f8ca 	bl	8000588 <__aeabi_dmul>
 800b3f4:	e9dd 2300 	ldrd	r2, r3, [sp]
 800b3f8:	f7f5 fb4c 	bl	8000a94 <__aeabi_dcmpge>
 800b3fc:	9e03      	ldr	r6, [sp, #12]
 800b3fe:	4637      	mov	r7, r6
 800b400:	2800      	cmp	r0, #0
 800b402:	f040 824a 	bne.w	800b89a <_dtoa_r+0x922>
 800b406:	9b02      	ldr	r3, [sp, #8]
 800b408:	9a02      	ldr	r2, [sp, #8]
 800b40a:	1c5d      	adds	r5, r3, #1
 800b40c:	2331      	movs	r3, #49	; 0x31
 800b40e:	7013      	strb	r3, [r2, #0]
 800b410:	f10b 0b01 	add.w	fp, fp, #1
 800b414:	e245      	b.n	800b8a2 <_dtoa_r+0x92a>
 800b416:	07f2      	lsls	r2, r6, #31
 800b418:	d505      	bpl.n	800b426 <_dtoa_r+0x4ae>
 800b41a:	e9d7 2300 	ldrd	r2, r3, [r7]
 800b41e:	f7f5 f8b3 	bl	8000588 <__aeabi_dmul>
 800b422:	3501      	adds	r5, #1
 800b424:	2301      	movs	r3, #1
 800b426:	1076      	asrs	r6, r6, #1
 800b428:	3708      	adds	r7, #8
 800b42a:	e775      	b.n	800b318 <_dtoa_r+0x3a0>
 800b42c:	2502      	movs	r5, #2
 800b42e:	e777      	b.n	800b320 <_dtoa_r+0x3a8>
 800b430:	465f      	mov	r7, fp
 800b432:	9e03      	ldr	r6, [sp, #12]
 800b434:	e794      	b.n	800b360 <_dtoa_r+0x3e8>
 800b436:	9a02      	ldr	r2, [sp, #8]
 800b438:	4b4e      	ldr	r3, [pc, #312]	; (800b574 <_dtoa_r+0x5fc>)
 800b43a:	4432      	add	r2, r6
 800b43c:	9213      	str	r2, [sp, #76]	; 0x4c
 800b43e:	9a09      	ldr	r2, [sp, #36]	; 0x24
 800b440:	1e71      	subs	r1, r6, #1
 800b442:	2a00      	cmp	r2, #0
 800b444:	d048      	beq.n	800b4d8 <_dtoa_r+0x560>
 800b446:	eb03 03c1 	add.w	r3, r3, r1, lsl #3
 800b44a:	e9d3 2300 	ldrd	r2, r3, [r3]
 800b44e:	2000      	movs	r0, #0
 800b450:	494e      	ldr	r1, [pc, #312]	; (800b58c <_dtoa_r+0x614>)
 800b452:	f7f5 f9c3 	bl	80007dc <__aeabi_ddiv>
 800b456:	4642      	mov	r2, r8
 800b458:	464b      	mov	r3, r9
 800b45a:	f7f4 fee1 	bl	8000220 <__aeabi_dsub>
 800b45e:	9d02      	ldr	r5, [sp, #8]
 800b460:	4680      	mov	r8, r0
 800b462:	4689      	mov	r9, r1
 800b464:	e9dd 0100 	ldrd	r0, r1, [sp]
 800b468:	f7f5 fb28 	bl	8000abc <__aeabi_d2iz>
 800b46c:	4606      	mov	r6, r0
 800b46e:	f7f5 f825 	bl	80004bc <__aeabi_i2d>
 800b472:	4602      	mov	r2, r0
 800b474:	460b      	mov	r3, r1
 800b476:	e9dd 0100 	ldrd	r0, r1, [sp]
 800b47a:	f7f4 fed1 	bl	8000220 <__aeabi_dsub>
 800b47e:	3630      	adds	r6, #48	; 0x30
 800b480:	f805 6b01 	strb.w	r6, [r5], #1
 800b484:	4642      	mov	r2, r8
 800b486:	464b      	mov	r3, r9
 800b488:	e9cd 0100 	strd	r0, r1, [sp]
 800b48c:	f7f5 faee 	bl	8000a6c <__aeabi_dcmplt>
 800b490:	2800      	cmp	r0, #0
 800b492:	d165      	bne.n	800b560 <_dtoa_r+0x5e8>
 800b494:	e9dd 2300 	ldrd	r2, r3, [sp]
 800b498:	2000      	movs	r0, #0
 800b49a:	4938      	ldr	r1, [pc, #224]	; (800b57c <_dtoa_r+0x604>)
 800b49c:	f7f4 fec0 	bl	8000220 <__aeabi_dsub>
 800b4a0:	4642      	mov	r2, r8
 800b4a2:	464b      	mov	r3, r9
 800b4a4:	f7f5 fae2 	bl	8000a6c <__aeabi_dcmplt>
 800b4a8:	2800      	cmp	r0, #0
 800b4aa:	f040 80ba 	bne.w	800b622 <_dtoa_r+0x6aa>
 800b4ae:	9b13      	ldr	r3, [sp, #76]	; 0x4c
 800b4b0:	429d      	cmp	r5, r3
 800b4b2:	f43f af7e 	beq.w	800b3b2 <_dtoa_r+0x43a>
 800b4b6:	2200      	movs	r2, #0
 800b4b8:	4b31      	ldr	r3, [pc, #196]	; (800b580 <_dtoa_r+0x608>)
 800b4ba:	4640      	mov	r0, r8
 800b4bc:	4649      	mov	r1, r9
 800b4be:	f7f5 f863 	bl	8000588 <__aeabi_dmul>
 800b4c2:	2200      	movs	r2, #0
 800b4c4:	4680      	mov	r8, r0
 800b4c6:	4689      	mov	r9, r1
 800b4c8:	4b2d      	ldr	r3, [pc, #180]	; (800b580 <_dtoa_r+0x608>)
 800b4ca:	e9dd 0100 	ldrd	r0, r1, [sp]
 800b4ce:	f7f5 f85b 	bl	8000588 <__aeabi_dmul>
 800b4d2:	e9cd 0100 	strd	r0, r1, [sp]
 800b4d6:	e7c5      	b.n	800b464 <_dtoa_r+0x4ec>
 800b4d8:	eb03 01c1 	add.w	r1, r3, r1, lsl #3
 800b4dc:	4642      	mov	r2, r8
 800b4de:	464b      	mov	r3, r9
 800b4e0:	e9d1 0100 	ldrd	r0, r1, [r1]
 800b4e4:	f7f5 f850 	bl	8000588 <__aeabi_dmul>
 800b4e8:	e9cd 0110 	strd	r0, r1, [sp, #64]	; 0x40
 800b4ec:	9d02      	ldr	r5, [sp, #8]
 800b4ee:	e9dd 0100 	ldrd	r0, r1, [sp]
 800b4f2:	f7f5 fae3 	bl	8000abc <__aeabi_d2iz>
 800b4f6:	4606      	mov	r6, r0
 800b4f8:	f7f4 ffe0 	bl	80004bc <__aeabi_i2d>
 800b4fc:	3630      	adds	r6, #48	; 0x30
 800b4fe:	4602      	mov	r2, r0
 800b500:	460b      	mov	r3, r1
 800b502:	e9dd 0100 	ldrd	r0, r1, [sp]
 800b506:	f7f4 fe8b 	bl	8000220 <__aeabi_dsub>
 800b50a:	f805 6b01 	strb.w	r6, [r5], #1
 800b50e:	9b13      	ldr	r3, [sp, #76]	; 0x4c
 800b510:	42ab      	cmp	r3, r5
 800b512:	4680      	mov	r8, r0
 800b514:	4689      	mov	r9, r1
 800b516:	f04f 0200 	mov.w	r2, #0
 800b51a:	d125      	bne.n	800b568 <_dtoa_r+0x5f0>
 800b51c:	4b1b      	ldr	r3, [pc, #108]	; (800b58c <_dtoa_r+0x614>)
 800b51e:	e9dd 0110 	ldrd	r0, r1, [sp, #64]	; 0x40
 800b522:	f7f4 fe7f 	bl	8000224 <__adddf3>
 800b526:	4602      	mov	r2, r0
 800b528:	460b      	mov	r3, r1
 800b52a:	4640      	mov	r0, r8
 800b52c:	4649      	mov	r1, r9
 800b52e:	f7f5 fabb 	bl	8000aa8 <__aeabi_dcmpgt>
 800b532:	2800      	cmp	r0, #0
 800b534:	d175      	bne.n	800b622 <_dtoa_r+0x6aa>
 800b536:	e9dd 2310 	ldrd	r2, r3, [sp, #64]	; 0x40
 800b53a:	2000      	movs	r0, #0
 800b53c:	4913      	ldr	r1, [pc, #76]	; (800b58c <_dtoa_r+0x614>)
 800b53e:	f7f4 fe6f 	bl	8000220 <__aeabi_dsub>
 800b542:	4602      	mov	r2, r0
 800b544:	460b      	mov	r3, r1
 800b546:	4640      	mov	r0, r8
 800b548:	4649      	mov	r1, r9
 800b54a:	f7f5 fa8f 	bl	8000a6c <__aeabi_dcmplt>
 800b54e:	2800      	cmp	r0, #0
 800b550:	f43f af2f 	beq.w	800b3b2 <_dtoa_r+0x43a>
 800b554:	f815 3c01 	ldrb.w	r3, [r5, #-1]
 800b558:	2b30      	cmp	r3, #48	; 0x30
 800b55a:	f105 32ff 	add.w	r2, r5, #4294967295
 800b55e:	d001      	beq.n	800b564 <_dtoa_r+0x5ec>
 800b560:	46bb      	mov	fp, r7
 800b562:	e04d      	b.n	800b600 <_dtoa_r+0x688>
 800b564:	4615      	mov	r5, r2
 800b566:	e7f5      	b.n	800b554 <_dtoa_r+0x5dc>
 800b568:	4b05      	ldr	r3, [pc, #20]	; (800b580 <_dtoa_r+0x608>)
 800b56a:	f7f5 f80d 	bl	8000588 <__aeabi_dmul>
 800b56e:	e9cd 0100 	strd	r0, r1, [sp]
 800b572:	e7bc      	b.n	800b4ee <_dtoa_r+0x576>
 800b574:	0802e060 	.word	0x0802e060
 800b578:	0802e038 	.word	0x0802e038
 800b57c:	3ff00000 	.word	0x3ff00000
 800b580:	40240000 	.word	0x40240000
 800b584:	401c0000 	.word	0x401c0000
 800b588:	40140000 	.word	0x40140000
 800b58c:	3fe00000 	.word	0x3fe00000
 800b590:	e9dd 6700 	ldrd	r6, r7, [sp]
 800b594:	9d02      	ldr	r5, [sp, #8]
 800b596:	4642      	mov	r2, r8
 800b598:	464b      	mov	r3, r9
 800b59a:	4630      	mov	r0, r6
 800b59c:	4639      	mov	r1, r7
 800b59e:	f7f5 f91d 	bl	80007dc <__aeabi_ddiv>
 800b5a2:	f7f5 fa8b 	bl	8000abc <__aeabi_d2iz>
 800b5a6:	9000      	str	r0, [sp, #0]
 800b5a8:	f7f4 ff88 	bl	80004bc <__aeabi_i2d>
 800b5ac:	4642      	mov	r2, r8
 800b5ae:	464b      	mov	r3, r9
 800b5b0:	f7f4 ffea 	bl	8000588 <__aeabi_dmul>
 800b5b4:	4602      	mov	r2, r0
 800b5b6:	460b      	mov	r3, r1
 800b5b8:	4630      	mov	r0, r6
 800b5ba:	4639      	mov	r1, r7
 800b5bc:	f7f4 fe30 	bl	8000220 <__aeabi_dsub>
 800b5c0:	9e00      	ldr	r6, [sp, #0]
 800b5c2:	9f03      	ldr	r7, [sp, #12]
 800b5c4:	3630      	adds	r6, #48	; 0x30
 800b5c6:	f805 6b01 	strb.w	r6, [r5], #1
 800b5ca:	9e02      	ldr	r6, [sp, #8]
 800b5cc:	1bae      	subs	r6, r5, r6
 800b5ce:	42b7      	cmp	r7, r6
 800b5d0:	4602      	mov	r2, r0
 800b5d2:	460b      	mov	r3, r1
 800b5d4:	d138      	bne.n	800b648 <_dtoa_r+0x6d0>
 800b5d6:	f7f4 fe25 	bl	8000224 <__adddf3>
 800b5da:	4606      	mov	r6, r0
 800b5dc:	460f      	mov	r7, r1
 800b5de:	4602      	mov	r2, r0
 800b5e0:	460b      	mov	r3, r1
 800b5e2:	4640      	mov	r0, r8
 800b5e4:	4649      	mov	r1, r9
 800b5e6:	f7f5 fa41 	bl	8000a6c <__aeabi_dcmplt>
 800b5ea:	b9c8      	cbnz	r0, 800b620 <_dtoa_r+0x6a8>
 800b5ec:	4632      	mov	r2, r6
 800b5ee:	463b      	mov	r3, r7
 800b5f0:	4640      	mov	r0, r8
 800b5f2:	4649      	mov	r1, r9
 800b5f4:	f7f5 fa30 	bl	8000a58 <__aeabi_dcmpeq>
 800b5f8:	b110      	cbz	r0, 800b600 <_dtoa_r+0x688>
 800b5fa:	9b00      	ldr	r3, [sp, #0]
 800b5fc:	07db      	lsls	r3, r3, #31
 800b5fe:	d40f      	bmi.n	800b620 <_dtoa_r+0x6a8>
 800b600:	4651      	mov	r1, sl
 800b602:	4620      	mov	r0, r4
 800b604:	f7ff f8f6 	bl	800a7f4 <_Bfree>
 800b608:	2300      	movs	r3, #0
 800b60a:	9a0f      	ldr	r2, [sp, #60]	; 0x3c
 800b60c:	702b      	strb	r3, [r5, #0]
 800b60e:	f10b 0301 	add.w	r3, fp, #1
 800b612:	6013      	str	r3, [r2, #0]
 800b614:	9b21      	ldr	r3, [sp, #132]	; 0x84
 800b616:	2b00      	cmp	r3, #0
 800b618:	f43f acf8 	beq.w	800b00c <_dtoa_r+0x94>
 800b61c:	601d      	str	r5, [r3, #0]
 800b61e:	e4f5      	b.n	800b00c <_dtoa_r+0x94>
 800b620:	465f      	mov	r7, fp
 800b622:	f815 2c01 	ldrb.w	r2, [r5, #-1]
 800b626:	2a39      	cmp	r2, #57	; 0x39
 800b628:	f105 33ff 	add.w	r3, r5, #4294967295
 800b62c:	d106      	bne.n	800b63c <_dtoa_r+0x6c4>
 800b62e:	9a02      	ldr	r2, [sp, #8]
 800b630:	429a      	cmp	r2, r3
 800b632:	d107      	bne.n	800b644 <_dtoa_r+0x6cc>
 800b634:	2330      	movs	r3, #48	; 0x30
 800b636:	7013      	strb	r3, [r2, #0]
 800b638:	3701      	adds	r7, #1
 800b63a:	4613      	mov	r3, r2
 800b63c:	781a      	ldrb	r2, [r3, #0]
 800b63e:	3201      	adds	r2, #1
 800b640:	701a      	strb	r2, [r3, #0]
 800b642:	e78d      	b.n	800b560 <_dtoa_r+0x5e8>
 800b644:	461d      	mov	r5, r3
 800b646:	e7ec      	b.n	800b622 <_dtoa_r+0x6aa>
 800b648:	2200      	movs	r2, #0
 800b64a:	4ba4      	ldr	r3, [pc, #656]	; (800b8dc <_dtoa_r+0x964>)
 800b64c:	f7f4 ff9c 	bl	8000588 <__aeabi_dmul>
 800b650:	2200      	movs	r2, #0
 800b652:	2300      	movs	r3, #0
 800b654:	4606      	mov	r6, r0
 800b656:	460f      	mov	r7, r1
 800b658:	f7f5 f9fe 	bl	8000a58 <__aeabi_dcmpeq>
 800b65c:	2800      	cmp	r0, #0
 800b65e:	d09a      	beq.n	800b596 <_dtoa_r+0x61e>
 800b660:	e7ce      	b.n	800b600 <_dtoa_r+0x688>
 800b662:	9a09      	ldr	r2, [sp, #36]	; 0x24
 800b664:	2a00      	cmp	r2, #0
 800b666:	f000 80cd 	beq.w	800b804 <_dtoa_r+0x88c>
 800b66a:	9a07      	ldr	r2, [sp, #28]
 800b66c:	2a01      	cmp	r2, #1
 800b66e:	f300 80af 	bgt.w	800b7d0 <_dtoa_r+0x858>
 800b672:	9a12      	ldr	r2, [sp, #72]	; 0x48
 800b674:	2a00      	cmp	r2, #0
 800b676:	f000 80a7 	beq.w	800b7c8 <_dtoa_r+0x850>
 800b67a:	f203 4333 	addw	r3, r3, #1075	; 0x433
 800b67e:	9e08      	ldr	r6, [sp, #32]
 800b680:	9d05      	ldr	r5, [sp, #20]
 800b682:	9a05      	ldr	r2, [sp, #20]
 800b684:	441a      	add	r2, r3
 800b686:	9205      	str	r2, [sp, #20]
 800b688:	9a06      	ldr	r2, [sp, #24]
 800b68a:	2101      	movs	r1, #1
 800b68c:	441a      	add	r2, r3
 800b68e:	4620      	mov	r0, r4
 800b690:	9206      	str	r2, [sp, #24]
 800b692:	f7ff f94f 	bl	800a934 <__i2b>
 800b696:	4607      	mov	r7, r0
 800b698:	2d00      	cmp	r5, #0
 800b69a:	dd0c      	ble.n	800b6b6 <_dtoa_r+0x73e>
 800b69c:	9b06      	ldr	r3, [sp, #24]
 800b69e:	2b00      	cmp	r3, #0
 800b6a0:	dd09      	ble.n	800b6b6 <_dtoa_r+0x73e>
 800b6a2:	42ab      	cmp	r3, r5
 800b6a4:	9a05      	ldr	r2, [sp, #20]
 800b6a6:	bfa8      	it	ge
 800b6a8:	462b      	movge	r3, r5
 800b6aa:	1ad2      	subs	r2, r2, r3
 800b6ac:	9205      	str	r2, [sp, #20]
 800b6ae:	9a06      	ldr	r2, [sp, #24]
 800b6b0:	1aed      	subs	r5, r5, r3
 800b6b2:	1ad3      	subs	r3, r2, r3
 800b6b4:	9306      	str	r3, [sp, #24]
 800b6b6:	9b08      	ldr	r3, [sp, #32]
 800b6b8:	b1f3      	cbz	r3, 800b6f8 <_dtoa_r+0x780>
 800b6ba:	9b09      	ldr	r3, [sp, #36]	; 0x24
 800b6bc:	2b00      	cmp	r3, #0
 800b6be:	f000 80a5 	beq.w	800b80c <_dtoa_r+0x894>
 800b6c2:	2e00      	cmp	r6, #0
 800b6c4:	dd10      	ble.n	800b6e8 <_dtoa_r+0x770>
 800b6c6:	4639      	mov	r1, r7
 800b6c8:	4632      	mov	r2, r6
 800b6ca:	4620      	mov	r0, r4
 800b6cc:	f7ff f9c8 	bl	800aa60 <__pow5mult>
 800b6d0:	4652      	mov	r2, sl
 800b6d2:	4601      	mov	r1, r0
 800b6d4:	4607      	mov	r7, r0
 800b6d6:	4620      	mov	r0, r4
 800b6d8:	f7ff f935 	bl	800a946 <__multiply>
 800b6dc:	4651      	mov	r1, sl
 800b6de:	4680      	mov	r8, r0
 800b6e0:	4620      	mov	r0, r4
 800b6e2:	f7ff f887 	bl	800a7f4 <_Bfree>
 800b6e6:	46c2      	mov	sl, r8
 800b6e8:	9b08      	ldr	r3, [sp, #32]
 800b6ea:	1b9a      	subs	r2, r3, r6
 800b6ec:	d004      	beq.n	800b6f8 <_dtoa_r+0x780>
 800b6ee:	4651      	mov	r1, sl
 800b6f0:	4620      	mov	r0, r4
 800b6f2:	f7ff f9b5 	bl	800aa60 <__pow5mult>
 800b6f6:	4682      	mov	sl, r0
 800b6f8:	2101      	movs	r1, #1
 800b6fa:	4620      	mov	r0, r4
 800b6fc:	f7ff f91a 	bl	800a934 <__i2b>
 800b700:	9b0b      	ldr	r3, [sp, #44]	; 0x2c
 800b702:	2b00      	cmp	r3, #0
 800b704:	4606      	mov	r6, r0
 800b706:	f340 8083 	ble.w	800b810 <_dtoa_r+0x898>
 800b70a:	461a      	mov	r2, r3
 800b70c:	4601      	mov	r1, r0
 800b70e:	4620      	mov	r0, r4
 800b710:	f7ff f9a6 	bl	800aa60 <__pow5mult>
 800b714:	9b07      	ldr	r3, [sp, #28]
 800b716:	2b01      	cmp	r3, #1
 800b718:	4606      	mov	r6, r0
 800b71a:	dd7c      	ble.n	800b816 <_dtoa_r+0x89e>
 800b71c:	f04f 0800 	mov.w	r8, #0
 800b720:	6933      	ldr	r3, [r6, #16]
 800b722:	eb06 0383 	add.w	r3, r6, r3, lsl #2
 800b726:	6918      	ldr	r0, [r3, #16]
 800b728:	f7ff f8b6 	bl	800a898 <__hi0bits>
 800b72c:	f1c0 0020 	rsb	r0, r0, #32
 800b730:	9b06      	ldr	r3, [sp, #24]
 800b732:	4418      	add	r0, r3
 800b734:	f010 001f 	ands.w	r0, r0, #31
 800b738:	f000 8096 	beq.w	800b868 <_dtoa_r+0x8f0>
 800b73c:	f1c0 0320 	rsb	r3, r0, #32
 800b740:	2b04      	cmp	r3, #4
 800b742:	f340 8087 	ble.w	800b854 <_dtoa_r+0x8dc>
 800b746:	9b05      	ldr	r3, [sp, #20]
 800b748:	f1c0 001c 	rsb	r0, r0, #28
 800b74c:	4403      	add	r3, r0
 800b74e:	9305      	str	r3, [sp, #20]
 800b750:	9b06      	ldr	r3, [sp, #24]
 800b752:	4405      	add	r5, r0
 800b754:	4403      	add	r3, r0
 800b756:	9306      	str	r3, [sp, #24]
 800b758:	9b05      	ldr	r3, [sp, #20]
 800b75a:	2b00      	cmp	r3, #0
 800b75c:	dd05      	ble.n	800b76a <_dtoa_r+0x7f2>
 800b75e:	4651      	mov	r1, sl
 800b760:	461a      	mov	r2, r3
 800b762:	4620      	mov	r0, r4
 800b764:	f7ff f9ca 	bl	800aafc <__lshift>
 800b768:	4682      	mov	sl, r0
 800b76a:	9b06      	ldr	r3, [sp, #24]
 800b76c:	2b00      	cmp	r3, #0
 800b76e:	dd05      	ble.n	800b77c <_dtoa_r+0x804>
 800b770:	4631      	mov	r1, r6
 800b772:	461a      	mov	r2, r3
 800b774:	4620      	mov	r0, r4
 800b776:	f7ff f9c1 	bl	800aafc <__lshift>
 800b77a:	4606      	mov	r6, r0
 800b77c:	9b0e      	ldr	r3, [sp, #56]	; 0x38
 800b77e:	2b00      	cmp	r3, #0
 800b780:	d074      	beq.n	800b86c <_dtoa_r+0x8f4>
 800b782:	4631      	mov	r1, r6
 800b784:	4650      	mov	r0, sl
 800b786:	f7ff fa0a 	bl	800ab9e <__mcmp>
 800b78a:	2800      	cmp	r0, #0
 800b78c:	da6e      	bge.n	800b86c <_dtoa_r+0x8f4>
 800b78e:	2300      	movs	r3, #0
 800b790:	4651      	mov	r1, sl
 800b792:	220a      	movs	r2, #10
 800b794:	4620      	mov	r0, r4
 800b796:	f7ff f844 	bl	800a822 <__multadd>
 800b79a:	9b09      	ldr	r3, [sp, #36]	; 0x24
 800b79c:	f10b 3bff 	add.w	fp, fp, #4294967295
 800b7a0:	4682      	mov	sl, r0
 800b7a2:	2b00      	cmp	r3, #0
 800b7a4:	f000 81a8 	beq.w	800baf8 <_dtoa_r+0xb80>
 800b7a8:	2300      	movs	r3, #0
 800b7aa:	4639      	mov	r1, r7
 800b7ac:	220a      	movs	r2, #10
 800b7ae:	4620      	mov	r0, r4
 800b7b0:	f7ff f837 	bl	800a822 <__multadd>
 800b7b4:	9b04      	ldr	r3, [sp, #16]
 800b7b6:	2b00      	cmp	r3, #0
 800b7b8:	4607      	mov	r7, r0
 800b7ba:	f300 80c8 	bgt.w	800b94e <_dtoa_r+0x9d6>
 800b7be:	9b07      	ldr	r3, [sp, #28]
 800b7c0:	2b02      	cmp	r3, #2
 800b7c2:	f340 80c4 	ble.w	800b94e <_dtoa_r+0x9d6>
 800b7c6:	e059      	b.n	800b87c <_dtoa_r+0x904>
 800b7c8:	9b14      	ldr	r3, [sp, #80]	; 0x50
 800b7ca:	f1c3 0336 	rsb	r3, r3, #54	; 0x36
 800b7ce:	e756      	b.n	800b67e <_dtoa_r+0x706>
 800b7d0:	9b03      	ldr	r3, [sp, #12]
 800b7d2:	1e5e      	subs	r6, r3, #1
 800b7d4:	9b08      	ldr	r3, [sp, #32]
 800b7d6:	42b3      	cmp	r3, r6
 800b7d8:	bfbf      	itttt	lt
 800b7da:	9b08      	ldrlt	r3, [sp, #32]
 800b7dc:	9608      	strlt	r6, [sp, #32]
 800b7de:	1af2      	sublt	r2, r6, r3
 800b7e0:	9b0b      	ldrlt	r3, [sp, #44]	; 0x2c
 800b7e2:	bfb6      	itet	lt
 800b7e4:	189b      	addlt	r3, r3, r2
 800b7e6:	1b9e      	subge	r6, r3, r6
 800b7e8:	930b      	strlt	r3, [sp, #44]	; 0x2c
 800b7ea:	9b03      	ldr	r3, [sp, #12]
 800b7ec:	bfb8      	it	lt
 800b7ee:	2600      	movlt	r6, #0
 800b7f0:	2b00      	cmp	r3, #0
 800b7f2:	bfb9      	ittee	lt
 800b7f4:	9b05      	ldrlt	r3, [sp, #20]
 800b7f6:	9a03      	ldrlt	r2, [sp, #12]
 800b7f8:	9d05      	ldrge	r5, [sp, #20]
 800b7fa:	9b03      	ldrge	r3, [sp, #12]
 800b7fc:	bfbc      	itt	lt
 800b7fe:	1a9d      	sublt	r5, r3, r2
 800b800:	2300      	movlt	r3, #0
 800b802:	e73e      	b.n	800b682 <_dtoa_r+0x70a>
 800b804:	9e08      	ldr	r6, [sp, #32]
 800b806:	9d05      	ldr	r5, [sp, #20]
 800b808:	9f09      	ldr	r7, [sp, #36]	; 0x24
 800b80a:	e745      	b.n	800b698 <_dtoa_r+0x720>
 800b80c:	9a08      	ldr	r2, [sp, #32]
 800b80e:	e76e      	b.n	800b6ee <_dtoa_r+0x776>
 800b810:	9b07      	ldr	r3, [sp, #28]
 800b812:	2b01      	cmp	r3, #1
 800b814:	dc19      	bgt.n	800b84a <_dtoa_r+0x8d2>
 800b816:	9b00      	ldr	r3, [sp, #0]
 800b818:	b9bb      	cbnz	r3, 800b84a <_dtoa_r+0x8d2>
 800b81a:	9b01      	ldr	r3, [sp, #4]
 800b81c:	f3c3 0313 	ubfx	r3, r3, #0, #20
 800b820:	b99b      	cbnz	r3, 800b84a <_dtoa_r+0x8d2>
 800b822:	9b01      	ldr	r3, [sp, #4]
 800b824:	f023 4300 	bic.w	r3, r3, #2147483648	; 0x80000000
 800b828:	0d1b      	lsrs	r3, r3, #20
 800b82a:	051b      	lsls	r3, r3, #20
 800b82c:	b183      	cbz	r3, 800b850 <_dtoa_r+0x8d8>
 800b82e:	9b05      	ldr	r3, [sp, #20]
 800b830:	3301      	adds	r3, #1
 800b832:	9305      	str	r3, [sp, #20]
 800b834:	9b06      	ldr	r3, [sp, #24]
 800b836:	3301      	adds	r3, #1
 800b838:	9306      	str	r3, [sp, #24]
 800b83a:	f04f 0801 	mov.w	r8, #1
 800b83e:	9b0b      	ldr	r3, [sp, #44]	; 0x2c
 800b840:	2b00      	cmp	r3, #0
 800b842:	f47f af6d 	bne.w	800b720 <_dtoa_r+0x7a8>
 800b846:	2001      	movs	r0, #1
 800b848:	e772      	b.n	800b730 <_dtoa_r+0x7b8>
 800b84a:	f04f 0800 	mov.w	r8, #0
 800b84e:	e7f6      	b.n	800b83e <_dtoa_r+0x8c6>
 800b850:	4698      	mov	r8, r3
 800b852:	e7f4      	b.n	800b83e <_dtoa_r+0x8c6>
 800b854:	d080      	beq.n	800b758 <_dtoa_r+0x7e0>
 800b856:	9a05      	ldr	r2, [sp, #20]
 800b858:	331c      	adds	r3, #28
 800b85a:	441a      	add	r2, r3
 800b85c:	9205      	str	r2, [sp, #20]
 800b85e:	9a06      	ldr	r2, [sp, #24]
 800b860:	441a      	add	r2, r3
 800b862:	441d      	add	r5, r3
 800b864:	4613      	mov	r3, r2
 800b866:	e776      	b.n	800b756 <_dtoa_r+0x7de>
 800b868:	4603      	mov	r3, r0
 800b86a:	e7f4      	b.n	800b856 <_dtoa_r+0x8de>
 800b86c:	9b03      	ldr	r3, [sp, #12]
 800b86e:	2b00      	cmp	r3, #0
 800b870:	dc36      	bgt.n	800b8e0 <_dtoa_r+0x968>
 800b872:	9b07      	ldr	r3, [sp, #28]
 800b874:	2b02      	cmp	r3, #2
 800b876:	dd33      	ble.n	800b8e0 <_dtoa_r+0x968>
 800b878:	9b03      	ldr	r3, [sp, #12]
 800b87a:	9304      	str	r3, [sp, #16]
 800b87c:	9b04      	ldr	r3, [sp, #16]
 800b87e:	b963      	cbnz	r3, 800b89a <_dtoa_r+0x922>
 800b880:	4631      	mov	r1, r6
 800b882:	2205      	movs	r2, #5
 800b884:	4620      	mov	r0, r4
 800b886:	f7fe ffcc 	bl	800a822 <__multadd>
 800b88a:	4601      	mov	r1, r0
 800b88c:	4606      	mov	r6, r0
 800b88e:	4650      	mov	r0, sl
 800b890:	f7ff f985 	bl	800ab9e <__mcmp>
 800b894:	2800      	cmp	r0, #0
 800b896:	f73f adb6 	bgt.w	800b406 <_dtoa_r+0x48e>
 800b89a:	9b0a      	ldr	r3, [sp, #40]	; 0x28
 800b89c:	9d02      	ldr	r5, [sp, #8]
 800b89e:	ea6f 0b03 	mvn.w	fp, r3
 800b8a2:	2300      	movs	r3, #0
 800b8a4:	9303      	str	r3, [sp, #12]
 800b8a6:	4631      	mov	r1, r6
 800b8a8:	4620      	mov	r0, r4
 800b8aa:	f7fe ffa3 	bl	800a7f4 <_Bfree>
 800b8ae:	2f00      	cmp	r7, #0
 800b8b0:	f43f aea6 	beq.w	800b600 <_dtoa_r+0x688>
 800b8b4:	9b03      	ldr	r3, [sp, #12]
 800b8b6:	b12b      	cbz	r3, 800b8c4 <_dtoa_r+0x94c>
 800b8b8:	42bb      	cmp	r3, r7
 800b8ba:	d003      	beq.n	800b8c4 <_dtoa_r+0x94c>
 800b8bc:	4619      	mov	r1, r3
 800b8be:	4620      	mov	r0, r4
 800b8c0:	f7fe ff98 	bl	800a7f4 <_Bfree>
 800b8c4:	4639      	mov	r1, r7
 800b8c6:	4620      	mov	r0, r4
 800b8c8:	f7fe ff94 	bl	800a7f4 <_Bfree>
 800b8cc:	e698      	b.n	800b600 <_dtoa_r+0x688>
 800b8ce:	2600      	movs	r6, #0
 800b8d0:	4637      	mov	r7, r6
 800b8d2:	e7e2      	b.n	800b89a <_dtoa_r+0x922>
 800b8d4:	46bb      	mov	fp, r7
 800b8d6:	4637      	mov	r7, r6
 800b8d8:	e595      	b.n	800b406 <_dtoa_r+0x48e>
 800b8da:	bf00      	nop
 800b8dc:	40240000 	.word	0x40240000
 800b8e0:	9b09      	ldr	r3, [sp, #36]	; 0x24
 800b8e2:	bb93      	cbnz	r3, 800b94a <_dtoa_r+0x9d2>
 800b8e4:	9b03      	ldr	r3, [sp, #12]
 800b8e6:	9304      	str	r3, [sp, #16]
 800b8e8:	9d02      	ldr	r5, [sp, #8]
 800b8ea:	4631      	mov	r1, r6
 800b8ec:	4650      	mov	r0, sl
 800b8ee:	f7ff fab7 	bl	800ae60 <quorem>
 800b8f2:	f100 0930 	add.w	r9, r0, #48	; 0x30
 800b8f6:	f805 9b01 	strb.w	r9, [r5], #1
 800b8fa:	9b02      	ldr	r3, [sp, #8]
 800b8fc:	9a04      	ldr	r2, [sp, #16]
 800b8fe:	1aeb      	subs	r3, r5, r3
 800b900:	429a      	cmp	r2, r3
 800b902:	f300 80dc 	bgt.w	800babe <_dtoa_r+0xb46>
 800b906:	9b02      	ldr	r3, [sp, #8]
 800b908:	2a01      	cmp	r2, #1
 800b90a:	bfac      	ite	ge
 800b90c:	189b      	addge	r3, r3, r2
 800b90e:	3301      	addlt	r3, #1
 800b910:	4698      	mov	r8, r3
 800b912:	2300      	movs	r3, #0
 800b914:	9303      	str	r3, [sp, #12]
 800b916:	4651      	mov	r1, sl
 800b918:	2201      	movs	r2, #1
 800b91a:	4620      	mov	r0, r4
 800b91c:	f7ff f8ee 	bl	800aafc <__lshift>
 800b920:	4631      	mov	r1, r6
 800b922:	4682      	mov	sl, r0
 800b924:	f7ff f93b 	bl	800ab9e <__mcmp>
 800b928:	2800      	cmp	r0, #0
 800b92a:	f300 808d 	bgt.w	800ba48 <_dtoa_r+0xad0>
 800b92e:	d103      	bne.n	800b938 <_dtoa_r+0x9c0>
 800b930:	f019 0f01 	tst.w	r9, #1
 800b934:	f040 8088 	bne.w	800ba48 <_dtoa_r+0xad0>
 800b938:	4645      	mov	r5, r8
 800b93a:	f815 3c01 	ldrb.w	r3, [r5, #-1]
 800b93e:	2b30      	cmp	r3, #48	; 0x30
 800b940:	f105 32ff 	add.w	r2, r5, #4294967295
 800b944:	d1af      	bne.n	800b8a6 <_dtoa_r+0x92e>
 800b946:	4615      	mov	r5, r2
 800b948:	e7f7      	b.n	800b93a <_dtoa_r+0x9c2>
 800b94a:	9b03      	ldr	r3, [sp, #12]
 800b94c:	9304      	str	r3, [sp, #16]
 800b94e:	2d00      	cmp	r5, #0
 800b950:	dd05      	ble.n	800b95e <_dtoa_r+0x9e6>
 800b952:	4639      	mov	r1, r7
 800b954:	462a      	mov	r2, r5
 800b956:	4620      	mov	r0, r4
 800b958:	f7ff f8d0 	bl	800aafc <__lshift>
 800b95c:	4607      	mov	r7, r0
 800b95e:	f1b8 0f00 	cmp.w	r8, #0
 800b962:	d04c      	beq.n	800b9fe <_dtoa_r+0xa86>
 800b964:	6879      	ldr	r1, [r7, #4]
 800b966:	4620      	mov	r0, r4
 800b968:	f7fe ff10 	bl	800a78c <_Balloc>
 800b96c:	693a      	ldr	r2, [r7, #16]
 800b96e:	3202      	adds	r2, #2
 800b970:	4605      	mov	r5, r0
 800b972:	0092      	lsls	r2, r2, #2
 800b974:	f107 010c 	add.w	r1, r7, #12
 800b978:	300c      	adds	r0, #12
 800b97a:	f000 f8d3 	bl	800bb24 <memcpy>
 800b97e:	2201      	movs	r2, #1
 800b980:	4629      	mov	r1, r5
 800b982:	4620      	mov	r0, r4
 800b984:	f7ff f8ba 	bl	800aafc <__lshift>
 800b988:	9b00      	ldr	r3, [sp, #0]
 800b98a:	f8dd 8008 	ldr.w	r8, [sp, #8]
 800b98e:	9703      	str	r7, [sp, #12]
 800b990:	f003 0301 	and.w	r3, r3, #1
 800b994:	4607      	mov	r7, r0
 800b996:	9305      	str	r3, [sp, #20]
 800b998:	4631      	mov	r1, r6
 800b99a:	4650      	mov	r0, sl
 800b99c:	f7ff fa60 	bl	800ae60 <quorem>
 800b9a0:	9903      	ldr	r1, [sp, #12]
 800b9a2:	4605      	mov	r5, r0
 800b9a4:	f100 0930 	add.w	r9, r0, #48	; 0x30
 800b9a8:	4650      	mov	r0, sl
 800b9aa:	f7ff f8f8 	bl	800ab9e <__mcmp>
 800b9ae:	463a      	mov	r2, r7
 800b9b0:	9000      	str	r0, [sp, #0]
 800b9b2:	4631      	mov	r1, r6
 800b9b4:	4620      	mov	r0, r4
 800b9b6:	f7ff f90c 	bl	800abd2 <__mdiff>
 800b9ba:	68c3      	ldr	r3, [r0, #12]
 800b9bc:	4602      	mov	r2, r0
 800b9be:	bb03      	cbnz	r3, 800ba02 <_dtoa_r+0xa8a>
 800b9c0:	4601      	mov	r1, r0
 800b9c2:	9006      	str	r0, [sp, #24]
 800b9c4:	4650      	mov	r0, sl
 800b9c6:	f7ff f8ea 	bl	800ab9e <__mcmp>
 800b9ca:	9a06      	ldr	r2, [sp, #24]
 800b9cc:	4603      	mov	r3, r0
 800b9ce:	4611      	mov	r1, r2
 800b9d0:	4620      	mov	r0, r4
 800b9d2:	9306      	str	r3, [sp, #24]
 800b9d4:	f7fe ff0e 	bl	800a7f4 <_Bfree>
 800b9d8:	9b06      	ldr	r3, [sp, #24]
 800b9da:	b9a3      	cbnz	r3, 800ba06 <_dtoa_r+0xa8e>
 800b9dc:	9a07      	ldr	r2, [sp, #28]
 800b9de:	b992      	cbnz	r2, 800ba06 <_dtoa_r+0xa8e>
 800b9e0:	9a05      	ldr	r2, [sp, #20]
 800b9e2:	b982      	cbnz	r2, 800ba06 <_dtoa_r+0xa8e>
 800b9e4:	f1b9 0f39 	cmp.w	r9, #57	; 0x39
 800b9e8:	d029      	beq.n	800ba3e <_dtoa_r+0xac6>
 800b9ea:	9b00      	ldr	r3, [sp, #0]
 800b9ec:	2b00      	cmp	r3, #0
 800b9ee:	dd01      	ble.n	800b9f4 <_dtoa_r+0xa7c>
 800b9f0:	f105 0931 	add.w	r9, r5, #49	; 0x31
 800b9f4:	f108 0501 	add.w	r5, r8, #1
 800b9f8:	f888 9000 	strb.w	r9, [r8]
 800b9fc:	e753      	b.n	800b8a6 <_dtoa_r+0x92e>
 800b9fe:	4638      	mov	r0, r7
 800ba00:	e7c2      	b.n	800b988 <_dtoa_r+0xa10>
 800ba02:	2301      	movs	r3, #1
 800ba04:	e7e3      	b.n	800b9ce <_dtoa_r+0xa56>
 800ba06:	9a00      	ldr	r2, [sp, #0]
 800ba08:	2a00      	cmp	r2, #0
 800ba0a:	db04      	blt.n	800ba16 <_dtoa_r+0xa9e>
 800ba0c:	d125      	bne.n	800ba5a <_dtoa_r+0xae2>
 800ba0e:	9a07      	ldr	r2, [sp, #28]
 800ba10:	bb1a      	cbnz	r2, 800ba5a <_dtoa_r+0xae2>
 800ba12:	9a05      	ldr	r2, [sp, #20]
 800ba14:	bb0a      	cbnz	r2, 800ba5a <_dtoa_r+0xae2>
 800ba16:	2b00      	cmp	r3, #0
 800ba18:	ddec      	ble.n	800b9f4 <_dtoa_r+0xa7c>
 800ba1a:	4651      	mov	r1, sl
 800ba1c:	2201      	movs	r2, #1
 800ba1e:	4620      	mov	r0, r4
 800ba20:	f7ff f86c 	bl	800aafc <__lshift>
 800ba24:	4631      	mov	r1, r6
 800ba26:	4682      	mov	sl, r0
 800ba28:	f7ff f8b9 	bl	800ab9e <__mcmp>
 800ba2c:	2800      	cmp	r0, #0
 800ba2e:	dc03      	bgt.n	800ba38 <_dtoa_r+0xac0>
 800ba30:	d1e0      	bne.n	800b9f4 <_dtoa_r+0xa7c>
 800ba32:	f019 0f01 	tst.w	r9, #1
 800ba36:	d0dd      	beq.n	800b9f4 <_dtoa_r+0xa7c>
 800ba38:	f1b9 0f39 	cmp.w	r9, #57	; 0x39
 800ba3c:	d1d8      	bne.n	800b9f0 <_dtoa_r+0xa78>
 800ba3e:	2339      	movs	r3, #57	; 0x39
 800ba40:	f888 3000 	strb.w	r3, [r8]
 800ba44:	f108 0801 	add.w	r8, r8, #1
 800ba48:	4645      	mov	r5, r8
 800ba4a:	f815 3c01 	ldrb.w	r3, [r5, #-1]
 800ba4e:	2b39      	cmp	r3, #57	; 0x39
 800ba50:	f105 32ff 	add.w	r2, r5, #4294967295
 800ba54:	d03b      	beq.n	800bace <_dtoa_r+0xb56>
 800ba56:	3301      	adds	r3, #1
 800ba58:	e040      	b.n	800badc <_dtoa_r+0xb64>
 800ba5a:	2b00      	cmp	r3, #0
 800ba5c:	f108 0501 	add.w	r5, r8, #1
 800ba60:	dd05      	ble.n	800ba6e <_dtoa_r+0xaf6>
 800ba62:	f1b9 0f39 	cmp.w	r9, #57	; 0x39
 800ba66:	d0ea      	beq.n	800ba3e <_dtoa_r+0xac6>
 800ba68:	f109 0901 	add.w	r9, r9, #1
 800ba6c:	e7c4      	b.n	800b9f8 <_dtoa_r+0xa80>
 800ba6e:	9b02      	ldr	r3, [sp, #8]
 800ba70:	9a04      	ldr	r2, [sp, #16]
 800ba72:	f805 9c01 	strb.w	r9, [r5, #-1]
 800ba76:	1aeb      	subs	r3, r5, r3
 800ba78:	4293      	cmp	r3, r2
 800ba7a:	46a8      	mov	r8, r5
 800ba7c:	f43f af4b 	beq.w	800b916 <_dtoa_r+0x99e>
 800ba80:	4651      	mov	r1, sl
 800ba82:	2300      	movs	r3, #0
 800ba84:	220a      	movs	r2, #10
 800ba86:	4620      	mov	r0, r4
 800ba88:	f7fe fecb 	bl	800a822 <__multadd>
 800ba8c:	9b03      	ldr	r3, [sp, #12]
 800ba8e:	9903      	ldr	r1, [sp, #12]
 800ba90:	42bb      	cmp	r3, r7
 800ba92:	4682      	mov	sl, r0
 800ba94:	f04f 0300 	mov.w	r3, #0
 800ba98:	f04f 020a 	mov.w	r2, #10
 800ba9c:	4620      	mov	r0, r4
 800ba9e:	d104      	bne.n	800baaa <_dtoa_r+0xb32>
 800baa0:	f7fe febf 	bl	800a822 <__multadd>
 800baa4:	9003      	str	r0, [sp, #12]
 800baa6:	4607      	mov	r7, r0
 800baa8:	e776      	b.n	800b998 <_dtoa_r+0xa20>
 800baaa:	f7fe feba 	bl	800a822 <__multadd>
 800baae:	2300      	movs	r3, #0
 800bab0:	9003      	str	r0, [sp, #12]
 800bab2:	220a      	movs	r2, #10
 800bab4:	4639      	mov	r1, r7
 800bab6:	4620      	mov	r0, r4
 800bab8:	f7fe feb3 	bl	800a822 <__multadd>
 800babc:	e7f3      	b.n	800baa6 <_dtoa_r+0xb2e>
 800babe:	4651      	mov	r1, sl
 800bac0:	2300      	movs	r3, #0
 800bac2:	220a      	movs	r2, #10
 800bac4:	4620      	mov	r0, r4
 800bac6:	f7fe feac 	bl	800a822 <__multadd>
 800baca:	4682      	mov	sl, r0
 800bacc:	e70d      	b.n	800b8ea <_dtoa_r+0x972>
 800bace:	9b02      	ldr	r3, [sp, #8]
 800bad0:	4293      	cmp	r3, r2
 800bad2:	d105      	bne.n	800bae0 <_dtoa_r+0xb68>
 800bad4:	9a02      	ldr	r2, [sp, #8]
 800bad6:	f10b 0b01 	add.w	fp, fp, #1
 800bada:	2331      	movs	r3, #49	; 0x31
 800badc:	7013      	strb	r3, [r2, #0]
 800bade:	e6e2      	b.n	800b8a6 <_dtoa_r+0x92e>
 800bae0:	4615      	mov	r5, r2
 800bae2:	e7b2      	b.n	800ba4a <_dtoa_r+0xad2>
 800bae4:	4b09      	ldr	r3, [pc, #36]	; (800bb0c <_dtoa_r+0xb94>)
 800bae6:	f7ff baae 	b.w	800b046 <_dtoa_r+0xce>
 800baea:	9b21      	ldr	r3, [sp, #132]	; 0x84
 800baec:	2b00      	cmp	r3, #0
 800baee:	f47f aa88 	bne.w	800b002 <_dtoa_r+0x8a>
 800baf2:	4b07      	ldr	r3, [pc, #28]	; (800bb10 <_dtoa_r+0xb98>)
 800baf4:	f7ff baa7 	b.w	800b046 <_dtoa_r+0xce>
 800baf8:	9b04      	ldr	r3, [sp, #16]
 800bafa:	2b00      	cmp	r3, #0
 800bafc:	f73f aef4 	bgt.w	800b8e8 <_dtoa_r+0x970>
 800bb00:	9b07      	ldr	r3, [sp, #28]
 800bb02:	2b02      	cmp	r3, #2
 800bb04:	f77f aef0 	ble.w	800b8e8 <_dtoa_r+0x970>
 800bb08:	e6b8      	b.n	800b87c <_dtoa_r+0x904>
 800bb0a:	bf00      	nop
 800bb0c:	0802e141 	.word	0x0802e141
 800bb10:	0802e134 	.word	0x0802e134

0800bb14 <malloc>:
 800bb14:	4b02      	ldr	r3, [pc, #8]	; (800bb20 <malloc+0xc>)
 800bb16:	4601      	mov	r1, r0
 800bb18:	6818      	ldr	r0, [r3, #0]
 800bb1a:	f7ff b933 	b.w	800ad84 <_malloc_r>
 800bb1e:	bf00      	nop
 800bb20:	2000002c 	.word	0x2000002c

0800bb24 <memcpy>:
 800bb24:	b510      	push	{r4, lr}
 800bb26:	1e43      	subs	r3, r0, #1
 800bb28:	440a      	add	r2, r1
 800bb2a:	4291      	cmp	r1, r2
 800bb2c:	d100      	bne.n	800bb30 <memcpy+0xc>
 800bb2e:	bd10      	pop	{r4, pc}
 800bb30:	f811 4b01 	ldrb.w	r4, [r1], #1
 800bb34:	f803 4f01 	strb.w	r4, [r3, #1]!
 800bb38:	e7f7      	b.n	800bb2a <memcpy+0x6>

0800bb3a <__malloc_lock>:
 800bb3a:	4770      	bx	lr

0800bb3c <__malloc_unlock>:
 800bb3c:	4770      	bx	lr
	...

0800bb40 <ceil>:
 800bb40:	ec51 0b10 	vmov	r0, r1, d0
 800bb44:	e92d 41f0 	stmdb	sp!, {r4, r5, r6, r7, r8, lr}
 800bb48:	f3c1 570a 	ubfx	r7, r1, #20, #11
 800bb4c:	f2a7 36ff 	subw	r6, r7, #1023	; 0x3ff
 800bb50:	2e13      	cmp	r6, #19
 800bb52:	ee10 8a10 	vmov	r8, s0
 800bb56:	460c      	mov	r4, r1
 800bb58:	ee10 5a10 	vmov	r5, s0
 800bb5c:	dc31      	bgt.n	800bbc2 <ceil+0x82>
 800bb5e:	2e00      	cmp	r6, #0
 800bb60:	da13      	bge.n	800bb8a <ceil+0x4a>
 800bb62:	a335      	add	r3, pc, #212	; (adr r3, 800bc38 <ceil+0xf8>)
 800bb64:	e9d3 2300 	ldrd	r2, r3, [r3]
 800bb68:	f7f4 fb5c 	bl	8000224 <__adddf3>
 800bb6c:	2200      	movs	r2, #0
 800bb6e:	2300      	movs	r3, #0
 800bb70:	f7f4 ff9a 	bl	8000aa8 <__aeabi_dcmpgt>
 800bb74:	b130      	cbz	r0, 800bb84 <ceil+0x44>
 800bb76:	2c00      	cmp	r4, #0
 800bb78:	db56      	blt.n	800bc28 <ceil+0xe8>
 800bb7a:	ea54 0408 	orrs.w	r4, r4, r8
 800bb7e:	d057      	beq.n	800bc30 <ceil+0xf0>
 800bb80:	4c2f      	ldr	r4, [pc, #188]	; (800bc40 <ceil+0x100>)
 800bb82:	2500      	movs	r5, #0
 800bb84:	4621      	mov	r1, r4
 800bb86:	4628      	mov	r0, r5
 800bb88:	e025      	b.n	800bbd6 <ceil+0x96>
 800bb8a:	4f2e      	ldr	r7, [pc, #184]	; (800bc44 <ceil+0x104>)
 800bb8c:	4137      	asrs	r7, r6
 800bb8e:	ea01 0307 	and.w	r3, r1, r7
 800bb92:	4303      	orrs	r3, r0
 800bb94:	d01f      	beq.n	800bbd6 <ceil+0x96>
 800bb96:	a328      	add	r3, pc, #160	; (adr r3, 800bc38 <ceil+0xf8>)
 800bb98:	e9d3 2300 	ldrd	r2, r3, [r3]
 800bb9c:	f7f4 fb42 	bl	8000224 <__adddf3>
 800bba0:	2200      	movs	r2, #0
 800bba2:	2300      	movs	r3, #0
 800bba4:	f7f4 ff80 	bl	8000aa8 <__aeabi_dcmpgt>
 800bba8:	2800      	cmp	r0, #0
 800bbaa:	d0eb      	beq.n	800bb84 <ceil+0x44>
 800bbac:	2c00      	cmp	r4, #0
 800bbae:	bfc2      	ittt	gt
 800bbb0:	f44f 1380 	movgt.w	r3, #1048576	; 0x100000
 800bbb4:	fa43 f606 	asrgt.w	r6, r3, r6
 800bbb8:	19a4      	addgt	r4, r4, r6
 800bbba:	ea24 0407 	bic.w	r4, r4, r7
 800bbbe:	2500      	movs	r5, #0
 800bbc0:	e7e0      	b.n	800bb84 <ceil+0x44>
 800bbc2:	2e33      	cmp	r6, #51	; 0x33
 800bbc4:	dd0b      	ble.n	800bbde <ceil+0x9e>
 800bbc6:	f5b6 6f80 	cmp.w	r6, #1024	; 0x400
 800bbca:	d104      	bne.n	800bbd6 <ceil+0x96>
 800bbcc:	ee10 2a10 	vmov	r2, s0
 800bbd0:	460b      	mov	r3, r1
 800bbd2:	f7f4 fb27 	bl	8000224 <__adddf3>
 800bbd6:	ec41 0b10 	vmov	d0, r0, r1
 800bbda:	e8bd 81f0 	ldmia.w	sp!, {r4, r5, r6, r7, r8, pc}
 800bbde:	f2a7 4713 	subw	r7, r7, #1043	; 0x413
 800bbe2:	f04f 33ff 	mov.w	r3, #4294967295
 800bbe6:	fa23 f707 	lsr.w	r7, r3, r7
 800bbea:	4238      	tst	r0, r7
 800bbec:	d0f3      	beq.n	800bbd6 <ceil+0x96>
 800bbee:	a312      	add	r3, pc, #72	; (adr r3, 800bc38 <ceil+0xf8>)
 800bbf0:	e9d3 2300 	ldrd	r2, r3, [r3]
 800bbf4:	f7f4 fb16 	bl	8000224 <__adddf3>
 800bbf8:	2200      	movs	r2, #0
 800bbfa:	2300      	movs	r3, #0
 800bbfc:	f7f4 ff54 	bl	8000aa8 <__aeabi_dcmpgt>
 800bc00:	2800      	cmp	r0, #0
 800bc02:	d0bf      	beq.n	800bb84 <ceil+0x44>
 800bc04:	2c00      	cmp	r4, #0
 800bc06:	dd02      	ble.n	800bc0e <ceil+0xce>
 800bc08:	2e14      	cmp	r6, #20
 800bc0a:	d103      	bne.n	800bc14 <ceil+0xd4>
 800bc0c:	3401      	adds	r4, #1
 800bc0e:	ea25 0507 	bic.w	r5, r5, r7
 800bc12:	e7b7      	b.n	800bb84 <ceil+0x44>
 800bc14:	2301      	movs	r3, #1
 800bc16:	f1c6 0634 	rsb	r6, r6, #52	; 0x34
 800bc1a:	fa03 f606 	lsl.w	r6, r3, r6
 800bc1e:	4435      	add	r5, r6
 800bc20:	45a8      	cmp	r8, r5
 800bc22:	bf88      	it	hi
 800bc24:	18e4      	addhi	r4, r4, r3
 800bc26:	e7f2      	b.n	800bc0e <ceil+0xce>
 800bc28:	2500      	movs	r5, #0
 800bc2a:	f04f 4400 	mov.w	r4, #2147483648	; 0x80000000
 800bc2e:	e7a9      	b.n	800bb84 <ceil+0x44>
 800bc30:	4625      	mov	r5, r4
 800bc32:	e7a7      	b.n	800bb84 <ceil+0x44>
 800bc34:	f3af 8000 	nop.w
 800bc38:	8800759c 	.word	0x8800759c
 800bc3c:	7e37e43c 	.word	0x7e37e43c
 800bc40:	3ff00000 	.word	0x3ff00000
 800bc44:	000fffff 	.word	0x000fffff

0800bc48 <floor>:
 800bc48:	ec51 0b10 	vmov	r0, r1, d0
 800bc4c:	e92d 41f0 	stmdb	sp!, {r4, r5, r6, r7, r8, lr}
 800bc50:	f3c1 570a 	ubfx	r7, r1, #20, #11
 800bc54:	f2a7 36ff 	subw	r6, r7, #1023	; 0x3ff
 800bc58:	2e13      	cmp	r6, #19
 800bc5a:	ee10 8a10 	vmov	r8, s0
 800bc5e:	460c      	mov	r4, r1
 800bc60:	ee10 5a10 	vmov	r5, s0
 800bc64:	dc35      	bgt.n	800bcd2 <floor+0x8a>
 800bc66:	2e00      	cmp	r6, #0
 800bc68:	da17      	bge.n	800bc9a <floor+0x52>
 800bc6a:	a335      	add	r3, pc, #212	; (adr r3, 800bd40 <floor+0xf8>)
 800bc6c:	e9d3 2300 	ldrd	r2, r3, [r3]
 800bc70:	f7f4 fad8 	bl	8000224 <__adddf3>
 800bc74:	2200      	movs	r2, #0
 800bc76:	2300      	movs	r3, #0
 800bc78:	f7f4 ff16 	bl	8000aa8 <__aeabi_dcmpgt>
 800bc7c:	b150      	cbz	r0, 800bc94 <floor+0x4c>
 800bc7e:	2c00      	cmp	r4, #0
 800bc80:	da5a      	bge.n	800bd38 <floor+0xf0>
 800bc82:	f024 4300 	bic.w	r3, r4, #2147483648	; 0x80000000
 800bc86:	ea53 0308 	orrs.w	r3, r3, r8
 800bc8a:	4b2f      	ldr	r3, [pc, #188]	; (800bd48 <floor+0x100>)
 800bc8c:	f04f 0500 	mov.w	r5, #0
 800bc90:	bf18      	it	ne
 800bc92:	461c      	movne	r4, r3
 800bc94:	4621      	mov	r1, r4
 800bc96:	4628      	mov	r0, r5
 800bc98:	e025      	b.n	800bce6 <floor+0x9e>
 800bc9a:	4f2c      	ldr	r7, [pc, #176]	; (800bd4c <floor+0x104>)
 800bc9c:	4137      	asrs	r7, r6
 800bc9e:	ea01 0307 	and.w	r3, r1, r7
 800bca2:	4303      	orrs	r3, r0
 800bca4:	d01f      	beq.n	800bce6 <floor+0x9e>
 800bca6:	a326      	add	r3, pc, #152	; (adr r3, 800bd40 <floor+0xf8>)
 800bca8:	e9d3 2300 	ldrd	r2, r3, [r3]
 800bcac:	f7f4 faba 	bl	8000224 <__adddf3>
 800bcb0:	2200      	movs	r2, #0
 800bcb2:	2300      	movs	r3, #0
 800bcb4:	f7f4 fef8 	bl	8000aa8 <__aeabi_dcmpgt>
 800bcb8:	2800      	cmp	r0, #0
 800bcba:	d0eb      	beq.n	800bc94 <floor+0x4c>
 800bcbc:	2c00      	cmp	r4, #0
 800bcbe:	bfbe      	ittt	lt
 800bcc0:	f44f 1380 	movlt.w	r3, #1048576	; 0x100000
 800bcc4:	fa43 f606 	asrlt.w	r6, r3, r6
 800bcc8:	19a4      	addlt	r4, r4, r6
 800bcca:	ea24 0407 	bic.w	r4, r4, r7
 800bcce:	2500      	movs	r5, #0
 800bcd0:	e7e0      	b.n	800bc94 <floor+0x4c>
 800bcd2:	2e33      	cmp	r6, #51	; 0x33
 800bcd4:	dd0b      	ble.n	800bcee <floor+0xa6>
 800bcd6:	f5b6 6f80 	cmp.w	r6, #1024	; 0x400
 800bcda:	d104      	bne.n	800bce6 <floor+0x9e>
 800bcdc:	ee10 2a10 	vmov	r2, s0
 800bce0:	460b      	mov	r3, r1
 800bce2:	f7f4 fa9f 	bl	8000224 <__adddf3>
 800bce6:	ec41 0b10 	vmov	d0, r0, r1
 800bcea:	e8bd 81f0 	ldmia.w	sp!, {r4, r5, r6, r7, r8, pc}
 800bcee:	f2a7 4713 	subw	r7, r7, #1043	; 0x413
 800bcf2:	f04f 33ff 	mov.w	r3, #4294967295
 800bcf6:	fa23 f707 	lsr.w	r7, r3, r7
 800bcfa:	4238      	tst	r0, r7
 800bcfc:	d0f3      	beq.n	800bce6 <floor+0x9e>
 800bcfe:	a310      	add	r3, pc, #64	; (adr r3, 800bd40 <floor+0xf8>)
 800bd00:	e9d3 2300 	ldrd	r2, r3, [r3]
 800bd04:	f7f4 fa8e 	bl	8000224 <__adddf3>
 800bd08:	2200      	movs	r2, #0
 800bd0a:	2300      	movs	r3, #0
 800bd0c:	f7f4 fecc 	bl	8000aa8 <__aeabi_dcmpgt>
 800bd10:	2800      	cmp	r0, #0
 800bd12:	d0bf      	beq.n	800bc94 <floor+0x4c>
 800bd14:	2c00      	cmp	r4, #0
 800bd16:	da02      	bge.n	800bd1e <floor+0xd6>
 800bd18:	2e14      	cmp	r6, #20
 800bd1a:	d103      	bne.n	800bd24 <floor+0xdc>
 800bd1c:	3401      	adds	r4, #1
 800bd1e:	ea25 0507 	bic.w	r5, r5, r7
 800bd22:	e7b7      	b.n	800bc94 <floor+0x4c>
 800bd24:	2301      	movs	r3, #1
 800bd26:	f1c6 0634 	rsb	r6, r6, #52	; 0x34
 800bd2a:	fa03 f606 	lsl.w	r6, r3, r6
 800bd2e:	4435      	add	r5, r6
 800bd30:	45a8      	cmp	r8, r5
 800bd32:	bf88      	it	hi
 800bd34:	18e4      	addhi	r4, r4, r3
 800bd36:	e7f2      	b.n	800bd1e <floor+0xd6>
 800bd38:	2500      	movs	r5, #0
 800bd3a:	462c      	mov	r4, r5
 800bd3c:	e7aa      	b.n	800bc94 <floor+0x4c>
 800bd3e:	bf00      	nop
 800bd40:	8800759c 	.word	0x8800759c
 800bd44:	7e37e43c 	.word	0x7e37e43c
 800bd48:	bff00000 	.word	0xbff00000
 800bd4c:	000fffff 	.word	0x000fffff

0800bd50 <round>:
 800bd50:	ec51 0b10 	vmov	r0, r1, d0
 800bd54:	b5f8      	push	{r3, r4, r5, r6, r7, lr}
 800bd56:	f3c1 550a 	ubfx	r5, r1, #20, #11
 800bd5a:	f2a5 34ff 	subw	r4, r5, #1023	; 0x3ff
 800bd5e:	2c13      	cmp	r4, #19
 800bd60:	460b      	mov	r3, r1
 800bd62:	460f      	mov	r7, r1
 800bd64:	dc17      	bgt.n	800bd96 <round+0x46>
 800bd66:	2c00      	cmp	r4, #0
 800bd68:	da09      	bge.n	800bd7e <round+0x2e>
 800bd6a:	3401      	adds	r4, #1
 800bd6c:	f001 4300 	and.w	r3, r1, #2147483648	; 0x80000000
 800bd70:	d103      	bne.n	800bd7a <round+0x2a>
 800bd72:	f043 537f 	orr.w	r3, r3, #1069547520	; 0x3fc00000
 800bd76:	f443 1340 	orr.w	r3, r3, #3145728	; 0x300000
 800bd7a:	2100      	movs	r1, #0
 800bd7c:	e028      	b.n	800bdd0 <round+0x80>
 800bd7e:	4a16      	ldr	r2, [pc, #88]	; (800bdd8 <round+0x88>)
 800bd80:	4122      	asrs	r2, r4
 800bd82:	4211      	tst	r1, r2
 800bd84:	d100      	bne.n	800bd88 <round+0x38>
 800bd86:	b180      	cbz	r0, 800bdaa <round+0x5a>
 800bd88:	f44f 2300 	mov.w	r3, #524288	; 0x80000
 800bd8c:	4123      	asrs	r3, r4
 800bd8e:	443b      	add	r3, r7
 800bd90:	ea23 0302 	bic.w	r3, r3, r2
 800bd94:	e7f1      	b.n	800bd7a <round+0x2a>
 800bd96:	2c33      	cmp	r4, #51	; 0x33
 800bd98:	dd0a      	ble.n	800bdb0 <round+0x60>
 800bd9a:	f5b4 6f80 	cmp.w	r4, #1024	; 0x400
 800bd9e:	d104      	bne.n	800bdaa <round+0x5a>
 800bda0:	ee10 2a10 	vmov	r2, s0
 800bda4:	460b      	mov	r3, r1
 800bda6:	f7f4 fa3d 	bl	8000224 <__adddf3>
 800bdaa:	ec41 0b10 	vmov	d0, r0, r1
 800bdae:	bdf8      	pop	{r3, r4, r5, r6, r7, pc}
 800bdb0:	f2a5 4213 	subw	r2, r5, #1043	; 0x413
 800bdb4:	f04f 35ff 	mov.w	r5, #4294967295
 800bdb8:	40d5      	lsrs	r5, r2
 800bdba:	4228      	tst	r0, r5
 800bdbc:	d0f5      	beq.n	800bdaa <round+0x5a>
 800bdbe:	f1c4 0433 	rsb	r4, r4, #51	; 0x33
 800bdc2:	2201      	movs	r2, #1
 800bdc4:	40a2      	lsls	r2, r4
 800bdc6:	1812      	adds	r2, r2, r0
 800bdc8:	bf28      	it	cs
 800bdca:	3301      	addcs	r3, #1
 800bdcc:	ea22 0105 	bic.w	r1, r2, r5
 800bdd0:	4608      	mov	r0, r1
 800bdd2:	4619      	mov	r1, r3
 800bdd4:	e7e9      	b.n	800bdaa <round+0x5a>
 800bdd6:	bf00      	nop
 800bdd8:	000fffff 	.word	0x000fffff

0800bddc <sqrtf>:
 800bddc:	b510      	push	{r4, lr}
 800bdde:	ed2d 8b02 	vpush	{d8}
 800bde2:	b08a      	sub	sp, #40	; 0x28
 800bde4:	eeb0 8a40 	vmov.f32	s16, s0
 800bde8:	f000 f848 	bl	800be7c <__ieee754_sqrtf>
 800bdec:	4b21      	ldr	r3, [pc, #132]	; (800be74 <sqrtf+0x98>)
 800bdee:	f993 4000 	ldrsb.w	r4, [r3]
 800bdf2:	1c63      	adds	r3, r4, #1
 800bdf4:	d02c      	beq.n	800be50 <sqrtf+0x74>
 800bdf6:	eeb4 8a48 	vcmp.f32	s16, s16
 800bdfa:	eef1 fa10 	vmrs	APSR_nzcv, fpscr
 800bdfe:	d627      	bvs.n	800be50 <sqrtf+0x74>
 800be00:	eeb5 8ac0 	vcmpe.f32	s16, #0.0
 800be04:	eef1 fa10 	vmrs	APSR_nzcv, fpscr
 800be08:	d522      	bpl.n	800be50 <sqrtf+0x74>
 800be0a:	2301      	movs	r3, #1
 800be0c:	9300      	str	r3, [sp, #0]
 800be0e:	4b1a      	ldr	r3, [pc, #104]	; (800be78 <sqrtf+0x9c>)
 800be10:	9301      	str	r3, [sp, #4]
 800be12:	ee18 0a10 	vmov	r0, s16
 800be16:	2300      	movs	r3, #0
 800be18:	9308      	str	r3, [sp, #32]
 800be1a:	f7f4 fb61 	bl	80004e0 <__aeabi_f2d>
 800be1e:	2200      	movs	r2, #0
 800be20:	e9cd 0104 	strd	r0, r1, [sp, #16]
 800be24:	e9cd 0102 	strd	r0, r1, [sp, #8]
 800be28:	2300      	movs	r3, #0
 800be2a:	b9ac      	cbnz	r4, 800be58 <sqrtf+0x7c>
 800be2c:	e9cd 2306 	strd	r2, r3, [sp, #24]
 800be30:	4668      	mov	r0, sp
 800be32:	f000 f86a 	bl	800bf0a <matherr>
 800be36:	b1b8      	cbz	r0, 800be68 <sqrtf+0x8c>
 800be38:	9b08      	ldr	r3, [sp, #32]
 800be3a:	b11b      	cbz	r3, 800be44 <sqrtf+0x68>
 800be3c:	f000 f868 	bl	800bf10 <__errno>
 800be40:	9b08      	ldr	r3, [sp, #32]
 800be42:	6003      	str	r3, [r0, #0]
 800be44:	e9dd 0106 	ldrd	r0, r1, [sp, #24]
 800be48:	f7f4 fe80 	bl	8000b4c <__aeabi_d2f>
 800be4c:	ee00 0a10 	vmov	s0, r0
 800be50:	b00a      	add	sp, #40	; 0x28
 800be52:	ecbd 8b02 	vpop	{d8}
 800be56:	bd10      	pop	{r4, pc}
 800be58:	4610      	mov	r0, r2
 800be5a:	4619      	mov	r1, r3
 800be5c:	f7f4 fcbe 	bl	80007dc <__aeabi_ddiv>
 800be60:	2c02      	cmp	r4, #2
 800be62:	e9cd 0106 	strd	r0, r1, [sp, #24]
 800be66:	d1e3      	bne.n	800be30 <sqrtf+0x54>
 800be68:	f000 f852 	bl	800bf10 <__errno>
 800be6c:	2321      	movs	r3, #33	; 0x21
 800be6e:	6003      	str	r3, [r0, #0]
 800be70:	e7e2      	b.n	800be38 <sqrtf+0x5c>
 800be72:	bf00      	nop
 800be74:	20000090 	.word	0x20000090
 800be78:	0802e143 	.word	0x0802e143

0800be7c <__ieee754_sqrtf>:
 800be7c:	ee10 2a10 	vmov	r2, s0
 800be80:	f022 4100 	bic.w	r1, r2, #2147483648	; 0x80000000
 800be84:	f1b1 4fff 	cmp.w	r1, #2139095040	; 0x7f800000
 800be88:	b570      	push	{r4, r5, r6, lr}
 800be8a:	d302      	bcc.n	800be92 <__ieee754_sqrtf+0x16>
 800be8c:	eea0 0a00 	vfma.f32	s0, s0, s0
 800be90:	bd70      	pop	{r4, r5, r6, pc}
 800be92:	b3b1      	cbz	r1, 800bf02 <__ieee754_sqrtf+0x86>
 800be94:	2a00      	cmp	r2, #0
 800be96:	da04      	bge.n	800bea2 <__ieee754_sqrtf+0x26>
 800be98:	ee70 7a40 	vsub.f32	s15, s0, s0
 800be9c:	ee87 0aa7 	vdiv.f32	s0, s15, s15
 800bea0:	bd70      	pop	{r4, r5, r6, pc}
 800bea2:	f5b1 0f00 	cmp.w	r1, #8388608	; 0x800000
 800bea6:	ea4f 53e2 	mov.w	r3, r2, asr #23
 800beaa:	d204      	bcs.n	800beb6 <__ieee754_sqrtf+0x3a>
 800beac:	2100      	movs	r1, #0
 800beae:	0210      	lsls	r0, r2, #8
 800beb0:	d528      	bpl.n	800bf04 <__ieee754_sqrtf+0x88>
 800beb2:	3901      	subs	r1, #1
 800beb4:	1a5b      	subs	r3, r3, r1
 800beb6:	3b7f      	subs	r3, #127	; 0x7f
 800beb8:	f3c2 0216 	ubfx	r2, r2, #0, #23
 800bebc:	07d9      	lsls	r1, r3, #31
 800bebe:	f442 0200 	orr.w	r2, r2, #8388608	; 0x800000
 800bec2:	bf48      	it	mi
 800bec4:	0052      	lslmi	r2, r2, #1
 800bec6:	1059      	asrs	r1, r3, #1
 800bec8:	2300      	movs	r3, #0
 800beca:	0052      	lsls	r2, r2, #1
 800becc:	2419      	movs	r4, #25
 800bece:	461e      	mov	r6, r3
 800bed0:	f04f 7080 	mov.w	r0, #16777216	; 0x1000000
 800bed4:	1835      	adds	r5, r6, r0
 800bed6:	4295      	cmp	r5, r2
 800bed8:	bfde      	ittt	le
 800beda:	182e      	addle	r6, r5, r0
 800bedc:	1b52      	suble	r2, r2, r5
 800bede:	181b      	addle	r3, r3, r0
 800bee0:	3c01      	subs	r4, #1
 800bee2:	ea4f 0242 	mov.w	r2, r2, lsl #1
 800bee6:	ea4f 0050 	mov.w	r0, r0, lsr #1
 800beea:	d1f3      	bne.n	800bed4 <__ieee754_sqrtf+0x58>
 800beec:	b112      	cbz	r2, 800bef4 <__ieee754_sqrtf+0x78>
 800beee:	3301      	adds	r3, #1
 800bef0:	f023 0301 	bic.w	r3, r3, #1
 800bef4:	105b      	asrs	r3, r3, #1
 800bef6:	f103 537c 	add.w	r3, r3, #1056964608	; 0x3f000000
 800befa:	eb03 53c1 	add.w	r3, r3, r1, lsl #23
 800befe:	ee00 3a10 	vmov	s0, r3
 800bf02:	bd70      	pop	{r4, r5, r6, pc}
 800bf04:	0052      	lsls	r2, r2, #1
 800bf06:	3101      	adds	r1, #1
 800bf08:	e7d1      	b.n	800beae <__ieee754_sqrtf+0x32>

0800bf0a <matherr>:
 800bf0a:	2000      	movs	r0, #0
 800bf0c:	4770      	bx	lr
	...

0800bf10 <__errno>:
 800bf10:	4b01      	ldr	r3, [pc, #4]	; (800bf18 <__errno+0x8>)
 800bf12:	6818      	ldr	r0, [r3, #0]
 800bf14:	4770      	bx	lr
 800bf16:	bf00      	nop
 800bf18:	2000002c 	.word	0x2000002c

0800bf1c <_sbrk>:
 800bf1c:	4b04      	ldr	r3, [pc, #16]	; (800bf30 <_sbrk+0x14>)
 800bf1e:	6819      	ldr	r1, [r3, #0]
 800bf20:	4602      	mov	r2, r0
 800bf22:	b909      	cbnz	r1, 800bf28 <_sbrk+0xc>
 800bf24:	4903      	ldr	r1, [pc, #12]	; (800bf34 <_sbrk+0x18>)
 800bf26:	6019      	str	r1, [r3, #0]
 800bf28:	6818      	ldr	r0, [r3, #0]
 800bf2a:	4402      	add	r2, r0
 800bf2c:	601a      	str	r2, [r3, #0]
 800bf2e:	4770      	bx	lr
 800bf30:	2000016c 	.word	0x2000016c
 800bf34:	20003b80 	.word	0x20003b80

0800bf38 <_init>:
 800bf38:	b5f8      	push	{r3, r4, r5, r6, r7, lr}
 800bf3a:	bf00      	nop
 800bf3c:	bcf8      	pop	{r3, r4, r5, r6, r7}
 800bf3e:	bc08      	pop	{r3}
 800bf40:	469e      	mov	lr, r3
 800bf42:	4770      	bx	lr

0800bf44 <_fini>:
 800bf44:	b5f8      	push	{r3, r4, r5, r6, r7, lr}
 800bf46:	bf00      	nop
 800bf48:	bcf8      	pop	{r3, r4, r5, r6, r7}
 800bf4a:	bc08      	pop	{r3}
 800bf4c:	469e      	mov	lr, r3
 800bf4e:	4770      	bx	lr
